Archive member included to satisfy reference by file (symbol)

C:/Applications/Microchip/XC32/bin/bin/../../lib/gcc/pic32c/13.2.1/../../../../pic32c/lib/thumb/v6-m/nofp\libpic32c.a(data_init.o)
                              build/default/production/_ext/1171490990/startup_xc32.o (__pic32c_data_initialization)
C:/Applications/Microchip/XC32/bin/bin/../../lib/gcc/pic32c/13.2.1/../../../../pic32c/lib/thumb/v6-m/nofp\libc-size-musl.a(memcmp.o)
                              build/default/production/_ext/1857064221/winc_dev.o (memcmp)
C:/Applications/Microchip/XC32/bin/bin/../../lib/gcc/pic32c/13.2.1/../../../../pic32c/lib/thumb/v6-m/nofp\libc-size-musl.a(memcpy.o)
                              build/default/production/_ext/622324608/wdrv_winc_spi.o (memcpy)
C:/Applications/Microchip/XC32/bin/bin/../../lib/gcc/pic32c/13.2.1/../../../../pic32c/lib/thumb/v6-m/nofp\libc-size-musl.a(memmove.o)
                              build/default/production/_ext/1857064221/winc_socket.o (memmove)
C:/Applications/Microchip/XC32/bin/bin/../../lib/gcc/pic32c/13.2.1/../../../../pic32c/lib/thumb/v6-m/nofp\libc-size-musl.a(memset.o)
                              build/default/production/_ext/1857064221/winc_cmds.o (memset)
C:/Applications/Microchip/XC32/bin/bin/../../lib/gcc/pic32c/13.2.1/../../../../pic32c/lib/thumb/v6-m/nofp\libc-size-musl.a(strlen.o)
                              build/default/production/_ext/1857064221/winc_socket.o (strlen)
C:/Applications/Microchip/XC32/bin/bin/../../lib/gcc/pic32c/13.2.1/../../../../pic32c/lib/thumb/v6-m/nofp\libc-size-musl.a(strstr.o)
                              build/default/production/_ext/634868841/sys_wincs_wifi_service.o (strstr)
C:/Applications/Microchip/XC32/bin/bin/../../lib/gcc/pic32c/13.2.1/../../../../pic32c/lib/thumb/v6-m/nofp\libc-size-musl.a(strchr.o)
                              build/default/production/_ext/1706628858/wdrv_winc_ota.o (strchr)
C:/Applications/Microchip/XC32/bin/bin/../../lib/gcc/pic32c/13.2.1/../../../../pic32c/lib/thumb/v6-m/nofp\libc-size-musl.a(strchrnul.o)
                              C:/Applications/Microchip/XC32/bin/bin/../../lib/gcc/pic32c/13.2.1/../../../../pic32c/lib/thumb/v6-m/nofp\libc-size-musl.a(strchr.o) (__strchrnul)
C:/Applications/Microchip/XC32/bin/bin/../../lib/gcc/pic32c/13.2.1/../../../../pic32c/lib/thumb/v6-m/nofp\libc-size-musl.a(strcpy.o)
                              build/default/production/_ext/1857064221/winc_socket.o (strcpy)
C:/Applications/Microchip/XC32/bin/bin/../../lib/gcc/pic32c/13.2.1/../../../../pic32c/lib/thumb/v6-m/nofp\libc-size-musl.a(strncmp.o)
                              build/default/production/_ext/1857064221/winc_tables.o (strncmp)
C:/Applications/Microchip/XC32/bin/bin/../../lib/gcc/pic32c/13.2.1/../../../../pic32c/lib/thumb/v6-m/nofp\libc-size-musl.a(strncpy.o)
                              build/default/production/_ext/1706628858/wdrv_winc_utils.o (strncpy)
C:/Applications/Microchip/XC32/bin/bin/../../lib/gcc/pic32c/13.2.1/../../../../pic32c/lib/thumb/v6-m/nofp\libc-size-musl.a(strnlen.o)
                              build/default/production/_ext/1857064221/winc_socket.o (strnlen)
C:/Applications/Microchip/XC32/bin/bin/../../lib/gcc/pic32c/13.2.1/../../../../pic32c/lib/thumb/v6-m/nofp\libc-size-musl.a(strrchr.o)
                              build/default/production/_ext/1706628858/wdrv_winc_ota.o (strrchr)
C:/Applications/Microchip/XC32/bin/bin/../../lib/gcc/pic32c/13.2.1/../../../../pic32c/lib/thumb/v6-m/nofp\libc-size-musl.a(strspn.o)
                              build/default/production/_ext/1857064221/winc_socket.o (strspn)
C:/Applications/Microchip/XC32/bin/bin/../../lib/gcc/pic32c/13.2.1/../../../../pic32c/lib/thumb/v6-m/nofp\libc-size-musl.a(memrchr.o)
                              C:/Applications/Microchip/XC32/bin/bin/../../lib/gcc/pic32c/13.2.1/../../../../pic32c/lib/thumb/v6-m/nofp\libc-size-musl.a(strrchr.o) (__memrchr)
C:/Applications/Microchip/XC32/bin/bin/../../lib/gcc/pic32c/13.2.1/../../../../pic32c/lib/thumb/v6-m/nofp\libc-size-musl.a(memchr.o)
                              C:/Applications/Microchip/XC32/bin/bin/../../lib/gcc/pic32c/13.2.1/../../../../pic32c/lib/thumb/v6-m/nofp\libc-size-musl.a(strnlen.o) (memchr)
C:/Applications/Microchip/XC32/bin/bin/../../lib/gcc/pic32c/13.2.1/../../../../pic32c/lib/thumb/v6-m/nofp\libc-size-musl.a(stpcpy.o)
                              C:/Applications/Microchip/XC32/bin/bin/../../lib/gcc/pic32c/13.2.1/../../../../pic32c/lib/thumb/v6-m/nofp\libc-size-musl.a(strcpy.o) (__stpcpy)
C:/Applications/Microchip/XC32/bin/bin/../../lib/gcc/pic32c/13.2.1/../../../../pic32c/lib/thumb/v6-m/nofp\libc-size-musl.a(stpncpy.o)
                              C:/Applications/Microchip/XC32/bin/bin/../../lib/gcc/pic32c/13.2.1/../../../../pic32c/lib/thumb/v6-m/nofp\libc-size-musl.a(strncpy.o) (__stpncpy)
C:/Applications/Microchip/XC32/bin/bin/../../lib/gcc/pic32c/13.2.1/../../../../pic32c/lib/thumb/v6-m/nofp\liblmalloc-musl.a(lite_free.o)
                              build/default/production/_ext/1706628858/wdrv_winc.o (free)
C:/Applications/Microchip/XC32/bin/bin/../../lib/gcc/pic32c/13.2.1/../../../../pic32c/lib/thumb/v6-m/nofp\liblmalloc-musl.a(lite_malloc.o)
                              build/default/production/_ext/1706628858/wdrv_winc.o (malloc)
C:/Applications/Microchip/XC32/bin/bin/../../lib/gcc/pic32c/13.2.1/../../../../pic32c/lib/thumb/v6-m/nofp\libc-musl.a(isxdigit.o)
                              build/default/production/_ext/1706628858/wdrv_winc_utils.o (isxdigit)
C:/Applications/Microchip/XC32/bin/bin/../../lib/gcc/pic32c/13.2.1/../../../../pic32c/lib/thumb/v6-m/nofp\libc-musl.a(__libc_start_main.o)
                              build/default/production/_ext/1171490990/startup_xc32.o (__libc_init_array)
C:/Applications/Microchip/XC32/bin/bin/../../lib/gcc/pic32c/13.2.1/../../../../pic32c/lib/thumb/v6-m/nofp\libc-musl.a(__errno_location.o)
                              build/default/production/_ext/1857064221/winc_socket.o (__errno_val)
C:/Applications/Microchip/XC32/bin/bin/../../lib/gcc/pic32c/13.2.1/../../../../pic32c/lib/thumb/v6-m/nofp\libc-musl.a(libc.o)
                              C:/Applications/Microchip/XC32/bin/bin/../../lib/gcc/pic32c/13.2.1/../../../../pic32c/lib/thumb/v6-m/nofp\libc-musl.a(__libc_start_main.o) (__progname_full)
C:/Applications/Microchip/XC32/bin/bin/../../lib/gcc/pic32c/13.2.1/../../../../pic32c/lib/thumb/v6-m/nofp\libc-musl.a(expand_heap.o)
                              C:/Applications/Microchip/XC32/bin/bin/../../lib/gcc/pic32c/13.2.1/../../../../pic32c/lib/thumb/v6-m/nofp\liblmalloc-musl.a(lite_malloc.o) (__expand_heap)
C:/Applications/Microchip/XC32/bin/bin/../../lib/gcc/pic32c/13.2.1/../../../../pic32c/lib/thumb/v6-m/nofp\libc-musl.a(vsnprintf.o)
                              build/default/production/_ext/1832805299/sys_console.o (vsnprintf)
C:/Applications/Microchip/XC32/bin/bin/../../lib/gcc/pic32c/13.2.1/../../../../pic32c/lib/thumb/v6-m/nofp\libc-musl.a(snprintf.o)
                              (snprintf)
C:/Applications/Microchip/XC32/bin/bin/../../lib/gcc/pic32c/13.2.1/../../../../pic32c/lib/thumb/v6-m/nofp\libc-musl.a(sprintf.o)
                              (sprintf)
C:/Applications/Microchip/XC32/bin/bin/../../lib/gcc/pic32c/13.2.1/../../../../pic32c/lib/thumb/v6-m/nofp\libc-musl.a(vsprintf.o)
                              C:/Applications/Microchip/XC32/bin/bin/../../lib/gcc/pic32c/13.2.1/../../../../pic32c/lib/thumb/v6-m/nofp\libc-musl.a(sprintf.o) (vsprintf)
C:/Applications/Microchip/XC32/bin/bin/../../lib/gcc/pic32c/13.2.1/../../../../pic32c/lib/thumb/v6-m/nofp\libc-musl.a(strtol.o)
                              build/default/production/_ext/1706628858/wdrv_winc_ota.o (strtoul)
C:/Applications/Microchip/XC32/bin/bin/../../lib/gcc/pic32c/13.2.1/../../../../pic32c/lib/thumb/v6-m/nofp\libc-musl.a(gmtime.o)
                              build/default/production/_ext/634868841/sys_wincs_wifi_service.o (gmtime)
C:/Applications/Microchip/XC32/bin/bin/../../lib/gcc/pic32c/13.2.1/../../../../pic32c/lib/thumb/v6-m/nofp\libc-musl.a(gmtime_r.o)
                              C:/Applications/Microchip/XC32/bin/bin/../../lib/gcc/pic32c/13.2.1/../../../../pic32c/lib/thumb/v6-m/nofp\libc-musl.a(gmtime.o) (__gmtime_r)
C:/Applications/Microchip/XC32/bin/bin/../../lib/gcc/pic32c/13.2.1/../../../../pic32c/lib/thumb/v6-m/nofp\libc-musl.a(__environ.o)
                              C:/Applications/Microchip/XC32/bin/bin/../../lib/gcc/pic32c/13.2.1/../../../../pic32c/lib/thumb/v6-m/nofp\libc-musl.a(__libc_start_main.o) (__environ)
C:/Applications/Microchip/XC32/bin/bin/../../lib/gcc/pic32c/13.2.1/../../../../pic32c/lib/thumb/v6-m/nofp\libc-musl.a(intscan.o)
                              C:/Applications/Microchip/XC32/bin/bin/../../lib/gcc/pic32c/13.2.1/../../../../pic32c/lib/thumb/v6-m/nofp\libc-musl.a(strtol.o) (__intscan)
C:/Applications/Microchip/XC32/bin/bin/../../lib/gcc/pic32c/13.2.1/../../../../pic32c/lib/thumb/v6-m/nofp\libc-musl.a(shgetc.o)
                              C:/Applications/Microchip/XC32/bin/bin/../../lib/gcc/pic32c/13.2.1/../../../../pic32c/lib/thumb/v6-m/nofp\libc-musl.a(strtol.o) (__shlim)
C:/Applications/Microchip/XC32/bin/bin/../../lib/gcc/pic32c/13.2.1/../../../../pic32c/lib/thumb/v6-m/nofp\libc-musl.a(__uflow.o)
                              C:/Applications/Microchip/XC32/bin/bin/../../lib/gcc/pic32c/13.2.1/../../../../pic32c/lib/thumb/v6-m/nofp\libc-musl.a(shgetc.o) (__uflow)
C:/Applications/Microchip/XC32/bin/bin/../../lib/gcc/pic32c/13.2.1/../../../../pic32c/lib/thumb/v6-m/nofp\libc-musl.a(vfprintf.o)
                              C:/Applications/Microchip/XC32/bin/bin/../../lib/gcc/pic32c/13.2.1/../../../../pic32c/lib/thumb/v6-m/nofp\libc-musl.a(vsnprintf.o) (vfprintf)
C:/Applications/Microchip/XC32/bin/bin/../../lib/gcc/pic32c/13.2.1/../../../../pic32c/lib/thumb/v6-m/nofp\libc-musl.a(__secs_to_tm.o)
                              C:/Applications/Microchip/XC32/bin/bin/../../lib/gcc/pic32c/13.2.1/../../../../pic32c/lib/thumb/v6-m/nofp\libc-musl.a(gmtime_r.o) (__secs_to_tm)
C:/Applications/Microchip/XC32/bin/bin/../../lib/gcc/pic32c/13.2.1/../../../../pic32c/lib/thumb/v6-m/nofp\libc-musl.a(__toread.o)
                              C:/Applications/Microchip/XC32/bin/bin/../../lib/gcc/pic32c/13.2.1/../../../../pic32c/lib/thumb/v6-m/nofp\libc-musl.a(__uflow.o) (__toread)
C:/Applications/Microchip/XC32/bin/bin/../../lib/gcc/pic32c/13.2.1/../../../../pic32c/lib/thumb/v6-m/nofp\libc-musl.a(__io_fmt_needed.o)
                              C:/Applications/Microchip/XC32/bin/bin/../../lib/gcc/pic32c/13.2.1/../../../../pic32c/lib/thumb/v6-m/nofp\libc-musl.a(vfprintf.o) (__io_fmt_needed)
C:/Applications/Microchip/XC32/bin/bin/../../lib/gcc/pic32c/13.2.1/../../../../pic32c/lib/thumb/v6-m/nofp\libc-musl.a(__pop_float.o)
                              C:/Applications/Microchip/XC32/bin/bin/../../lib/gcc/pic32c/13.2.1/../../../../pic32c/lib/thumb/v6-m/nofp\libc-musl.a(__io_fmt_needed.o) (__pop_float_needed)
C:/Applications/Microchip/XC32/bin/bin/../../lib/gcc/pic32c/13.2.1/../../../../pic32c/lib/thumb/v6-m/nofp\libc-musl.a(__pop_int.o)
                              C:/Applications/Microchip/XC32/bin/bin/../../lib/gcc/pic32c/13.2.1/../../../../pic32c/lib/thumb/v6-m/nofp\libc-musl.a(__io_fmt_needed.o) (__pop_int_needed)
C:/Applications/Microchip/XC32/bin/bin/../../lib/gcc/pic32c/13.2.1/../../../../pic32c/lib/thumb/v6-m/nofp\libc-musl.a(__pop_ptr.o)
                              C:/Applications/Microchip/XC32/bin/bin/../../lib/gcc/pic32c/13.2.1/../../../../pic32c/lib/thumb/v6-m/nofp\libc-musl.a(__io_fmt_needed.o) (__pop_ptr_needed)
C:/Applications/Microchip/XC32/bin/bin/../../lib/gcc/pic32c/13.2.1/../../../../pic32c/lib/thumb/v6-m/nofp\libc-musl.a(__printf_core.o)
                              C:/Applications/Microchip/XC32/bin/bin/../../lib/gcc/pic32c/13.2.1/../../../../pic32c/lib/thumb/v6-m/nofp\libc-musl.a(vfprintf.o) (__printf_core)
C:/Applications/Microchip/XC32/bin/bin/../../lib/gcc/pic32c/13.2.1/../../../../pic32c/lib/thumb/v6-m/nofp\libc-musl.a(__stdio_exit.o)
                              C:/Applications/Microchip/XC32/bin/bin/../../lib/gcc/pic32c/13.2.1/../../../../pic32c/lib/thumb/v6-m/nofp\libc-musl.a(__toread.o) (__stdio_exit_needed)
C:/Applications/Microchip/XC32/bin/bin/../../lib/gcc/pic32c/13.2.1/../../../../pic32c/lib/thumb/v6-m/nofp\libc-musl.a(atoi.o)
                              C:/Applications/Microchip/XC32/bin/bin/../../lib/gcc/pic32c/13.2.1/../../../../pic32c/lib/thumb/v6-m/nofp\libc-musl.a(__printf_core.o) (atoi)
C:/Applications/Microchip/XC32/bin/bin/../../lib/gcc/pic32c/13.2.1/../../../../pic32c/lib/thumb/v6-m/nofp\libc-musl.a(tolower.o)
                              C:/Applications/Microchip/XC32/bin/bin/../../lib/gcc/pic32c/13.2.1/../../../../pic32c/lib/thumb/v6-m/nofp\libc-musl.a(__printf_core.o) (tolower)
C:/Applications/Microchip/XC32/bin/bin/../../lib/gcc/pic32c/13.2.1/../../../../pic32c/lib/thumb/v6-m/nofp\libc-musl.a(__fmt_a.o)
                              C:/Applications/Microchip/XC32/bin/bin/../../lib/gcc/pic32c/13.2.1/../../../../pic32c/lib/thumb/v6-m/nofp\libc-musl.a(__io_fmt_needed.o) (__fmt_a_needed)
C:/Applications/Microchip/XC32/bin/bin/../../lib/gcc/pic32c/13.2.1/../../../../pic32c/lib/thumb/v6-m/nofp\libc-musl.a(__fmt_d.o)
                              C:/Applications/Microchip/XC32/bin/bin/../../lib/gcc/pic32c/13.2.1/../../../../pic32c/lib/thumb/v6-m/nofp\libc-musl.a(__io_fmt_needed.o) (__fmt_d_needed)
C:/Applications/Microchip/XC32/bin/bin/../../lib/gcc/pic32c/13.2.1/../../../../pic32c/lib/thumb/v6-m/nofp\libc-musl.a(__fmt_fp.o)
                              C:/Applications/Microchip/XC32/bin/bin/../../lib/gcc/pic32c/13.2.1/../../../../pic32c/lib/thumb/v6-m/nofp\libc-musl.a(__io_fmt_needed.o) (__fmt_f_needed)
C:/Applications/Microchip/XC32/bin/bin/../../lib/gcc/pic32c/13.2.1/../../../../pic32c/lib/thumb/v6-m/nofp\libc-musl.a(__fmt_o.o)
                              C:/Applications/Microchip/XC32/bin/bin/../../lib/gcc/pic32c/13.2.1/../../../../pic32c/lib/thumb/v6-m/nofp\libc-musl.a(__io_fmt_needed.o) (__fmt_o_needed)
C:/Applications/Microchip/XC32/bin/bin/../../lib/gcc/pic32c/13.2.1/../../../../pic32c/lib/thumb/v6-m/nofp\libc-musl.a(__fmt_s.o)
                              C:/Applications/Microchip/XC32/bin/bin/../../lib/gcc/pic32c/13.2.1/../../../../pic32c/lib/thumb/v6-m/nofp\libc-musl.a(__io_fmt_needed.o) (__fmt_s_needed)
C:/Applications/Microchip/XC32/bin/bin/../../lib/gcc/pic32c/13.2.1/../../../../pic32c/lib/thumb/v6-m/nofp\libc-musl.a(__fmt_u.o)
                              C:/Applications/Microchip/XC32/bin/bin/../../lib/gcc/pic32c/13.2.1/../../../../pic32c/lib/thumb/v6-m/nofp\libc-musl.a(__io_fmt_needed.o) (__fmt_u_needed)
C:/Applications/Microchip/XC32/bin/bin/../../lib/gcc/pic32c/13.2.1/../../../../pic32c/lib/thumb/v6-m/nofp\libc-musl.a(__fmt_x.o)
                              C:/Applications/Microchip/XC32/bin/bin/../../lib/gcc/pic32c/13.2.1/../../../../pic32c/lib/thumb/v6-m/nofp\libc-musl.a(__io_fmt_needed.o) (__fmt_x_needed)
C:/Applications/Microchip/XC32/bin/bin/../../lib/gcc/pic32c/13.2.1/../../../../pic32c/lib/thumb/v6-m/nofp\libc-musl.a(toupper.o)
                              C:/Applications/Microchip/XC32/bin/bin/../../lib/gcc/pic32c/13.2.1/../../../../pic32c/lib/thumb/v6-m/nofp\libc-musl.a(__fmt_a.o) (toupper)
C:/Applications/Microchip/XC32/bin/bin/../../lib/gcc/pic32c/13.2.1/../../../../pic32c/lib/thumb/v6-m/nofp\libc-musl.a(__cvt_u.o)
                              C:/Applications/Microchip/XC32/bin/bin/../../lib/gcc/pic32c/13.2.1/../../../../pic32c/lib/thumb/v6-m/nofp\libc-musl.a(__fmt_d.o) (__cvt_u)
C:/Applications/Microchip/XC32/bin/bin/../../lib/gcc/pic32c/13.2.1/../../../../pic32c/lib/thumb/v6-m/nofp\libm-fast-emfloat.a(fma.o)
                              C:/Applications/Microchip/XC32/bin/bin/../../lib/gcc/pic32c/13.2.1/../../../../pic32c/lib/thumb/v6-m/nofp\libc-musl.a(__fmt_fp.o) (fma)
C:/Applications/Microchip/XC32/bin/bin/../../lib/gcc/pic32c/13.2.1/../../../../pic32c/lib/thumb/v6-m/nofp\libm-fast-emfloat.a(floor.o)
                              C:/Applications/Microchip/XC32/bin/bin/../../lib/gcc/pic32c/13.2.1/../../../../pic32c/lib/thumb/v6-m/nofp\libc-musl.a(__fmt_a.o) (floor)
C:/Applications/Microchip/XC32/bin/bin/../../lib/gcc/pic32c/13.2.1/../../../../pic32c/lib/thumb/v6-m/nofp\libm-fast-emfloat.a(__aeabi_fadd.o)
                              build/default/production/_ext/508257091/plib_sercom2_i2c_master.o (__aeabi_fadd)
C:/Applications/Microchip/XC32/bin/bin/../../lib/gcc/pic32c/13.2.1/../../../../pic32c/lib/thumb/v6-m/nofp\libm-fast-emfloat.a(__aeabi_dadd.o)
                              build/default/production/_ext/1360937237/mcp9808_driver.o (__aeabi_dadd)
C:/Applications/Microchip/XC32/bin/bin/../../lib/gcc/pic32c/13.2.1/../../../../pic32c/lib/thumb/v6-m/nofp\libm-fast-emfloat.a(__aeabi_fsub.o)
                              build/default/production/_ext/508257091/plib_sercom2_i2c_master.o (__aeabi_fsub)
C:/Applications/Microchip/XC32/bin/bin/../../lib/gcc/pic32c/13.2.1/../../../../pic32c/lib/thumb/v6-m/nofp\libm-fast-emfloat.a(__aeabi_dsub.o)
                              C:/Applications/Microchip/XC32/bin/bin/../../lib/gcc/pic32c/13.2.1/../../../../pic32c/lib/thumb/v6-m/nofp\libc-musl.a(__fmt_a.o) (__aeabi_dsub)
C:/Applications/Microchip/XC32/bin/bin/../../lib/gcc/pic32c/13.2.1/../../../../pic32c/lib/thumb/v6-m/nofp\libm-fast-emfloat.a(__aeabi_fmul.o)
                              build/default/production/_ext/60165182/plib_can0.o (__aeabi_fmul)
C:/Applications/Microchip/XC32/bin/bin/../../lib/gcc/pic32c/13.2.1/../../../../pic32c/lib/thumb/v6-m/nofp\libm-fast-emfloat.a(__aeabi_dmul_aux.o)
                              build/default/production/_ext/1360937237/mcp9808_driver.o (__aeabi_dmul)
C:/Applications/Microchip/XC32/bin/bin/../../lib/gcc/pic32c/13.2.1/../../../../pic32c/lib/thumb/v6-m/nofp\libm-fast-emfloat.a(__aeabi_fdiv.o)
                              build/default/production/_ext/60165182/plib_can0.o (__aeabi_fdiv)
C:/Applications/Microchip/XC32/bin/bin/../../lib/gcc/pic32c/13.2.1/../../../../pic32c/lib/thumb/v6-m/nofp\libm-fast-emfloat.a(__aeabi_ddiv.o)
                              C:/Applications/Microchip/XC32/bin/bin/../../lib/gcc/pic32c/13.2.1/../../../../pic32c/lib/thumb/v6-m/nofp\libc-musl.a(__fmt_a.o) (__aeabi_ddiv)
C:/Applications/Microchip/XC32/bin/bin/../../lib/gcc/pic32c/13.2.1/../../../../pic32c/lib/thumb/v6-m/nofp\libm-fast-emfloat.a(__aeabi_dcmple.o)
                              C:/Applications/Microchip/XC32/bin/bin/../../lib/gcc/pic32c/13.2.1/../../../../pic32c/lib/thumb/v6-m/nofp\libc-musl.a(__fmt_fp.o) (__aeabi_dcmple)
C:/Applications/Microchip/XC32/bin/bin/../../lib/gcc/pic32c/13.2.1/../../../../pic32c/lib/thumb/v6-m/nofp\libm-fast-emfloat.a(__aeabi_dcmpeq.o)
                              C:/Applications/Microchip/XC32/bin/bin/../../lib/gcc/pic32c/13.2.1/../../../../pic32c/lib/thumb/v6-m/nofp\libc-musl.a(__fmt_a.o) (__aeabi_dcmpeq)
C:/Applications/Microchip/XC32/bin/bin/../../lib/gcc/pic32c/13.2.1/../../../../pic32c/lib/thumb/v6-m/nofp\libm-fast-emfloat.a(__aeabi_dcmpgt.o)
                              C:/Applications/Microchip/XC32/bin/bin/../../lib/gcc/pic32c/13.2.1/../../../../pic32c/lib/thumb/v6-m/nofp\libc-musl.a(__fmt_fp.o) (__aeabi_dcmpgt)
C:/Applications/Microchip/XC32/bin/bin/../../lib/gcc/pic32c/13.2.1/../../../../pic32c/lib/thumb/v6-m/nofp\libm-fast-emfloat.a(__aeabi_fcmplt.o)
                              build/default/production/_ext/60165182/plib_can0.o (__aeabi_fcmplt)
C:/Applications/Microchip/XC32/bin/bin/../../lib/gcc/pic32c/13.2.1/../../../../pic32c/lib/thumb/v6-m/nofp\libm-fast-emfloat.a(__aeabi_dcmplt.o)
                              C:/Applications/Microchip/XC32/bin/bin/../../lib/gcc/pic32c/13.2.1/../../../../pic32c/lib/thumb/v6-m/nofp\libc-musl.a(__fmt_a.o) (__aeabi_dcmplt)
C:/Applications/Microchip/XC32/bin/bin/../../lib/gcc/pic32c/13.2.1/../../../../pic32c/lib/thumb/v6-m/nofp\libm-fast-emfloat.a(__aeabi_f2iz.o)
                              build/default/production/_ext/504274921/plib_sercom1_usart.o (__aeabi_f2iz)
C:/Applications/Microchip/XC32/bin/bin/../../lib/gcc/pic32c/13.2.1/../../../../pic32c/lib/thumb/v6-m/nofp\libm-fast-emfloat.a(__aeabi_d2iz.o)
                              C:/Applications/Microchip/XC32/bin/bin/../../lib/gcc/pic32c/13.2.1/../../../../pic32c/lib/thumb/v6-m/nofp\libc-musl.a(__fmt_a.o) (__aeabi_d2iz)
C:/Applications/Microchip/XC32/bin/bin/../../lib/gcc/pic32c/13.2.1/../../../../pic32c/lib/thumb/v6-m/nofp\libm-fast-emfloat.a(__aeabi_f2uiz.o)
                              build/default/production/_ext/60165182/plib_can0.o (__aeabi_f2uiz)
C:/Applications/Microchip/XC32/bin/bin/../../lib/gcc/pic32c/13.2.1/../../../../pic32c/lib/thumb/v6-m/nofp\libm-fast-emfloat.a(__aeabi_d2uiz.o)
                              C:/Applications/Microchip/XC32/bin/bin/../../lib/gcc/pic32c/13.2.1/../../../../pic32c/lib/thumb/v6-m/nofp\libm-fast-emfloat.a(__aeabi_d2iz.o) (.L__aeabi_d2uiz_fast_entry)
C:/Applications/Microchip/XC32/bin/bin/../../lib/gcc/pic32c/13.2.1/../../../../pic32c/lib/thumb/v6-m/nofp\libm-fast-emfloat.a(__aeabi_i2f.o)
                              build/default/production/_ext/504274921/plib_sercom1_usart.o (__aeabi_i2f)
C:/Applications/Microchip/XC32/bin/bin/../../lib/gcc/pic32c/13.2.1/../../../../pic32c/lib/thumb/v6-m/nofp\libm-fast-emfloat.a(__aeabi_l2f.o)
                              build/default/production/_ext/1360937237/ad9954_driver.o (__aeabi_l2f)
C:/Applications/Microchip/XC32/bin/bin/../../lib/gcc/pic32c/13.2.1/../../../../pic32c/lib/thumb/v6-m/nofp\libm-fast-emfloat.a(__aeabi_ui2f.o)
                              build/default/production/_ext/60165182/plib_can0.o (__aeabi_ui2f)
C:/Applications/Microchip/XC32/bin/bin/../../lib/gcc/pic32c/13.2.1/../../../../pic32c/lib/thumb/v6-m/nofp\libm-fast-emfloat.a(__aeabi_ul2f.o)
                              C:/Applications/Microchip/XC32/bin/bin/../../lib/gcc/pic32c/13.2.1/../../../../pic32c/lib/thumb/v6-m/nofp\libm-fast-emfloat.a(__aeabi_l2f.o) (__aeabi_ul2f)
C:/Applications/Microchip/XC32/bin/bin/../../lib/gcc/pic32c/13.2.1/../../../../pic32c/lib/thumb/v6-m/nofp\libm-fast-emfloat.a(__aeabi_f2d.o)
                              build/default/production/_ext/1360937237/bme690_driver.o (__aeabi_f2d)
C:/Applications/Microchip/XC32/bin/bin/../../lib/gcc/pic32c/13.2.1/../../../../pic32c/lib/thumb/v6-m/nofp\libm-fast-emfloat.a(__aeabi_d2f.o)
                              build/default/production/_ext/1360937237/mcp9808_driver.o (__aeabi_d2f)
C:/Applications/Microchip/XC32/bin/bin/../../lib/gcc/pic32c/13.2.1/../../../../pic32c/lib/thumb/v6-m/nofp\libpic32c.a(sbrk.o)
                              C:/Applications/Microchip/XC32/bin/bin/../../lib/gcc/pic32c/13.2.1/../../../../pic32c/lib/thumb/v6-m/nofp\liblmalloc-musl.a(lite_malloc.o) (_get_heap_left_space)
C:/Applications/Microchip/XC32/bin/bin/../../lib/gcc/pic32c/13.2.1/thumb/v6-m/nofp\libgcc.a(_thumb1_case_uqi.o)
                              C:/Applications/Microchip/XC32/bin/bin/../../lib/gcc/pic32c/13.2.1/../../../../pic32c/lib/thumb/v6-m/nofp\libc-musl.a(__pop_int.o) (__gnu_thumb1_case_uqi)
C:/Applications/Microchip/XC32/bin/bin/../../lib/gcc/pic32c/13.2.1/thumb/v6-m/nofp\libgcc.a(_udivsi3.o)
                              build/default/production/_ext/1857064221/winc_socket.o (__aeabi_uidiv)
C:/Applications/Microchip/XC32/bin/bin/../../lib/gcc/pic32c/13.2.1/thumb/v6-m/nofp\libgcc.a(_divsi3.o)
                              build/default/production/_ext/1360937237/hdc302x_driver.o (__aeabi_idiv)
C:/Applications/Microchip/XC32/bin/bin/../../lib/gcc/pic32c/13.2.1/thumb/v6-m/nofp\libgcc.a(_dvmd_tls.o)
                              C:/Applications/Microchip/XC32/bin/bin/../../lib/gcc/pic32c/13.2.1/thumb/v6-m/nofp\libgcc.a(_udivsi3.o) (__aeabi_idiv0)
C:/Applications/Microchip/XC32/bin/bin/../../lib/gcc/pic32c/13.2.1/thumb/v6-m/nofp\libgcc.a(_lshrdi3.o)
                              C:/Applications/Microchip/XC32/bin/bin/../../lib/gcc/pic32c/13.2.1/../../../../pic32c/lib/thumb/v6-m/nofp\libc-musl.a(intscan.o) (__aeabi_llsr)
C:/Applications/Microchip/XC32/bin/bin/../../lib/gcc/pic32c/13.2.1/thumb/v6-m/nofp\libgcc.a(_ashldi3.o)
                              C:/Applications/Microchip/XC32/bin/bin/../../lib/gcc/pic32c/13.2.1/../../../../pic32c/lib/thumb/v6-m/nofp\libc-musl.a(intscan.o) (__aeabi_llsl)
C:/Applications/Microchip/XC32/bin/bin/../../lib/gcc/pic32c/13.2.1/thumb/v6-m/nofp\libgcc.a(_aeabi_ldivmod.o)
                              C:/Applications/Microchip/XC32/bin/bin/../../lib/gcc/pic32c/13.2.1/../../../../pic32c/lib/thumb/v6-m/nofp\libc-musl.a(__secs_to_tm.o) (__aeabi_ldivmod)
C:/Applications/Microchip/XC32/bin/bin/../../lib/gcc/pic32c/13.2.1/thumb/v6-m/nofp\libgcc.a(_aeabi_uldivmod.o)
                              build/default/production/_ext/101884895/sys_time.o (__aeabi_uldivmod)
C:/Applications/Microchip/XC32/bin/bin/../../lib/gcc/pic32c/13.2.1/thumb/v6-m/nofp\libgcc.a(_muldi3.o)
                              build/default/production/_ext/1987437027/plib_freqm.o (__aeabi_lmul)
C:/Applications/Microchip/XC32/bin/bin/../../lib/gcc/pic32c/13.2.1/thumb/v6-m/nofp\libgcc.a(_udivmoddi4.o)
                              C:/Applications/Microchip/XC32/bin/bin/../../lib/gcc/pic32c/13.2.1/thumb/v6-m/nofp\libgcc.a(_aeabi_uldivmod.o) (__udivmoddi4)
C:/Applications/Microchip/XC32/bin/bin/../../lib/gcc/pic32c/13.2.1/thumb/v6-m/nofp\libgcc.a(bpabi.o)
                              C:/Applications/Microchip/XC32/bin/bin/../../lib/gcc/pic32c/13.2.1/thumb/v6-m/nofp\libgcc.a(_aeabi_ldivmod.o) (__gnu_ldivmod_helper)
C:/Applications/Microchip/XC32/bin/bin/../../lib/gcc/pic32c/13.2.1/thumb/v6-m/nofp\libgcc.a(_clzdi2.o)
                              C:/Applications/Microchip/XC32/bin/bin/../../lib/gcc/pic32c/13.2.1/thumb/v6-m/nofp\libgcc.a(_udivmoddi4.o) (__clzdi2)
C:/Applications/Microchip/XC32/bin/bin/../../lib/gcc/pic32c/13.2.1/thumb/v6-m/nofp\libgcc.a(_divdi3.o)
                              C:/Applications/Microchip/XC32/bin/bin/../../lib/gcc/pic32c/13.2.1/thumb/v6-m/nofp\libgcc.a(bpabi.o) (__divdi3)
C:/Applications/Microchip/XC32/bin/bin/../../lib/gcc/pic32c/13.2.1/thumb/v6-m/nofp\libgcc.a(_clzsi2.o)
                              C:/Applications/Microchip/XC32/bin/bin/../../lib/gcc/pic32c/13.2.1/thumb/v6-m/nofp\libgcc.a(_clzdi2.o) (__clzsi2)
C:/Applications/Microchip/XC32/bin/bin/../../lib/gcc/pic32c/13.2.1/../../../../pic32c/lib/thumb/v6-m/nofp\libpic32c.a(pic32_data_init_clear.o)
                              (__dinit_clear_needed)
C:/Applications/Microchip/XC32/bin/bin/../../lib/gcc/pic32c/13.2.1/../../../../pic32c/lib/thumb/v6-m/nofp\libpic32c.a(pic32_data_init_copy.o)
                              (__dinit_copy_needed)

Microchip PIC32 Memory-Usage Report

ROM Program-Memory Usage
section                    address  length [bytes]      (dec)  Description
-------                 ----------  -------------------------  -----------
.vectors                         0           0xc0         192   
.text                         0xc0           0x20          32  App's exec code 
.ARM.exidx                    0xe0            0x8           8   
.text.SSD1306_DRIVER_Ta       0xe8          0x818        2072   
.dinit                       0x900          0x5b0        1456   
.text.__fmt_fp               0xeb0          0x4f8        1272   
.text.sockDevProcessAEC     0x13a8          0x4a8        1192   
.text.__fmt_a               0x1850          0x4a0        1184   
.text.WDRV_WINC_MQTTPro     0x1cf0          0x40c        1036   
.text.WINC_DevUpdateEve     0x20fc          0x3ee        1006   
.text.EVSYS_Initialize      0x24ea            0x2           2   
.text.sockCmdRspCallbac     0x24ec          0x3e8        1000   
.text.WDRV_WINC_Tasks       0x28d4          0x3a8         936   
.text.wincCmdRspCallbac     0x2c7c          0x390         912   
.text.__printf_core         0x300c          0x320         800   
.text.BMP585_DRIVER_Tas     0x332c          0x2d4         724   
.text.lDRV_I2C_WriteRea     0x3600          0x264         612   
.text.WINC_SDIOCmd53Wri     0x3864          0x25c         604   
.text.WINC_SDIOCmd53Rea     0x3ac0          0x230         560   
.text.AD9954_DRIVER_Tas     0x3cf0          0x1fc         508   
.text.WS281X_DRIVER_Set     0x3eec          0x1ec         492   
.text.WDRV_WINC_WSTAPro     0x40d8          0x1e0         480   
.text.DRV_SPI_WriteRead     0x42b8          0x1dc         476   
.text.CAN0_DRIVER_Tasks     0x4494          0x1d0         464   
.text.MCP9808_DRIVER_Ta     0x4664          0x1d0         464   
.text.__aeabi_dadd          0x4834          0x1c8         456   
.text.sockWrite             0x49fc          0x1c4         452   
.text.SERCOM2_I2C_Inter     0x4bc0          0x1c0         448   
.text.STCC4_DRIVER_Task     0x4d80          0x1b8         440   
.text.sockBufferRead        0x4f38          0x1ae         430   
.text.Console_UART_Task     0x50e6            0x2           2   
.text.lDRV_SPI_StartDMA     0x50e8          0x19c         412   
.text.WINC_SDIODeviceIn     0x5284          0x198         408   
.text.__aeabi_dmul_aux      0x541c          0x18a         394   
.text.Dummy_Handler         0x55a6            0x2           2   
.text.CLOCK_Initialize      0x55a8          0x184         388   
.text.FCM360W_DRIVER_Ta     0x572c          0x180         384   
.text.sockBufferWrite       0x58ac          0x17e         382   
.text.NonMaskableInt_Ha     0x5a2a            0x2           2   
.text.WDRV_WINC_WAPProc     0x5a2c          0x17c         380   
.text.SERCOM3_SPI_Write     0x5ba8          0x178         376   
.text.lDRV_USART_Buffer     0x5d20          0x168         360   
.text.SHT4X_DRIVER_Task     0x5e88          0x160         352   
.text.lDRV_SPI_RX_DMA_C     0x5fe8          0x15c         348   
.text.SERCOM3_SPI_Inter     0x6144          0x154         340   
.text.SERCOM4_SPI_Inter     0x6298          0x154         340   
.text.SERCOM1_USART_Ser     0x63ec          0x154         340   
.text.WINC_DevTransmitC     0x6540          0x13c         316   
.text.dnsDevProcessAEC      0x667c          0x13c         316   
.text.__aeabi_fadd          0x67b8          0x13a         314   
.text.__fmt_x               0x68f2          0x12e         302   
.text.WDRV_WINC_WSCNPro     0x6a20          0x12c         300   
.text.APP_Tasks             0x6b4c          0x120         288   
.text.WDRV_WINC_Initial     0x6c6c          0x11c         284   
.text.WDRV_WINC_EXTCRYP     0x6d88          0x116         278   
.text.HardFault_Handler     0x6e9e            0x2           2   
.text.SYS_Initialize        0x6ea0          0x114         276   
.text.devCompleteCmdSta     0x6fb4          0x112         274   
.text.Dummy_App_Func        0x70c6            0x2           2   
.text.DMAC_Initialize       0x70c8          0x10c         268   
.text.SERCOM2_I2C_Trans     0x71d4          0x10c         268   
.text.RSTC_DRIVER_Tasks     0x72e0          0x108         264   
.text.WINC_CmdReadParam     0x73e8          0x104         260   
.text.SERCOM0_USART_Wri     0x74ec          0x104         260   
.text.WINC_SockInit         0x75f0          0x100         256   
.text.DRV_SPI_Open          0x76f0           0xf8         248   
.text.WDRV_WINC_DNSProc     0x77e8           0xf8         248   
.text.DRV_I2C_Open          0x78e0           0xf4         244   
.text.lDRV_USART_Buffer     0x79d4           0xf4         244   
.text.SERCOM0_USART_ISR     0x7ac8           0xf0         240   
.rodata.SSD1306_DRIVER_     0x7bb8           0xec         236   
.text.DRV_USART_Open        0x7ca4           0xe8         232   
.text.NVIC_Initialize       0x7d8c           0xe8         232   
.text.sockRead              0x7e74           0xe4         228   
.text.SERCOM0_USART_ISR     0x7f58           0xe4         228   
.text                       0x803c           0xde         222  App's exec code 
.text.__dummy_init_tls      0x811a            0x2           2   
.text.lDRV_SPI_PlibCall     0x811c           0xdc         220   
.text.CAN0_MessageRecei     0x81f8           0xdc         220   
.text.WINC_DevHandleEve     0x82d4           0xd8         216   
.text.WS281X_DRIVER_Set     0x83ac           0xd8         216   
.text.__pop_int             0x8484           0xd6         214   
.text.__dummy               0x855a            0x2           2   
.text.WINC_CmdSOCKWRTO      0x855c           0xd4         212   
.text.WDRV_WINC_OTAProc     0x8630           0xd4         212   
.text.WDRV_WINC_ICMPPro     0x8704           0xd4         212   
.text.lDRV_SPI_UpdateTr     0x87d8           0xd0         208   
.text.DRV_SPI_Close         0x88a8           0xd0         208   
.text.WDRV_WINC_SPISend     0x8978           0xd0         208   
.text.cmdParamBuilder       0x8a48           0xd0         208   
.rodata.WDRV_WINC_MQTTP     0x8b18           0xd0         208   
.text.SYS_TIME_PLIBCall     0x8be8           0xd0         208   
.text.Reset_Handler         0x8cb8           0xd0         208   
.rodata.CAN0_DRIVER_Pri     0x8d88           0xcf         207   
.text.DRV_USART_Initial     0x8e58           0xcc         204   
.text.lDRV_USART_Resour     0x8f24           0xca         202   
.text.slabAlloc             0x8ff0           0xc8         200   
.text.WDRV_WINC_BSSFind     0x90b8           0xc8         200   
.text.lDRV_SPI_Resource     0x9180           0xc6         198   
.text.lDRV_I2C_NextTran     0x9248           0xc4         196   
.text.DMAC_ChannelTrans     0x930c           0xc4         196   
.text.__aeabi_ddiv          0x93d0           0xc4         196   
.text.lDRV_USART_Resour     0x9494           0xbe         190   
.text.wincResetDeviceSt     0x9554           0xbc         188   
.text.floor                 0x9610           0xbc         188   
.text.WDRV_WINC_AssocPr     0x96cc           0xb8         184   
.text.__aeabi_fmul          0x9784           0xb6         182   
.text.lDRV_SPI_Resource     0x983a           0xb4         180   
.text.WDRV_WINC_ProvPro     0x98f0           0xb4         180   
.text.__fmt_d               0x99a4           0xb4         180   
.text.DRV_SPI_Initializ     0x9a58           0xb0         176   
.text.WINC_CmdSOCKWR        0x9b08           0xb0         176   
.text.devProcessPending     0x9bb8           0xb0         176   
.text.WDRV_WINC_NVMProc     0x9c68           0xb0         176   
.text.SYS_TIME_TimerObj     0x9d18           0xb0         176   
.text                       0x9dc8           0xa8         168  App's exec code 
.text.EIC_Initialize        0x9e70           0xa4         164   
.text.SERCOM3_SPI_Trans     0x9f14           0xa0         160   
.text.CAN0_MessageRAMCo     0x9fb4           0x9c         156   
.text.SYS_TIME_AddToLis     0xa050           0x9c         156   
.text.WINC_SDIOCmd52        0xa0ec           0x98         152   
.text.PORT_Initialize       0xa184           0x98         152   
.text.SERCOM0_USART_Rea     0xa21c           0x94         148   
.text.__aeabi_fdiv          0xa2b0           0x94         148   
.text.wincNotifyDisconn     0xa344           0x92         146   
.text.sockAsyncModeConf     0xa3d8           0x8c         140   
.text                       0xa464           0x8c         140  App's exec code 
.text.lDRV_I2C_Resource     0xa4f0           0x8a         138   
.text.SERCOM0_USART_Ini     0xa57c           0x88         136   
.text.DRV_USART_Close       0xa604           0x84         132   
.text.WINC_SDIOCmd5         0xa688           0x84         132   
.text.TIMER_DRIVER_Init     0xa70c           0x84         132   
.text.WDRV_WINC_AssocFi     0xa790           0x82         130   
.text.WDRV_WINC_BSSFind     0xa814           0x80         128   
.text.CAN0_MessageTrans     0xa894           0x80         128   
.text.SERCOM1_USART_ISR     0xa914           0x80         128   
.text.NTC_DRIVER_Tasks      0xa994           0x80         128   
.text.lDRV_I2C_Resource     0xaa14           0x7c         124   
.text.CAN0_Initialize       0xaa90           0x7c         124   
.text.DMAC_InterruptHan     0xab0c           0x7c         124   
.text.__simple_search_f     0xab88           0x7c         124   
.text.cmdCompleteComman     0xac04           0x7a         122   
.text.DRV_I2C_Close         0xac80           0x78         120   
.text.__pad                 0xacf8           0x78         120   
.text.__pop_ptr             0xad70           0x76         118   
.text.__cvt_u               0xade6           0x76         118   
.text.WINC_CmdSOCKC         0xae5c           0x74         116   
.text.SERCOM1_USART_Wri     0xaed0           0x74         116   
.text.SYS_CONSOLE_Print     0xaf44           0x74         116   
.text.BME690_DRIVER_Tas     0xafb8           0x74         116   
.text.HDC302X_DRIVER_Ta     0xb02c           0x74         116   
.text.SEN63C_DRIVER_Tas     0xb0a0           0x74         116   
.text.VCNL4200_DRIVER_T     0xb114           0x74         116   
.text.WS281X_DRIVER_Tas     0xb188           0x74         116   
.text.XM125_DRIVER_Task     0xb1fc           0x74         116   
.text.WINC_CmdSOCKRD        0xb270           0x70         112   
.text.WDRV_WINC_InfoDev     0xb2e0           0x70         112   
.text.SERCOM1_USART_ISR     0xb350           0x70         112   
.text.__fmt_o               0xb3c0           0x6e         110   
.text.DRV_I2C_Initializ     0xb430           0x6c         108   
.text.SYS_TIME_Initiali     0xb49c           0x6c         108   
.text.CAN0_DRIVER_Get_R     0xb508           0x6c         108   
.rodata.BMP585_DRIVER_T     0xb574           0x68         104   
.text.lDRV_USART_ReadSu     0xb5dc           0x66         102   
.text.cmdBuildCommandRe     0xb642           0x66         102   
.text.WINC_CmdReqInit       0xb6a8           0x66         102   
.text.vsnprintf             0xb710           0x64         100   
.text.__aeabi_d2f           0xb774           0x62          98   
.text.lDRV_USART_WriteS     0xb7d6           0x60          96   
.text.EIC_InterruptHand     0xb838           0x60          96   
.text.RTC_RTCCTimeGet       0xb898           0x60          96   
.text.SERCOM2_I2C_Initi     0xb8f8           0x60          96   
.text.__strchrnul           0xb958           0x60          96   
.text.SUPC_Initialize       0xb9b8           0x5c          92   
.text.SYS_CONSOLE_Initi     0xba14           0x5c          92   
.text.SYS_Tasks             0xba70           0x5c          92   
.text.CAN0_DRIVER_Set_M     0xbacc           0x5c          92   
.text.CONSOLE_DRIVER_Ta     0xbb28           0x5c          92   
.text.__simple_malloc       0xbb84           0x5c          92   
.text.__libc_start_init     0xbbe0           0x5c          92   
.text.WDRV_WINC_NETIFPr     0xbc3c           0x5a          90   
.text.lDRV_I2C_PLibCall     0xbc98           0x58          88   
.text.DRV_I2C_TransferS     0xbcf0           0x58          88   
.text.WDRV_WINC_SPIOpen     0xbd48           0x58          88   
.text.SERCOM1_USART_Int     0xbda0           0x58          88   
.text.SERCOM0_USART_Int     0xbdf8           0x58          88   
.text.SYS_TIME_Callback     0xbe50           0x58          88   
.text.RTC_DRIVER_Tasks      0xbea8           0x58          88   
.text.devUnpackResponse     0xbf00           0x56          86   
.text.__fmt_u               0xbf56           0x56          86   
.text.lDRV_SPI_TX_DMA_C     0xbfac           0x54          84   
.text.WINC_SDIOCmd59        0xc000           0x54          84   
.text.WDRV_WINC_PPSProc     0xc054           0x54          84   
.text.ADC0_Initialize       0xc0a8           0x54          84   
.text.SERCOM2_I2C_Initi     0xc0fc           0x54          84   
.text.SERCOM1_USART_Ini     0xc150           0x54          84   
.text.SYS_TIME_DelayMS      0xc1a4           0x54          84   
.text.MCP9808_DRIVER_Ca     0xc1f8           0x54          84   
.text.STCC4_DRIVER_Stor     0xc24c           0x54          84   
.text.lDRV_I2C_DriverHa     0xc2a0           0x50          80   
.text.lDRV_SPI_DriverHa     0xc2f0           0x50          80   
.text.DRV_USART_BufferS     0xc340           0x50          80   
.text.cmd93c2c531           0xc390           0x50          80   
.rodata.cmd52InitSeq1       0xc3e0           0x50          80   
.text.SERCOM0_USART_ISR     0xc430           0x50          80   
.rodata.MCP9808_DRIVER_     0xc480           0x50          80   
.text.__fmt_s               0xc4d0           0x50          80   
.text._sbrk                 0xc520           0x50          80   
.text.WINC_CmdARB           0xc570           0x4e          78   
.text.WDRV_WINC_TIMEPro     0xc5be           0x4e          78   
.text.lDRV_USART_Driver     0xc60c           0x4c          76   
.text.slabFree              0xc658           0x4c          76   
.text.WDRV_WINC_DevTran     0xc6a4           0x4c          76   
.text.SYS_TIME_RemoveFr     0xc6f0           0x4c          76   
.text.SYS_TIME_TimerSta     0xc73c           0x4a          74   
.text                       0xc788           0x48          72  App's exec code 
.text.devFlushPendingCm     0xc7d0           0x48          72   
.text.WINC_DevUnpackEle     0xc818           0x48          72   
.text.WINC_SDIOCmd0         0xc860           0x48          72   
.text.TCC0_PWMInitializ     0xc8a8           0x48          72   
.text.HDC302X_DRIVER_Pr     0xc8f0           0x48          72   
.text.SHT4X_DRIVER_Calc     0xc938           0x48          72   
.text.STCC4_DRIVER_Calc     0xc980           0x48          72   
.text.lDRV_I2C_ClientCa     0xc9c8           0x46          70   
.text.DRV_SPI_TransferS     0xca10           0x44          68   
.text.lDRV_USART_Remove     0xca54           0x44          68   
.text.dnsFreeRequest        0xca98           0x44          68   
.text.wincProcessAEC        0xcadc           0x44          68   
.text.RTC_Initialize        0xcb20           0x44          68   
.text.SERCOM2_I2C_Trans     0xcb64           0x44          68   
.text.SERCOM1_USART_Rea     0xcba8           0x44          68   
.text.SYSTICK_DelayMs       0xcbec           0x44          68   
.rodata.STCC4_DRIVER_Ta     0xcc30           0x44          68   
.text.atoi                  0xcc74           0x44          68   
.text.__aeabi_dcmple        0xccb8           0x44          68   
.text.__aeabi_f2d           0xccfc           0x44          68   
.text                       0xcd40           0x44          68  App's exec code 
.text.cmd977efca2           0xcd84           0x42          66   
.text.WINC_CmdDFUADR        0xcdc6           0x42          66   
.text.WDRV_WINC_CmdReqI     0xce08           0x42          66   
.text.SERCOM1_USART_ISR     0xce4c           0x40          64   
.text.SYS_TIME_TimerDes     0xce8c           0x40          64   
.text.SYS_TIME_TimerSto     0xcecc           0x40          64   
.text.__simple_free         0xcf0c           0x40          64   
.text                       0xcf4c           0x40          64  App's exec code 
.text.__aeabi_dcmpgt        0xcf8c           0x3e          62   
.text.__aeabi_dcmplt        0xcfca           0x3e          62   
.text.__aeabi_f2iz          0xd008           0x3e          62   
.text.WDRV_WINC_SPIInit     0xd048           0x3c          60   
.text.WINC_DevInit          0xd084           0x3c          60   
.text.sockDestroySocket     0xd0c0           0x3c          60   
.text.DMAC_ChannelSetti     0xd0fc           0x3c          60   
.text.SERCOM2_I2C_Read      0xd138           0x3c          60   
.text.SERCOM2_I2C_Write     0xd174           0x3c          60   
.text.SERCOM3_SPI_Initi     0xd1b0           0x3c          60   
.text.SYS_INT_SourceDis     0xd1ec           0x3c          60   
.text.SYS_TIME_GetTimer     0xd228           0x3c          60   
.rodata.drvUsart0InitDa     0xd264           0x3c          60   
.rodata.AD9954_DRIVER_T     0xd2a0           0x3c          60   
.text.FCM360W_DRIVER_Ge     0xd2dc           0x3c          60   
.text.strstr                0xd318           0x3c          60   
.text                       0xd354           0x3c          60  App's exec code 
.text.lDRV_I2C_RemoveCl     0xd390           0x3a          58   
.text.cmdMultiValueBuil     0xd3ca           0x3a          58   
.text.WINC_DevBusStateS     0xd404           0x3a          58   
.text.sockFindFreeSocke     0xd440           0x38          56   
.rodata.wincAecCallback     0xd478           0x38          56   
.text.SERCOM2_I2C_Write     0xd4b0           0x38          56   
.text.SERCOM4_SPI_Initi     0xd4e8           0x38          56   
.text.Console_UART_Read     0xd520           0x38          56   
.text.Console_UART_Writ     0xd558           0x38          56   
.text.SYS_TIME_Resource     0xd590           0x38          56   
.text.AD9954_DRIVER_Set     0xd5c8           0x38          56   
.text.RTC_DRIVER_Print_     0xd600           0x38          56   
.rodata.SHT4X_DRIVER_Ta     0xd638           0x38          56   
.text.STCC4_DRIVER_Get_     0xd670           0x38          56   
.text.STCC4_DRIVER_Stor     0xd6a8           0x38          56   
.text.STCC4_DRIVER_Get_     0xd6e0           0x38          56   
.text.__pic32c_data_ini     0xd718           0x38          56   
.text.__pop_float           0xd750           0x36          54   
.text.SYS_CONSOLE_Messa     0xd788           0x34          52   
.rodata.drvSPI0InitData     0xd7bc           0x34          52   
.rodata.CAN0_DRIVER_Tas     0xd7f0           0x34          52   
.text.FCM360W_DRIVER_Wr     0xd824           0x34          52   
.rodata.FCM360W_DRIVER_     0xd858           0x34          52   
.text.__fmt_state           0xd88c           0x34          52   
.text.__aeabi_d2iz          0xd8c0           0x34          52   
.text._sbrk_init            0xd8f4           0x34          52   
.text.WINC_DevAECCallba     0xd928           0x32          50   
.rodata.sockDevProcessA     0xd95c           0x30          48   
.text.RTC_InterruptHand     0xd98c           0x30          48   
.text.Console_UART_Writ     0xd9bc           0x30          48   
.text.Console_UART_Writ     0xd9ec           0x30          48   
.text.Console_UART_Read     0xda1c           0x30          48   
.text.Console_UART_Read     0xda4c           0x30          48   
.text.AD9954_DRIVER_Set     0xda7c           0x30          48   
.text.AD9954_DRIVER_Set     0xdaac           0x30          48   
.text.AD9954_DRIVER_Set     0xdadc           0x30          48   
.text.BMP585_DRIVER_Get     0xdb0c           0x30          48   
.text.BMP585_DRIVER_Get     0xdb3c           0x30          48   
.text.BMP585_DRIVER_Get     0xdb6c           0x30          48   
.text.MCP9808_DRIVER_Ge     0xdb9c           0x30          48   
.text.MCP9808_DRIVER_Ge     0xdbcc           0x30          48   
.text.MCP9808_DRIVER_Ge     0xdbfc           0x30          48   
.text.SHT4X_DRIVER_Calc     0xdc2c           0x30          48   
.text.SSD1306_DRIVER_Se     0xdc5c           0x30          48   
.text.SSD1306_DRIVER_Se     0xdc8c           0x30          48   
.text.STCC4_DRIVER_Calc     0xdcbc           0x30          48   
.text.nvmReportStatus       0xdcec           0x2e          46   
.text.__aeabi_dcmpeq        0xdd1a           0x2e          46   
.text.__aeabi_d2uiz         0xdd48           0x2e          46   
.rodata.WDRV_WINC_OTAPr     0xdd78           0x2c          44   
.text.CAN0_ErrorGet         0xdda4           0x2c          44   
.text.EIC_CallbackRegis     0xddd0           0x2c          44   
.text.SERCOM5_SPI_Initi     0xddfc           0x2c          44   
.text.SERCOM1_USART_Err     0xde28           0x2c          44   
.text.SUPC_InterruptHan     0xde54           0x2c          44   
.text.SYSTICK_TimerInte     0xde80           0x2c          44   
.rodata.sysConsoleUARTD     0xdeac           0x2c          44   
.rodata.drvUsart0PlibAP     0xded8           0x2c          44   
.text.BMP585_DRIVER_Get     0xdf04           0x2c          44   
.text.MCP9808_DRIVER_Se     0xdf30           0x2c          44   
.text.SSD1306_DRIVER_Wr     0xdf5c           0x2c          44   
.text.STCC4_DRIVER_Sing     0xdf88           0x2c          44   
.rodata.APP_Tasks           0xdfb4           0x2c          44   
.text.lDRV_USART_RX_DMA     0xdfe0           0x2a          42   
.text.lDRV_USART_TX_DMA     0xe00a           0x2a          42   
.text.SYS_TIME_TimerPer     0xe034           0x2a          42   
.text.__string_out          0xe05e           0x2a          42   
.text.lDRV_USART_RX_PLI     0xe088           0x28          40   
.text.WDRV_WINC_SPIDein     0xe0b0           0x28          40   
.text.sockEventCallback     0xe0d8           0x28          40   
.rodata.sockCmdRspCallb     0xe100           0x28          40   
.text.ADC0_InterruptHan     0xe128           0x28          40   
.text.SERCOM1_USART_Rea     0xe150           0x28          40   
.text.SysTick_Handler       0xe178           0x28          40   
.rodata.drvSPI0remapDat     0xe1a0           0x28          40   
.text.BMP585_DRIVER_Set     0xe1c8           0x28          40   
.text.BMP585_DRIVER_Sto     0xe1f0           0x28          40   
.text.BMP585_DRIVER_Set     0xe218           0x28          40   
.text.BMP585_DRIVER_Set     0xe240           0x28          40   
.text.BMP585_DRIVER_Cal     0xe268           0x28          40   
.text.BMP585_DRIVER_Cal     0xe290           0x28          40   
.text.CAN0_DRIVER_Print     0xe2b8           0x28          40   
.text.MCP9808_DRIVER_Se     0xe2e0           0x28          40   
.text.cmdFractValueBuil     0xe308           0x26          38   
.text.WDRV_WINC_ISR         0xe32e           0x26          38   
.text.__aeabi_i2f           0xe354           0x26          38   
.text.lDRV_USART_Remove     0xe37a           0x24          36   
.text.FREQM_InterruptHa     0xe3a0           0x24          36   
.text.SYSTICK_TimerInit     0xe3c4           0x24          36   
.text.SYS_DMA_Addressin     0xe3e8           0x24          36   
.text.SYS_TIME_Resource     0xe40c           0x24          36   
.text.BME690_DRIVER_Ini     0xe430           0x24          36   
.text.BMP585_DRIVER_Ini     0xe454           0x24          36   
.text.HDC302X_DRIVER_In     0xe478           0x24          36   
.text.MCP9808_DRIVER_In     0xe49c           0x24          36   
.text.SHT4X_DRIVER_Star     0xe4c0           0x24          36   
.text.SHT4X_DRIVER_Stor     0xe4e4           0x24          36   
.text.VCNL4200_DRIVER_I     0xe508           0x24          36   
.text.XM125_DRIVER_Init     0xe52c           0x24          36   
.text.__aeabi_f2uiz         0xe550           0x24          36   
.text.CAN0_RxFifoFillLe     0xe574           0x20          32   
.text.WDT_Enable            0xe594           0x20          32   
.text.WDT_Disable           0xe5b4           0x20          32   
.text.SYS_DMA_DataWidth     0xe5d4           0x20          32   
.text.NTC_DRIVER_Initia     0xe5f4           0x20          32   
.rodata.RSTC_DRIVER_Tas     0xe614           0x20          32   
.text.SHT4X_DRIVER_Get_     0xe634           0x20          32   
.text.WS281X_DRIVER_Set     0xe654           0x20          32   
.text._get_heap_left_sp     0xe674           0x20          32   
.rodata.str1.1              0xe694           0x1f          31   
.text.memcmp                0xe6b4           0x1e          30   
.text.__aeabi_ui2f          0xe6d2           0x1e          30   
.text.__dinit_copy          0xe6f0           0x1e          30   
.text.DRV_I2C_ReadTrans     0xe70e           0x1c          28   
.text.DRV_I2C_WriteRead     0xe72a           0x1c          28   
.text.lDRV_USART_GetDri     0xe748           0x1c          28   
.text.WDRV_WINC_INTInit     0xe764           0x1c          28   
.text.WINC_CmdCFG           0xe780           0x1c          28   
.text.WINC_CmdNVMC          0xe79c           0x1c          28   
.rodata.WINC_SDIODevice     0xe7b8           0x1c          28   
.text.ADC0_Enable           0xe7d4           0x1c          28   
.text.ADC0_ConversionSt     0xe7f0           0x1c          28   
.text.DAC_Initialize        0xe80c           0x1c          28   
.text.FREQM_Initialize      0xe828           0x1c          28   
.text.SERCOM0_USART_Wri     0xe844           0x1c          28   
.text.SERCOM0_USART_Rea     0xe860           0x1c          28   
.text.SYS_INT_SourceRes     0xe87c           0x1c          28   
.rodata.sysTimePlibAPI      0xe898           0x1c          28   
.rodata.drvUSART0Interr     0xe8b4           0x1c          28   
.rodata.drvI2C0InitData     0xe8d0           0x1c          28   
.rodata.drvI2C0PLibAPI      0xe8ec           0x1c          28   
.text.CAN0_DRIVER_Initi     0xe908           0x1c          28   
.text.NTC_DRIVER_Calcul     0xe924           0x1c          28   
.rodata.NTC_DRIVER_Task     0xe940           0x1c          28   
.text.RTC_DRIVER_Initia     0xe95c           0x1c          28   
.text.SSD1306_DRIVER_Wr     0xe978           0x1c          28   
.text.WS281X_DRIVER_DMA     0xe994           0x1c          28   
.text.WS281X_DRIVER_Sen     0xe9b0           0x1c          28   
.text.WS281X_DRIVER_Ini     0xe9cc           0x1c          28   
.text.__init_search_fl      0xe9e8           0x1c          28   
.text.DRV_I2C_WriteTran     0xea04           0x1a          26   
.text.cmdIsInt              0xea20           0x18          24   
.text.PM_StandbyModeEnt     0xea38           0x18          24   
.text.Console_UART_Init     0xea50           0x18          24   
.text.SYS_TIME_DelayIsC     0xea68           0x18          24   
.rodata.sysConsole0UART     0xea80           0x18          24   
.rodata.drvUsart0remapP     0xea98           0x18          24   
.rodata.drvSPI0Interrup     0xeab0           0x18          24   
.text.FCM360W_DRIVER_Re     0xeac8           0x18          24   
.text.HDC302X_DRIVER_Se     0xeae0           0x18          24   
.text.MCP9808_DRIVER_St     0xeaf8           0x18          24   
.text.MCP9808_DRIVER_St     0xeb10           0x18          24   
.text.MCP9808_DRIVER_St     0xeb28           0x18          24   
.text.RSTC_DRIVER_Print     0xeb40           0x18          24   
.rodata.WS281X_DRIVER_T     0xeb58           0x18          24   
.text.strlen                0xeb70           0x18          24   
.text.vfprintf              0xeb88           0x18          24   
.text                       0xeba0           0x18          24  App's exec code 
.text                       0xebb8           0x18          24  App's exec code 
.text                       0xebd0           0x18          24  App's exec code 
.text.cmdCheckFractType     0xebe8           0x16          22   
.text.__expand_heap         0xebfe           0x16          22   
.text.sprintf               0xec14           0x16          22   
.rodata                     0xec2a           0x16          22  Read-only const 
.text.lDRV_I2C_RemoveTr     0xec40           0x14          20   
.text.lDRV_SPI_RemoveTr     0xec54           0x14          20   
.rodata.WDRV_WINC_WSTAP     0xec68           0x14          20   
.text.CAN0_ErrorCountGe     0xec7c           0x14          20   
.text.CAN0_InterruptGet     0xec90           0x14          20   
.text.NVIC_INT_Restore      0xeca4           0x14          20   
.text.SERCOM3_SPI_IsTra     0xecb8           0x14          20   
.text.SERCOM0_USART_Rea     0xeccc           0x14          20   
.text.SERCOM0_USART_Wri     0xece0           0x14          20   
.text.SYSTICK_TimerStar     0xecf4           0x14          20   
.text.SYSTICK_TimerInte     0xed08           0x14          20   
.text.WDT_Clear             0xed1c           0x14          20   
.text.Console_UART_Stat     0xed30           0x14          20   
.rodata.drvUsart0remapD     0xed44           0x14          20   
.rodata.drvI2C0Interrup     0xed58           0x14          20   
.text.AD9954_DRIVER_Ini     0xed6c           0x14          20   
.rodata.BME690_DRIVER_T     0xed80           0x14          20   
.text.BMP585_DRIVER_Sto     0xed94           0x14          20   
.text.BMP585_DRIVER_Sto     0xeda8           0x14          20   
.text.BMP585_DRIVER_Sto     0xedbc           0x14          20   
.text.FCM360W_DRIVER_In     0xedd0           0x14          20   
.rodata.HDC302X_DRIVER_     0xede4           0x14          20   
.text.RTC_DRIVER_Alarm_     0xedf8           0x14          20   
.rodata.RTC_DRIVER_Task     0xee0c           0x14          20   
.text.SEN63C_DRIVER_Ini     0xee20           0x14          20   
.rodata.SEN63C_DRIVER_T     0xee34           0x14          20   
.text.SHT4X_DRIVER_Set_     0xee48           0x14          20   
.text.SHT4X_DRIVER_Init     0xee5c           0x14          20   
.text.SSD1306_DRIVER_In     0xee70           0x14          20   
.text.STCC4_DRIVER_Init     0xee84           0x14          20   
.rodata.VCNL4200_DRIVER     0xee98           0x14          20   
.text.WS281X_DRIVER_Set     0xeeac           0x14          20   
.rodata.XM125_DRIVER_Ta     0xeec0           0x14          20   
.rodata                     0xeed4           0x14          20  Read-only const 
.text.memcpy                0xeee8           0x14          20   
.text.memset                0xeefc           0x14          20   
.text.strchr                0xef10           0x14          20   
.text.stpcpy                0xef24           0x14          20   
.text.vsprintf              0xef38           0x14          20   
.text                       0xef4c           0x14          20  App's exec code 
.text.DRV_SPI_WriteTran     0xef60           0x12          18   
.text.wincEventCheck        0xef72           0x12          18   
.text.NVIC_INT_Disable      0xef84           0x12          18   
.text.__dinit_clear         0xef96           0x12          18   
.text.DRV_USART_WriteBu     0xefa8           0x10          16   
.text.DRV_USART_ReadBuf     0xefb8           0x10          16   
.text.WINC_CmdDI            0xefc8           0x10          16   
.text.wincSystemEvent       0xefd8           0x10          16   
.text.DMAC_ChannelCallb     0xefe8           0x10          16   
.text.DMAC_ChannelSetti     0xeff8           0x10          16   
.text.EIC_InterruptEnab     0xf008           0x10          16   
.text.EIC_InterruptDisa     0xf018           0x10          16   
.text.PM_Initialize         0xf028           0x10          16   
.text.SERCOM2_I2C_Error     0xf038           0x10          16   
.text.SERCOM1_USART_Err     0xf048           0x10          16   
.text.SERCOM1_USART_Rea     0xf058           0x10          16   
.text.SYSTICK_TimerStop     0xf068           0x10          16   
.rodata.drvSPI0PlibAPI      0xf078           0x10          16   
.rodata.wdrvWincSpiInit     0xf088           0x10          16   
.text.BMP585_DRIVER_Set     0xf098           0x10          16   
.text.NTC_DRIVER_Callba     0xf0a8           0x10          16   
.text.RTC_DRIVER_Get_Al     0xf0b8           0x10          16   
.text.RTC_DRIVER_Get_Sy     0xf0c8           0x10          16   
.text.SSD1306_DRIVER_Se     0xf0d8           0x10          16   
.text.STCC4_DRIVER_Set_     0xf0e8           0x10          16   
.text.TIMER_DRIVER_Stop     0xf0f8           0x10          16   
.text.TIMER_DRIVER_Star     0xf108           0x10          16   
.text.TIMER_DRIVER_Stop     0xf118           0x10          16   
.text.TIMER_DRIVER_Star     0xf128           0x10          16   
.text.TIMER_DRIVER_Stop     0xf138           0x10          16   
.text.TIMER_DRIVER_Star     0xf148           0x10          16   
.text.TIMER_DRIVER_Stop     0xf158           0x10          16   
.text.WINCS02_DRIVER_In     0xf168           0x10          16   
.text.fma                   0xf178           0x10          16   
.text.__aeabi_fsub          0xf188           0x10          16   
.text.__aeabi_dsub          0xf198           0x10          16   
.text.lDRV_USART_TX_PLI     0xf1a8            0xe          14   
.text.SYSTICK_TimerInte     0xf1b6            0xe          14   
.text.main                  0xf1c4            0xe          14   
.text.tolower               0xf1d2            0xe          14   
.text.toupper               0xf1e0            0xe          14   
.text.lDRV_SPI_PlibCall     0xf1ee            0xc          12   
.text.ADC0_ConversionRe     0xf1fc            0xc          12   
.text.ADC0_CallbackRegi     0xf208            0xc          12   
.text.CAN0_InterruptCle     0xf214            0xc          12   
.text.NVMCTRL_Initializ     0xf220            0xc          12   
.text.RSTC_ResetCauseGe     0xf22c            0xc          12   
.text.RTC_RTCCCallbackR     0xf238            0xc          12   
.text.SERCOM2_I2C_Callb     0xf244            0xc          12   
.text.SERCOM3_SPI_Callb     0xf250            0xc          12   
.text.SERCOM1_USART_Wri     0xf25c            0xc          12   
.text.SERCOM1_USART_Wri     0xf268            0xc          12   
.text.SERCOM1_USART_Wri     0xf274            0xc          12   
.text.SERCOM1_USART_Rea     0xf280            0xc          12   
.text.SERCOM1_USART_Rea     0xf28c            0xc          12   
.text.SYSTICK_TimerPeri     0xf298            0xc          12   
.text.SYSTICK_TimerCall     0xf2a4            0xc          12   
.rodata.sysConsole0Init     0xf2b0            0xc          12   
.rodata.drvUsart0remapE     0xf2bc            0xc          12   
.rodata.drvUsart0remapS     0xf2c8            0xc          12   
.text.BME690_DRIVER_Ale     0xf2d4            0xc          12   
.text.BMP585_DRIVER_Ale     0xf2e0            0xc          12   
.text.CAN0_DRIVER_Set_T     0xf2ec            0xc          12   
.text.CAN0_DRIVER_Get_T     0xf2f8            0xc          12   
.text.CAN0_DRIVER_Set_T     0xf304            0xc          12   
.text.CONSOLE_DRIVER_Se     0xf310            0xc          12   
.text.CONSOLE_DRIVER_Ge     0xf31c            0xc          12   
.text.CONSOLE_DRIVER_Se     0xf328            0xc          12   
.text.CONSOLE_DRIVER_In     0xf334            0xc          12   
.text.HDC302X_DRIVER_Al     0xf340            0xc          12   
.text.HDC302X_DRIVER_Se     0xf34c            0xc          12   
.text.HDC302X_DRIVER_Ge     0xf358            0xc          12   
.text.HDC302X_DRIVER_Se     0xf364            0xc          12   
.text.MCP9808_DRIVER_Al     0xf370            0xc          12   
.text.RSTC_DRIVER_Initi     0xf37c            0xc          12   
.text.RTC_DRIVER_Set_Al     0xf388            0xc          12   
.text.Start_Up_TMR_Call     0xf394            0xc          12   
.text.Main_TMR_Callback     0xf3a0            0xc          12   
.text.Bus_TMR_Callback      0xf3ac            0xc          12   
.text.Wait_TMR_Callback     0xf3b8            0xc          12   
.text.TIMER_DRIVER_Get_     0xf3c4            0xc          12   
.text.TIMER_DRIVER_Set_     0xf3d0            0xc          12   
.text.TIMER_DRIVER_Get_     0xf3dc            0xc          12   
.text.TIMER_DRIVER_Set_     0xf3e8            0xc          12   
.text.VCNL4200_DRIVER_A     0xf3f4            0xc          12   
.text.XM125_DRIVER_Aler     0xf400            0xc          12   
.text.APP_Initialize        0xf40c            0xc          12   
.text.strcpy                0xf418            0xc          12   
.text.WDRV_WINC_INTDein     0xf424            0xa          10   
.rodata.secTypeAuthType     0xf430            0xa          10   
.text.OSAL_Malloc           0xf43a            0x8           8   
.text.OSAL_Free             0xf442            0x8           8   
.text.SERCOM0_USART_Wri     0xf44a            0x8           8   
.text.SYSTICK_TimerFreq     0xf454            0x8           8   
.text.SYS_INT_Disable       0xf45c            0x8           8   
.text.SYS_INT_Restore       0xf464            0x8           8   
.rodata.sysTimeInitData     0xf46c            0x8           8   
.rodata.drvSPI0remapClo     0xf474            0x8           8   
.rodata.drvSPI0remapClo     0xf47c            0x8           8   
.rodata.wdrvWincInitDat     0xf484            0x8           8   
.text.SERCOM1_7_Handler     0xf48c            0x8           8   
.text.SERCOM0_6_Handler     0xf494            0x8           8   
.text.SYSTEM_Handler        0xf49c            0x8           8   
.text.sdioCRC7              0xf4a4            0x4           4   
.text.PORT_GroupSet         0xf4a8            0x4           4   
.text.PORT_GroupClear       0xf4ac            0x4           4   
.text.Console_UART_Flus     0xf4b0            0x4           4   
.rodata.sysConsole0UART     0xf4b4            0x4           4   
.text.__dummy_decompres     0xf4b8            0x4           4   
.text                       0xf4bc            0x4           4  App's exec code 
      Total ROM used  :      0xf48a       62602  11.9% of 0x80000
        --------------------------------------------------------------------------
         Total Program Memory used  :      0xf48a       62602  11.9% of 0x80000
        --------------------------------------------------------------------------


RAM Data-Memory Usage
section                    address  length [bytes]      (dec)  Description
-------                 ----------  -------------------------  -----------
.bss.can0_driverData    0x20000000         0x5b40       23360   
.bss.consolePrintBuffer 0x20005b40         0x2000        8192   
.bss.wincs02_driverData 0x20007b40         0x1014        4116   
.bss.SERCOM0_USART_Writ 0x20008b54         0x1000        4096   
.bss.SERCOM0_USART_Read 0x20009b54         0x1000        4096   
.bss.scanResultCache    0x2000ab54          0x867        2151   
.bss.isLastByteTransfer 0x2000b3bb            0x1           1   
.bss.ws281x_driverData  0x2000b3bc          0x84c        2124   
.bss.wincSockets        0x2000bc08          0x528        1320   
.bss.wincCtrlDescriptor 0x2000c130          0x364         868   
.bss.fcm360w_driverData 0x2000c494          0x214         532   
.bss.eicCallbackObject  0x2000c6a8           0xc0         192   
.bss.timers             0x2000c768           0xa0         160   
.bss.rtc_driverData     0x2000c808           0x90         144   
.bss.wincDevCtrlCtx     0x2000c898           0x8c         140   
.bss.gDrvSPIObj         0x2000c924           0x74         116   
.bss.dmacChannelObj     0x2000c998           0x70         112   
.bss.descriptor_section 0x2000ca08           0x70         112   
.bss.write_back_section 0x2000ca78           0x70         112   
.bss.gDrvUSARTObj       0x2000cae8           0x60          96   
.bss.ad9954_driverData  0x2000cb48           0x50          80   
.bss.sen63c_driverData  0x2000cb98           0x50          80   
.bss.stcc4_driverData   0x2000cbe8           0x50          80   
.bss                    0x2000cc38           0x50          80  Uninitialized data 
.bss.sercom0USARTObj    0x2000cc88           0x40          64   
.bss.can0DataTx         0x2000ccc8           0x40          64   
.bss.gDrvI2CObj         0x2000cd08           0x3c          60   
.bss.sercom1USARTObj    0x2000cd44           0x30          48   
.bss.txDummyData        0x2000cd74            0x4           4   
.bss.gSystemCounterObj  0x2000cd78           0x30          48   
.bss.bmp585_sensorData  0x2000cda8           0x30          48   
.bss.stcc4_sensorData   0x2000cdd8           0x30          48   
.bss.sercom2I2CObj      0x2000ce08           0x2c          44   
.bss.sercom3SPIObj      0x2000ce34           0x2c          44   
.bss.sercom4SPIObj      0x2000ce60           0x2c          44   
.bss.drvI2C0TransferObj 0x2000ce8c           0x2c          44   
.bss.drvSPI0ClientObjPo 0x2000ceb8           0x28          40   
.bss.mcp9808_driverData 0x2000cee0           0x28          40   
.bss.drvUSART0BufferObj 0x2000cf08           0x24          36   
.bss.drvSPI0TransferObj 0x2000cf2c           0x24          36   
.bss.bmp585_driverData  0x2000cf50           0x24          36   
.bss.hdc302x_sensorData 0x2000cf74           0x24          36   
.bss.hdc302x_driverData 0x2000cf98           0x24          36   
.bss.sht4x_driverData   0x2000cfbc           0x24          36   
.bss.bme690_driverData  0x2000cfe0           0x20          32   
.bss.ssd1306_driverData 0x2000d000           0x20          32   
.bss.vcnl4200_driverDat 0x2000d020           0x20          32   
.bss.xm125_driverData   0x2000d040           0x20          32   
.bss                    0x2000d060           0x1c          28  Uninitialized data 
.bss.spiDcpt            0x2000d07c           0x1c          28   
.bss.can0Obj            0x2000d098           0x1c          28   
.bss.wincDescriptor     0x2000d0b4           0x18          24   
.bss.sysObj             0x2000d0cc           0x18          24   
.bss.drvI2C0ClientObjPo 0x2000d0e4           0x18          24   
.bss.sht4x_sensorData   0x2000d0fc           0x14          20   
.bss.timer_driverData   0x2000d110           0x14          20   
.bss.initData           0x2000d124           0x10          16   
.bss.drvUSART0ClientObj 0x2000d134           0x10          16   
.bss.mcp9808_sensorData 0x2000d144           0x10          16   
.bss.rtcObj             0x2000d154            0xc          12   
.bss.systick            0x2000d160            0xc          12   
.bss.consoleDeviceInsta 0x2000d16c            0xc          12   
.bss.console_driverData 0x2000d178            0xc          12   
.bss                    0x2000d184            0xc          12  Uninitialized data 
.bss.ADC0_CallbackObjec 0x2000d190            0x8           8   
.bss.freqmObj           0x2000d198            0x8           8   
.bss.supcCallbackObject 0x2000d1a0            0x8           8   
.bss.gConsoleUartData   0x2000d1a8            0x8           8   
.bss.ntc_sensorData     0x2000d1b0            0x8           8   
.bss.appData            0x2000d1b8            0x5           5   
.bss.isLastByteTransfer 0x2000d1bd            0x1           1   
.bss.consolePrintBuffer 0x2000d1be            0x1           1   
.bss.isConsoleMutexCrea 0x2000d1bf            0x1           1   
.bss.dummyDataRx        0x2000d1c0            0x4           4   
.bss.dummyDataTx        0x2000d1c4            0x4           4   
.bss.pfSDIOSendReceive  0x2000d1c8            0x4           4   
.bss.pGlobalSlabAllocCt 0x2000d1cc            0x4           4   
.bss.pCurrentDnsRequest 0x2000d1d0            0x4           4   
.bss.socketEventCallbac 0x2000d1d4            0x4           4   
.bss.pfSocketEventCallb 0x2000d1d8            0x4           4   
.bss.wincDevHandle      0x2000d1dc            0x4           4   
.bss.pfWINCDebugPrintCb 0x2000d1e0            0x4           4   
.bss.ntc_driverData     0x2000d1e4            0x4           4   
.bss.rstc_driverData    0x2000d1e8            0x4           4   
.bss                    0x2000d1ec            0x4           4  Uninitialized data 
.bss                    0x2000d1f0            0x4           4  Uninitialized data 
.bss                    0x2000d1f4            0x4           4  Uninitialized data 
.bss                    0x2000d1f8            0x4           4  Uninitialized data 
.data.ASCII             0x2000d1fc          0x1e0         480   
.data                   0x2000d3dc            0x4           4  Initialized data 
.data.gSysTimeTokenCoun 0x2000d3e0            0x2           2   
         Total RAM used  :      0xd3e2       54242  82.8% of 0x10000
        --------------------------------------------------------------------------
            Total Data Memory used  :      0xd3e2       54242  82.8% of 0x10000
        --------------------------------------------------------------------------


Dynamic Data-Memory Reservation
section                    address  length [bytes]      (dec)  Description
-------                 ----------  -------------------------  -----------
heap                    0x2000d3e8         0x2000        8192  Reserved for heap 
stack                   0x2000f400          0xbf0        3056  Reserved for stack 

        --------------------------------------------------------------------------

Microchip PIC32 Memory-Usage Report By Module

        text        data         bss         dec         hex    basename                      filename
--------------------------------------------------------------------------------
        1027           0       23424       24451        5f83    can0_driver.o             build/default/production/_ext/1360937237/can0_driver.o
        1284           0        8256        9540        2544    plib_sercom0_usart.o      build/default/production/_ext/504274921/plib_sercom0_usart.o
         260           0        8206        8466        2112    sys_console.o             build/default/production/_ext/1832805299/sys_console.o
        4984           0        1356        6340        18c4    winc_socket.o             build/default/production/_ext/1857064221/winc_socket.o
          16           0        4116        4132        1024    wincs02_driver.o          build/default/production/_ext/1360937237/wincs02_driver.o
        2932           0         896        3828         ef4    wdrv_winc.o               build/default/production/_ext/1706628858/wdrv_winc.o
         984           0        2124        3108         c24    ws281x_driver.o           build/default/production/_ext/1360937237/ws281x_driver.o
        2944           0         120        3064         bf8    drv_spi.o                 build/default/production/_ext/2070931557/drv_spi.o
        2512         480          32        3024         bd0    ssd1306_driver.o          build/default/production/_ext/1360937237/ssd1306_driver.o
         638           0        2151        2789         ae5    wdrv_winc_bssfind.o       build/default/production/_ext/1706628858/wdrv_winc_bssfind.o
        2386           0         140        2526         9de    winc_dev.o                build/default/production/_ext/1857064221/winc_dev.o
        2220           0          96        2316         90c    drv_usart.o               build/default/production/_ext/869808652/drv_usart.o
        2124           0           4        2128         850    winc_sdio_drv.o           build/default/production/_ext/1857064221/winc_sdio_drv.o
        2028           0          60        2088         828    drv_i2c.o                 build/default/production/_ext/158385033/drv_i2c.o
        1812           0           0        1812         714    winc_cmds.o               build/default/production/_ext/1857064221/winc_cmds.o
        1316           2         208        1526         5f6    sys_time.o                build/default/production/_ext/101884895/sys_time.o
        1380           0          84        1464         5b8    bmp585_driver.o           build/default/production/_ext/1360937237/bmp585_driver.o
        1456           0           0        1456         5b0    data_init                 data_init
        1272           0           0        1272         4f8    __fmt_fp.o                libc-musl.a
        1244           0           0        1244         4dc    wdrv_winc_mqtt.o          build/default/production/_ext/1706628858/wdrv_winc_mqtt.o
        1176           0          48        1224         4c8    plib_sercom1_usart.o      build/default/production/_ext/504274921/plib_sercom1_usart.o
        1168           0          44        1212         4bc    plib_sercom2_i2c_master.o build/default/production/_ext/508257091/plib_sercom2_i2c_master.o
        1184           0           0        1184         4a0    __fmt_a.o                 libc-musl.a
         592           0         532        1124         464    fcm360w_driver.o          build/default/production/_ext/1360937237/fcm360w_driver.o
         960           0         128        1088         440    stcc4_driver.o            build/default/production/_ext/1360937237/stcc4_driver.o
        1067           0           0        1067         42b    __printf_core.o           libc-musl.a
         976           0          56        1032         408    mcp9808_driver.o          build/default/production/_ext/1360937237/mcp9808_driver.o
         808           0         220        1028         404    initialization.o          build/default/production/_ext/1171490990/initialization.o
         680           0         336        1016         3f8    plib_dmac.o               build/default/production/_ext/1865161661/plib_dmac.o
         968           0          45        1013         3f5    plib_sercom3_spi_master.o build/default/production/_ext/17022449/plib_sercom3_spi_master.o
         788           0          80         868         364    ad9954_driver.o           build/default/production/_ext/1360937237/ad9954_driver.o
         756           0          28         784         310    plib_can0.o               build/default/production/_ext/60165182/plib_can0.o
         672           0          56         728         2d8    sht4x_driver.o            build/default/production/_ext/1360937237/sht4x_driver.o
         336           0         192         528         210    plib_eic.o                build/default/production/_ext/60167341/plib_eic.o
         500           0           0         500         1f4    wdrv_winc_sta.o           build/default/production/_ext/1706628858/wdrv_winc_sta.o
         456           0           0         456         1c8    __aeabi_dadd.o            libm-fast-emfloat.a
         408           0          36         444         1bc    wdrv_winc_spi.o           build/default/production/_ext/622324608/wdrv_winc_spi.o
         396           0          45         441         1b9    plib_sercom4_spi_master.o build/default/production/_ext/17022449/plib_sercom4_spi_master.o
         398           0           8         406         196    sys_console_uart.o        build/default/production/_ext/1832805299/sys_console_uart.o
         256           0         144         400         190    rtc_driver.o              build/default/production/_ext/1360937237/rtc_driver.o
         394           0           0         394         18a    __aeabi_dmul_aux.o        libm-fast-emfloat.a
         388           0           0         388         184    plib_clock.o              build/default/production/_ext/1984496892/plib_clock.o
         316           0          72         388         184    hdc302x_driver.o          build/default/production/_ext/1360937237/hdc302x_driver.o
         380           0           0         380         17c    wdrv_winc_softap.o        build/default/production/_ext/1706628858/wdrv_winc_softap.o
         340           0          20         360         168    timer_driver.o            build/default/production/_ext/1360937237/timer_driver.o
         344           0           5         349         15d    app.o                     build/default/production/_ext/1360937237/app.o
         332           0           4         336         150    rstc_driver.o             build/default/production/_ext/1360937237/rstc_driver.o
         314           0           0         314         13a    __aeabi_fadd.o            libm-fast-emfloat.a
         314           0           0         314         13a    wdrv_winc_assoc.o         build/default/production/_ext/1706628858/wdrv_winc_assoc.o
         302           0           0         302         12e    __fmt_x.o                 libc-musl.a
         290           0          12         302         12e    plib_systick.o            build/default/production/_ext/1827571544/plib_systick.o
         278           0           0         278         116    wdrv_winc_extcrypto.o     build/default/production/_ext/1706628858/wdrv_winc_extcrypto.o
         270           0           0         270         10e    plib_nvic.o               build/default/production/_ext/1865468468/plib_nvic.o
         256           0           0         256         100    wdrv_winc_ota.o           build/default/production/_ext/1706628858/wdrv_winc_ota.o
         248           0           0         248          f8    wdrv_winc_dns.o           build/default/production/_ext/1706628858/wdrv_winc_dns.o
         232           0          12         244          f4    ntc_driver.o              build/default/production/_ext/1360937237/ntc_driver.o
         224           0          12         236          ec    plib_rtc_clock.o          build/default/production/_ext/60180175/plib_rtc_clock.o
         156           0          80         236          ec    sen63c_driver.o           build/default/production/_ext/1360937237/sen63c_driver.o
         230           0           0         230          e6    _udivmoddi4.o             libgcc.a
         222           0           0         222          de    wdrv_winc_nvm.o           build/default/production/_ext/1706628858/wdrv_winc_nvm.o
         216           0           4         220          dc    lite_free.o               liblmalloc-musl.a
         218           0           0         218          da    interrupts.o              build/default/production/_ext/1171490990/interrupts.o
         184           0          32         216          d8    bme690_driver.o           build/default/production/_ext/1360937237/bme690_driver.o
         184           0          32         216          d8    vcnl4200_driver.o         build/default/production/_ext/1360937237/vcnl4200_driver.o
         184           0          32         216          d8    xm125_driver.o            build/default/production/_ext/1360937237/xm125_driver.o
         214           0           0         214          d6    __pop_int.o               libc-musl.a
         212           0           0         212          d4    wdrv_winc_socket.o        build/default/production/_ext/1706628858/wdrv_winc_socket.o
         204           0           8         212          d4    plib_adc0.o               build/default/production/_ext/60163342/plib_adc0.o
         210           0           0         210          d2    startup_xc32.o            build/default/production/_ext/1171490990/startup_xc32.o
         196           0           0         196          c4    __aeabi_ddiv.o            libm-fast-emfloat.a
         188           0           0         188          bc    floor.o                   libm-fast-emfloat.a
         182           0           0         182          b6    __aeabi_fmul.o            libm-fast-emfloat.a
         180           0           0         180          b4    wdrv_winc_prov.o          build/default/production/_ext/1706628858/wdrv_winc_prov.o
         180           0           0         180          b4    __fmt_d.o                 libc-musl.a
         164           0          12         176          b0    sbrk.o                    libpic32c.a
         168           0           0         168          a8    _divsi3.o                 libgcc.a
         160           0           0         160          a0    plib_port.o               build/default/production/_ext/1865521619/plib_port.o
         140           0          12         152          98    console_driver.o          build/default/production/_ext/1360937237/console_driver.o
         148           0           0         148          94    __aeabi_fdiv.o            libm-fast-emfloat.a
         136           0           8         144          90    plib_supc.o               build/default/production/_ext/1865616679/plib_supc.o
         140           0           0         140          8c    _udivsi3.o                libgcc.a
         118           0           0         118          76    __cvt_u.o                 libc-musl.a
         118           0           0         118          76    __pop_ptr.o               libc-musl.a
         110           0           0         110          6e    __fmt_o.o                 libc-musl.a
          72           8          28         108          6c    crtbegin.o                C:/Applications/Microchip/XC32/bin/bin/../../lib/gcc/pic32c/13.2.1/thumb/v6-m/nofp/crtbegin.o
         104           0           0         104          68    sys_int.o                 build/default/production/_ext/1881668453/sys_int.o
         102           0           0         102          66    winc_cmd_req.o            build/default/production/_ext/1857064221/winc_cmd_req.o
         100           0           0         100          64    vsnprintf.o               libc-musl.a
          98           0           0          98          62    __aeabi_d2f.o             libm-fast-emfloat.a
          92           4           0          96          60    lite_malloc.o             liblmalloc-musl.a
          96           0           0          96          60    strchrnul.o               libc-size-musl.a
          94           0           0          94          5e    __libc_start_main.o       libc-musl.a
          92           0           0          92          5c    tasks.o                   build/default/production/_ext/1171490990/tasks.o
          90           0           0          90          5a    wdrv_winc_netif.o         build/default/production/_ext/1706628858/wdrv_winc_netif.o
          86           0           0          86          56    __fmt_u.o                 libc-musl.a
          82           0           4          86          56    data_init.o               libpic32c.a
          84           0           0          84          54    wdrv_winc_pps.o           build/default/production/_ext/1706628858/wdrv_winc_pps.o
          84           0           0          84          54    plib_wdt.o                build/default/production/_ext/60184501/plib_wdt.o
           0           0          80          80          50    libc.o                    libc-musl.a
          80           0           0          80          50    __fmt_s.o                 libc-musl.a
          78           0           0          78          4e    wdrv_winc_systime.o       build/default/production/_ext/1706628858/wdrv_winc_systime.o
          64           0           8          72          48    plib_freqm.o              build/default/production/_ext/1987437027/plib_freqm.o
          72           0           0          72          48    plib_tcc0.o               build/default/production/_ext/60181570/plib_tcc0.o
          68           0           0          68          44    __aeabi_dcmple.o          libm-fast-emfloat.a
          68           0           0          68          44    sys_dma.o                 build/default/production/_ext/14461671/sys_dma.o
          68           0           0          68          44    _muldi3.o                 libgcc.a
          68           0           0          68          44    atoi.o                    libc-musl.a
          68           0           0          68          44    __aeabi_f2d.o             libm-fast-emfloat.a
          64           0           0          64          40    _aeabi_uldivmod.o         libgcc.a
          62           0           0          62          3e    __aeabi_f2iz.o            libm-fast-emfloat.a
          62           0           0          62          3e    __aeabi_dcmplt.o          libm-fast-emfloat.a
          62           0           0          62          3e    __aeabi_dcmpgt.o          libm-fast-emfloat.a
          60           0           0          60          3c    strstr.o                  libc-size-musl.a
          60           0           0          60          3c    _clzsi2.o                 libgcc.a
          54           0           0          54          36    __pop_float.o             libc-musl.a
          52           0           0          52          34    __aeabi_d2iz.o            libm-fast-emfloat.a
          46           0           0          46          2e    __aeabi_d2uiz.o           libm-fast-emfloat.a
          46           0           0          46          2e    __aeabi_dcmpeq.o          libm-fast-emfloat.a
          44           0           0          44          2c    plib_sercom5_spi_master.o build/default/production/_ext/17022449/plib_sercom5_spi_master.o
          40           0           0          40          28    plib_pm.o                 build/default/production/_ext/829342769/plib_pm.o
          38           0           0          38          26    wdrv_winc_eint.o          build/default/production/_ext/622324608/wdrv_winc_eint.o
          38           0           0          38          26    __aeabi_i2f.o             libm-fast-emfloat.a
          36           0           0          36          24    __aeabi_f2uiz.o           libm-fast-emfloat.a
          30           0           0          30          1e    pic32_data_init_copy.o    libpic32c.a
          30           0           0          30          1e    memcmp.o                  libc-size-musl.a
          30           0           0          30          1e    __aeabi_ui2f.o            libm-fast-emfloat.a
          28           0           0          28          1c    plib_dac.o                build/default/production/_ext/60166132/plib_dac.o
          24           0           0          24          18    strlen.o                  libc-size-musl.a
          24           0           0          24          18    vfprintf.o                libc-musl.a
          24           0           0          24          18    _clzdi2.o                 libgcc.a
          24           0           0          24          18    _ashldi3.o                libgcc.a
          24           0           0          24          18    _lshrdi3.o                libgcc.a
          22           0           0          22          16    expand_heap.o             libc-musl.a
          22           0           0          22          16    sprintf.o                 libc-musl.a
          20           0           0          20          14    memset.o                  libc-size-musl.a
          20           0           0          20          14    _thumb1_case_uqi.o        libgcc.a
          20           0           0          20          14    strchr.o                  libc-size-musl.a
          20           0           0          20          14    stpcpy.o                  libc-size-musl.a
          20           0           0          20          14    vsprintf.o                libc-musl.a
          20           0           0          20          14    memcpy.o                  libc-size-musl.a
          18           0           0          18          12    pic32_data_init_clear.o   libpic32c.a
          16           0           0          16          10    crtn.o                    C:/Applications/Microchip/XC32/bin/bin/../../lib/gcc/pic32c/13.2.1/thumb/v6-m/nofp/crtn.o
          16           0           0          16          10    __aeabi_dsub.o            libm-fast-emfloat.a
          16           0           0          16          10    __aeabi_fsub.o            libm-fast-emfloat.a
          16           0           0          16          10    fma.o                     libm-fast-emfloat.a
          14           0           0          14           e    tolower.o                 libc-musl.a
          14           0           0          14           e    toupper.o                 libc-musl.a
          14           0           0          14           e    main.o                    build/default/production/_ext/1360937237/main.o
          12           0           0          12           c    plib_nvmctrl.o            build/default/production/_ext/1593096446/plib_nvmctrl.o
          12           0           0          12           c    strcpy.o                  libc-size-musl.a
          12           0           0          12           c    plib_rstc.o               build/default/production/_ext/1865585090/plib_rstc.o
           8           0           0           8           8    crti.o                    C:/Applications/Microchip/XC32/bin/bin/../../lib/gcc/pic32c/13.2.1/thumb/v6-m/nofp/crti.o
           0           0           4           4           4    __errno_location.o        libc-musl.a
           0           0           4           4           4    __environ.o               libc-musl.a
           4           0           0           4           4    _dvmd_tls.o               libgcc.a
           4           0           0           4           4    exceptions.o              build/default/production/_ext/1171490990/exceptions.o
           2           0           0           2           2    plib_evsys.o              build/default/production/_ext/1986646378/plib_evsys.o
--------------------------------------------------------------------------------
       62602         494       53756      116852       1c874    dist/default/production/PIC32CMJH01.X.production.elf


Discarded input sections

 .text          0x00000000        0x0 C:/Applications/Microchip/XC32/bin/bin/../../lib/gcc/pic32c/13.2.1/thumb/v6-m/nofp/crti.o
 .data          0x00000000        0x0 C:/Applications/Microchip/XC32/bin/bin/../../lib/gcc/pic32c/13.2.1/thumb/v6-m/nofp/crti.o
 .bss           0x00000000        0x0 C:/Applications/Microchip/XC32/bin/bin/../../lib/gcc/pic32c/13.2.1/thumb/v6-m/nofp/crti.o
 .xc_stack_usage.hdr
                0x00000000        0xe C:/Applications/Microchip/XC32/bin/bin/../../lib/gcc/pic32c/13.2.1/thumb/v6-m/nofp/crti.o
 .xc_stack_usage
                0x00000000       0x26 C:/Applications/Microchip/XC32/bin/bin/../../lib/gcc/pic32c/13.2.1/thumb/v6-m/nofp/crti.o
 .data          0x00000000        0x4 C:/Applications/Microchip/XC32/bin/bin/../../lib/gcc/pic32c/13.2.1/thumb/v6-m/nofp/crtbegin.o
 .rodata        0x00000000       0x24 C:/Applications/Microchip/XC32/bin/bin/../../lib/gcc/pic32c/13.2.1/thumb/v6-m/nofp/crtbegin.o
 .xc_stack_usage
                0x00000000       0x3c C:/Applications/Microchip/XC32/bin/bin/../../lib/gcc/pic32c/13.2.1/thumb/v6-m/nofp/crtbegin.o
 .xc_stack_usage.hdr
                0x00000000        0xe C:/Applications/Microchip/XC32/bin/bin/../../lib/gcc/pic32c/13.2.1/thumb/v6-m/nofp/crtbegin.o
 .text          0x00000000        0x0 build/default/production/_ext/158385033/drv_i2c.o
 .data          0x00000000        0x0 build/default/production/_ext/158385033/drv_i2c.o
 .bss           0x00000000        0x0 build/default/production/_ext/158385033/drv_i2c.o
 .text.DRV_I2C_Status
                0x00000000       0x14 build/default/production/_ext/158385033/drv_i2c.o
 .text.DRV_I2C_TransferEventHandlerSet
                0x00000000       0x38 build/default/production/_ext/158385033/drv_i2c.o
 .text.DRV_I2C_TransferSetup
                0x00000000       0x1e build/default/production/_ext/158385033/drv_i2c.o
 .text.DRV_I2C_ErrorGet
                0x00000000       0x54 build/default/production/_ext/158385033/drv_i2c.o
 .text.DRV_I2C_QueuePurge
                0x00000000       0x7c build/default/production/_ext/158385033/drv_i2c.o
 .text          0x00000000        0x0 build/default/production/_ext/2070931557/drv_spi.o
 .data          0x00000000        0x0 build/default/production/_ext/2070931557/drv_spi.o
 .bss           0x00000000        0x0 build/default/production/_ext/2070931557/drv_spi.o
 .text.DRV_SPI_Status
                0x00000000       0x14 build/default/production/_ext/2070931557/drv_spi.o
 .text.DRV_SPI_TransferEventHandlerSet
                0x00000000       0x34 build/default/production/_ext/2070931557/drv_spi.o
 .text.DRV_SPI_TransferSetup
                0x00000000       0x2e build/default/production/_ext/2070931557/drv_spi.o
 .text.DRV_SPI_ReadTransferAdd
                0x00000000       0x16 build/default/production/_ext/2070931557/drv_spi.o
 .text.DRV_SPI_Lock
                0x00000000       0xd0 build/default/production/_ext/2070931557/drv_spi.o
 .text          0x00000000        0x0 build/default/production/_ext/869808652/drv_usart.o
 .data          0x00000000        0x0 build/default/production/_ext/869808652/drv_usart.o
 .bss           0x00000000        0x0 build/default/production/_ext/869808652/drv_usart.o
 .text.lDRV_USART_GetTransferObj
                0x00000000       0x32 build/default/production/_ext/869808652/drv_usart.o
 .text.lDRV_USART_ReadAbort
                0x00000000       0x3a build/default/production/_ext/869808652/drv_usart.o
 .text.lDRV_USART_QueuePurge
                0x00000000       0x4c build/default/production/_ext/869808652/drv_usart.o
 .text.DRV_USART_Status
                0x00000000       0x14 build/default/production/_ext/869808652/drv_usart.o
 .text.DRV_USART_ErrorGet
                0x00000000       0x3a build/default/production/_ext/869808652/drv_usart.o
 .text.DRV_USART_SerialSetup
                0x00000000       0xb8 build/default/production/_ext/869808652/drv_usart.o
 .text.DRV_USART_BufferEventHandlerSet
                0x00000000       0x38 build/default/production/_ext/869808652/drv_usart.o
 .text.DRV_USART_BufferCompletedBytesGet
                0x00000000       0x68 build/default/production/_ext/869808652/drv_usart.o
 .text.DRV_USART_WriteQueuePurge
                0x00000000        0xa build/default/production/_ext/869808652/drv_usart.o
 .text.DRV_USART_ReadQueuePurge
                0x00000000        0xa build/default/production/_ext/869808652/drv_usart.o
 .text.DRV_USART_ReadAbort
                0x00000000       0x44 build/default/production/_ext/869808652/drv_usart.o
 .text          0x00000000        0x0 build/default/production/_ext/622324608/wdrv_winc_spi.o
 .data          0x00000000        0x0 build/default/production/_ext/622324608/wdrv_winc_spi.o
 .bss           0x00000000        0x0 build/default/production/_ext/622324608/wdrv_winc_spi.o
 .text          0x00000000        0x0 build/default/production/_ext/622324608/wdrv_winc_eint.o
 .data          0x00000000        0x0 build/default/production/_ext/622324608/wdrv_winc_eint.o
 .bss           0x00000000        0x0 build/default/production/_ext/622324608/wdrv_winc_eint.o
 .text          0x00000000        0x0 build/default/production/_ext/1857064221/winc_cmds.o
 .data          0x00000000        0x0 build/default/production/_ext/1857064221/winc_cmds.o
 .bss           0x00000000        0x0 build/default/production/_ext/1857064221/winc_cmds.o
 .text.cmd44136fa3
                0x00000000       0x26 build/default/production/_ext/1857064221/winc_cmds.o
 .text.WINC_CmdReqSend
                0x00000000       0xac build/default/production/_ext/1857064221/winc_cmds.o
 .text.WINC_CmdGMI
                0x00000000        0xe build/default/production/_ext/1857064221/winc_cmds.o
 .text.WINC_CmdGMM
                0x00000000       0x10 build/default/production/_ext/1857064221/winc_cmds.o
 .text.WINC_CmdGMR
                0x00000000       0x10 build/default/production/_ext/1857064221/winc_cmds.o
 .text.WINC_CmdCFGCP
                0x00000000       0x50 build/default/production/_ext/1857064221/winc_cmds.o
 .text.WINC_CmdDHCPSC
                0x00000000       0x72 build/default/production/_ext/1857064221/winc_cmds.o
 .text.WINC_CmdDNSC
                0x00000000       0x1c build/default/production/_ext/1857064221/winc_cmds.o
 .text.WINC_CmdDNSRESOLV
                0x00000000       0x6c build/default/production/_ext/1857064221/winc_cmds.o
 .text.WINC_CmdFSOP
                0x00000000       0x8c build/default/production/_ext/1857064221/winc_cmds.o
 .text.WINC_CmdFSLOAD
                0x00000000       0xe4 build/default/production/_ext/1857064221/winc_cmds.o
 .text.WINC_CmdFSSTORE
                0x00000000       0x90 build/default/production/_ext/1857064221/winc_cmds.o
 .text.WINC_CmdFSTSFR
                0x00000000       0xa0 build/default/production/_ext/1857064221/winc_cmds.o
 .text.WINC_CmdFSRECV
                0x00000000       0x78 build/default/production/_ext/1857064221/winc_cmds.o
 .text.WINC_CmdMQTTC
                0x00000000       0x1c build/default/production/_ext/1857064221/winc_cmds.o
 .text.WINC_CmdMQTTCONN
                0x00000000       0x4c build/default/production/_ext/1857064221/winc_cmds.o
 .text.WINC_CmdMQTTSUB
                0x00000000       0x60 build/default/production/_ext/1857064221/winc_cmds.o
 .text.WINC_CmdMQTTSUBLST
                0x00000000       0x10 build/default/production/_ext/1857064221/winc_cmds.o
 .text.WINC_CmdMQTTSUBRD
                0x00000000       0x60 build/default/production/_ext/1857064221/winc_cmds.o
 .text.WINC_CmdMQTTUNSUB
                0x00000000       0x40 build/default/production/_ext/1857064221/winc_cmds.o
 .text.WINC_CmdMQTTPUB
                0x00000000       0xa8 build/default/production/_ext/1857064221/winc_cmds.o
 .text.WINC_CmdMQTTLWT
                0x00000000       0x90 build/default/production/_ext/1857064221/winc_cmds.o
 .text.WINC_CmdMQTTDISCONN
                0x00000000       0x68 build/default/production/_ext/1857064221/winc_cmds.o
 .text.WINC_CmdMQTTPROPTX
                0x00000000       0x54 build/default/production/_ext/1857064221/winc_cmds.o
 .text.WINC_CmdMQTTPROPTXKV
                0x00000000       0x6c build/default/production/_ext/1857064221/winc_cmds.o
 .text.WINC_CmdMQTTPROPRX
                0x00000000       0x14 build/default/production/_ext/1857064221/winc_cmds.o
 .text.WINC_CmdMQTTPROPTXS
                0x00000000       0x8c build/default/production/_ext/1857064221/winc_cmds.o
 .text.WINC_CmdNETIFC
                0x00000000       0x74 build/default/production/_ext/1857064221/winc_cmds.o
 .text.WINC_CmdNETIFTX
                0x00000000       0x60 build/default/production/_ext/1857064221/winc_cmds.o
 .text.WINC_CmdOTAC
                0x00000000       0x1c build/default/production/_ext/1857064221/winc_cmds.o
 .text.WINC_CmdOTADL
                0x00000000       0x48 build/default/production/_ext/1857064221/winc_cmds.o
 .text.WINC_CmdOTAVFY
                0x00000000       0x10 build/default/production/_ext/1857064221/winc_cmds.o
 .text.WINC_CmdOTAACT
                0x00000000       0x10 build/default/production/_ext/1857064221/winc_cmds.o
 .text.WINC_CmdOTAINV
                0x00000000       0x10 build/default/production/_ext/1857064221/winc_cmds.o
 .text.WINC_CmdPING
                0x00000000       0x60 build/default/production/_ext/1857064221/winc_cmds.o
 .text.WINC_CmdRST
                0x00000000        0xe build/default/production/_ext/1857064221/winc_cmds.o
 .text.WINC_CmdSNTPC
                0x00000000       0x1c build/default/production/_ext/1857064221/winc_cmds.o
 .text.WINC_CmdSOCKO
                0x00000000       0x70 build/default/production/_ext/1857064221/winc_cmds.o
 .text.WINC_CmdSOCKBL
                0x00000000       0x8c build/default/production/_ext/1857064221/winc_cmds.o
 .text.WINC_CmdSOCKBR
                0x00000000       0x70 build/default/production/_ext/1857064221/winc_cmds.o
 .text.WINC_CmdSOCKBM
                0x00000000       0x70 build/default/production/_ext/1857064221/winc_cmds.o
 .text.WINC_CmdSOCKTLS
                0x00000000       0x60 build/default/production/_ext/1857064221/winc_cmds.o
 .text.WINC_CmdSOCKRDBUF
                0x00000000       0x70 build/default/production/_ext/1857064221/winc_cmds.o
 .text.WINC_CmdSOCKCL
                0x00000000       0x44 build/default/production/_ext/1857064221/winc_cmds.o
 .text.WINC_CmdSOCKLST
                0x00000000       0x4c build/default/production/_ext/1857064221/winc_cmds.o
 .text.WINC_CmdTIME
                0x00000000       0x4e build/default/production/_ext/1857064221/winc_cmds.o
 .text.WINC_CmdTIMEUTCSEC
                0x00000000       0x52 build/default/production/_ext/1857064221/winc_cmds.o
 .text.WINC_CmdTIMERFC
                0x00000000       0x54 build/default/production/_ext/1857064221/winc_cmds.o
 .text.WINC_CmdTLSC
                0x00000000       0x7a build/default/production/_ext/1857064221/winc_cmds.o
 .text.WINC_CmdTLSCSC
                0x00000000       0x7c build/default/production/_ext/1857064221/winc_cmds.o
 .text.WINC_CmdWAPC
                0x00000000       0x1c build/default/production/_ext/1857064221/winc_cmds.o
 .text.WINC_CmdWAP
                0x00000000       0x4c build/default/production/_ext/1857064221/winc_cmds.o
 .text.WINC_CmdWSCNC
                0x00000000       0x1c build/default/production/_ext/1857064221/winc_cmds.o
 .text.WINC_CmdWSCN
                0x00000000       0x48 build/default/production/_ext/1857064221/winc_cmds.o
 .text.WINC_CmdWSTAC
                0x00000000       0x1c build/default/production/_ext/1857064221/winc_cmds.o
 .text.WINC_CmdWSTA
                0x00000000       0x4c build/default/production/_ext/1857064221/winc_cmds.o
 .text.WINC_CmdASSOC
                0x00000000       0x48 build/default/production/_ext/1857064221/winc_cmds.o
 .text.WINC_CmdSI
                0x00000000       0x5c build/default/production/_ext/1857064221/winc_cmds.o
 .text.WINC_CmdWPROVC
                0x00000000       0x1c build/default/production/_ext/1857064221/winc_cmds.o
 .text.WINC_CmdWPROV
                0x00000000       0x4c build/default/production/_ext/1857064221/winc_cmds.o
 .text.WINC_CmdEXTCRYPTO
                0x00000000       0x72 build/default/production/_ext/1857064221/winc_cmds.o
 .text.WINC_CmdWIFIC
                0x00000000       0x1c build/default/production/_ext/1857064221/winc_cmds.o
 .text.WINC_CmdNVMER
                0x00000000       0x64 build/default/production/_ext/1857064221/winc_cmds.o
 .text.WINC_CmdNVMWR
                0x00000000       0x84 build/default/production/_ext/1857064221/winc_cmds.o
 .text.WINC_CmdNVMCHK
                0x00000000       0x60 build/default/production/_ext/1857064221/winc_cmds.o
 .text.WINC_CmdNVMRD
                0x00000000       0x6c build/default/production/_ext/1857064221/winc_cmds.o
 .text.WINC_CmdDFUSEQ
                0x00000000       0x48 build/default/production/_ext/1857064221/winc_cmds.o
 .text.WINC_CmdPPSC
                0x00000000       0x1c build/default/production/_ext/1857064221/winc_cmds.o
 .text.WINC_CmdPPS
                0x00000000       0x44 build/default/production/_ext/1857064221/winc_cmds.o
 .text.WINC_CmdSYSLOGC
                0x00000000       0x1c build/default/production/_ext/1857064221/winc_cmds.o
 .text          0x00000000        0x0 build/default/production/_ext/1857064221/winc_cmd_req.o
 .data          0x00000000        0x0 build/default/production/_ext/1857064221/winc_cmd_req.o
 .bss           0x00000000        0x0 build/default/production/_ext/1857064221/winc_cmd_req.o
 .text.WINC_CmdReqDiscard
                0x00000000       0x32 build/default/production/_ext/1857064221/winc_cmd_req.o
 .text          0x00000000        0x0 build/default/production/_ext/1857064221/winc_dev.o
 .data          0x00000000        0x0 build/default/production/_ext/1857064221/winc_dev.o
 .bss           0x00000000        0x0 build/default/production/_ext/1857064221/winc_dev.o
 .text.WINC_DevDeinit
                0x00000000       0x1a build/default/production/_ext/1857064221/winc_dev.o
 .text.WINC_DevSetDebugPrintf
                0x00000000        0xc build/default/production/_ext/1857064221/winc_dev.o
 .text.WINC_DevAECCallbackDeregister
                0x00000000       0x34 build/default/production/_ext/1857064221/winc_dev.o
 .text.WINC_DevInterceptCallbackRegister
                0x00000000       0x14 build/default/production/_ext/1857064221/winc_dev.o
 .text.WINC_DevBusStateGet
                0x00000000       0x16 build/default/production/_ext/1857064221/winc_dev.o
 .bss.pfWINCDevDebugPrintf
                0x00000000        0x4 build/default/production/_ext/1857064221/winc_dev.o
 .text          0x00000000        0x0 build/default/production/_ext/1857064221/winc_sdio_drv.o
 .data          0x00000000        0x0 build/default/production/_ext/1857064221/winc_sdio_drv.o
 .bss           0x00000000        0x0 build/default/production/_ext/1857064221/winc_sdio_drv.o
 .text.WINC_SDIOCmd8
                0x00000000       0x58 build/default/production/_ext/1857064221/winc_sdio_drv.o
 .text          0x00000000        0x0 build/default/production/_ext/1857064221/winc_socket.o
 .data          0x00000000        0x0 build/default/production/_ext/1857064221/winc_socket.o
 .bss           0x00000000        0x0 build/default/production/_ext/1857064221/winc_socket.o
 .text.sockFindPendingSocket
                0x00000000       0x74 build/default/production/_ext/1857064221/winc_socket.o
 .text.dnsCmdRspCallbackHandler
                0x00000000       0x16 build/default/production/_ext/1857064221/winc_socket.o
 .text.sizeof_sockaddr
                0x00000000       0x20 build/default/production/_ext/1857064221/winc_socket.o
 .text.sockGetEndPtName
                0x00000000       0x90 build/default/production/_ext/1857064221/winc_socket.o
 .text.sockAllocSocketBuffers
                0x00000000      0x11a build/default/production/_ext/1857064221/winc_socket.o
 .text.sockCmdRspCallbackHandlerSeqUpdate
                0x00000000       0x34 build/default/production/_ext/1857064221/winc_socket.o
 .text.WINC_SockDeinit
                0x00000000       0x58 build/default/production/_ext/1857064221/winc_socket.o
 .text.WINC_SockRegisterEventCallback
                0x00000000       0x1c build/default/production/_ext/1857064221/winc_socket.o
 .rodata.inet_ntop.str1.4
                0x00000000       0x47 build/default/production/_ext/1857064221/winc_socket.o
 .text.inet_ntop
                0x00000000      0x1ac build/default/production/_ext/1857064221/winc_socket.o
 .text.inet_pton
                0x00000000      0x1f8 build/default/production/_ext/1857064221/winc_socket.o
 .text.socket   0x00000000      0x1a8 build/default/production/_ext/1857064221/winc_socket.o
 .text.shutdown
                0x00000000       0xc4 build/default/production/_ext/1857064221/winc_socket.o
 .text.bind     0x00000000      0x1b8 build/default/production/_ext/1857064221/winc_socket.o
 .text.listen   0x00000000      0x110 build/default/production/_ext/1857064221/winc_socket.o
 .text.accept   0x00000000       0xb0 build/default/production/_ext/1857064221/winc_socket.o
 .text.connect  0x00000000      0x124 build/default/production/_ext/1857064221/winc_socket.o
 .text.recvfrom
                0x00000000      0x1e4 build/default/production/_ext/1857064221/winc_socket.o
 .text.recv     0x00000000       0x12 build/default/production/_ext/1857064221/winc_socket.o
 .text.sendto   0x00000000      0x17c build/default/production/_ext/1857064221/winc_socket.o
 .text.send     0x00000000       0x12 build/default/production/_ext/1857064221/winc_socket.o
 .text.getaddrinfo
                0x00000000      0x1d8 build/default/production/_ext/1857064221/winc_socket.o
 .text.freeaddrinfo
                0x00000000       0x24 build/default/production/_ext/1857064221/winc_socket.o
 .text.poll     0x00000000      0x114 build/default/production/_ext/1857064221/winc_socket.o
 .text.getsockname
                0x00000000        0xa build/default/production/_ext/1857064221/winc_socket.o
 .text.getpeername
                0x00000000        0xa build/default/production/_ext/1857064221/winc_socket.o
 .text.htons    0x00000000        0x6 build/default/production/_ext/1857064221/winc_socket.o
 .text.htonl    0x00000000       0x1e build/default/production/_ext/1857064221/winc_socket.o
 .text.setsockopt
                0x00000000      0x330 build/default/production/_ext/1857064221/winc_socket.o
 .text.ntohs    0x00000000        0x6 build/default/production/_ext/1857064221/winc_socket.o
 .text.ntohl    0x00000000       0x1e build/default/production/_ext/1857064221/winc_socket.o
 .data.transPrefix.0
                0x00000000        0xc build/default/production/_ext/1857064221/winc_socket.o
 .rodata.in6addr_loopback
                0x00000000       0x10 build/default/production/_ext/1857064221/winc_socket.o
 .rodata.in6addr_any
                0x00000000       0x10 build/default/production/_ext/1857064221/winc_socket.o
 .text          0x00000000        0x0 build/default/production/_ext/1857064221/winc_tables.o
 .data          0x00000000        0x0 build/default/production/_ext/1857064221/winc_tables.o
 .bss           0x00000000        0x0 build/default/production/_ext/1857064221/winc_tables.o
 .text.tablesLookupByString
                0x00000000       0x3a build/default/production/_ext/1857064221/winc_tables.o
 .text.WINC_TablesCommandIterate
                0x00000000       0x20 build/default/production/_ext/1857064221/winc_tables.o
 .text.WINC_TablesCommandLookupByString
                0x00000000       0x14 build/default/production/_ext/1857064221/winc_tables.o
 .rodata.WINC_TablesCommandLookupByID.str1.4
                0x00000000        0x5 build/default/production/_ext/1857064221/winc_tables.o
 .text.WINC_TablesCommandLookupByID
                0x00000000       0x20 build/default/production/_ext/1857064221/winc_tables.o
 .text.WINC_TablesAECIterate
                0x00000000       0x20 build/default/production/_ext/1857064221/winc_tables.o
 .text.WINC_TablesAECLookupByString
                0x00000000       0x14 build/default/production/_ext/1857064221/winc_tables.o
 .rodata.WINC_TablesAECLookupByID.str1.4
                0x00000000        0x6 build/default/production/_ext/1857064221/winc_tables.o
 .text.WINC_TablesAECLookupByID
                0x00000000       0x20 build/default/production/_ext/1857064221/winc_tables.o
 .text.WINC_TablesStatusIterate
                0x00000000       0x20 build/default/production/_ext/1857064221/winc_tables.o
 .text.WINC_TablesModuleStatusIterate
                0x00000000       0x40 build/default/production/_ext/1857064221/winc_tables.o
 .rodata.WINC_TablesStatusLookupByID.str1.4
                0x00000000        0x3 build/default/production/_ext/1857064221/winc_tables.o
 .text.WINC_TablesStatusLookupByID
                0x00000000       0x20 build/default/production/_ext/1857064221/winc_tables.o
 .text.WINC_TablesModuleIDListGet
                0x00000000       0x14 build/default/production/_ext/1857064221/winc_tables.o
 .rodata.wincModuleIdList
                0x00000000       0x1e build/default/production/_ext/1857064221/winc_tables.o
 .rodata.str1.4
                0x00000000      0xa51 build/default/production/_ext/1857064221/winc_tables.o
 .rodata.wincStatusIdTable
                0x00000000      0x268 build/default/production/_ext/1857064221/winc_tables.o
 .rodata.wincAecIdTable
                0x00000000      0x1a8 build/default/production/_ext/1857064221/winc_tables.o
 .rodata.wincCmdIdTable
                0x00000000      0x248 build/default/production/_ext/1857064221/winc_tables.o
 .debug_info    0x00000000      0x772 build/default/production/_ext/1857064221/winc_tables.o
 .debug_abbrev  0x00000000      0x21f build/default/production/_ext/1857064221/winc_tables.o
 .debug_loc     0x00000000      0x5db build/default/production/_ext/1857064221/winc_tables.o
 .debug_aranges
                0x00000000       0x70 build/default/production/_ext/1857064221/winc_tables.o
 .debug_ranges  0x00000000       0x60 build/default/production/_ext/1857064221/winc_tables.o
 .debug_line    0x00000000      0x44c build/default/production/_ext/1857064221/winc_tables.o
 .debug_str     0x00000000      0x4dc build/default/production/_ext/1857064221/winc_tables.o
 .comment       0x00000000       0x36 build/default/production/_ext/1857064221/winc_tables.o
 .debug_frame   0x00000000       0xf4 build/default/production/_ext/1857064221/winc_tables.o
 .ARM.attributes
                0x00000000       0x2c build/default/production/_ext/1857064221/winc_tables.o
 .text          0x00000000        0x0 build/default/production/_ext/1706628858/wdrv_winc.o
 .data          0x00000000        0x0 build/default/production/_ext/1706628858/wdrv_winc.o
 .bss           0x00000000        0x0 build/default/production/_ext/1706628858/wdrv_winc.o
 .text.wincRegDomainCallback
                0x00000000        0x2 build/default/production/_ext/1706628858/wdrv_winc.o
 .text.WDRV_WINC_Deinitialize
                0x00000000       0x6c build/default/production/_ext/1706628858/wdrv_winc.o
 .text.WDRV_WINC_Reinitialize
                0x00000000        0x2 build/default/production/_ext/1706628858/wdrv_winc.o
 .text.WDRV_WINC_Status
                0x00000000       0x24 build/default/production/_ext/1706628858/wdrv_winc.o
 .text.WDRV_WINC_StatusExt
                0x00000000       0x28 build/default/production/_ext/1706628858/wdrv_winc.o
 .text.WDRV_WINC_RegisterSystemEventCallback
                0x00000000        0xa build/default/production/_ext/1706628858/wdrv_winc.o
 .text.WDRV_WINC_DebugRegisterCallback
                0x00000000        0xc build/default/production/_ext/1706628858/wdrv_winc.o
 .text.WDRV_WINC_Open
                0x00000000       0x84 build/default/production/_ext/1706628858/wdrv_winc.o
 .text.WDRV_WINC_Close
                0x00000000       0x30 build/default/production/_ext/1706628858/wdrv_winc.o
 .text.WDRV_WINC_InfoDriverVersionGet
                0x00000000       0x2e build/default/production/_ext/1706628858/wdrv_winc.o
 .text.WDRV_WINC_InfoDeviceFirmwareVersionGet
                0x00000000       0x4e build/default/production/_ext/1706628858/wdrv_winc.o
 .text.WDRV_WINC_InfoDeviceCallbackSet
                0x00000000       0x24 build/default/production/_ext/1706628858/wdrv_winc.o
 .text.WDRV_WINC_InfoOpChanGet
                0x00000000       0x34 build/default/production/_ext/1706628858/wdrv_winc.o
 .text.WDRV_WINC_L2DataMonitorCallbackSet
                0x00000000       0x84 build/default/production/_ext/1706628858/wdrv_winc.o
 .text.WDRV_WINC_L2DataFrameSend
                0x00000000       0x60 build/default/production/_ext/1706628858/wdrv_winc.o
 .text.WDRV_WINC_InfoDeviceGet
                0x00000000       0x4c build/default/production/_ext/1706628858/wdrv_winc.o
 .text.WDRV_WINC_DeviceFirmwareImagePrepare
                0x00000000      0x114 build/default/production/_ext/1706628858/wdrv_winc.o
 .text.WDRV_WINC_AntiRollbackSet
                0x00000000       0x80 build/default/production/_ext/1706628858/wdrv_winc.o
 .text.WDRV_WINC_InfoAntiRollbackGet
                0x00000000       0x7c build/default/production/_ext/1706628858/wdrv_winc.o
 .text.WDRV_WINC_CfgArchiveStore
                0x00000000       0x80 build/default/production/_ext/1706628858/wdrv_winc.o
 .text.WDRV_WINC_CfgArchiveRecall
                0x00000000       0x80 build/default/production/_ext/1706628858/wdrv_winc.o
 .text.WDRV_WINC_DebugUARTSet
                0x00000000       0x80 build/default/production/_ext/1706628858/wdrv_winc.o
 .text.WDRV_WINC_DevDiscardCmdReq
                0x00000000        0xe build/default/production/_ext/1706628858/wdrv_winc.o
 .text          0x00000000        0x0 build/default/production/_ext/1706628858/wdrv_winc_assoc.o
 .data          0x00000000        0x0 build/default/production/_ext/1706628858/wdrv_winc_assoc.o
 .bss           0x00000000        0x0 build/default/production/_ext/1706628858/wdrv_winc_assoc.o
 .text.assocHandleIsValid
                0x00000000       0x46 build/default/production/_ext/1706628858/wdrv_winc_assoc.o
 .text.assocCmdRspCallbackHandler
                0x00000000       0x14 build/default/production/_ext/1706628858/wdrv_winc_assoc.o
 .text.WDRV_WINC_AssocPeerAddressGet
                0x00000000       0x58 build/default/production/_ext/1706628858/wdrv_winc_assoc.o
 .text.WDRV_WINC_AssocRSSIGet
                0x00000000       0x94 build/default/production/_ext/1706628858/wdrv_winc_assoc.o
 .text.WDRV_WINC_AssocDisconnect
                0x00000000       0x56 build/default/production/_ext/1706628858/wdrv_winc_assoc.o
 .text          0x00000000        0x0 build/default/production/_ext/1706628858/wdrv_winc_authctx.o
 .data          0x00000000        0x0 build/default/production/_ext/1706628858/wdrv_winc_authctx.o
 .bss           0x00000000        0x0 build/default/production/_ext/1706628858/wdrv_winc_authctx.o
 .text.authctxPersonalKeyIsValid
                0x00000000       0x76 build/default/production/_ext/1706628858/wdrv_winc_authctx.o
 .text.WDRV_WINC_AuthCtxIsValid
                0x00000000       0x60 build/default/production/_ext/1706628858/wdrv_winc_authctx.o
 .text.WDRV_WINC_AuthCtxSetDefaults
                0x00000000       0x1c build/default/production/_ext/1706628858/wdrv_winc_authctx.o
 .text.WDRV_WINC_AuthCtxSetOpen
                0x00000000       0x10 build/default/production/_ext/1706628858/wdrv_winc_authctx.o
 .text.WDRV_WINC_AuthCtxSetPersonal
                0x00000000       0x7c build/default/production/_ext/1706628858/wdrv_winc_authctx.o
 .text.WDRV_WINC_AuthCtxConfigureMfp
                0x00000000       0x42 build/default/production/_ext/1706628858/wdrv_winc_authctx.o
 .rodata.mapAuthTypeTo11i
                0x00000000        0xc build/default/production/_ext/1706628858/wdrv_winc_authctx.o
 .debug_info    0x00000000      0x6dd build/default/production/_ext/1706628858/wdrv_winc_authctx.o
 .debug_abbrev  0x00000000      0x250 build/default/production/_ext/1706628858/wdrv_winc_authctx.o
 .debug_loc     0x00000000      0x733 build/default/production/_ext/1706628858/wdrv_winc_authctx.o
 .debug_aranges
                0x00000000       0x48 build/default/production/_ext/1706628858/wdrv_winc_authctx.o
 .debug_ranges  0x00000000       0x88 build/default/production/_ext/1706628858/wdrv_winc_authctx.o
 .debug_line    0x00000000      0x4bd build/default/production/_ext/1706628858/wdrv_winc_authctx.o
 .debug_str     0x00000000      0x8f2 build/default/production/_ext/1706628858/wdrv_winc_authctx.o
 .comment       0x00000000       0x36 build/default/production/_ext/1706628858/wdrv_winc_authctx.o
 .debug_frame   0x00000000       0x9c build/default/production/_ext/1706628858/wdrv_winc_authctx.o
 .ARM.attributes
                0x00000000       0x2c build/default/production/_ext/1706628858/wdrv_winc_authctx.o
 .text          0x00000000        0x0 build/default/production/_ext/1706628858/wdrv_winc_bssctx.o
 .data          0x00000000        0x0 build/default/production/_ext/1706628858/wdrv_winc_bssctx.o
 .bss           0x00000000        0x0 build/default/production/_ext/1706628858/wdrv_winc_bssctx.o
 .text.WDRV_WINC_BSSCtxIsValid
                0x00000000       0x52 build/default/production/_ext/1706628858/wdrv_winc_bssctx.o
 .text.WDRV_WINC_BSSCtxSetDefaults
                0x00000000       0x2c build/default/production/_ext/1706628858/wdrv_winc_bssctx.o
 .text.WDRV_WINC_BSSCtxSetSSID
                0x00000000       0x4a build/default/production/_ext/1706628858/wdrv_winc_bssctx.o
 .text.WDRV_WINC_BSSCtxSetBSSID
                0x00000000       0x48 build/default/production/_ext/1706628858/wdrv_winc_bssctx.o
 .text.WDRV_WINC_BSSCtxSetChannel
                0x00000000       0x28 build/default/production/_ext/1706628858/wdrv_winc_bssctx.o
 .debug_info    0x00000000      0x533 build/default/production/_ext/1706628858/wdrv_winc_bssctx.o
 .debug_abbrev  0x00000000      0x1ea build/default/production/_ext/1706628858/wdrv_winc_bssctx.o
 .debug_loc     0x00000000      0x46a build/default/production/_ext/1706628858/wdrv_winc_bssctx.o
 .debug_aranges
                0x00000000       0x40 build/default/production/_ext/1706628858/wdrv_winc_bssctx.o
 .debug_ranges  0x00000000       0x48 build/default/production/_ext/1706628858/wdrv_winc_bssctx.o
 .debug_line    0x00000000      0x32a build/default/production/_ext/1706628858/wdrv_winc_bssctx.o
 .debug_str     0x00000000      0x777 build/default/production/_ext/1706628858/wdrv_winc_bssctx.o
 .comment       0x00000000       0x36 build/default/production/_ext/1706628858/wdrv_winc_bssctx.o
 .debug_frame   0x00000000       0x88 build/default/production/_ext/1706628858/wdrv_winc_bssctx.o
 .ARM.attributes
                0x00000000       0x2c build/default/production/_ext/1706628858/wdrv_winc_bssctx.o
 .text          0x00000000        0x0 build/default/production/_ext/1706628858/wdrv_winc_bssfind.o
 .data          0x00000000        0x0 build/default/production/_ext/1706628858/wdrv_winc_bssfind.o
 .bss           0x00000000        0x0 build/default/production/_ext/1706628858/wdrv_winc_bssfind.o
 .text.wscnCmdRspCallbackHandler
                0x00000000       0xa8 build/default/production/_ext/1706628858/wdrv_winc_bssfind.o
 .rodata.WDRV_WINC_BSSFindFirst.str1.4
                0x00000000        0x1 build/default/production/_ext/1706628858/wdrv_winc_bssfind.o
 .text.WDRV_WINC_BSSFindFirst
                0x00000000      0x16c build/default/production/_ext/1706628858/wdrv_winc_bssfind.o
 .text.WDRV_WINC_BSSFindReset
                0x00000000       0x42 build/default/production/_ext/1706628858/wdrv_winc_bssfind.o
 .text.WDRV_WINC_BSSFindSetScanParameters
                0x00000000      0x130 build/default/production/_ext/1706628858/wdrv_winc_bssfind.o
 .text.WDRV_WINC_BSSFindSetRSSIThreshold
                0x00000000       0x20 build/default/production/_ext/1706628858/wdrv_winc_bssfind.o
 .text.WDRV_WINC_BSSFindSetScanChannels24
                0x00000000       0x40 build/default/production/_ext/1706628858/wdrv_winc_bssfind.o
 .text.WDRV_WINC_BSSFindGetScanChannels24
                0x00000000       0x30 build/default/production/_ext/1706628858/wdrv_winc_bssfind.o
 .text.WDRV_WINC_BSSFindGetNumBSSResults
                0x00000000       0x34 build/default/production/_ext/1706628858/wdrv_winc_bssfind.o
 .text.WDRV_WINC_BSSFindInProgress
                0x00000000       0x2a build/default/production/_ext/1706628858/wdrv_winc_bssfind.o
 .text.WDRV_WINC_BSSFindSetScanMatchMode
                0x00000000       0x26 build/default/production/_ext/1706628858/wdrv_winc_bssfind.o
 .text          0x00000000        0x0 build/default/production/_ext/1706628858/wdrv_winc_dns.o
 .data          0x00000000        0x0 build/default/production/_ext/1706628858/wdrv_winc_dns.o
 .bss           0x00000000        0x0 build/default/production/_ext/1706628858/wdrv_winc_dns.o
 .text.dnsCmdRspCallbackHandler
                0x00000000       0x14 build/default/production/_ext/1706628858/wdrv_winc_dns.o
 .text.WDRV_WINC_DNSAutoSet
                0x00000000       0x60 build/default/production/_ext/1706628858/wdrv_winc_dns.o
 .text.WDRV_WINC_DNSServerAddressSet
                0x00000000      0x114 build/default/production/_ext/1706628858/wdrv_winc_dns.o
 .text.WDRV_WINC_DNSResolveDomain
                0x00000000       0xb0 build/default/production/_ext/1706628858/wdrv_winc_dns.o
 .text          0x00000000        0x0 build/default/production/_ext/1706628858/wdrv_winc_dhcps.o
 .data          0x00000000        0x0 build/default/production/_ext/1706628858/wdrv_winc_dhcps.o
 .bss           0x00000000        0x0 build/default/production/_ext/1706628858/wdrv_winc_dhcps.o
 .text.dhcpsCmdRspCallbackHandler
                0x00000000       0x14 build/default/production/_ext/1706628858/wdrv_winc_dhcps.o
 .text.WDRV_WINC_DHCPSEnableSet
                0x00000000       0x70 build/default/production/_ext/1706628858/wdrv_winc_dhcps.o
 .text.WDRV_WINC_DHCPSPoolAddressSet
                0x00000000       0x64 build/default/production/_ext/1706628858/wdrv_winc_dhcps.o
 .text.WDRV_WINC_DHCPSGatewaySet
                0x00000000       0x64 build/default/production/_ext/1706628858/wdrv_winc_dhcps.o
 .text.WDRV_WINC_DHCPSNetIfBind
                0x00000000       0x64 build/default/production/_ext/1706628858/wdrv_winc_dhcps.o
 .debug_info    0x00000000     0x279c build/default/production/_ext/1706628858/wdrv_winc_dhcps.o
 .debug_abbrev  0x00000000      0x308 build/default/production/_ext/1706628858/wdrv_winc_dhcps.o
 .debug_loc     0x00000000      0xacb build/default/production/_ext/1706628858/wdrv_winc_dhcps.o
 .debug_aranges
                0x00000000       0x40 build/default/production/_ext/1706628858/wdrv_winc_dhcps.o
 .debug_ranges  0x00000000       0x48 build/default/production/_ext/1706628858/wdrv_winc_dhcps.o
 .debug_line    0x00000000      0x64c build/default/production/_ext/1706628858/wdrv_winc_dhcps.o
 .debug_str     0x00000000     0x2ee4 build/default/production/_ext/1706628858/wdrv_winc_dhcps.o
 .comment       0x00000000       0x36 build/default/production/_ext/1706628858/wdrv_winc_dhcps.o
 .debug_frame   0x00000000       0xa8 build/default/production/_ext/1706628858/wdrv_winc_dhcps.o
 .ARM.attributes
                0x00000000       0x2c build/default/production/_ext/1706628858/wdrv_winc_dhcps.o
 .text          0x00000000        0x0 build/default/production/_ext/1706628858/wdrv_winc_extcrypto.o
 .data          0x00000000        0x0 build/default/production/_ext/1706628858/wdrv_winc_extcrypto.o
 .bss           0x00000000        0x0 build/default/production/_ext/1706628858/wdrv_winc_extcrypto.o
 .text.extcryptoCmdRspCallbackHandler
                0x00000000       0x14 build/default/production/_ext/1706628858/wdrv_winc_extcrypto.o
 .text.WDRV_WINC_EXTCRYPTOSignResult
                0x00000000       0x90 build/default/production/_ext/1706628858/wdrv_winc_extcrypto.o
 .text          0x00000000        0x0 build/default/production/_ext/1706628858/wdrv_winc_file.o
 .data          0x00000000        0x0 build/default/production/_ext/1706628858/wdrv_winc_file.o
 .bss           0x00000000        0x0 build/default/production/_ext/1706628858/wdrv_winc_file.o
 .text.fileFindTsfrHandle
                0x00000000       0x1a build/default/production/_ext/1706628858/wdrv_winc_file.o
 .text.fileFindTsfrTempLoadID
                0x00000000       0x1a build/default/production/_ext/1706628858/wdrv_winc_file.o
 .text.fileLoadBuffer
                0x00000000       0xc8 build/default/production/_ext/1706628858/wdrv_winc_file.o
 .text.fileCmdRspCallbackHandler
                0x00000000      0x3dc build/default/production/_ext/1706628858/wdrv_winc_file.o
 .text.WDRV_WINC_FileOpen
                0x00000000      0x104 build/default/production/_ext/1706628858/wdrv_winc_file.o
 .text.WDRV_WINC_FileClose
                0x00000000       0xf0 build/default/production/_ext/1706628858/wdrv_winc_file.o
 .text.WDRV_WINC_FileWrite
                0x00000000       0x6e build/default/production/_ext/1706628858/wdrv_winc_file.o
 .text.WDRV_WINC_FileRead
                0x00000000       0xc4 build/default/production/_ext/1706628858/wdrv_winc_file.o
 .text.WDRV_WINC_FileFind
                0x00000000       0x80 build/default/production/_ext/1706628858/wdrv_winc_file.o
 .text.WDRV_WINC_FileDelete
                0x00000000       0x94 build/default/production/_ext/1706628858/wdrv_winc_file.o
 .debug_info    0x00000000     0x37c1 build/default/production/_ext/1706628858/wdrv_winc_file.o
 .debug_abbrev  0x00000000      0x450 build/default/production/_ext/1706628858/wdrv_winc_file.o
 .debug_loc     0x00000000     0x1bd8 build/default/production/_ext/1706628858/wdrv_winc_file.o
 .debug_aranges
                0x00000000       0x68 build/default/production/_ext/1706628858/wdrv_winc_file.o
 .debug_ranges  0x00000000       0xd0 build/default/production/_ext/1706628858/wdrv_winc_file.o
 .debug_line    0x00000000      0xf14 build/default/production/_ext/1706628858/wdrv_winc_file.o
 .debug_str     0x00000000     0x313a build/default/production/_ext/1706628858/wdrv_winc_file.o
 .comment       0x00000000       0x36 build/default/production/_ext/1706628858/wdrv_winc_file.o
 .debug_frame   0x00000000      0x134 build/default/production/_ext/1706628858/wdrv_winc_file.o
 .ARM.attributes
                0x00000000       0x2c build/default/production/_ext/1706628858/wdrv_winc_file.o
 .text          0x00000000        0x0 build/default/production/_ext/1706628858/wdrv_winc_mqtt.o
 .data          0x00000000        0x0 build/default/production/_ext/1706628858/wdrv_winc_mqtt.o
 .bss           0x00000000        0x0 build/default/production/_ext/1706628858/wdrv_winc_mqtt.o
 .text.mqttCmdRspCallbackHandler
                0x00000000       0xb0 build/default/production/_ext/1706628858/wdrv_winc_mqtt.o
 .text.WDRV_WINC_MQTTBrokerSet
                0x00000000      0x108 build/default/production/_ext/1706628858/wdrv_winc_mqtt.o
 .text.WDRV_WINC_MQTTClientCfgSet
                0x00000000       0xdc build/default/production/_ext/1706628858/wdrv_winc_mqtt.o
 .text.WDRV_WINC_MQTTLWTSet
                0x00000000      0x124 build/default/production/_ext/1706628858/wdrv_winc_mqtt.o
 .text.WDRV_WINC_MQTTConnect
                0x00000000      0x1f4 build/default/production/_ext/1706628858/wdrv_winc_mqtt.o
 .text.WDRV_WINC_MQTTDisconnect
                0x00000000       0x7c build/default/production/_ext/1706628858/wdrv_winc_mqtt.o
 .text.WDRV_WINC_MQTTPublish
                0x00000000      0x270 build/default/production/_ext/1706628858/wdrv_winc_mqtt.o
 .text.WDRV_WINC_MQTTSubscribe
                0x00000000      0x10c build/default/production/_ext/1706628858/wdrv_winc_mqtt.o
 .text.WDRV_WINC_MQTTUnsubscribe
                0x00000000       0x68 build/default/production/_ext/1706628858/wdrv_winc_mqtt.o
 .text.WDRV_WINC_MQTTUserPropSet
                0x00000000       0x98 build/default/production/_ext/1706628858/wdrv_winc_mqtt.o
 .text.WDRV_WINC_MQTTUserPropCallbackSet
                0x00000000       0x28 build/default/production/_ext/1706628858/wdrv_winc_mqtt.o
 .text.WDRV_WINC_MQTTMsgInfoDefaultSet
                0x00000000       0x16 build/default/production/_ext/1706628858/wdrv_winc_mqtt.o
 .text.WDRV_WINC_MQTTMsgInfoQoSSet
                0x00000000       0x16 build/default/production/_ext/1706628858/wdrv_winc_mqtt.o
 .text.WDRV_WINC_MQTTMsgInfoRetainSet
                0x00000000        0xe build/default/production/_ext/1706628858/wdrv_winc_mqtt.o
 .text.WDRV_WINC_MQTTMsgInfoPubPropSet
                0x00000000        0xe build/default/production/_ext/1706628858/wdrv_winc_mqtt.o
 .text.WDRV_WINC_MQTTPubPropDefaultSet
                0x00000000       0x1c build/default/production/_ext/1706628858/wdrv_winc_mqtt.o
 .text.WDRV_WINC_MQTTPubPropPayloadFormatSet
                0x00000000       0x16 build/default/production/_ext/1706628858/wdrv_winc_mqtt.o
 .text.WDRV_WINC_MQTTPubPropMessageExpirySet
                0x00000000        0xe build/default/production/_ext/1706628858/wdrv_winc_mqtt.o
 .text.WDRV_WINC_MQTTPubPropContentTypeSet
                0x00000000       0x40 build/default/production/_ext/1706628858/wdrv_winc_mqtt.o
 .text.WDRV_WINC_MQTTPubPropWillDelaySet
                0x00000000        0xe build/default/production/_ext/1706628858/wdrv_winc_mqtt.o
 .text.WDRV_WINC_MQTTPubPropTopicAliasSet
                0x00000000        0xe build/default/production/_ext/1706628858/wdrv_winc_mqtt.o
 .text.WDRV_WINC_MQTTSubPropDefaultSet
                0x00000000       0x18 build/default/production/_ext/1706628858/wdrv_winc_mqtt.o
 .text.WDRV_WINC_MQTTSubPropSubscriptIDSet
                0x00000000       0x1a build/default/production/_ext/1706628858/wdrv_winc_mqtt.o
 .text.WDRV_WINC_MQTTConnPropDefaultSet
                0x00000000       0x16 build/default/production/_ext/1706628858/wdrv_winc_mqtt.o
 .text.WDRV_WINC_MQTTConnPropSessionExpirySet
                0x00000000        0xe build/default/production/_ext/1706628858/wdrv_winc_mqtt.o
 .text.WDRV_WINC_MQTTConnPropMaxPacketSet
                0x00000000        0xe build/default/production/_ext/1706628858/wdrv_winc_mqtt.o
 .text.WDRV_WINC_MQTTConnPropReceiveMaxSet
                0x00000000        0xe build/default/production/_ext/1706628858/wdrv_winc_mqtt.o
 .text.WDRV_WINC_MQTTConnPropTopicAliasMaxSet
                0x00000000        0xe build/default/production/_ext/1706628858/wdrv_winc_mqtt.o
 .rodata.defaultQoS0MsgInfo
                0x00000000        0x8 build/default/production/_ext/1706628858/wdrv_winc_mqtt.o
 .text          0x00000000        0x0 build/default/production/_ext/1706628858/wdrv_winc_netif.o
 .data          0x00000000        0x0 build/default/production/_ext/1706628858/wdrv_winc_netif.o
 .bss           0x00000000        0x0 build/default/production/_ext/1706628858/wdrv_winc_netif.o
 .text.netifProcessNETIFC
                0x00000000       0x8e build/default/production/_ext/1706628858/wdrv_winc_netif.o
 .text.netifCmdRspCallbackHandler
                0x00000000       0x9c build/default/production/_ext/1706628858/wdrv_winc_netif.o
 .text.WDRV_WINC_NetIfRegisterEventCallback
                0x00000000       0x28 build/default/production/_ext/1706628858/wdrv_winc_netif.o
 .text.WDRV_WINC_NetIfIPAutoConfModeSet
                0x00000000       0x68 build/default/production/_ext/1706628858/wdrv_winc_netif.o
 .text.WDRV_WINC_NetIfIPAddrSet
                0x00000000       0xdc build/default/production/_ext/1706628858/wdrv_winc_netif.o
 .text.WDRV_WINC_NetIfIPRouteSet
                0x00000000       0x84 build/default/production/_ext/1706628858/wdrv_winc_netif.o
 .text.WDRV_WINC_NetIfMACAddrGet
                0x00000000       0x7c build/default/production/_ext/1706628858/wdrv_winc_netif.o
 .text          0x00000000        0x0 build/default/production/_ext/1706628858/wdrv_winc_ota.o
 .data          0x00000000        0x0 build/default/production/_ext/1706628858/wdrv_winc_ota.o
 .bss           0x00000000        0x0 build/default/production/_ext/1706628858/wdrv_winc_ota.o
 .text.otaInProgress
                0x00000000       0x2c build/default/production/_ext/1706628858/wdrv_winc_ota.o
 .text.otaCmdRspCallbackHandler
                0x00000000       0xc4 build/default/production/_ext/1706628858/wdrv_winc_ota.o
 .rodata.WDRV_WINC_OTAUpdateFromURL.str1.4
                0x00000000       0x11 build/default/production/_ext/1706628858/wdrv_winc_ota.o
 .text.WDRV_WINC_OTAUpdateFromURL
                0x00000000      0x3cc build/default/production/_ext/1706628858/wdrv_winc_ota.o
 .text.WDRV_WINC_OTAImageVerify
                0x00000000       0x5c build/default/production/_ext/1706628858/wdrv_winc_ota.o
 .text.WDRV_WINC_OTAImageActivate
                0x00000000       0x64 build/default/production/_ext/1706628858/wdrv_winc_ota.o
 .text.WDRV_WINC_OTAImageInvalidate
                0x00000000       0x64 build/default/production/_ext/1706628858/wdrv_winc_ota.o
 .text.WDRV_WINC_OTAOptionsSet
                0x00000000       0x68 build/default/production/_ext/1706628858/wdrv_winc_ota.o
 .text          0x00000000        0x0 build/default/production/_ext/1706628858/wdrv_winc_pps.o
 .data          0x00000000        0x0 build/default/production/_ext/1706628858/wdrv_winc_pps.o
 .bss           0x00000000        0x0 build/default/production/_ext/1706628858/wdrv_winc_pps.o
 .text.ppsCmdRspCallbackHandler
                0x00000000       0x4c build/default/production/_ext/1706628858/wdrv_winc_pps.o
 .text.WDRV_WINC_PPSOptionsSet
                0x00000000       0x84 build/default/production/_ext/1706628858/wdrv_winc_pps.o
 .text.WDRV_WINC_PPSEnableSet
                0x00000000       0xe0 build/default/production/_ext/1706628858/wdrv_winc_pps.o
 .text          0x00000000        0x0 build/default/production/_ext/1706628858/wdrv_winc_nvm.o
 .data          0x00000000        0x0 build/default/production/_ext/1706628858/wdrv_winc_nvm.o
 .bss           0x00000000        0x0 build/default/production/_ext/1706628858/wdrv_winc_nvm.o
 .text.nvmInProgress
                0x00000000       0x2c build/default/production/_ext/1706628858/wdrv_winc_nvm.o
 .text.nvmWriteBuffer
                0x00000000       0x98 build/default/production/_ext/1706628858/wdrv_winc_nvm.o
 .text.nvmReadBuffer
                0x00000000       0x70 build/default/production/_ext/1706628858/wdrv_winc_nvm.o
 .text.nvmCmdRspCallbackHandler
                0x00000000      0x22c build/default/production/_ext/1706628858/wdrv_winc_nvm.o
 .text.WDRV_WINC_NVMGeometryGet
                0x00000000       0x18 build/default/production/_ext/1706628858/wdrv_winc_nvm.o
 .text.WDRV_WINC_NVMEraseSector
                0x00000000       0x8c build/default/production/_ext/1706628858/wdrv_winc_nvm.o
 .text.WDRV_WINC_NVMWrite
                0x00000000       0x58 build/default/production/_ext/1706628858/wdrv_winc_nvm.o
 .text.WDRV_WINC_NVMRead
                0x00000000       0x48 build/default/production/_ext/1706628858/wdrv_winc_nvm.o
 .text.WDRV_WINC_NVMCheck
                0x00000000       0x70 build/default/production/_ext/1706628858/wdrv_winc_nvm.o
 .text          0x00000000        0x0 build/default/production/_ext/1706628858/wdrv_winc_prov.o
 .data          0x00000000        0x0 build/default/production/_ext/1706628858/wdrv_winc_prov.o
 .bss           0x00000000        0x0 build/default/production/_ext/1706628858/wdrv_winc_prov.o
 .text.provCmdRspCallbackHandler
                0x00000000       0x14 build/default/production/_ext/1706628858/wdrv_winc_prov.o
 .text.WDRV_WINC_ProvServiceStart
                0x00000000       0xd8 build/default/production/_ext/1706628858/wdrv_winc_prov.o
 .text.WDRV_WINC_ProvServiceStop
                0x00000000       0x5c build/default/production/_ext/1706628858/wdrv_winc_prov.o
 .text          0x00000000        0x0 build/default/production/_ext/1706628858/wdrv_winc_sntp.o
 .data          0x00000000        0x0 build/default/production/_ext/1706628858/wdrv_winc_sntp.o
 .bss           0x00000000        0x0 build/default/production/_ext/1706628858/wdrv_winc_sntp.o
 .text.sntpCmdRspCallbackHandler
                0x00000000       0x14 build/default/production/_ext/1706628858/wdrv_winc_sntp.o
 .text.WDRV_WINC_SNTPEnableSet
                0x00000000       0x60 build/default/production/_ext/1706628858/wdrv_winc_sntp.o
 .text.WDRV_WINC_SNTPStaticSet
                0x00000000       0x60 build/default/production/_ext/1706628858/wdrv_winc_sntp.o
 .text.WDRV_WINC_SNTPServerAddressSet
                0x00000000       0x74 build/default/production/_ext/1706628858/wdrv_winc_sntp.o
 .debug_info    0x00000000     0x265f build/default/production/_ext/1706628858/wdrv_winc_sntp.o
 .debug_abbrev  0x00000000      0x308 build/default/production/_ext/1706628858/wdrv_winc_sntp.o
 .debug_loc     0x00000000      0x793 build/default/production/_ext/1706628858/wdrv_winc_sntp.o
 .debug_aranges
                0x00000000       0x38 build/default/production/_ext/1706628858/wdrv_winc_sntp.o
 .debug_ranges  0x00000000       0x40 build/default/production/_ext/1706628858/wdrv_winc_sntp.o
 .debug_line    0x00000000      0x5e1 build/default/production/_ext/1706628858/wdrv_winc_sntp.o
 .debug_str     0x00000000     0x2e70 build/default/production/_ext/1706628858/wdrv_winc_sntp.o
 .comment       0x00000000       0x36 build/default/production/_ext/1706628858/wdrv_winc_sntp.o
 .debug_frame   0x00000000       0x88 build/default/production/_ext/1706628858/wdrv_winc_sntp.o
 .ARM.attributes
                0x00000000       0x2c build/default/production/_ext/1706628858/wdrv_winc_sntp.o
 .text          0x00000000        0x0 build/default/production/_ext/1706628858/wdrv_winc_socket.o
 .data          0x00000000        0x0 build/default/production/_ext/1706628858/wdrv_winc_socket.o
 .bss           0x00000000        0x0 build/default/production/_ext/1706628858/wdrv_winc_socket.o
 .text.icmpCmdRspCallbackHandler
                0x00000000       0x54 build/default/production/_ext/1706628858/wdrv_winc_socket.o
 .text.WDRV_WINC_SocketRegisterEventCallback
                0x00000000       0x28 build/default/production/_ext/1706628858/wdrv_winc_socket.o
 .text.WDRV_WINC_ICMPEchoRequestAddr
                0x00000000       0xa0 build/default/production/_ext/1706628858/wdrv_winc_socket.o
 .text          0x00000000        0x0 build/default/production/_ext/1706628858/wdrv_winc_softap.o
 .data          0x00000000        0x0 build/default/production/_ext/1706628858/wdrv_winc_softap.o
 .bss           0x00000000        0x0 build/default/production/_ext/1706628858/wdrv_winc_softap.o
 .text.wapCmdRspCallbackHandler
                0x00000000       0xa4 build/default/production/_ext/1706628858/wdrv_winc_softap.o
 .text.WDRV_WINC_APDefaultWiFiCfg
                0x00000000       0x20 build/default/production/_ext/1706628858/wdrv_winc_softap.o
 .text.WDRV_WINC_APStart
                0x00000000      0x220 build/default/production/_ext/1706628858/wdrv_winc_softap.o
 .text.WDRV_WINC_APStop
                0x00000000       0x68 build/default/production/_ext/1706628858/wdrv_winc_softap.o
 .text          0x00000000        0x0 build/default/production/_ext/1706628858/wdrv_winc_sta.o
 .data          0x00000000        0x0 build/default/production/_ext/1706628858/wdrv_winc_sta.o
 .bss           0x00000000        0x0 build/default/production/_ext/1706628858/wdrv_winc_sta.o
 .text.wstaCmdRspCallbackHandler
                0x00000000       0x14 build/default/production/_ext/1706628858/wdrv_winc_sta.o
 .text.WDRV_WINC_BSSDefaultWiFiCfg
                0x00000000       0x24 build/default/production/_ext/1706628858/wdrv_winc_sta.o
 .text.WDRV_WINC_BSSConnect
                0x00000000      0x270 build/default/production/_ext/1706628858/wdrv_winc_sta.o
 .text.WDRV_WINC_BSSDisconnect
                0x00000000       0x60 build/default/production/_ext/1706628858/wdrv_winc_sta.o
 .text.WDRV_WINC_BSSRoamingConfigure
                0x00000000       0x5c build/default/production/_ext/1706628858/wdrv_winc_sta.o
 .text          0x00000000        0x0 build/default/production/_ext/1706628858/wdrv_winc_systime.o
 .data          0x00000000        0x0 build/default/production/_ext/1706628858/wdrv_winc_systime.o
 .bss           0x00000000        0x0 build/default/production/_ext/1706628858/wdrv_winc_systime.o
 .text.timeCmdRspCallbackHandler
                0x00000000       0x14 build/default/production/_ext/1706628858/wdrv_winc_systime.o
 .text.WDRV_WINC_SystemTimeSetCurrent
                0x00000000       0x4c build/default/production/_ext/1706628858/wdrv_winc_systime.o
 .text.WDRV_WINC_SystemTimeGetCurrent
                0x00000000       0x5c build/default/production/_ext/1706628858/wdrv_winc_systime.o
 .text          0x00000000        0x0 build/default/production/_ext/1706628858/wdrv_winc_tls.o
 .data          0x00000000        0x0 build/default/production/_ext/1706628858/wdrv_winc_tls.o
 .bss           0x00000000        0x0 build/default/production/_ext/1706628858/wdrv_winc_tls.o
 .text.tlsCmdRspCallbackHandler
                0x00000000      0x1c0 build/default/production/_ext/1706628858/wdrv_winc_tls.o
 .text.WDRV_WINC_TLSCtxOpen
                0x00000000       0x4c build/default/production/_ext/1706628858/wdrv_winc_tls.o
 .text.WDRV_WINC_TLSCtxClose
                0x00000000       0x36 build/default/production/_ext/1706628858/wdrv_winc_tls.o
 .text.WDRV_WINC_TLSCtxHandleToCfgIdx
                0x00000000        0x2 build/default/production/_ext/1706628858/wdrv_winc_tls.o
 .text.WDRV_WINC_TLSCtxCACertFileSet
                0x00000000       0xb8 build/default/production/_ext/1706628858/wdrv_winc_tls.o
 .text.WDRV_WINC_TLSCtxCertFileSet
                0x00000000       0xa0 build/default/production/_ext/1706628858/wdrv_winc_tls.o
 .rodata.WDRV_WINC_TLSCtxPrivKeySet.str1.4
                0x00000000        0x1 build/default/production/_ext/1706628858/wdrv_winc_tls.o
 .text.WDRV_WINC_TLSCtxPrivKeySet
                0x00000000       0xf8 build/default/production/_ext/1706628858/wdrv_winc_tls.o
 .text.WDRV_WINC_TLSCtxDHParamtersFileSet
                0x00000000       0xa0 build/default/production/_ext/1706628858/wdrv_winc_tls.o
 .text.WDRV_WINC_TLSCtxSNISet
                0x00000000       0xa0 build/default/production/_ext/1706628858/wdrv_winc_tls.o
 .text.WDRV_WINC_TLSCtxHostnameCheckSet
                0x00000000       0xcc build/default/production/_ext/1706628858/wdrv_winc_tls.o
 .text.WDRV_WINC_TLSCtxSetSignCallback
                0x00000000       0x9c build/default/production/_ext/1706628858/wdrv_winc_tls.o
 .text.WDRV_WINC_TLSCtxCipherSuiteSet
                0x00000000       0x64 build/default/production/_ext/1706628858/wdrv_winc_tls.o
 .text.WDRV_WINC_TLSCipherSuiteOpen
                0x00000000       0x58 build/default/production/_ext/1706628858/wdrv_winc_tls.o
 .text.WDRV_WINC_TLSCipherSuiteClose
                0x00000000       0x30 build/default/production/_ext/1706628858/wdrv_winc_tls.o
 .text.WDRV_WINC_TLSCipherSuiteAlgSet
                0x00000000       0xe8 build/default/production/_ext/1706628858/wdrv_winc_tls.o
 .text.WDRV_WINC_TLSCipherSuiteAlgGet
                0x00000000       0x98 build/default/production/_ext/1706628858/wdrv_winc_tls.o
 .debug_info    0x00000000     0x37f4 build/default/production/_ext/1706628858/wdrv_winc_tls.o
 .debug_abbrev  0x00000000      0x3f7 build/default/production/_ext/1706628858/wdrv_winc_tls.o
 .debug_loc     0x00000000     0x2754 build/default/production/_ext/1706628858/wdrv_winc_tls.o
 .debug_aranges
                0x00000000       0x98 build/default/production/_ext/1706628858/wdrv_winc_tls.o
 .debug_ranges  0x00000000       0xe8 build/default/production/_ext/1706628858/wdrv_winc_tls.o
 .debug_line    0x00000000      0xf4a build/default/production/_ext/1706628858/wdrv_winc_tls.o
 .debug_str     0x00000000     0x3235 build/default/production/_ext/1706628858/wdrv_winc_tls.o
 .comment       0x00000000       0x36 build/default/production/_ext/1706628858/wdrv_winc_tls.o
 .debug_frame   0x00000000      0x210 build/default/production/_ext/1706628858/wdrv_winc_tls.o
 .ARM.attributes
                0x00000000       0x2c build/default/production/_ext/1706628858/wdrv_winc_tls.o
 .text          0x00000000        0x0 build/default/production/_ext/1706628858/wdrv_winc_utils.o
 .data          0x00000000        0x0 build/default/production/_ext/1706628858/wdrv_winc_utils.o
 .bss           0x00000000        0x0 build/default/production/_ext/1706628858/wdrv_winc_utils.o
 .text.WDRV_WINC_UtilsSingleListInitialize
                0x00000000        0xa build/default/production/_ext/1706628858/wdrv_winc_utils.o
 .text.WDRV_WINC_UtilsSingleListCount
                0x00000000        0x4 build/default/production/_ext/1706628858/wdrv_winc_utils.o
 .text.WDRV_WINC_UtilsSingleListHeadRemove
                0x00000000       0x22 build/default/production/_ext/1706628858/wdrv_winc_utils.o
 .text.WDRV_WINC_UtilsSingleListTailAdd
                0x00000000       0x1a build/default/production/_ext/1706628858/wdrv_winc_utils.o
 .text.WDRV_WINC_UtilsSingleListAppend
                0x00000000       0x22 build/default/production/_ext/1706628858/wdrv_winc_utils.o
 .text.WDRV_WINC_UtilsSingleListHeadAdd
                0x00000000       0x18 build/default/production/_ext/1706628858/wdrv_winc_utils.o
 .text.WDRV_WINC_UtilsSingleListNodeRemove
                0x00000000       0x3a build/default/production/_ext/1706628858/wdrv_winc_utils.o
 .text.WDRV_WINC_UtilsProtectedSingleListInitialize
                0x00000000       0x1e build/default/production/_ext/1706628858/wdrv_winc_utils.o
 .text.WDRV_WINC_UtilsProtectedSingleListCount
                0x00000000        0x4 build/default/production/_ext/1706628858/wdrv_winc_utils.o
 .text.WDRV_WINC_UtilsProtectedSingleListAppend
                0x00000000       0x42 build/default/production/_ext/1706628858/wdrv_winc_utils.o
 .text.WDRV_WINC_UtilsProtectedSingleListHeadRemove
                0x00000000       0x44 build/default/production/_ext/1706628858/wdrv_winc_utils.o
 .text.WDRV_WINC_UtilsProtectedSingleListTailAdd
                0x00000000       0x42 build/default/production/_ext/1706628858/wdrv_winc_utils.o
 .text.WDRV_WINC_UtilsProtectedSingleListHeadAdd
                0x00000000       0x42 build/default/production/_ext/1706628858/wdrv_winc_utils.o
 .text.WDRV_WINC_UtilsStringToIPAddress
                0x00000000      0x150 build/default/production/_ext/1706628858/wdrv_winc_utils.o
 .rodata.WDRV_WINC_UtilsIPAddressToString.str1.4
                0x00000000        0xc build/default/production/_ext/1706628858/wdrv_winc_utils.o
 .text.WDRV_WINC_UtilsIPAddressToString
                0x00000000       0x48 build/default/production/_ext/1706628858/wdrv_winc_utils.o
 .text.WDRV_WINC_UtilsStringToIPv6Address
                0x00000000      0x28c build/default/production/_ext/1706628858/wdrv_winc_utils.o
 .text.WDRV_WINC_UtilsIPv6AddressToString
                0x00000000       0xc6 build/default/production/_ext/1706628858/wdrv_winc_utils.o
 .debug_info    0x00000000     0x1613 build/default/production/_ext/1706628858/wdrv_winc_utils.o
 .debug_abbrev  0x00000000      0x4df build/default/production/_ext/1706628858/wdrv_winc_utils.o
 .debug_loc     0x00000000     0x18f6 build/default/production/_ext/1706628858/wdrv_winc_utils.o
 .debug_aranges
                0x00000000       0xa0 build/default/production/_ext/1706628858/wdrv_winc_utils.o
 .debug_ranges  0x00000000      0x1d8 build/default/production/_ext/1706628858/wdrv_winc_utils.o
 .debug_line    0x00000000     0x1080 build/default/production/_ext/1706628858/wdrv_winc_utils.o
 .debug_str     0x00000000      0x981 build/default/production/_ext/1706628858/wdrv_winc_utils.o
 .comment       0x00000000       0x36 build/default/production/_ext/1706628858/wdrv_winc_utils.o
 .debug_frame   0x00000000      0x1c0 build/default/production/_ext/1706628858/wdrv_winc_utils.o
 .ARM.attributes
                0x00000000       0x2c build/default/production/_ext/1706628858/wdrv_winc_utils.o
 .text          0x00000000        0x0 build/default/production/_ext/1706628858/wdrv_winc_wifi.o
 .data          0x00000000        0x0 build/default/production/_ext/1706628858/wdrv_winc_wifi.o
 .bss           0x00000000        0x0 build/default/production/_ext/1706628858/wdrv_winc_wifi.o
 .text.wifiProcessCoexElem
                0x00000000       0xe8 build/default/production/_ext/1706628858/wdrv_winc_wifi.o
 .rodata.wifiProcessCoexElem
                0x00000000       0x14 build/default/production/_ext/1706628858/wdrv_winc_wifi.o
 .text.WDRV_WINC_WifiPowerSaveModeSet
                0x00000000       0x60 build/default/production/_ext/1706628858/wdrv_winc_wifi.o
 .text.WDRV_WINC_WifiPowerSaveModeGet
                0x00000000       0x68 build/default/production/_ext/1706628858/wdrv_winc_wifi.o
 .text.WDRV_WINC_WifiRegDomainSet
                0x00000000       0xc4 build/default/production/_ext/1706628858/wdrv_winc_wifi.o
 .text.WDRV_WINC_WifiRegDomainGet
                0x00000000       0xb0 build/default/production/_ext/1706628858/wdrv_winc_wifi.o
 .text.wifiCmdRspCallbackHandler
                0x00000000      0x2a4 build/default/production/_ext/1706628858/wdrv_winc_wifi.o
 .rodata.wifiCmdRspCallbackHandler
                0x00000000       0x64 build/default/production/_ext/1706628858/wdrv_winc_wifi.o
 .text.WDRV_WINC_WifiCoexEnableSet
                0x00000000       0x60 build/default/production/_ext/1706628858/wdrv_winc_wifi.o
 .text.WDRV_WINC_WifiCoexConfSet
                0x00000000       0xa0 build/default/production/_ext/1706628858/wdrv_winc_wifi.o
 .text.WDRV_WINC_WifiCoexConfGet
                0x00000000      0x100 build/default/production/_ext/1706628858/wdrv_winc_wifi.o
 .text.WDRV_WINC_WifiMACOptionsSet
                0x00000000       0x68 build/default/production/_ext/1706628858/wdrv_winc_wifi.o
 .debug_info    0x00000000     0x363d build/default/production/_ext/1706628858/wdrv_winc_wifi.o
 .debug_abbrev  0x00000000      0x44d build/default/production/_ext/1706628858/wdrv_winc_wifi.o
 .debug_loc     0x00000000     0x1826 build/default/production/_ext/1706628858/wdrv_winc_wifi.o
 .debug_aranges
                0x00000000       0x68 build/default/production/_ext/1706628858/wdrv_winc_wifi.o
 .debug_ranges  0x00000000       0xa0 build/default/production/_ext/1706628858/wdrv_winc_wifi.o
 .debug_line    0x00000000      0xd69 build/default/production/_ext/1706628858/wdrv_winc_wifi.o
 .debug_str     0x00000000     0x31d4 build/default/production/_ext/1706628858/wdrv_winc_wifi.o
 .comment       0x00000000       0x36 build/default/production/_ext/1706628858/wdrv_winc_wifi.o
 .debug_frame   0x00000000      0x15c build/default/production/_ext/1706628858/wdrv_winc_wifi.o
 .ARM.attributes
                0x00000000       0x2c build/default/production/_ext/1706628858/wdrv_winc_wifi.o
 .text          0x00000000        0x0 build/default/production/_ext/60163342/plib_adc0.o
 .data          0x00000000        0x0 build/default/production/_ext/60163342/plib_adc0.o
 .bss           0x00000000        0x0 build/default/production/_ext/60163342/plib_adc0.o
 .text.ADC0_Disable
                0x00000000       0x1c build/default/production/_ext/60163342/plib_adc0.o
 .text.ADC0_ChannelSelect
                0x00000000       0x18 build/default/production/_ext/60163342/plib_adc0.o
 .text.ADC0_ConversionSequenceIsFinished
                0x00000000       0x10 build/default/production/_ext/60163342/plib_adc0.o
 .text.ADC0_ComparisonWindowSet
                0x00000000       0x20 build/default/production/_ext/60163342/plib_adc0.o
 .text.ADC0_WindowModeSet
                0x00000000       0x24 build/default/production/_ext/60163342/plib_adc0.o
 .text.ADC0_InterruptsClear
                0x00000000        0xc build/default/production/_ext/60163342/plib_adc0.o
 .text.ADC0_InterruptsEnable
                0x00000000        0xc build/default/production/_ext/60163342/plib_adc0.o
 .text.ADC0_InterruptsDisable
                0x00000000        0xc build/default/production/_ext/60163342/plib_adc0.o
 .text          0x00000000        0x0 build/default/production/_ext/60165182/plib_can0.o
 .data          0x00000000        0x0 build/default/production/_ext/60165182/plib_can0.o
 .bss           0x00000000        0x0 build/default/production/_ext/60165182/plib_can0.o
 .text.CAN0_TxFifoFreeLevelGet
                0x00000000       0x10 build/default/production/_ext/60165182/plib_can0.o
 .text.CAN0_TxBufferIsBusy
                0x00000000       0x14 build/default/production/_ext/60165182/plib_can0.o
 .text.CAN0_TxEventFifoRead
                0x00000000       0x70 build/default/production/_ext/60165182/plib_can0.o
 .text.CAN0_TxEventFifoFillLevelGet
                0x00000000       0x10 build/default/production/_ext/60165182/plib_can0.o
 .text.CAN0_SleepModeEnter
                0x00000000       0x1c build/default/production/_ext/60165182/plib_can0.o
 .text.CAN0_SleepModeExit
                0x00000000       0x30 build/default/production/_ext/60165182/plib_can0.o
 .text.CAN0_BitTimingCalculationGet
                0x00000000       0xf0 build/default/production/_ext/60165182/plib_can0.o
 .text.CAN0_BitTimingSet
                0x00000000      0x10c build/default/production/_ext/60165182/plib_can0.o
 .text          0x00000000        0x0 build/default/production/_ext/1984496892/plib_clock.o
 .data          0x00000000        0x0 build/default/production/_ext/1984496892/plib_clock.o
 .bss           0x00000000        0x0 build/default/production/_ext/1984496892/plib_clock.o
 .text          0x00000000        0x0 build/default/production/_ext/60166132/plib_dac.o
 .data          0x00000000        0x0 build/default/production/_ext/60166132/plib_dac.o
 .bss           0x00000000        0x0 build/default/production/_ext/60166132/plib_dac.o
 .text.DAC_DataWrite
                0x00000000       0x18 build/default/production/_ext/60166132/plib_dac.o
 .text.DAC_IsReady
                0x00000000       0x10 build/default/production/_ext/60166132/plib_dac.o
 .text          0x00000000        0x0 build/default/production/_ext/1985337713/plib_divas.o
 .data          0x00000000        0x0 build/default/production/_ext/1985337713/plib_divas.o
 .bss           0x00000000        0x0 build/default/production/_ext/1985337713/plib_divas.o
 .text.DIVAS_SquareRoot
                0x00000000       0x2a build/default/production/_ext/1985337713/plib_divas.o
 .text.DIVAS_DivSigned
                0x00000000       0x38 build/default/production/_ext/1985337713/plib_divas.o
 .text.DIVAS_DivUnsigned
                0x00000000       0x36 build/default/production/_ext/1985337713/plib_divas.o
 .text.DIVAS_DivmodSigned
                0x00000000       0x3a build/default/production/_ext/1985337713/plib_divas.o
 .text.DIVAS_DivmodUnsigned
                0x00000000       0x38 build/default/production/_ext/1985337713/plib_divas.o
 .debug_info    0x00000000      0x7a6 build/default/production/_ext/1985337713/plib_divas.o
 .debug_abbrev  0x00000000      0x1fd build/default/production/_ext/1985337713/plib_divas.o
 .debug_loc     0x00000000      0x4a4 build/default/production/_ext/1985337713/plib_divas.o
 .debug_aranges
                0x00000000       0x40 build/default/production/_ext/1985337713/plib_divas.o
 .debug_ranges  0x00000000       0x30 build/default/production/_ext/1985337713/plib_divas.o
 .debug_line    0x00000000      0x52b build/default/production/_ext/1985337713/plib_divas.o
 .debug_str     0x00000000      0x46e build/default/production/_ext/1985337713/plib_divas.o
 .comment       0x00000000       0x36 build/default/production/_ext/1985337713/plib_divas.o
 .debug_frame   0x00000000       0x94 build/default/production/_ext/1985337713/plib_divas.o
 .ARM.attributes
                0x00000000       0x2c build/default/production/_ext/1985337713/plib_divas.o
 .text          0x00000000        0x0 build/default/production/_ext/1865161661/plib_dmac.o
 .data          0x00000000        0x0 build/default/production/_ext/1865161661/plib_dmac.o
 .bss           0x00000000        0x0 build/default/production/_ext/1865161661/plib_dmac.o
 .text.DMAC_ChannelIsBusy
                0x00000000       0x38 build/default/production/_ext/1865161661/plib_dmac.o
 .text.DMAC_ChannelTransferStatusGet
                0x00000000       0x28 build/default/production/_ext/1865161661/plib_dmac.o
 .text.DMAC_ChannelDisable
                0x00000000       0x3c build/default/production/_ext/1865161661/plib_dmac.o
 .text.DMAC_ChannelGetTransferredCount
                0x00000000       0x1c build/default/production/_ext/1865161661/plib_dmac.o
 .text.DMAC_ChannelSuspend
                0x00000000       0x28 build/default/production/_ext/1865161661/plib_dmac.o
 .text.DMAC_ChannelResume
                0x00000000       0x28 build/default/production/_ext/1865161661/plib_dmac.o
 .text.DMAC_CRCDisable
                0x00000000       0x14 build/default/production/_ext/1865161661/plib_dmac.o
 .text.DMAC_ChannelCRCSetup
                0x00000000       0x3c build/default/production/_ext/1865161661/plib_dmac.o
 .text.DMAC_CRCRead
                0x00000000        0xc build/default/production/_ext/1865161661/plib_dmac.o
 .text.DMAC_CRCCalculate
                0x00000000       0x88 build/default/production/_ext/1865161661/plib_dmac.o
 .text          0x00000000        0x0 build/default/production/_ext/60167341/plib_eic.o
 .data          0x00000000        0x0 build/default/production/_ext/60167341/plib_eic.o
 .bss           0x00000000        0x0 build/default/production/_ext/60167341/plib_eic.o
 .text          0x00000000        0x0 build/default/production/_ext/1986646378/plib_evsys.o
 .data          0x00000000        0x0 build/default/production/_ext/1986646378/plib_evsys.o
 .bss           0x00000000        0x0 build/default/production/_ext/1986646378/plib_evsys.o
 .text          0x00000000        0x0 build/default/production/_ext/1987437027/plib_freqm.o
 .data          0x00000000        0x0 build/default/production/_ext/1987437027/plib_freqm.o
 .bss           0x00000000        0x0 build/default/production/_ext/1987437027/plib_freqm.o
 .text.FREQM_MeasurementStart
                0x00000000       0x1c build/default/production/_ext/1987437027/plib_freqm.o
 .text.FREQM_IsBusy
                0x00000000       0x10 build/default/production/_ext/1987437027/plib_freqm.o
 .text.FREQM_ErrorGet
                0x00000000       0x14 build/default/production/_ext/1987437027/plib_freqm.o
 .text.FREQM_FrequencyGet
                0x00000000       0x1c build/default/production/_ext/1987437027/plib_freqm.o
 .text.FREQM_CallbackRegister
                0x00000000        0xc build/default/production/_ext/1987437027/plib_freqm.o
 .text          0x00000000        0x0 build/default/production/_ext/1865468468/plib_nvic.o
 .data          0x00000000        0x0 build/default/production/_ext/1865468468/plib_nvic.o
 .bss           0x00000000        0x0 build/default/production/_ext/1865468468/plib_nvic.o
 .text.NVIC_INT_Enable
                0x00000000        0x8 build/default/production/_ext/1865468468/plib_nvic.o
 .text.NVIC_INT_SourceDisable
                0x00000000       0x3c build/default/production/_ext/1865468468/plib_nvic.o
 .text.NVIC_INT_SourceRestore
                0x00000000       0x1c build/default/production/_ext/1865468468/plib_nvic.o
 .text          0x00000000        0x0 build/default/production/_ext/1593096446/plib_nvmctrl.o
 .data          0x00000000        0x0 build/default/production/_ext/1593096446/plib_nvmctrl.o
 .bss           0x00000000        0x0 build/default/production/_ext/1593096446/plib_nvmctrl.o
 .text.NVMCTRL_CacheInvalidate
                0x00000000       0x10 build/default/production/_ext/1593096446/plib_nvmctrl.o
 .text.NVMCTRL_DATA_FLASH_Read
                0x00000000       0x10 build/default/production/_ext/1593096446/plib_nvmctrl.o
 .text.NVMCTRL_DATA_FLASH_PageWrite
                0x00000000       0x28 build/default/production/_ext/1593096446/plib_nvmctrl.o
 .text.NVMCTRL_DATA_FLASH_RowErase
                0x00000000       0x18 build/default/production/_ext/1593096446/plib_nvmctrl.o
 .text.NVMCTRL_Read
                0x00000000       0x10 build/default/production/_ext/1593096446/plib_nvmctrl.o
 .text.NVMCTRL_PageBufferWrite
                0x00000000       0x16 build/default/production/_ext/1593096446/plib_nvmctrl.o
 .text.NVMCTRL_PageBufferCommit
                0x00000000       0x2c build/default/production/_ext/1593096446/plib_nvmctrl.o
 .text.NVMCTRL_PageWrite
                0x00000000       0x28 build/default/production/_ext/1593096446/plib_nvmctrl.o
 .text.NVMCTRL_RowErase
                0x00000000       0x18 build/default/production/_ext/1593096446/plib_nvmctrl.o
 .text.NVMCTRL_USER_ROW_PageWrite
                0x00000000       0x38 build/default/production/_ext/1593096446/plib_nvmctrl.o
 .text.NVMCTRL_USER_ROW_RowErase
                0x00000000       0x2c build/default/production/_ext/1593096446/plib_nvmctrl.o
 .text.NVMCTRL_ErrorGet
                0x00000000       0x28 build/default/production/_ext/1593096446/plib_nvmctrl.o
 .text.NVMCTRL_IsBusy
                0x00000000       0x14 build/default/production/_ext/1593096446/plib_nvmctrl.o
 .text.NVMCTRL_RegionLock
                0x00000000       0x14 build/default/production/_ext/1593096446/plib_nvmctrl.o
 .text.NVMCTRL_RegionUnlock
                0x00000000       0x14 build/default/production/_ext/1593096446/plib_nvmctrl.o
 .text.NVMCTRL_InterruptFlagGet
                0x00000000       0x14 build/default/production/_ext/1593096446/plib_nvmctrl.o
 .text.NVMCTRL_SecurityBitSet
                0x00000000       0x10 build/default/production/_ext/1593096446/plib_nvmctrl.o
 .text.NVMCTRL_ChipEraseHardLockSet
                0x00000000       0x10 build/default/production/_ext/1593096446/plib_nvmctrl.o
 .text          0x00000000        0x0 build/default/production/_ext/829342769/plib_pm.o
 .data          0x00000000        0x0 build/default/production/_ext/829342769/plib_pm.o
 .bss           0x00000000        0x0 build/default/production/_ext/829342769/plib_pm.o
 .text.PM_IdleModeEnter
                0x00000000       0x18 build/default/production/_ext/829342769/plib_pm.o
 .text          0x00000000        0x0 build/default/production/_ext/1865521619/plib_port.o
 .data          0x00000000        0x0 build/default/production/_ext/1865521619/plib_port.o
 .bss           0x00000000        0x0 build/default/production/_ext/1865521619/plib_port.o
 .text.PORT_GroupRead
                0x00000000        0x4 build/default/production/_ext/1865521619/plib_port.o
 .text.PORT_GroupWrite
                0x00000000        0xc build/default/production/_ext/1865521619/plib_port.o
 .text.PORT_GroupLatchRead
                0x00000000        0x4 build/default/production/_ext/1865521619/plib_port.o
 .text.PORT_GroupToggle
                0x00000000        0x4 build/default/production/_ext/1865521619/plib_port.o
 .text.PORT_GroupInputEnable
                0x00000000       0x2a build/default/production/_ext/1865521619/plib_port.o
 .text.PORT_GroupOutputEnable
                0x00000000        0x4 build/default/production/_ext/1865521619/plib_port.o
 .text.PORT_PinPeripheralFunctionConfig
                0x00000000       0x48 build/default/production/_ext/1865521619/plib_port.o
 .text.PORT_PinGPIOConfig
                0x00000000       0x1e build/default/production/_ext/1865521619/plib_port.o
 .text          0x00000000        0x0 build/default/production/_ext/1865585090/plib_rstc.o
 .data          0x00000000        0x0 build/default/production/_ext/1865585090/plib_rstc.o
 .bss           0x00000000        0x0 build/default/production/_ext/1865585090/plib_rstc.o
 .text          0x00000000        0x0 build/default/production/_ext/60180175/plib_rtc_clock.o
 .data          0x00000000        0x0 build/default/production/_ext/60180175/plib_rtc_clock.o
 .bss           0x00000000        0x0 build/default/production/_ext/60180175/plib_rtc_clock.o
 .text.RTC_RTCCTimeSet
                0x00000000       0x3c build/default/production/_ext/60180175/plib_rtc_clock.o
 .text.RTC_RTCCClockSyncEnable
                0x00000000       0x1c build/default/production/_ext/60180175/plib_rtc_clock.o
 .text.RTC_RTCCClockSyncDisable
                0x00000000       0x1c build/default/production/_ext/60180175/plib_rtc_clock.o
 .text.RTC_RTCCAlarmSet
                0x00000000       0x54 build/default/production/_ext/60180175/plib_rtc_clock.o
 .text          0x00000000        0x0 build/default/production/_ext/508257091/plib_sercom2_i2c_master.o
 .data          0x00000000        0x0 build/default/production/_ext/508257091/plib_sercom2_i2c_master.o
 .bss           0x00000000        0x0 build/default/production/_ext/508257091/plib_sercom2_i2c_master.o
 .text.SERCOM2_I2C_BusScan
                0x00000000       0x98 build/default/production/_ext/508257091/plib_sercom2_i2c_master.o
 .text.SERCOM2_I2C_IsBusy
                0x00000000       0x28 build/default/production/_ext/508257091/plib_sercom2_i2c_master.o
 .text          0x00000000        0x0 build/default/production/_ext/17022449/plib_sercom3_spi_master.o
 .data          0x00000000        0x0 build/default/production/_ext/17022449/plib_sercom3_spi_master.o
 .bss           0x00000000        0x0 build/default/production/_ext/17022449/plib_sercom3_spi_master.o
 .text.SERCOM3_SPI_IsBusy
                0x00000000       0x28 build/default/production/_ext/17022449/plib_sercom3_spi_master.o
 .text.SERCOM3_SPI_Write
                0x00000000        0xc build/default/production/_ext/17022449/plib_sercom3_spi_master.o
 .text.SERCOM3_SPI_Read
                0x00000000       0x10 build/default/production/_ext/17022449/plib_sercom3_spi_master.o
 .text          0x00000000        0x0 build/default/production/_ext/17022449/plib_sercom4_spi_master.o
 .data          0x00000000        0x0 build/default/production/_ext/17022449/plib_sercom4_spi_master.o
 .bss           0x00000000        0x0 build/default/production/_ext/17022449/plib_sercom4_spi_master.o
 .text.SERCOM4_SPI_TransferSetup
                0x00000000       0xa0 build/default/production/_ext/17022449/plib_sercom4_spi_master.o
 .text.SERCOM4_SPI_CallbackRegister
                0x00000000        0xc build/default/production/_ext/17022449/plib_sercom4_spi_master.o
 .text.SERCOM4_SPI_IsBusy
                0x00000000       0x28 build/default/production/_ext/17022449/plib_sercom4_spi_master.o
 .text.SERCOM4_SPI_IsTransmitterBusy
                0x00000000       0x14 build/default/production/_ext/17022449/plib_sercom4_spi_master.o
 .text.SERCOM4_SPI_WriteRead
                0x00000000      0x178 build/default/production/_ext/17022449/plib_sercom4_spi_master.o
 .text.SERCOM4_SPI_Write
                0x00000000        0xc build/default/production/_ext/17022449/plib_sercom4_spi_master.o
 .text.SERCOM4_SPI_Read
                0x00000000       0x10 build/default/production/_ext/17022449/plib_sercom4_spi_master.o
 .text          0x00000000        0x0 build/default/production/_ext/17022449/plib_sercom5_spi_master.o
 .data          0x00000000        0x0 build/default/production/_ext/17022449/plib_sercom5_spi_master.o
 .bss           0x00000000        0x0 build/default/production/_ext/17022449/plib_sercom5_spi_master.o
 .text.SERCOM5_SPI_TransferSetup
                0x00000000       0x90 build/default/production/_ext/17022449/plib_sercom5_spi_master.o
 .text.SERCOM5_SPI_IsTransmitterBusy
                0x00000000       0x14 build/default/production/_ext/17022449/plib_sercom5_spi_master.o
 .text.SERCOM5_SPI_WriteRead
                0x00000000      0x1a4 build/default/production/_ext/17022449/plib_sercom5_spi_master.o
 .text.SERCOM5_SPI_Write
                0x00000000        0xc build/default/production/_ext/17022449/plib_sercom5_spi_master.o
 .text.SERCOM5_SPI_Read
                0x00000000       0x10 build/default/production/_ext/17022449/plib_sercom5_spi_master.o
 .text          0x00000000        0x0 build/default/production/_ext/504274921/plib_sercom1_usart.o
 .data          0x00000000        0x0 build/default/production/_ext/504274921/plib_sercom1_usart.o
 .bss           0x00000000        0x0 build/default/production/_ext/504274921/plib_sercom1_usart.o
 .text.SERCOM1_USART_FrequencyGet
                0x00000000        0x8 build/default/production/_ext/504274921/plib_sercom1_usart.o
 .text.SERCOM1_USART_Enable
                0x00000000       0x20 build/default/production/_ext/504274921/plib_sercom1_usart.o
 .text.SERCOM1_USART_Disable
                0x00000000       0x20 build/default/production/_ext/504274921/plib_sercom1_usart.o
 .text.SERCOM1_USART_TransmitterEnable
                0x00000000       0x18 build/default/production/_ext/504274921/plib_sercom1_usart.o
 .text.SERCOM1_USART_TransmitterDisable
                0x00000000       0x1c build/default/production/_ext/504274921/plib_sercom1_usart.o
 .text.SERCOM1_USART_TransmitComplete
                0x00000000       0x10 build/default/production/_ext/504274921/plib_sercom1_usart.o
 .text.SERCOM1_USART_ReceiverEnable
                0x00000000       0x18 build/default/production/_ext/504274921/plib_sercom1_usart.o
 .text.SERCOM1_USART_ReceiverDisable
                0x00000000       0x1c build/default/production/_ext/504274921/plib_sercom1_usart.o
 .text          0x00000000        0x0 build/default/production/_ext/504274921/plib_sercom0_usart.o
 .data          0x00000000        0x0 build/default/production/_ext/504274921/plib_sercom0_usart.o
 .bss           0x00000000        0x0 build/default/production/_ext/504274921/plib_sercom0_usart.o
 .text.SERCOM0_USART_FrequencyGet
                0x00000000        0x8 build/default/production/_ext/504274921/plib_sercom0_usart.o
 .text.SERCOM0_USART_SerialSetup
                0x00000000      0x160 build/default/production/_ext/504274921/plib_sercom0_usart.o
 .text.SERCOM0_USART_Enable
                0x00000000       0x20 build/default/production/_ext/504274921/plib_sercom0_usart.o
 .text.SERCOM0_USART_Disable
                0x00000000       0x20 build/default/production/_ext/504274921/plib_sercom0_usart.o
 .text.SERCOM0_USART_ErrorGet
                0x00000000       0x10 build/default/production/_ext/504274921/plib_sercom0_usart.o
 .text.SERCOM0_USART_ReadBufferSizeGet
                0x00000000        0xc build/default/production/_ext/504274921/plib_sercom0_usart.o
 .text.SERCOM0_USART_ReadNotificationEnable
                0x00000000       0x18 build/default/production/_ext/504274921/plib_sercom0_usart.o
 .text.SERCOM0_USART_ReadThresholdSet
                0x00000000       0x10 build/default/production/_ext/504274921/plib_sercom0_usart.o
 .text.SERCOM0_USART_ReadCallbackRegister
                0x00000000        0xc build/default/production/_ext/504274921/plib_sercom0_usart.o
 .text.SERCOM0_USART_TransmitComplete
                0x00000000       0x10 build/default/production/_ext/504274921/plib_sercom0_usart.o
 .text.SERCOM0_USART_WriteBufferSizeGet
                0x00000000        0xc build/default/production/_ext/504274921/plib_sercom0_usart.o
 .text.SERCOM0_USART_WriteNotificationEnable
                0x00000000       0x14 build/default/production/_ext/504274921/plib_sercom0_usart.o
 .text.SERCOM0_USART_WriteThresholdSet
                0x00000000       0x10 build/default/production/_ext/504274921/plib_sercom0_usart.o
 .text.SERCOM0_USART_WriteCallbackRegister
                0x00000000        0xc build/default/production/_ext/504274921/plib_sercom0_usart.o
 .text          0x00000000        0x0 build/default/production/_ext/1865616679/plib_supc.o
 .data          0x00000000        0x0 build/default/production/_ext/1865616679/plib_supc.o
 .bss           0x00000000        0x0 build/default/production/_ext/1865616679/plib_supc.o
 .text.SUPC_BODVDDCallbackRegister
                0x00000000        0xc build/default/production/_ext/1865616679/plib_supc.o
 .text          0x00000000        0x0 build/default/production/_ext/1827571544/plib_systick.o
 .data          0x00000000        0x0 build/default/production/_ext/1827571544/plib_systick.o
 .bss           0x00000000        0x0 build/default/production/_ext/1827571544/plib_systick.o
 .text.SYSTICK_TimerRestart
                0x00000000       0x1c build/default/production/_ext/1827571544/plib_systick.o
 .text.SYSTICK_TimerPeriodGet
                0x00000000        0xc build/default/production/_ext/1827571544/plib_systick.o
 .text.SYSTICK_TimerCounterGet
                0x00000000        0xc build/default/production/_ext/1827571544/plib_systick.o
 .text.SYSTICK_DelayUs
                0x00000000       0x3c build/default/production/_ext/1827571544/plib_systick.o
 .text.SYSTICK_GetTickCounter
                0x00000000        0xc build/default/production/_ext/1827571544/plib_systick.o
 .text.SYSTICK_StartTimeOut
                0x00000000       0x24 build/default/production/_ext/1827571544/plib_systick.o
 .text.SYSTICK_ResetTimeOut
                0x00000000        0xc build/default/production/_ext/1827571544/plib_systick.o
 .text.SYSTICK_IsTimeoutReached
                0x00000000       0x18 build/default/production/_ext/1827571544/plib_systick.o
 .text          0x00000000        0x0 build/default/production/_ext/60181570/plib_tcc0.o
 .data          0x00000000        0x0 build/default/production/_ext/60181570/plib_tcc0.o
 .bss           0x00000000        0x0 build/default/production/_ext/60181570/plib_tcc0.o
 .text.TCC0_PWMStart
                0x00000000       0x1c build/default/production/_ext/60181570/plib_tcc0.o
 .text.TCC0_PWMStop
                0x00000000       0x1c build/default/production/_ext/60181570/plib_tcc0.o
 .text.TCC0_PWM24bitPeriodSet
                0x00000000       0x1c build/default/production/_ext/60181570/plib_tcc0.o
 .text.TCC0_PWM24bitPeriodGet
                0x00000000       0x18 build/default/production/_ext/60181570/plib_tcc0.o
 .text.TCC0_PWMDeadTimeSet
                0x00000000       0x1c build/default/production/_ext/60181570/plib_tcc0.o
 .text.TCC0_PWMPatternSet
                0x00000000       0x20 build/default/production/_ext/60181570/plib_tcc0.o
 .text.TCC0_PWM24bitCounterGet
                0x00000000       0x28 build/default/production/_ext/60181570/plib_tcc0.o
 .text.TCC0_PWM24bitCounterSet
                0x00000000       0x18 build/default/production/_ext/60181570/plib_tcc0.o
 .text.TCC0_PWMForceUpdate
                0x00000000       0x1c build/default/production/_ext/60181570/plib_tcc0.o
 .text.TCC0_PWMPeriodInterruptEnable
                0x00000000        0xc build/default/production/_ext/60181570/plib_tcc0.o
 .text.TCC0_PWMPeriodInterruptDisable
                0x00000000        0xc build/default/production/_ext/60181570/plib_tcc0.o
 .text.TCC0_PWMInterruptStatusGet
                0x00000000       0x10 build/default/production/_ext/60181570/plib_tcc0.o
 .text          0x00000000        0x0 build/default/production/_ext/60184501/plib_wdt.o
 .data          0x00000000        0x0 build/default/production/_ext/60184501/plib_wdt.o
 .bss           0x00000000        0x0 build/default/production/_ext/60184501/plib_wdt.o
 .text.WDT_EnableWindowMode
                0x00000000       0x34 build/default/production/_ext/60184501/plib_wdt.o
 .text.WDT_DisableWindowMode
                0x00000000       0x34 build/default/production/_ext/60184501/plib_wdt.o
 .text.WDT_IsEnabled
                0x00000000       0x14 build/default/production/_ext/60184501/plib_wdt.o
 .text.WDT_IsAlwaysOn
                0x00000000        0xc build/default/production/_ext/60184501/plib_wdt.o
 .text.WDT_IsWindowModeEnabled
                0x00000000       0x10 build/default/production/_ext/60184501/plib_wdt.o
 .text.WDT_TimeoutPeriodSet
                0x00000000       0x14 build/default/production/_ext/60184501/plib_wdt.o
 .text.WDT_ClearWithSync
                0x00000000       0x1c build/default/production/_ext/60184501/plib_wdt.o
 .text          0x00000000        0x0 build/default/production/_ext/163028504/xc32_monitor.o
 .data          0x00000000        0x0 build/default/production/_ext/163028504/xc32_monitor.o
 .bss           0x00000000        0x0 build/default/production/_ext/163028504/xc32_monitor.o
 .text.read     0x00000000        0x6 build/default/production/_ext/163028504/xc32_monitor.o
 .text.write    0x00000000        0x6 build/default/production/_ext/163028504/xc32_monitor.o
 .debug_info    0x00000000       0xf5 build/default/production/_ext/163028504/xc32_monitor.o
 .debug_abbrev  0x00000000       0xb2 build/default/production/_ext/163028504/xc32_monitor.o
 .debug_loc     0x00000000       0x56 build/default/production/_ext/163028504/xc32_monitor.o
 .debug_aranges
                0x00000000       0x28 build/default/production/_ext/163028504/xc32_monitor.o
 .debug_ranges  0x00000000       0x18 build/default/production/_ext/163028504/xc32_monitor.o
 .debug_line    0x00000000       0xd2 build/default/production/_ext/163028504/xc32_monitor.o
 .debug_str     0x00000000      0x287 build/default/production/_ext/163028504/xc32_monitor.o
 .comment       0x00000000       0x36 build/default/production/_ext/163028504/xc32_monitor.o
 .debug_frame   0x00000000       0x30 build/default/production/_ext/163028504/xc32_monitor.o
 .ARM.attributes
                0x00000000       0x2c build/default/production/_ext/163028504/xc32_monitor.o
 .text          0x00000000        0x0 build/default/production/_ext/1832805299/sys_console_uart.o
 .data          0x00000000        0x0 build/default/production/_ext/1832805299/sys_console_uart.o
 .bss           0x00000000        0x0 build/default/production/_ext/1832805299/sys_console_uart.o
 .text          0x00000000        0x0 build/default/production/_ext/1832805299/sys_console.o
 .data          0x00000000        0x0 build/default/production/_ext/1832805299/sys_console.o
 .bss           0x00000000        0x0 build/default/production/_ext/1832805299/sys_console.o
 .text.SYS_CONSOLE_Status
                0x00000000       0x54 build/default/production/_ext/1832805299/sys_console.o
 .text.SYS_CONSOLE_HandleGet
                0x00000000        0x8 build/default/production/_ext/1832805299/sys_console.o
 .text.SYS_CONSOLE_DeviceGet
                0x00000000       0x1c build/default/production/_ext/1832805299/sys_console.o
 .text.SYS_CONSOLE_Tasks
                0x00000000       0x2c build/default/production/_ext/1832805299/sys_console.o
 .text.SYS_CONSOLE_Read
                0x00000000       0x38 build/default/production/_ext/1832805299/sys_console.o
 .text.SYS_CONSOLE_ReadFreeBufferCountGet
                0x00000000       0x38 build/default/production/_ext/1832805299/sys_console.o
 .text.SYS_CONSOLE_ReadCountGet
                0x00000000       0x38 build/default/production/_ext/1832805299/sys_console.o
 .text.SYS_CONSOLE_Write
                0x00000000       0x38 build/default/production/_ext/1832805299/sys_console.o
 .text.SYS_CONSOLE_WriteFreeBufferCountGet
                0x00000000       0x38 build/default/production/_ext/1832805299/sys_console.o
 .text.SYS_CONSOLE_WriteCountGet
                0x00000000       0x38 build/default/production/_ext/1832805299/sys_console.o
 .text.SYS_CONSOLE_Flush
                0x00000000       0x34 build/default/production/_ext/1832805299/sys_console.o
 .text          0x00000000        0x0 build/default/production/_ext/14461671/sys_dma.o
 .data          0x00000000        0x0 build/default/production/_ext/14461671/sys_dma.o
 .bss           0x00000000        0x0 build/default/production/_ext/14461671/sys_dma.o
 .text          0x00000000        0x0 build/default/production/_ext/1881668453/sys_int.o
 .data          0x00000000        0x0 build/default/production/_ext/1881668453/sys_int.o
 .bss           0x00000000        0x0 build/default/production/_ext/1881668453/sys_int.o
 .text.SYS_INT_Enable
                0x00000000        0x8 build/default/production/_ext/1881668453/sys_int.o
 .text          0x00000000        0x0 build/default/production/_ext/692303624/sys_wincs_mqtt_service.o
 .data          0x00000000        0x0 build/default/production/_ext/692303624/sys_wincs_mqtt_service.o
 .bss           0x00000000        0x0 build/default/production/_ext/692303624/sys_wincs_mqtt_service.o
 .text.SYS_WINCS_MQTT_PublishCallback
                0x00000000       0x34 build/default/production/_ext/692303624/sys_wincs_mqtt_service.o
 .text.SYS_WINCS_MQTT_SubscribeCallback
                0x00000000       0x60 build/default/production/_ext/692303624/sys_wincs_mqtt_service.o
 .rodata.SYS_WINCS_MQTT_ConnCallback.str1.4
                0x00000000       0x6a build/default/production/_ext/692303624/sys_wincs_mqtt_service.o
 .text.SYS_WINCS_MQTT_ConnCallback
                0x00000000       0x54 build/default/production/_ext/692303624/sys_wincs_mqtt_service.o
 .rodata.SYS_WINCS_MQTT_ConnCallback
                0x00000000       0x14 build/default/production/_ext/692303624/sys_wincs_mqtt_service.o
 .rodata.SYS_WINCS_MQTT_SrvCtrl.str1.4
                0x00000000       0x2e build/default/production/_ext/692303624/sys_wincs_mqtt_service.o
 .text.SYS_WINCS_MQTT_SrvCtrl
                0x00000000      0x224 build/default/production/_ext/692303624/sys_wincs_mqtt_service.o
 .rodata.SYS_WINCS_MQTT_SrvCtrl
                0x00000000       0x28 build/default/production/_ext/692303624/sys_wincs_mqtt_service.o
 .rodata.__FUNCTION__.0
                0x00000000       0x17 build/default/production/_ext/692303624/sys_wincs_mqtt_service.o
 .bss.g_MqttCallBackHandler
                0x00000000        0x8 build/default/production/_ext/692303624/sys_wincs_mqtt_service.o
 .debug_info    0x00000000     0x16e1 build/default/production/_ext/692303624/sys_wincs_mqtt_service.o
 .debug_abbrev  0x00000000      0x2a5 build/default/production/_ext/692303624/sys_wincs_mqtt_service.o
 .debug_loc     0x00000000      0x8d5 build/default/production/_ext/692303624/sys_wincs_mqtt_service.o
 .debug_aranges
                0x00000000       0x38 build/default/production/_ext/692303624/sys_wincs_mqtt_service.o
 .debug_ranges  0x00000000       0x60 build/default/production/_ext/692303624/sys_wincs_mqtt_service.o
 .debug_line    0x00000000      0x5d2 build/default/production/_ext/692303624/sys_wincs_mqtt_service.o
 .debug_str     0x00000000     0x1a8a build/default/production/_ext/692303624/sys_wincs_mqtt_service.o
 .comment       0x00000000       0x36 build/default/production/_ext/692303624/sys_wincs_mqtt_service.o
 .debug_frame   0x00000000       0x78 build/default/production/_ext/692303624/sys_wincs_mqtt_service.o
 .ARM.attributes
                0x00000000       0x2c build/default/production/_ext/692303624/sys_wincs_mqtt_service.o
 .text          0x00000000        0x0 build/default/production/_ext/1766557203/sys_wincs_net_service.o
 .data          0x00000000        0x0 build/default/production/_ext/1766557203/sys_wincs_net_service.o
 .bss           0x00000000        0x0 build/default/production/_ext/1766557203/sys_wincs_net_service.o
 .text.SYS_WINCS_NET_ConnIDAdd
                0x00000000       0x90 build/default/production/_ext/1766557203/sys_wincs_net_service.o
 .text.SYS_WINCS_NET_ConnIDDeleteBySocket
                0x00000000       0x3c build/default/production/_ext/1766557203/sys_wincs_net_service.o
 .rodata.SYS_WINCS_NET_SocketEventCallback.str1.4
                0x00000000      0x146 build/default/production/_ext/1766557203/sys_wincs_net_service.o
 .text.SYS_WINCS_NET_SocketEventCallback
                0x00000000      0x370 build/default/production/_ext/1766557203/sys_wincs_net_service.o
 .rodata.SYS_WINCS_NET_SocketEventCallback
                0x00000000       0x24 build/default/production/_ext/1766557203/sys_wincs_net_service.o
 .text.SYS_WINCS_NET_ApDhcpsEventCallback
                0x00000000       0x34 build/default/production/_ext/1766557203/sys_wincs_net_service.o
 .text.SYS_WINCS_NET_TcpSockWrite
                0x00000000       0x24 build/default/production/_ext/1766557203/sys_wincs_net_service.o
 .text.SYS_WINCS_NET_SockRead
                0x00000000       0x12 build/default/production/_ext/1766557203/sys_wincs_net_service.o
 .text.SYS_WINCS_NET_TcpSockRead
                0x00000000        0x8 build/default/production/_ext/1766557203/sys_wincs_net_service.o
 .text.SYS_WINCS_NET_UdpSockRead
                0x00000000        0x8 build/default/production/_ext/1766557203/sys_wincs_net_service.o
 .text.SYS_WINCS_NET_UdpSockWrite
                0x00000000       0x7a build/default/production/_ext/1766557203/sys_wincs_net_service.o
 .rodata.SYS_WINCS_NET_SockSrvCtrl.str1.4
                0x00000000       0x2c build/default/production/_ext/1766557203/sys_wincs_net_service.o
 .text.SYS_WINCS_NET_SockSrvCtrl
                0x00000000      0x438 build/default/production/_ext/1766557203/sys_wincs_net_service.o
 .rodata.SYS_WINCS_NET_SockSrvCtrl
                0x00000000       0x38 build/default/production/_ext/1766557203/sys_wincs_net_service.o
 .bss.IPAddress.0
                0x00000000       0x10 build/default/production/_ext/1766557203/sys_wincs_net_service.o
 .rodata.__FUNCTION__.1
                0x00000000       0x1a build/default/production/_ext/1766557203/sys_wincs_net_service.o
 .bss.g_tlsHandle
                0x00000000        0x1 build/default/production/_ext/1766557203/sys_wincs_net_service.o
 .bss.g_connIDs
                0x00000000      0x2f8 build/default/production/_ext/1766557203/sys_wincs_net_service.o
 .bss.g_DHCPCallBackHandler
                0x00000000        0x4 build/default/production/_ext/1766557203/sys_wincs_net_service.o
 .bss.g_SocketCallBackHandler
                0x00000000        0x8 build/default/production/_ext/1766557203/sys_wincs_net_service.o
 .debug_info    0x00000000     0x2395 build/default/production/_ext/1766557203/sys_wincs_net_service.o
 .debug_abbrev  0x00000000      0x404 build/default/production/_ext/1766557203/sys_wincs_net_service.o
 .debug_loc     0x00000000      0xf08 build/default/production/_ext/1766557203/sys_wincs_net_service.o
 .debug_aranges
                0x00000000       0x68 build/default/production/_ext/1766557203/sys_wincs_net_service.o
 .debug_ranges  0x00000000       0x90 build/default/production/_ext/1766557203/sys_wincs_net_service.o
 .debug_line    0x00000000      0xc56 build/default/production/_ext/1766557203/sys_wincs_net_service.o
 .debug_str     0x00000000     0x1a4b build/default/production/_ext/1766557203/sys_wincs_net_service.o
 .comment       0x00000000       0x36 build/default/production/_ext/1766557203/sys_wincs_net_service.o
 .debug_frame   0x00000000      0x12c build/default/production/_ext/1766557203/sys_wincs_net_service.o
 .ARM.attributes
                0x00000000       0x2c build/default/production/_ext/1766557203/sys_wincs_net_service.o
 .text          0x00000000        0x0 build/default/production/_ext/101884895/sys_time.o
 .data          0x00000000        0x0 build/default/production/_ext/101884895/sys_time.o
 .bss           0x00000000        0x0 build/default/production/_ext/101884895/sys_time.o
 .text.SYS_TIME_Deinitialize
                0x00000000       0x30 build/default/production/_ext/101884895/sys_time.o
 .text.SYS_TIME_Status
                0x00000000       0x18 build/default/production/_ext/101884895/sys_time.o
 .text.SYS_TIME_FrequencyGet
                0x00000000        0xc build/default/production/_ext/101884895/sys_time.o
 .text.SYS_TIME_Counter64Get
                0x00000000       0x1c build/default/production/_ext/101884895/sys_time.o
 .text.SYS_TIME_CounterGet
                0x00000000        0x8 build/default/production/_ext/101884895/sys_time.o
 .text.SYS_TIME_CounterSet
                0x00000000       0x1c build/default/production/_ext/101884895/sys_time.o
 .text.SYS_TIME_CountToUS
                0x00000000       0x3c build/default/production/_ext/101884895/sys_time.o
 .text.SYS_TIME_CountToMS
                0x00000000       0x20 build/default/production/_ext/101884895/sys_time.o
 .text.SYS_TIME_USToCount
                0x00000000       0x24 build/default/production/_ext/101884895/sys_time.o
 .text.SYS_TIME_MSToCount
                0x00000000       0x20 build/default/production/_ext/101884895/sys_time.o
 .text.SYS_TIME_TimerCreate
                0x00000000       0x20 build/default/production/_ext/101884895/sys_time.o
 .text.SYS_TIME_TimerReload
                0x00000000       0x88 build/default/production/_ext/101884895/sys_time.o
 .text.SYS_TIME_TimerCounterGet
                0x00000000       0x70 build/default/production/_ext/101884895/sys_time.o
 .text.SYS_TIME_DelayUS
                0x00000000       0x58 build/default/production/_ext/101884895/sys_time.o
 .text.SYS_TIME_CallbackRegisterUS
                0x00000000       0x5c build/default/production/_ext/101884895/sys_time.o
 .text          0x00000000        0x0 build/default/production/_ext/634868841/sys_wincs_wifi_service.o
 .data          0x00000000        0x0 build/default/production/_ext/634868841/sys_wincs_wifi_service.o
 .bss           0x00000000        0x0 build/default/production/_ext/634868841/sys_wincs_wifi_service.o
 .text.SYS_WINCS_WIFI_ConnectNotifyCallback
                0x00000000       0x38 build/default/production/_ext/634868841/sys_wincs_wifi_service.o
 .rodata.SYS_WINCS_WIFI_ConnectNotifyCallback
                0x00000000       0x14 build/default/production/_ext/634868841/sys_wincs_wifi_service.o
 .text.SYS_WINCS_WIFI_setRegDomainCallback
                0x00000000       0x34 build/default/production/_ext/634868841/sys_wincs_wifi_service.o
 .rodata.SYS_WINCS_WIFI_ResolveCallback.str1.4
                0x00000000       0x69 build/default/production/_ext/634868841/sys_wincs_wifi_service.o
 .text.SYS_WINCS_WIFI_ResolveCallback
                0x00000000       0x98 build/default/production/_ext/634868841/sys_wincs_wifi_service.o
 .rodata.SYS_WINCS_WIFI_BssFindNotifyCallback.str1.4
                0x00000000       0x85 build/default/production/_ext/634868841/sys_wincs_wifi_service.o
 .text.SYS_WINCS_WIFI_BssFindNotifyCallback
                0x00000000       0x58 build/default/production/_ext/634868841/sys_wincs_wifi_service.o
 .text.SYS_WINCS_WIFI_ApNotifyCallback
                0x00000000       0x16 build/default/production/_ext/634868841/sys_wincs_wifi_service.o
 .rodata.SYS_WINCS_WIFI_DhcpEventCallback.str1.4
                0x00000000        0x5 build/default/production/_ext/634868841/sys_wincs_wifi_service.o
 .text.SYS_WINCS_WIFI_DhcpEventCallback
                0x00000000       0x60 build/default/production/_ext/634868841/sys_wincs_wifi_service.o
 .rodata.SYS_WINCS_SYSTEM_TimeGetCurrentCallback.str1.4
                0x00000000       0x39 build/default/production/_ext/634868841/sys_wincs_wifi_service.o
 .text.SYS_WINCS_SYSTEM_TimeGetCurrentCallback
                0x00000000       0x74 build/default/production/_ext/634868841/sys_wincs_wifi_service.o
 .text.SYS_WINCS_WIFI_SetAuthPersonalType
                0x00000000       0x20 build/default/production/_ext/634868841/sys_wincs_wifi_service.o
 .rodata.SYS_WINCS_WIFI_GetWincsStatus.str1.4
                0x00000000       0x34 build/default/production/_ext/634868841/sys_wincs_wifi_service.o
 .text.SYS_WINCS_WIFI_GetWincsStatus
                0x00000000       0x3c build/default/production/_ext/634868841/sys_wincs_wifi_service.o
 .rodata.SYS_WINCS_WIFI_getRegDomainCallback.str1.4
                0x00000000       0x97 build/default/production/_ext/634868841/sys_wincs_wifi_service.o
 .text.SYS_WINCS_WIFI_getRegDomainCallback
                0x00000000       0xa8 build/default/production/_ext/634868841/sys_wincs_wifi_service.o
 .rodata.SYS_WINCS_WIFI_SrvCtrl.str1.4
                0x00000000       0x8e build/default/production/_ext/634868841/sys_wincs_wifi_service.o
 .text.SYS_WINCS_WIFI_SrvCtrl
                0x00000000      0x3f4 build/default/production/_ext/634868841/sys_wincs_wifi_service.o
 .rodata.SYS_WINCS_WIFI_SrvCtrl
                0x00000000       0x6c build/default/production/_ext/634868841/sys_wincs_wifi_service.o
 .data.print.0  0x00000000        0x1 build/default/production/_ext/634868841/sys_wincs_wifi_service.o
 .rodata.__FUNCTION__.1
                0x00000000       0x24 build/default/production/_ext/634868841/sys_wincs_wifi_service.o
 .rodata.__FUNCTION__.2
                0x00000000       0x17 build/default/production/_ext/634868841/sys_wincs_wifi_service.o
 .bss.g_wifiCallBackHandler
                0x00000000        0x8 build/default/production/_ext/634868841/sys_wincs_wifi_service.o
 .bss.g_wifiCfg
                0x00000000       0x14 build/default/production/_ext/634868841/sys_wincs_wifi_service.o
 .bss.g_bssFindResult
                0x00000000        0x1 build/default/production/_ext/634868841/sys_wincs_wifi_service.o
 .bss.g_bssContext
                0x00000000       0x29 build/default/production/_ext/634868841/sys_wincs_wifi_service.o
 .bss.g_authContext
                0x00000000       0x43 build/default/production/_ext/634868841/sys_wincs_wifi_service.o
 .data.g_wdrvHandle
                0x00000000        0x4 build/default/production/_ext/634868841/sys_wincs_wifi_service.o
 .debug_info    0x00000000     0x2986 build/default/production/_ext/634868841/sys_wincs_wifi_service.o
 .debug_abbrev  0x00000000      0x4df build/default/production/_ext/634868841/sys_wincs_wifi_service.o
 .debug_loc     0x00000000     0x17b7 build/default/production/_ext/634868841/sys_wincs_wifi_service.o
 .debug_aranges
                0x00000000       0x70 build/default/production/_ext/634868841/sys_wincs_wifi_service.o
 .debug_ranges  0x00000000       0xa8 build/default/production/_ext/634868841/sys_wincs_wifi_service.o
 .debug_line    0x00000000      0xb8f build/default/production/_ext/634868841/sys_wincs_wifi_service.o
 .debug_str     0x00000000     0x20f8 build/default/production/_ext/634868841/sys_wincs_wifi_service.o
 .comment       0x00000000       0x36 build/default/production/_ext/634868841/sys_wincs_wifi_service.o
 .debug_frame   0x00000000      0x13c build/default/production/_ext/634868841/sys_wincs_wifi_service.o
 .ARM.attributes
                0x00000000       0x2c build/default/production/_ext/634868841/sys_wincs_wifi_service.o
 .text          0x00000000        0x0 build/default/production/_ext/753841488/sys_wincs_system_service.o
 .data          0x00000000        0x0 build/default/production/_ext/753841488/sys_wincs_system_service.o
 .bss           0x00000000        0x0 build/default/production/_ext/753841488/sys_wincs_system_service.o
 .rodata.SYS_WINCS_SYSTEM_EventCallback.str1.4
                0x00000000       0xf0 build/default/production/_ext/753841488/sys_wincs_system_service.o
 .text.SYS_WINCS_SYSTEM_EventCallback
                0x00000000       0xa0 build/default/production/_ext/753841488/sys_wincs_system_service.o
 .rodata.SYS_WINCS_SYSTEM_EventCallback
                0x00000000       0x24 build/default/production/_ext/753841488/sys_wincs_system_service.o
 .rodata.SYS_WINCS_SYSTEM_Get_MacAddr.str1.4
                0x00000000       0xbd build/default/production/_ext/753841488/sys_wincs_system_service.o
 .text.SYS_WINCS_SYSTEM_Get_MacAddr
                0x00000000       0x88 build/default/production/_ext/753841488/sys_wincs_system_service.o
 .text.SYS_WINCS_SYSTEM_getTaskStatus
                0x00000000        0xc build/default/production/_ext/753841488/sys_wincs_system_service.o
 .text.SYS_WINCS_SYSTEM_setTaskStatus
                0x00000000        0xc build/default/production/_ext/753841488/sys_wincs_system_service.o
 .rodata.SYS_WINCS_SYSTEM_SrvCtrl.str1.4
                0x00000000       0x30 build/default/production/_ext/753841488/sys_wincs_system_service.o
 .text.SYS_WINCS_SYSTEM_SrvCtrl
                0x00000000      0x130 build/default/production/_ext/753841488/sys_wincs_system_service.o
 .rodata.SYS_WINCS_SYSTEM_SrvCtrl
                0x00000000       0x24 build/default/production/_ext/753841488/sys_wincs_system_service.o
 .rodata.__FUNCTION__.0
                0x00000000       0x19 build/default/production/_ext/753841488/sys_wincs_system_service.o
 .bss.wincsMacAddr
                0x00000000        0x7 build/default/production/_ext/753841488/sys_wincs_system_service.o
 .bss.wincsSysTaskCompleted
                0x00000000        0x1 build/default/production/_ext/753841488/sys_wincs_system_service.o
 .debug_info    0x00000000     0x1015 build/default/production/_ext/753841488/sys_wincs_system_service.o
 .debug_abbrev  0x00000000      0x285 build/default/production/_ext/753841488/sys_wincs_system_service.o
 .debug_loc     0x00000000      0x442 build/default/production/_ext/753841488/sys_wincs_system_service.o
 .debug_aranges
                0x00000000       0x40 build/default/production/_ext/753841488/sys_wincs_system_service.o
 .debug_ranges  0x00000000       0x30 build/default/production/_ext/753841488/sys_wincs_system_service.o
 .debug_line    0x00000000      0x4ce build/default/production/_ext/753841488/sys_wincs_system_service.o
 .debug_str     0x00000000     0x12a6 build/default/production/_ext/753841488/sys_wincs_system_service.o
 .comment       0x00000000       0x36 build/default/production/_ext/753841488/sys_wincs_system_service.o
 .debug_frame   0x00000000       0x80 build/default/production/_ext/753841488/sys_wincs_system_service.o
 .ARM.attributes
                0x00000000       0x2c build/default/production/_ext/753841488/sys_wincs_system_service.o
 .text          0x00000000        0x0 build/default/production/_ext/1171490990/tasks.o
 .data          0x00000000        0x0 build/default/production/_ext/1171490990/tasks.o
 .bss           0x00000000        0x0 build/default/production/_ext/1171490990/tasks.o
 .text          0x00000000        0x0 build/default/production/_ext/1171490990/initialization.o
 .data          0x00000000        0x0 build/default/production/_ext/1171490990/initialization.o
 .bss           0x00000000        0x0 build/default/production/_ext/1171490990/initialization.o
 .text          0x00000000        0x0 build/default/production/_ext/1171490990/interrupts.o
 .data          0x00000000        0x0 build/default/production/_ext/1171490990/interrupts.o
 .bss           0x00000000        0x0 build/default/production/_ext/1171490990/interrupts.o
 .text          0x00000000        0x0 build/default/production/_ext/1171490990/exceptions.o
 .data          0x00000000        0x0 build/default/production/_ext/1171490990/exceptions.o
 .bss           0x00000000        0x0 build/default/production/_ext/1171490990/exceptions.o
 .text          0x00000000        0x0 build/default/production/_ext/1171490990/startup_xc32.o
 .data          0x00000000        0x0 build/default/production/_ext/1171490990/startup_xc32.o
 .bss           0x00000000        0x0 build/default/production/_ext/1171490990/startup_xc32.o
 .text          0x00000000        0x0 build/default/production/_ext/1171490990/libc_syscalls.o
 .data          0x00000000        0x0 build/default/production/_ext/1171490990/libc_syscalls.o
 .bss           0x00000000        0x0 build/default/production/_ext/1171490990/libc_syscalls.o
 .text._exit    0x00000000        0x2 build/default/production/_ext/1171490990/libc_syscalls.o
 .debug_info    0x00000000       0xaa build/default/production/_ext/1171490990/libc_syscalls.o
 .debug_abbrev  0x00000000       0x5d build/default/production/_ext/1171490990/libc_syscalls.o
 .debug_loc     0x00000000       0x15 build/default/production/_ext/1171490990/libc_syscalls.o
 .debug_aranges
                0x00000000       0x20 build/default/production/_ext/1171490990/libc_syscalls.o
 .debug_ranges  0x00000000       0x10 build/default/production/_ext/1171490990/libc_syscalls.o
 .debug_line    0x00000000       0x5e build/default/production/_ext/1171490990/libc_syscalls.o
 .debug_str     0x00000000      0x2bb build/default/production/_ext/1171490990/libc_syscalls.o
 .comment       0x00000000       0x36 build/default/production/_ext/1171490990/libc_syscalls.o
 .debug_frame   0x00000000       0x20 build/default/production/_ext/1171490990/libc_syscalls.o
 .ARM.attributes
                0x00000000       0x2c build/default/production/_ext/1171490990/libc_syscalls.o
 .text          0x00000000        0x0 build/default/production/_ext/1360937237/ad9954_driver.o
 .data          0x00000000        0x0 build/default/production/_ext/1360937237/ad9954_driver.o
 .bss           0x00000000        0x0 build/default/production/_ext/1360937237/ad9954_driver.o
 .text.AD9954_DRIVER_Get_Task_Start_Status
                0x00000000        0xc build/default/production/_ext/1360937237/ad9954_driver.o
 .text.AD9954_DRIVER_Set_Task_Start_Status
                0x00000000        0xc build/default/production/_ext/1360937237/ad9954_driver.o
 .text.AD9954_DRIVER_Get_Task_Completed_Status
                0x00000000        0xc build/default/production/_ext/1360937237/ad9954_driver.o
 .text.AD9954_DRIVER_Set_Task_Completed_Status
                0x00000000        0xc build/default/production/_ext/1360937237/ad9954_driver.o
 .text.AD9954_DRIVER_Get_CFR1_Register
                0x00000000       0x2c build/default/production/_ext/1360937237/ad9954_driver.o
 .text.AD9954_DRIVER_Store_CFR1_Register
                0x00000000       0x24 build/default/production/_ext/1360937237/ad9954_driver.o
 .text.AD9954_DRIVER_Get_CFR2_Register
                0x00000000       0x2c build/default/production/_ext/1360937237/ad9954_driver.o
 .text.AD9954_DRIVER_Store_CFR2_Register
                0x00000000       0x18 build/default/production/_ext/1360937237/ad9954_driver.o
 .text.AD9954_DRIVER_Set_CFR2_Register
                0x00000000       0x28 build/default/production/_ext/1360937237/ad9954_driver.o
 .text.AD9954_DRIVER_Get_ASF_Register
                0x00000000       0x2c build/default/production/_ext/1360937237/ad9954_driver.o
 .text.AD9954_DRIVER_Store_ASF_Register
                0x00000000       0x18 build/default/production/_ext/1360937237/ad9954_driver.o
 .text.AD9954_DRIVER_Set_ASF_Register
                0x00000000       0x28 build/default/production/_ext/1360937237/ad9954_driver.o
 .text.AD9954_DRIVER_Get_ARR_Register
                0x00000000       0x2c build/default/production/_ext/1360937237/ad9954_driver.o
 .text.AD9954_DRIVER_Store_ARR_Register
                0x00000000       0x14 build/default/production/_ext/1360937237/ad9954_driver.o
 .text.AD9954_DRIVER_Set_ARR_Register
                0x00000000       0x24 build/default/production/_ext/1360937237/ad9954_driver.o
 .text.AD9954_DRIVER_Get_FTW0_Register
                0x00000000       0x2c build/default/production/_ext/1360937237/ad9954_driver.o
 .text.AD9954_DRIVER_Store_FTW0_Register
                0x00000000       0x24 build/default/production/_ext/1360937237/ad9954_driver.o
 .text.AD9954_DRIVER_Get_POW0_Register
                0x00000000       0x2c build/default/production/_ext/1360937237/ad9954_driver.o
 .text.AD9954_DRIVER_Store_POW0_Register
                0x00000000       0x18 build/default/production/_ext/1360937237/ad9954_driver.o
 .text.AD9954_DRIVER_Set_POW0_Register
                0x00000000       0x28 build/default/production/_ext/1360937237/ad9954_driver.o
 .text.AD9954_DRIVER_Get_FTW1_Register
                0x00000000       0x2c build/default/production/_ext/1360937237/ad9954_driver.o
 .text.AD9954_DRIVER_Store_FTW1_Register
                0x00000000       0x24 build/default/production/_ext/1360937237/ad9954_driver.o
 .text.AD9954_DRIVER_Get_RSCW0_Register
                0x00000000       0x2c build/default/production/_ext/1360937237/ad9954_driver.o
 .text.AD9954_DRIVER_Store_RSCW0_Register
                0x00000000       0x28 build/default/production/_ext/1360937237/ad9954_driver.o
 .text.AD9954_DRIVER_Set_RSCW0_Register
                0x00000000       0x38 build/default/production/_ext/1360937237/ad9954_driver.o
 .text.AD9954_DRIVER_Get_RSCW1_Register
                0x00000000       0x2c build/default/production/_ext/1360937237/ad9954_driver.o
 .text.AD9954_DRIVER_Store_RSCW1_Register
                0x00000000       0x28 build/default/production/_ext/1360937237/ad9954_driver.o
 .text.AD9954_DRIVER_Set_RSCW1_Register
                0x00000000       0x38 build/default/production/_ext/1360937237/ad9954_driver.o
 .text.AD9954_DRIVER_Get_RSCW2_Register
                0x00000000       0x2c build/default/production/_ext/1360937237/ad9954_driver.o
 .text.AD9954_DRIVER_Store_RSCW2_Register
                0x00000000       0x28 build/default/production/_ext/1360937237/ad9954_driver.o
 .text.AD9954_DRIVER_Set_RSCW2_Register
                0x00000000       0x38 build/default/production/_ext/1360937237/ad9954_driver.o
 .text.AD9954_DRIVER_Get_RSCW3_Register
                0x00000000       0x2c build/default/production/_ext/1360937237/ad9954_driver.o
 .text.AD9954_DRIVER_Store_RSCW3_Register
                0x00000000       0x28 build/default/production/_ext/1360937237/ad9954_driver.o
 .text.AD9954_DRIVER_Set_RSCW3_Register
                0x00000000       0x38 build/default/production/_ext/1360937237/ad9954_driver.o
 .text.AD9954_DRIVER_Get_NLSCW_Register
                0x00000000       0x2c build/default/production/_ext/1360937237/ad9954_driver.o
 .text.AD9954_DRIVER_Store_NLSCW_Register
                0x00000000       0x28 build/default/production/_ext/1360937237/ad9954_driver.o
 .text.AD9954_DRIVER_Get_PLSCW_Register
                0x00000000       0x2c build/default/production/_ext/1360937237/ad9954_driver.o
 .text.AD9954_DRIVER_Store_PLSCW_Register
                0x00000000       0x28 build/default/production/_ext/1360937237/ad9954_driver.o
 .text.AD9954_DRIVER_Set_PLSCW_Register
                0x00000000       0x38 build/default/production/_ext/1360937237/ad9954_driver.o
 .text.AD9954_DRIVER_Set_Frequency
                0x00000000       0x28 build/default/production/_ext/1360937237/ad9954_driver.o
 .text.AD9954_DRIVER_Set_Linear_Sweep
                0x00000000       0x30 build/default/production/_ext/1360937237/ad9954_driver.o
 .bss.ad9954_settingsData
                0x00000000        0xc build/default/production/_ext/1360937237/ad9954_driver.o
 .bss.ad9954_ddsData
                0x00000000       0x48 build/default/production/_ext/1360937237/ad9954_driver.o
 .text          0x00000000        0x0 build/default/production/_ext/1360937237/bme690_driver.o
 .data          0x00000000        0x0 build/default/production/_ext/1360937237/bme690_driver.o
 .bss           0x00000000        0x0 build/default/production/_ext/1360937237/bme690_driver.o
 .text.BME690_DRIVER_Get_Task_Start_Status
                0x00000000        0xc build/default/production/_ext/1360937237/bme690_driver.o
 .text.BME690_DRIVER_Set_Task_Start_Status
                0x00000000        0xc build/default/production/_ext/1360937237/bme690_driver.o
 .text.BME690_DRIVER_Get_Task_Completed_Status
                0x00000000        0xc build/default/production/_ext/1360937237/bme690_driver.o
 .text.BME690_DRIVER_Set_Task_Completed_Status
                0x00000000        0xc build/default/production/_ext/1360937237/bme690_driver.o
 .text.BME690_DRIVER_Set_I2C_Address
                0x00000000        0xc build/default/production/_ext/1360937237/bme690_driver.o
 .text.BME690_DRIVER_Get_VARIANT_ID_Data
                0x00000000       0x30 build/default/production/_ext/1360937237/bme690_driver.o
 .text.BME690_DRIVER_Store_VARIANT_ID_Data
                0x00000000       0x14 build/default/production/_ext/1360937237/bme690_driver.o
 .text.BME690_DRIVER_Get_CHIP_ID_Data
                0x00000000       0x30 build/default/production/_ext/1360937237/bme690_driver.o
 .text.BME690_DRIVER_Store_CHIP_ID_Data
                0x00000000       0x14 build/default/production/_ext/1360937237/bme690_driver.o
 .text.BME690_DRIVER_Set_CONFIG_Data
                0x00000000       0x28 build/default/production/_ext/1360937237/bme690_driver.o
 .text.BME690_DRIVER_Get_CONFIG_Data
                0x00000000       0x30 build/default/production/_ext/1360937237/bme690_driver.o
 .text.BME690_DRIVER_Store_CONFIG_Data
                0x00000000       0x14 build/default/production/_ext/1360937237/bme690_driver.o
 .text.BME690_DRIVER_Set_CTRL_MEAS_Data
                0x00000000       0x28 build/default/production/_ext/1360937237/bme690_driver.o
 .text.BME690_DRIVER_Get_CTRL_MEAS_Data
                0x00000000       0x30 build/default/production/_ext/1360937237/bme690_driver.o
 .text.BME690_DRIVER_Store_CTRL_MEAS_Data
                0x00000000       0x14 build/default/production/_ext/1360937237/bme690_driver.o
 .text.BME690_DRIVER_Set_CTRL_HUM_Data
                0x00000000       0x28 build/default/production/_ext/1360937237/bme690_driver.o
 .text.BME690_DRIVER_Get_CTRL_HUM_Data
                0x00000000       0x30 build/default/production/_ext/1360937237/bme690_driver.o
 .text.BME690_DRIVER_Store_CTRL_HUM_Data
                0x00000000       0x14 build/default/production/_ext/1360937237/bme690_driver.o
 .text.BME690_DRIVER_Set_CTRL_GAS_1_Data
                0x00000000       0x28 build/default/production/_ext/1360937237/bme690_driver.o
 .text.BME690_DRIVER_Get_CTRL_GAS_1_Data
                0x00000000       0x30 build/default/production/_ext/1360937237/bme690_driver.o
 .text.BME690_DRIVER_Store_CTRL_GAS_1_Data
                0x00000000       0x14 build/default/production/_ext/1360937237/bme690_driver.o
 .text.BME690_DRIVER_Set_CTRL_GAS_0_Data
                0x00000000       0x28 build/default/production/_ext/1360937237/bme690_driver.o
 .text.BME690_DRIVER_Get_CTRL_GAS_0_Data
                0x00000000       0x30 build/default/production/_ext/1360937237/bme690_driver.o
 .text.BME690_DRIVER_Store_CTRL_GAS_0_Data
                0x00000000       0x14 build/default/production/_ext/1360937237/bme690_driver.o
 .text.BME690_DRIVER_Get_T_MSB_Data
                0x00000000       0x38 build/default/production/_ext/1360937237/bme690_driver.o
 .text.BME690_DRIVER_Store_T_MSB_Data
                0x00000000       0x14 build/default/production/_ext/1360937237/bme690_driver.o
 .text.BME690_DRIVER_Get_T_LSB_Data
                0x00000000       0x38 build/default/production/_ext/1360937237/bme690_driver.o
 .text.BME690_DRIVER_Store_T_LSB_Data
                0x00000000       0x14 build/default/production/_ext/1360937237/bme690_driver.o
 .text.BME690_DRIVER_Get_T_XLSB_Data
                0x00000000       0x38 build/default/production/_ext/1360937237/bme690_driver.o
 .text.BME690_DRIVER_Store_T_XLSB_Data
                0x00000000       0x14 build/default/production/_ext/1360937237/bme690_driver.o
 .text.BME690_DRIVER_Get_H_MSB_Data
                0x00000000       0x38 build/default/production/_ext/1360937237/bme690_driver.o
 .text.BME690_DRIVER_Store_H_MSB_Data
                0x00000000       0x14 build/default/production/_ext/1360937237/bme690_driver.o
 .text.BME690_DRIVER_Get_H_LSB_Data
                0x00000000       0x38 build/default/production/_ext/1360937237/bme690_driver.o
 .text.BME690_DRIVER_Store_H_LSB_Data
                0x00000000       0x14 build/default/production/_ext/1360937237/bme690_driver.o
 .text.BME690_DRIVER_Get_G_MSB_Data
                0x00000000       0x38 build/default/production/_ext/1360937237/bme690_driver.o
 .text.BME690_DRIVER_Store_G_MSB_Data
                0x00000000       0x14 build/default/production/_ext/1360937237/bme690_driver.o
 .text.BME690_DRIVER_Get_G_LSB_Data
                0x00000000       0x38 build/default/production/_ext/1360937237/bme690_driver.o
 .text.BME690_DRIVER_Store_G_LSB_Data
                0x00000000       0x14 build/default/production/_ext/1360937237/bme690_driver.o
 .text.BME690_DRIVER_Get_P_MSB_Data
                0x00000000       0x38 build/default/production/_ext/1360937237/bme690_driver.o
 .text.BME690_DRIVER_Store_P_MSB_Data
                0x00000000       0x14 build/default/production/_ext/1360937237/bme690_driver.o
 .text.BME690_DRIVER_Get_P_LSB_Data
                0x00000000       0x38 build/default/production/_ext/1360937237/bme690_driver.o
 .text.BME690_DRIVER_Store_P_LSB_Data
                0x00000000       0x14 build/default/production/_ext/1360937237/bme690_driver.o
 .text.BME690_DRIVER_Get_P_XLSB_Data
                0x00000000       0x38 build/default/production/_ext/1360937237/bme690_driver.o
 .text.BME690_DRIVER_Store_P_XLSB_Data
                0x00000000       0x14 build/default/production/_ext/1360937237/bme690_driver.o
 .text.BME690_DRIVER_Get_SUB_MEAS_INDEX_Data
                0x00000000       0x38 build/default/production/_ext/1360937237/bme690_driver.o
 .text.BME690_DRIVER_Store_SUB_MEAS_INDEX_Data
                0x00000000       0x14 build/default/production/_ext/1360937237/bme690_driver.o
 .text.BME690_DRIVER_Get_MEAS_STATUS_Data
                0x00000000       0x38 build/default/production/_ext/1360937237/bme690_driver.o
 .text.BME690_DRIVER_Store_MEAS_STATUS_Data
                0x00000000       0x14 build/default/production/_ext/1360937237/bme690_driver.o
 .text.BME690_DRIVER_Get_PAR_T1_CAL_LSB_Data
                0x00000000        0x2 build/default/production/_ext/1360937237/bme690_driver.o
 .text.BME690_DRIVER_Store_PAR_T1_CAL_LSB_Data
                0x00000000        0x2 build/default/production/_ext/1360937237/bme690_driver.o
 .text.BME690_DRIVER_Get_PAR_T1_CAL_MSB_Data
                0x00000000        0x2 build/default/production/_ext/1360937237/bme690_driver.o
 .text.BME690_DRIVER_Store_PAR_T1_CAL_MSB_Data
                0x00000000        0x2 build/default/production/_ext/1360937237/bme690_driver.o
 .text.BME690_DRIVER_Get_PAR_T2_CAL_LSB_Data
                0x00000000        0x2 build/default/production/_ext/1360937237/bme690_driver.o
 .text.BME690_DRIVER_Store_PAR_T2_CAL_LSB_Data
                0x00000000        0x2 build/default/production/_ext/1360937237/bme690_driver.o
 .text.BME690_DRIVER_Get_PAR_T2_CAL_MSB_Data
                0x00000000        0x2 build/default/production/_ext/1360937237/bme690_driver.o
 .text.BME690_DRIVER_Store_PAR_T2_CAL_MSB_Data
                0x00000000        0x2 build/default/production/_ext/1360937237/bme690_driver.o
 .text.BME690_DRIVER_Get_PAR_T3_CAL_LSB_Data
                0x00000000        0x2 build/default/production/_ext/1360937237/bme690_driver.o
 .text.BME690_DRIVER_Store_PAR_T3_CAL_LSB_Data
                0x00000000        0x2 build/default/production/_ext/1360937237/bme690_driver.o
 .text.BME690_DRIVER_Get_PAR_H1_CAL_LSB_Data
                0x00000000        0x2 build/default/production/_ext/1360937237/bme690_driver.o
 .text.BME690_DRIVER_Store_PAR_H1_CAL_LSB_Data
                0x00000000        0x2 build/default/production/_ext/1360937237/bme690_driver.o
 .text.BME690_DRIVER_Get_PAR_H1_CAL_MSB_Data
                0x00000000        0x2 build/default/production/_ext/1360937237/bme690_driver.o
 .text.BME690_DRIVER_Store_PAR_H1_CAL_MSB_Data
                0x00000000        0x2 build/default/production/_ext/1360937237/bme690_driver.o
 .text.BME690_DRIVER_Get_PAR_H2_CAL_LSB_Data
                0x00000000        0x2 build/default/production/_ext/1360937237/bme690_driver.o
 .text.BME690_DRIVER_Store_PAR_H2_CAL_LSB_Data
                0x00000000        0x2 build/default/production/_ext/1360937237/bme690_driver.o
 .text.BME690_DRIVER_Get_PAR_H3_CAL_LSB_Data
                0x00000000        0x2 build/default/production/_ext/1360937237/bme690_driver.o
 .text.BME690_DRIVER_Store_PAR_H3_CAL_LSB_Data
                0x00000000        0x2 build/default/production/_ext/1360937237/bme690_driver.o
 .text.BME690_DRIVER_Get_PAR_H4_CAL_LSB_Data
                0x00000000        0x2 build/default/production/_ext/1360937237/bme690_driver.o
 .text.BME690_DRIVER_Store_PAR_H4_CAL_LSB_Data
                0x00000000        0x2 build/default/production/_ext/1360937237/bme690_driver.o
 .text.BME690_DRIVER_Get_PAR_H5_CAL_LSB_Data
                0x00000000        0x2 build/default/production/_ext/1360937237/bme690_driver.o
 .text.BME690_DRIVER_Store_PAR_H5_CAL_LSB_Data
                0x00000000        0x2 build/default/production/_ext/1360937237/bme690_driver.o
 .text.BME690_DRIVER_Get_PAR_H5_CAL_MSB_Data
                0x00000000        0x2 build/default/production/_ext/1360937237/bme690_driver.o
 .text.BME690_DRIVER_Store_PAR_H5_CAL_MSB_Data
                0x00000000        0x2 build/default/production/_ext/1360937237/bme690_driver.o
 .text.BME690_DRIVER_Get_PAR_H6_CAL_LSB_Data
                0x00000000        0x2 build/default/production/_ext/1360937237/bme690_driver.o
 .text.BME690_DRIVER_Store_PAR_H6_CAL_LSB_Data
                0x00000000        0x2 build/default/production/_ext/1360937237/bme690_driver.o
 .text.BME690_DRIVER_Get_PAR_P1_CAL_LSB_Data
                0x00000000        0x2 build/default/production/_ext/1360937237/bme690_driver.o
 .text.BME690_DRIVER_Store_PAR_P1_CAL_LSB_Data
                0x00000000        0x2 build/default/production/_ext/1360937237/bme690_driver.o
 .text.BME690_DRIVER_Get_PAR_P1_CAL_MSB_Data
                0x00000000        0x2 build/default/production/_ext/1360937237/bme690_driver.o
 .text.BME690_DRIVER_Store_PAR_P1_CAL_MSB_Data
                0x00000000        0x2 build/default/production/_ext/1360937237/bme690_driver.o
 .text.BME690_DRIVER_Get_PAR_P2_CAL_LSB_Data
                0x00000000        0x2 build/default/production/_ext/1360937237/bme690_driver.o
 .text.BME690_DRIVER_Store_PAR_P2_CAL_LSB_Data
                0x00000000        0x2 build/default/production/_ext/1360937237/bme690_driver.o
 .text.BME690_DRIVER_Get_PAR_P2_CAL_MSB_Data
                0x00000000        0x2 build/default/production/_ext/1360937237/bme690_driver.o
 .text.BME690_DRIVER_Store_PAR_P2_CAL_MSB_Data
                0x00000000        0x2 build/default/production/_ext/1360937237/bme690_driver.o
 .text.BME690_DRIVER_Get_PAR_P3_CAL_LSB_Data
                0x00000000        0x2 build/default/production/_ext/1360937237/bme690_driver.o
 .text.BME690_DRIVER_Store_PAR_P3_CAL_LSB_Data
                0x00000000        0x2 build/default/production/_ext/1360937237/bme690_driver.o
 .text.BME690_DRIVER_Get_PAR_P4_CAL_LSB_Data
                0x00000000        0x2 build/default/production/_ext/1360937237/bme690_driver.o
 .text.BME690_DRIVER_Store_PAR_P4_CAL_LSB_Data
                0x00000000        0x2 build/default/production/_ext/1360937237/bme690_driver.o
 .text.BME690_DRIVER_Get_PAR_P5_CAL_LSB_Data
                0x00000000        0x2 build/default/production/_ext/1360937237/bme690_driver.o
 .text.BME690_DRIVER_Store_PAR_P5_CAL_LSB_Data
                0x00000000        0x2 build/default/production/_ext/1360937237/bme690_driver.o
 .text.BME690_DRIVER_Get_PAR_P5_CAL_MSB_Data
                0x00000000        0x2 build/default/production/_ext/1360937237/bme690_driver.o
 .text.BME690_DRIVER_Store_PAR_P5_CAL_MSB_Data
                0x00000000        0x2 build/default/production/_ext/1360937237/bme690_driver.o
 .text.BME690_DRIVER_Get_PAR_P6_CAL_LSB_Data
                0x00000000        0x2 build/default/production/_ext/1360937237/bme690_driver.o
 .text.BME690_DRIVER_Store_PAR_P6_CAL_LSB_Data
                0x00000000        0x2 build/default/production/_ext/1360937237/bme690_driver.o
 .text.BME690_DRIVER_Get_PAR_P6_CAL_MSB_Data
                0x00000000        0x2 build/default/production/_ext/1360937237/bme690_driver.o
 .text.BME690_DRIVER_Store_PAR_P6_CAL_MSB_Data
                0x00000000        0x2 build/default/production/_ext/1360937237/bme690_driver.o
 .text.BME690_DRIVER_Get_PAR_P7_CAL_LSB_Data
                0x00000000        0x2 build/default/production/_ext/1360937237/bme690_driver.o
 .text.BME690_DRIVER_Store_PAR_P7_CAL_LSB_Data
                0x00000000        0x2 build/default/production/_ext/1360937237/bme690_driver.o
 .text.BME690_DRIVER_Get_PAR_P8_CAL_LSB_Data
                0x00000000        0x2 build/default/production/_ext/1360937237/bme690_driver.o
 .text.BME690_DRIVER_Store_PAR_P8_CAL_LSB_Data
                0x00000000        0x2 build/default/production/_ext/1360937237/bme690_driver.o
 .text.BME690_DRIVER_Get_PAR_P9_CAL_LSB_Data
                0x00000000        0x2 build/default/production/_ext/1360937237/bme690_driver.o
 .text.BME690_DRIVER_Store_PAR_P9_CAL_LSB_Data
                0x00000000        0x2 build/default/production/_ext/1360937237/bme690_driver.o
 .text.BME690_DRIVER_Get_PAR_P9_CAL_MSB_Data
                0x00000000        0x2 build/default/production/_ext/1360937237/bme690_driver.o
 .text.BME690_DRIVER_Store_PAR_P9_CAL_MSB_Data
                0x00000000        0x2 build/default/production/_ext/1360937237/bme690_driver.o
 .text.BME690_DRIVER_Get_PAR_P10_CAL_LSB_Data
                0x00000000        0x2 build/default/production/_ext/1360937237/bme690_driver.o
 .text.BME690_DRIVER_Store_PAR_P10_CAL_LSB_Data
                0x00000000        0x2 build/default/production/_ext/1360937237/bme690_driver.o
 .text.BME690_DRIVER_Get_PAR_P11_CAL_LSB_Data
                0x00000000        0x2 build/default/production/_ext/1360937237/bme690_driver.o
 .text.BME690_DRIVER_Store_PAR_P11_CAL_LSB_Data
                0x00000000        0x2 build/default/production/_ext/1360937237/bme690_driver.o
 .text.BME690_DRIVER_Get_PAR_G1_CAL_LSB_Data
                0x00000000        0x2 build/default/production/_ext/1360937237/bme690_driver.o
 .text.BME690_DRIVER_Store_PAR_G1_CAL_LSB_Data
                0x00000000        0x2 build/default/production/_ext/1360937237/bme690_driver.o
 .text.BME690_DRIVER_Get_PAR_G2_CAL_LSB_Data
                0x00000000        0x2 build/default/production/_ext/1360937237/bme690_driver.o
 .text.BME690_DRIVER_Store_PAR_G2_CAL_LSB_Data
                0x00000000        0x2 build/default/production/_ext/1360937237/bme690_driver.o
 .text.BME690_DRIVER_Get_PAR_G2_CAL_MSB_Data
                0x00000000        0x2 build/default/production/_ext/1360937237/bme690_driver.o
 .text.BME690_DRIVER_Store_PAR_G2_CAL_MSB_Data
                0x00000000        0x2 build/default/production/_ext/1360937237/bme690_driver.o
 .text.BME690_DRIVER_Get_PAR_G3_CAL_LSB_Data
                0x00000000        0x2 build/default/production/_ext/1360937237/bme690_driver.o
 .text.BME690_DRIVER_Store_PAR_G3_CAL_LSB_Data
                0x00000000        0x2 build/default/production/_ext/1360937237/bme690_driver.o
 .text.BME690_DRIVER_Set_Calibration_Registers
                0x00000000        0x2 build/default/production/_ext/1360937237/bme690_driver.o
 .text.BME690_DRIVER_Set_Measure_Registers
                0x00000000       0x9c build/default/production/_ext/1360937237/bme690_driver.o
 .rodata.BME690_DRIVER_Print_Data.str1.4
                0x00000000       0x2d build/default/production/_ext/1360937237/bme690_driver.o
 .text.BME690_DRIVER_Print_Data
                0x00000000       0x40 build/default/production/_ext/1360937237/bme690_driver.o
 .bss.bme690_calData
                0x00000000       0x2a build/default/production/_ext/1360937237/bme690_driver.o
 .bss.bme690_sensorData
                0x00000000       0x48 build/default/production/_ext/1360937237/bme690_driver.o
 .bss.bme690_regData
                0x00000000       0x24 build/default/production/_ext/1360937237/bme690_driver.o
 .text          0x00000000        0x0 build/default/production/_ext/1360937237/bmp585_driver.o
 .data          0x00000000        0x0 build/default/production/_ext/1360937237/bmp585_driver.o
 .bss           0x00000000        0x0 build/default/production/_ext/1360937237/bmp585_driver.o
 .text.BMP585_DRIVER_Get_Task_Start_Status
                0x00000000        0xc build/default/production/_ext/1360937237/bmp585_driver.o
 .text.BMP585_DRIVER_Set_Task_Start_Status
                0x00000000        0xc build/default/production/_ext/1360937237/bmp585_driver.o
 .text.BMP585_DRIVER_Get_Task_Completed_Status
                0x00000000        0xc build/default/production/_ext/1360937237/bmp585_driver.o
 .text.BMP585_DRIVER_Set_Task_Completed_Status
                0x00000000        0xc build/default/production/_ext/1360937237/bmp585_driver.o
 .text.BMP585_DRIVER_Get_Alert_Status
                0x00000000        0xc build/default/production/_ext/1360937237/bmp585_driver.o
 .text.BMP585_DRIVER_Set_Alert_Status
                0x00000000        0xc build/default/production/_ext/1360937237/bmp585_driver.o
 .text.BMP585_DRIVER_Get_Chip_Status
                0x00000000       0x30 build/default/production/_ext/1360937237/bmp585_driver.o
 .text.BMP585_DRIVER_Store_Chip_Status
                0x00000000       0x14 build/default/production/_ext/1360937237/bmp585_driver.o
 .text.BMP585_DRIVER_Get_Drive_Config
                0x00000000       0x30 build/default/production/_ext/1360937237/bmp585_driver.o
 .text.BMP585_DRIVER_Store_Drive_Config
                0x00000000       0x14 build/default/production/_ext/1360937237/bmp585_driver.o
 .text.BMP585_DRIVER_Set_Drive_Config
                0x00000000       0x28 build/default/production/_ext/1360937237/bmp585_driver.o
 .text.BMP585_DRIVER_Get_INT_Config
                0x00000000       0x30 build/default/production/_ext/1360937237/bmp585_driver.o
 .text.BMP585_DRIVER_Store_INT_Config
                0x00000000       0x14 build/default/production/_ext/1360937237/bmp585_driver.o
 .text.BMP585_DRIVER_Set_INT_Config
                0x00000000       0x28 build/default/production/_ext/1360937237/bmp585_driver.o
 .text.BMP585_DRIVER_Get_INT_Source
                0x00000000       0x30 build/default/production/_ext/1360937237/bmp585_driver.o
 .text.BMP585_DRIVER_Store_INT_Source
                0x00000000       0x14 build/default/production/_ext/1360937237/bmp585_driver.o
 .text.BMP585_DRIVER_Get_FIFO_Config
                0x00000000       0x30 build/default/production/_ext/1360937237/bmp585_driver.o
 .text.BMP585_DRIVER_Store_FIFO_Config
                0x00000000       0x14 build/default/production/_ext/1360937237/bmp585_driver.o
 .text.BMP585_DRIVER_Set_FIFO_Config
                0x00000000       0x28 build/default/production/_ext/1360937237/bmp585_driver.o
 .text.BMP585_DRIVER_Get_FIFO_Count
                0x00000000       0x30 build/default/production/_ext/1360937237/bmp585_driver.o
 .text.BMP585_DRIVER_Store_FIFO_Count
                0x00000000       0x14 build/default/production/_ext/1360937237/bmp585_driver.o
 .text.BMP585_DRIVER_Get_FIFO_Select
                0x00000000       0x30 build/default/production/_ext/1360937237/bmp585_driver.o
 .text.BMP585_DRIVER_Store_FIFO_Select
                0x00000000       0x14 build/default/production/_ext/1360937237/bmp585_driver.o
 .text.BMP585_DRIVER_Set_FIFO_Select
                0x00000000       0x28 build/default/production/_ext/1360937237/bmp585_driver.o
 .text.BMP585_DRIVER_Get_Status
                0x00000000       0x30 build/default/production/_ext/1360937237/bmp585_driver.o
 .text.BMP585_DRIVER_Store_Status
                0x00000000       0x14 build/default/production/_ext/1360937237/bmp585_driver.o
 .text.BMP585_DRIVER_Get_FIFO_Data
                0x00000000       0x30 build/default/production/_ext/1360937237/bmp585_driver.o
 .text.BMP585_DRIVER_Store_FIFO_Data
                0x00000000       0x14 build/default/production/_ext/1360937237/bmp585_driver.o
 .text.BMP585_DRIVER_Get_NVM_Address
                0x00000000       0x30 build/default/production/_ext/1360937237/bmp585_driver.o
 .text.BMP585_DRIVER_Store_NVM_Address
                0x00000000       0x14 build/default/production/_ext/1360937237/bmp585_driver.o
 .text.BMP585_DRIVER_Set_NVM_Address
                0x00000000       0x28 build/default/production/_ext/1360937237/bmp585_driver.o
 .text.BMP585_DRIVER_Get_NVM_Data_LSB
                0x00000000       0x30 build/default/production/_ext/1360937237/bmp585_driver.o
 .text.BMP585_DRIVER_Store_NVM_Data_LSB
                0x00000000       0x14 build/default/production/_ext/1360937237/bmp585_driver.o
 .text.BMP585_DRIVER_Set_NVM_Data_LSB
                0x00000000       0x28 build/default/production/_ext/1360937237/bmp585_driver.o
 .text.BMP585_DRIVER_Get_NVM_Data_MSB
                0x00000000       0x30 build/default/production/_ext/1360937237/bmp585_driver.o
 .text.BMP585_DRIVER_Store_NVM_Data_MSB
                0x00000000       0x14 build/default/production/_ext/1360937237/bmp585_driver.o
 .text.BMP585_DRIVER_Set_NVM_Data_MSB
                0x00000000       0x28 build/default/production/_ext/1360937237/bmp585_driver.o
 .text.BMP585_DRIVER_Get_DSP_Config
                0x00000000       0x30 build/default/production/_ext/1360937237/bmp585_driver.o
 .text.BMP585_DRIVER_Store_DSP_Config
                0x00000000       0x14 build/default/production/_ext/1360937237/bmp585_driver.o
 .text.BMP585_DRIVER_Set_DSP_Config
                0x00000000       0x28 build/default/production/_ext/1360937237/bmp585_driver.o
 .text.BMP585_DRIVER_Get_DSP_IIR
                0x00000000       0x30 build/default/production/_ext/1360937237/bmp585_driver.o
 .text.BMP585_DRIVER_Store_DSP_IIR
                0x00000000       0x14 build/default/production/_ext/1360937237/bmp585_driver.o
 .text.BMP585_DRIVER_Set_DSP_IIR
                0x00000000       0x28 build/default/production/_ext/1360937237/bmp585_driver.o
 .text.BMP585_DRIVER_Get_OOR_P_LSB
                0x00000000       0x30 build/default/production/_ext/1360937237/bmp585_driver.o
 .text.BMP585_DRIVER_Store_OOR_P_LSB
                0x00000000       0x14 build/default/production/_ext/1360937237/bmp585_driver.o
 .text.BMP585_DRIVER_Set_OOR_P_LSB
                0x00000000       0x28 build/default/production/_ext/1360937237/bmp585_driver.o
 .text.BMP585_DRIVER_Get_OOR_P_MSB
                0x00000000       0x30 build/default/production/_ext/1360937237/bmp585_driver.o
 .text.BMP585_DRIVER_Store_OOR_P_MSB
                0x00000000       0x14 build/default/production/_ext/1360937237/bmp585_driver.o
 .text.BMP585_DRIVER_Set_OOR_P_MSB
                0x00000000       0x28 build/default/production/_ext/1360937237/bmp585_driver.o
 .text.BMP585_DRIVER_Get_OOR_Range
                0x00000000       0x30 build/default/production/_ext/1360937237/bmp585_driver.o
 .text.BMP585_DRIVER_Store_OOR_Range
                0x00000000       0x14 build/default/production/_ext/1360937237/bmp585_driver.o
 .text.BMP585_DRIVER_Set_OOR_Range
                0x00000000       0x28 build/default/production/_ext/1360937237/bmp585_driver.o
 .text.BMP585_DRIVER_Get_OOR_Config
                0x00000000       0x30 build/default/production/_ext/1360937237/bmp585_driver.o
 .text.BMP585_DRIVER_Store_OOR_Config
                0x00000000       0x14 build/default/production/_ext/1360937237/bmp585_driver.o
 .text.BMP585_DRIVER_Set_OOR_Config
                0x00000000       0x28 build/default/production/_ext/1360937237/bmp585_driver.o
 .text.BMP585_DRIVER_Get_OSR_Config
                0x00000000       0x30 build/default/production/_ext/1360937237/bmp585_driver.o
 .text.BMP585_DRIVER_Store_OSR_Config
                0x00000000       0x14 build/default/production/_ext/1360937237/bmp585_driver.o
 .text.BMP585_DRIVER_Get_ODR_Config
                0x00000000       0x30 build/default/production/_ext/1360937237/bmp585_driver.o
 .text.BMP585_DRIVER_Store_ODR_Config
                0x00000000       0x14 build/default/production/_ext/1360937237/bmp585_driver.o
 .text.BMP585_DRIVER_Get_OSR_Eff
                0x00000000       0x30 build/default/production/_ext/1360937237/bmp585_driver.o
 .text.BMP585_DRIVER_Store_OSR_Eff
                0x00000000       0x14 build/default/production/_ext/1360937237/bmp585_driver.o
 .text.BMP585_DRIVER_Set_OSR_Eff
                0x00000000       0x28 build/default/production/_ext/1360937237/bmp585_driver.o
 .rodata.BMP585_DRIVER_Print_Data.str1.4
                0x00000000       0x2a build/default/production/_ext/1360937237/bmp585_driver.o
 .text.BMP585_DRIVER_Print_Data
                0x00000000       0x40 build/default/production/_ext/1360937237/bmp585_driver.o
 .text          0x00000000        0x0 build/default/production/_ext/1360937237/can0_driver.o
 .data          0x00000000        0x0 build/default/production/_ext/1360937237/can0_driver.o
 .bss           0x00000000        0x0 build/default/production/_ext/1360937237/can0_driver.o
 .text.CAN0_DRIVER_Get_Task_Start_Status
                0x00000000        0xc build/default/production/_ext/1360937237/can0_driver.o
 .text.CAN0_DRIVER_Set_DLC
                0x00000000       0x38 build/default/production/_ext/1360937237/can0_driver.o
 .text.CAN0_DRIVER_Set_Received_Data
                0x00000000        0xc build/default/production/_ext/1360937237/can0_driver.o
 .text.CAN0_DRIVER_Set_Transmited_Data
                0x00000000       0x48 build/default/production/_ext/1360937237/can0_driver.o
 .text          0x00000000        0x0 build/default/production/_ext/1360937237/console_driver.o
 .data          0x00000000        0x0 build/default/production/_ext/1360937237/console_driver.o
 .bss           0x00000000        0x0 build/default/production/_ext/1360937237/console_driver.o
 .text.CONSOLE_DRIVER_Get_Task_Start_Status
                0x00000000        0xc build/default/production/_ext/1360937237/console_driver.o
 .text          0x00000000        0x0 build/default/production/_ext/1360937237/fcm360w_driver.o
 .data          0x00000000        0x0 build/default/production/_ext/1360937237/fcm360w_driver.o
 .bss           0x00000000        0x0 build/default/production/_ext/1360937237/fcm360w_driver.o
 .text.FCM360W_DRIVER_Get_Task_Start_Status
                0x00000000        0xc build/default/production/_ext/1360937237/fcm360w_driver.o
 .text.FCM360W_DRIVER_Set_Task_Start_Status
                0x00000000        0xc build/default/production/_ext/1360937237/fcm360w_driver.o
 .text.FCM360W_DRIVER_Get_Task_Completed_Status
                0x00000000        0xc build/default/production/_ext/1360937237/fcm360w_driver.o
 .text.FCM360W_DRIVER_Set_Task_Completed_Status
                0x00000000        0xc build/default/production/_ext/1360937237/fcm360w_driver.o
 .text.FCM360W_DRIVER_Set_Module_Response_Status
                0x00000000        0xc build/default/production/_ext/1360937237/fcm360w_driver.o
 .text          0x00000000        0x0 build/default/production/_ext/1360937237/hdc302x_driver.o
 .data          0x00000000        0x0 build/default/production/_ext/1360937237/hdc302x_driver.o
 .bss           0x00000000        0x0 build/default/production/_ext/1360937237/hdc302x_driver.o
 .text.HDC302X_DRIVER_Get_Task_Start_Status
                0x00000000        0xc build/default/production/_ext/1360937237/hdc302x_driver.o
 .text.HDC302X_DRIVER_Get_Alert_Status
                0x00000000        0xc build/default/production/_ext/1360937237/hdc302x_driver.o
 .text.HDC302X_DRIVER_Set_Alert_Status
                0x00000000        0xc build/default/production/_ext/1360937237/hdc302x_driver.o
 .text.HDC302X_DRIVER_Get_Offset_Values
                0x00000000       0x34 build/default/production/_ext/1360937237/hdc302x_driver.o
 .text.HDC302X_DRIVER_Store_Offset_Values
                0x00000000       0x18 build/default/production/_ext/1360937237/hdc302x_driver.o
 .text.HDC302X_DRIVER_Get_Set_High_Alert
                0x00000000       0x34 build/default/production/_ext/1360937237/hdc302x_driver.o
 .text.HDC302X_DRIVER_Store_Set_High_Alert
                0x00000000       0x18 build/default/production/_ext/1360937237/hdc302x_driver.o
 .text.HDC302X_DRIVER_Get_Clear_High_Alert
                0x00000000       0x34 build/default/production/_ext/1360937237/hdc302x_driver.o
 .text.HDC302X_DRIVER_Store_Clear_High_Alert
                0x00000000       0x18 build/default/production/_ext/1360937237/hdc302x_driver.o
 .text.HDC302X_DRIVER_Get_Set_Low_Alert
                0x00000000       0x34 build/default/production/_ext/1360937237/hdc302x_driver.o
 .text.HDC302X_DRIVER_Store_Set_Low_Alert
                0x00000000       0x18 build/default/production/_ext/1360937237/hdc302x_driver.o
 .text.HDC302X_DRIVER_Get_Clear_Low_Alert
                0x00000000       0x34 build/default/production/_ext/1360937237/hdc302x_driver.o
 .text.HDC302X_DRIVER_Store_Clear_Low_Alert
                0x00000000       0x18 build/default/production/_ext/1360937237/hdc302x_driver.o
 .text.HDC302X_DRIVER_Enter_Auto_Measurement_Mode
                0x00000000       0x30 build/default/production/_ext/1360937237/hdc302x_driver.o
 .text.HDC302X_DRIVER_Exit_Auto_Measurement_Mode
                0x00000000       0x30 build/default/production/_ext/1360937237/hdc302x_driver.o
 .text.HDC302X_DRIVER_Start_Manual_Measurement
                0x00000000       0x30 build/default/production/_ext/1360937237/hdc302x_driver.o
 .text.HDC302X_DRIVER_Get_Manual_Measure_Values
                0x00000000       0x20 build/default/production/_ext/1360937237/hdc302x_driver.o
 .text.HDC302X_DRIVER_Get_Auto_Measure_Values
                0x00000000       0x34 build/default/production/_ext/1360937237/hdc302x_driver.o
 .text.HDC302X_DRIVER_Store_Measurement_Values
                0x00000000       0x24 build/default/production/_ext/1360937237/hdc302x_driver.o
 .text.HDC302X_DRIVER_Get_Minimum_Temperature_Value
                0x00000000       0x34 build/default/production/_ext/1360937237/hdc302x_driver.o
 .text.HDC302X_DRIVER_Store_Minimum_Temperature_Value
                0x00000000       0x18 build/default/production/_ext/1360937237/hdc302x_driver.o
 .text.HDC302X_DRIVER_Get_Maximum_Temperature_Value
                0x00000000       0x30 build/default/production/_ext/1360937237/hdc302x_driver.o
 .text.HDC302X_DRIVER_Store_Maximum_Temperature_Value
                0x00000000       0x18 build/default/production/_ext/1360937237/hdc302x_driver.o
 .text.HDC302X_DRIVER_Get_Minimum_Humidity_Value
                0x00000000       0x34 build/default/production/_ext/1360937237/hdc302x_driver.o
 .text.HDC302X_DRIVER_Store_Minimum_Humidity_Value
                0x00000000       0x18 build/default/production/_ext/1360937237/hdc302x_driver.o
 .text.HDC302X_DRIVER_Get_Maximum_Humidity_Value
                0x00000000       0x34 build/default/production/_ext/1360937237/hdc302x_driver.o
 .text.HDC302X_DRIVER_Store_Maximum_Humidity_Value
                0x00000000       0x18 build/default/production/_ext/1360937237/hdc302x_driver.o
 .text.HDC302X_DRIVER_Calculation_Temperature
                0x00000000       0x48 build/default/production/_ext/1360937237/hdc302x_driver.o
 .text.HDC302X_DRIVER_Calculation_Humidity
                0x00000000       0x24 build/default/production/_ext/1360937237/hdc302x_driver.o
 .text.HDC302X_DRIVER_Get_Sensor_Status
                0x00000000       0x34 build/default/production/_ext/1360937237/hdc302x_driver.o
 .text.HDC302X_DRIVER_Store_Sensor_Status
                0x00000000       0x18 build/default/production/_ext/1360937237/hdc302x_driver.o
 .text.HDC302X_DRIVER_Get_NIST_3
                0x00000000       0x34 build/default/production/_ext/1360937237/hdc302x_driver.o
 .text.HDC302X_DRIVER_Store_NIST_3
                0x00000000       0x18 build/default/production/_ext/1360937237/hdc302x_driver.o
 .text.HDC302X_DRIVER_Get_NIST_2
                0x00000000       0x34 build/default/production/_ext/1360937237/hdc302x_driver.o
 .text.HDC302X_DRIVER_Store_NIST_2
                0x00000000       0x18 build/default/production/_ext/1360937237/hdc302x_driver.o
 .text.HDC302X_DRIVER_Get_NIST_1
                0x00000000       0x34 build/default/production/_ext/1360937237/hdc302x_driver.o
 .text.HDC302X_DRIVER_Store_NIST_1
                0x00000000       0x18 build/default/production/_ext/1360937237/hdc302x_driver.o
 .text.HDC302X_DRIVER_Soft_Reset
                0x00000000       0x28 build/default/production/_ext/1360937237/hdc302x_driver.o
 .text.HDC302X_DRIVER_Enable_Heater
                0x00000000       0x28 build/default/production/_ext/1360937237/hdc302x_driver.o
 .text.HDC302X_DRIVER_Disable_Heater
                0x00000000       0x28 build/default/production/_ext/1360937237/hdc302x_driver.o
 .text.HDC302X_DRIVER_Calculation_CRC
                0x00000000       0x40 build/default/production/_ext/1360937237/hdc302x_driver.o
 .text.HDC302X_DRIVER_Calculation_Array_CRC
                0x00000000       0x16 build/default/production/_ext/1360937237/hdc302x_driver.o
 .text.HDC302X_DRIVER_Set_Offset_Values
                0x00000000       0x40 build/default/production/_ext/1360937237/hdc302x_driver.o
 .text.HDC302X_DRIVER_Set_Set_High_Alert
                0x00000000       0x40 build/default/production/_ext/1360937237/hdc302x_driver.o
 .text.HDC302X_DRIVER_Set_Clear_High_Alert
                0x00000000       0x40 build/default/production/_ext/1360937237/hdc302x_driver.o
 .text.HDC302X_DRIVER_Set_Set_Low_Alert
                0x00000000       0x40 build/default/production/_ext/1360937237/hdc302x_driver.o
 .text.HDC302X_DRIVER_Set_Clear_Low_Alert
                0x00000000       0x40 build/default/production/_ext/1360937237/hdc302x_driver.o
 .text.HDC302X_DRIVER_Configuration_Heater
                0x00000000       0x38 build/default/production/_ext/1360937237/hdc302x_driver.o
 .text.HDC302X_DRIVER_Set_Offset_Code
                0x00000000       0x30 build/default/production/_ext/1360937237/hdc302x_driver.o
 .text.HDC302X_DRIVER_Set_Alert_Code
                0x00000000       0x28 build/default/production/_ext/1360937237/hdc302x_driver.o
 .bss.hdc302x_sensorSettings
                0x00000000        0xc build/default/production/_ext/1360937237/hdc302x_driver.o
 .text          0x00000000        0x0 build/default/production/_ext/1360937237/mcp9808_driver.o
 .data          0x00000000        0x0 build/default/production/_ext/1360937237/mcp9808_driver.o
 .bss           0x00000000        0x0 build/default/production/_ext/1360937237/mcp9808_driver.o
 .text.MCP9808_DRIVER_Get_Task_Start_Status
                0x00000000        0xc build/default/production/_ext/1360937237/mcp9808_driver.o
 .text.MCP9808_DRIVER_Set_Task_Start_Status
                0x00000000        0xc build/default/production/_ext/1360937237/mcp9808_driver.o
 .text.MCP9808_DRIVER_Get_Task_Completed_Status
                0x00000000        0xc build/default/production/_ext/1360937237/mcp9808_driver.o
 .text.MCP9808_DRIVER_Set_Task_Completed_Status
                0x00000000        0xc build/default/production/_ext/1360937237/mcp9808_driver.o
 .text.MCP9808_DRIVER_Get_Alert_Status
                0x00000000        0xc build/default/production/_ext/1360937237/mcp9808_driver.o
 .text.MCP9808_DRIVER_Set_Alert_Status
                0x00000000        0xc build/default/production/_ext/1360937237/mcp9808_driver.o
 .text.MCP9808_DRIVER_Get_Sensor_Config
                0x00000000       0x30 build/default/production/_ext/1360937237/mcp9808_driver.o
 .text.MCP9808_DRIVER_Store_Sensor_Config
                0x00000000       0x18 build/default/production/_ext/1360937237/mcp9808_driver.o
 .text.MCP9808_DRIVER_Set_Sensor_Config
                0x00000000       0x30 build/default/production/_ext/1360937237/mcp9808_driver.o
 .text.MCP9808_DRIVER_Get_Result_Resolution
                0x00000000       0x30 build/default/production/_ext/1360937237/mcp9808_driver.o
 .text.MCP9808_DRIVER_Store_Result_Resolution
                0x00000000       0x14 build/default/production/_ext/1360937237/mcp9808_driver.o
 .rodata.MCP9808_DRIVER_Print_Data.str1.4
                0x00000000       0x51 build/default/production/_ext/1360937237/mcp9808_driver.o
 .text.MCP9808_DRIVER_Print_Data
                0x00000000       0x44 build/default/production/_ext/1360937237/mcp9808_driver.o
 .text          0x00000000        0x0 build/default/production/_ext/1360937237/ntc_driver.o
 .data          0x00000000        0x0 build/default/production/_ext/1360937237/ntc_driver.o
 .bss           0x00000000        0x0 build/default/production/_ext/1360937237/ntc_driver.o
 .text.NTC_DRIVER_Get_Task_Start_Status
                0x00000000        0xc build/default/production/_ext/1360937237/ntc_driver.o
 .text.NTC_DRIVER_Set_Task_Start_Status
                0x00000000        0xc build/default/production/_ext/1360937237/ntc_driver.o
 .text.NTC_DRIVER_Get_Task_Completed_Status
                0x00000000        0xc build/default/production/_ext/1360937237/ntc_driver.o
 .text.NTC_DRIVER_Set_Task_Completed_Status
                0x00000000        0xc build/default/production/_ext/1360937237/ntc_driver.o
 .rodata.NTC_DRIVER_Print_Data.str1.4
                0x00000000       0x1c build/default/production/_ext/1360937237/ntc_driver.o
 .text.NTC_DRIVER_Print_Data
                0x00000000       0x24 build/default/production/_ext/1360937237/ntc_driver.o
 .text          0x00000000        0x0 build/default/production/_ext/1360937237/rstc_driver.o
 .data          0x00000000        0x0 build/default/production/_ext/1360937237/rstc_driver.o
 .bss           0x00000000        0x0 build/default/production/_ext/1360937237/rstc_driver.o
 .text.RSTC_DRIVER_Get_Task_Start_Status
                0x00000000        0xc build/default/production/_ext/1360937237/rstc_driver.o
 .text.RSTC_DRIVER_Set_Task_Start_Status
                0x00000000        0xc build/default/production/_ext/1360937237/rstc_driver.o
 .text.RSTC_DRIVER_Get_Task_Completed_Status
                0x00000000        0xc build/default/production/_ext/1360937237/rstc_driver.o
 .text.RSTC_DRIVER_Set_Task_Completed_Status
                0x00000000        0xc build/default/production/_ext/1360937237/rstc_driver.o
 .text          0x00000000        0x0 build/default/production/_ext/1360937237/rtc_driver.o
 .data          0x00000000        0x0 build/default/production/_ext/1360937237/rtc_driver.o
 .bss           0x00000000        0x0 build/default/production/_ext/1360937237/rtc_driver.o
 .text.RTC_DRIVER_Get_Task_Start_Status
                0x00000000       0x10 build/default/production/_ext/1360937237/rtc_driver.o
 .text.RTC_DRIVER_Set_Task_Start_Status
                0x00000000        0xc build/default/production/_ext/1360937237/rtc_driver.o
 .text.RTC_DRIVER_Get_Task_Completed_Status
                0x00000000       0x10 build/default/production/_ext/1360937237/rtc_driver.o
 .text.RTC_DRIVER_Set_Task_Completed_Status
                0x00000000        0xc build/default/production/_ext/1360937237/rtc_driver.o
 .text.RTC_DRIVER_Set_Init_Time
                0x00000000       0x24 build/default/production/_ext/1360937237/rtc_driver.o
 .text.RTC_DRIVER_Set_Alarm_Time
                0x00000000       0x20 build/default/production/_ext/1360937237/rtc_driver.o
 .text          0x00000000        0x0 build/default/production/_ext/1360937237/sen63c_driver.o
 .data          0x00000000        0x0 build/default/production/_ext/1360937237/sen63c_driver.o
 .bss           0x00000000        0x0 build/default/production/_ext/1360937237/sen63c_driver.o
 .text.SEN63C_DRIVER_Get_Task_Start_Status
                0x00000000        0xc build/default/production/_ext/1360937237/sen63c_driver.o
 .text.SEN63C_DRIVER_Set_Task_Start_Status
                0x00000000        0xc build/default/production/_ext/1360937237/sen63c_driver.o
 .text.SEN63C_DRIVER_Get_Task_Completed_Status
                0x00000000        0xc build/default/production/_ext/1360937237/sen63c_driver.o
 .text.SEN63C_DRIVER_Set_Task_Completed_Status
                0x00000000        0xc build/default/production/_ext/1360937237/sen63c_driver.o
 .text.SEN63C_DRIVER_Set_I2C_Address
                0x00000000        0xc build/default/production/_ext/1360937237/sen63c_driver.o
 .text.SEN63C_DRIVER_Start_Measurement
                0x00000000       0x2c build/default/production/_ext/1360937237/sen63c_driver.o
 .text.SEN63C_DRIVER_Stop_Measurement
                0x00000000       0x2c build/default/production/_ext/1360937237/sen63c_driver.o
 .text.SEN63C_DRIVER_Get_Data_Ready_Status
                0x00000000       0x34 build/default/production/_ext/1360937237/sen63c_driver.o
 .text.SEN63C_DRIVER_Store_Data_Ready_Status
                0x00000000        0x2 build/default/production/_ext/1360937237/sen63c_driver.o
 .text.SEN63C_DRIVER_Read_Measured_Values
                0x00000000       0x38 build/default/production/_ext/1360937237/sen63c_driver.o
 .text.SEN63C_DRIVER_Store_Measured_Values
                0x00000000        0x2 build/default/production/_ext/1360937237/sen63c_driver.o
 .text.SEN63C_DRIVER_Read_Measured_Raw_Values
                0x00000000       0x38 build/default/production/_ext/1360937237/sen63c_driver.o
 .text.SEN63C_DRIVER_Store_Measured_Raw_Values
                0x00000000        0x2 build/default/production/_ext/1360937237/sen63c_driver.o
 .text.SEN63C_DRIVER_Read_Number_Concentration_Values
                0x00000000       0x38 build/default/production/_ext/1360937237/sen63c_driver.o
 .text.SEN63C_DRIVER_Store_Number_Concentration_Values
                0x00000000        0x2 build/default/production/_ext/1360937237/sen63c_driver.o
 .text.SEN63C_DRIVER_Get_Product_Name
                0x00000000       0x34 build/default/production/_ext/1360937237/sen63c_driver.o
 .text.SEN63C_DRIVER_Store_Product_Name
                0x00000000        0x2 build/default/production/_ext/1360937237/sen63c_driver.o
 .text.SEN63C_DRIVER_Get_Serial_Number
                0x00000000       0x34 build/default/production/_ext/1360937237/sen63c_driver.o
 .text.SEN63C_DRIVER_Store_Serial_Number
                0x00000000        0x2 build/default/production/_ext/1360937237/sen63c_driver.o
 .text.SEN63C_DRIVER_Read_Device_Status
                0x00000000       0x34 build/default/production/_ext/1360937237/sen63c_driver.o
 .text.SEN63C_DRIVER_Read_And_Clear_Device_Status
                0x00000000       0x38 build/default/production/_ext/1360937237/sen63c_driver.o
 .text.SEN63C_DRIVER_Store_Device_Status
                0x00000000       0x1c build/default/production/_ext/1360937237/sen63c_driver.o
 .text.SEN63C_DRIVER_Get_FW_Version
                0x00000000       0x38 build/default/production/_ext/1360937237/sen63c_driver.o
 .text.SEN63C_DRIVER_Store_FW_Version
                0x00000000       0x1c build/default/production/_ext/1360937237/sen63c_driver.o
 .text.SEN63C_DRIVER_Reset_Device
                0x00000000       0x2c build/default/production/_ext/1360937237/sen63c_driver.o
 .text.SEN63C_DRIVER_Start_Fan_Cleaning
                0x00000000       0x2c build/default/production/_ext/1360937237/sen63c_driver.o
 .text.SEN63C_DRIVER_Activate_Heater
                0x00000000       0x2c build/default/production/_ext/1360937237/sen63c_driver.o
 .text.SEN63C_DRIVER_Get_Heater_Measurement
                0x00000000       0x34 build/default/production/_ext/1360937237/sen63c_driver.o
 .text.SEN63C_DRIVER_Store_Heater_Measurement
                0x00000000       0x28 build/default/production/_ext/1360937237/sen63c_driver.o
 .text.SEN63C_DRIVER_Get_CO2_Sensor_Automatic_Self_Calibration
                0x00000000       0x34 build/default/production/_ext/1360937237/sen63c_driver.o
 .text.SEN63C_DRIVER_Store_CO2_Sensor_Automatic_Self_Calibration
                0x00000000        0x2 build/default/production/_ext/1360937237/sen63c_driver.o
 .text.SEN63C_DRIVER_Get_Ambient_Pressure
                0x00000000       0x38 build/default/production/_ext/1360937237/sen63c_driver.o
 .text.SEN63C_DRIVER_Store_Ambient_Pressure
                0x00000000        0x2 build/default/production/_ext/1360937237/sen63c_driver.o
 .text.SEN63C_DRIVER_Get_Sensor_Altitude
                0x00000000       0x38 build/default/production/_ext/1360937237/sen63c_driver.o
 .text.SEN63C_DRIVER_Store_Sensor_Altitude
                0x00000000        0x2 build/default/production/_ext/1360937237/sen63c_driver.o
 .text.SEN63C_DRIVER_Calculation_CRC
                0x00000000       0x40 build/default/production/_ext/1360937237/sen63c_driver.o
 .text.SEN63C_DRIVER_Calculation_Array_CRC
                0x00000000       0x16 build/default/production/_ext/1360937237/sen63c_driver.o
 .bss.sen63c_sensorData
                0x00000000       0x70 build/default/production/_ext/1360937237/sen63c_driver.o
 .text          0x00000000        0x0 build/default/production/_ext/1360937237/sht4x_driver.o
 .data          0x00000000        0x0 build/default/production/_ext/1360937237/sht4x_driver.o
 .bss           0x00000000        0x0 build/default/production/_ext/1360937237/sht4x_driver.o
 .text.SHT4X_DRIVER_Get_Task_Start_Status
                0x00000000        0xc build/default/production/_ext/1360937237/sht4x_driver.o
 .text.SHT4X_DRIVER_Set_Task_Start_Status
                0x00000000        0xc build/default/production/_ext/1360937237/sht4x_driver.o
 .text.SHT4X_DRIVER_Get_Task_Completed_Status
                0x00000000        0xc build/default/production/_ext/1360937237/sht4x_driver.o
 .text.SHT4X_DRIVER_Set_Task_Completed_Status
                0x00000000        0xc build/default/production/_ext/1360937237/sht4x_driver.o
 .text.SHT4X_DRIVER_Read_Serial_Number
                0x00000000       0x30 build/default/production/_ext/1360937237/sht4x_driver.o
 .text.SHT4X_DRIVER_Store_Serial_Number
                0x00000000       0x24 build/default/production/_ext/1360937237/sht4x_driver.o
 .text.SHT4X_DRIVER_Soft_Reset
                0x00000000       0x24 build/default/production/_ext/1360937237/sht4x_driver.o
 .rodata.SHT4X_DRIVER_Print_Data.str1.4
                0x00000000       0x42 build/default/production/_ext/1360937237/sht4x_driver.o
 .text.SHT4X_DRIVER_Print_Data
                0x00000000       0x48 build/default/production/_ext/1360937237/sht4x_driver.o
 .text          0x00000000        0x0 build/default/production/_ext/1360937237/ssd1306_driver.o
 .data          0x00000000        0x0 build/default/production/_ext/1360937237/ssd1306_driver.o
 .bss           0x00000000        0x0 build/default/production/_ext/1360937237/ssd1306_driver.o
 .text.SSD1306_DRIVER_Get_Task_Start_Status
                0x00000000        0xc build/default/production/_ext/1360937237/ssd1306_driver.o
 .text.SSD1306_DRIVER_Set_Task_Start_Status
                0x00000000        0xc build/default/production/_ext/1360937237/ssd1306_driver.o
 .text.SSD1306_DRIVER_Get_Task_Completed_Status
                0x00000000        0xc build/default/production/_ext/1360937237/ssd1306_driver.o
 .text.SSD1306_DRIVER_Set_Task_Completed_Status
                0x00000000        0xc build/default/production/_ext/1360937237/ssd1306_driver.o
 .text.SSD1306_DRIVER_Select_Page
                0x00000000       0x1e build/default/production/_ext/1360937237/ssd1306_driver.o
 .text.SSD1306_DRIVER_Clear_Display
                0x00000000       0x14 build/default/production/_ext/1360937237/ssd1306_driver.o
 .text.SSD1306_DRIVER_Clear_Line
                0x00000000       0x1c build/default/production/_ext/1360937237/ssd1306_driver.o
 .text.SSD1306_DrawBitmap
                0x00000000       0x3e build/default/production/_ext/1360937237/ssd1306_driver.o
 .text          0x00000000        0x0 build/default/production/_ext/1360937237/stcc4_driver.o
 .data          0x00000000        0x0 build/default/production/_ext/1360937237/stcc4_driver.o
 .bss           0x00000000        0x0 build/default/production/_ext/1360937237/stcc4_driver.o
 .text.STCC4_DRIVER_Get_Task_Start_Status
                0x00000000        0xc build/default/production/_ext/1360937237/stcc4_driver.o
 .text.STCC4_DRIVER_Set_Task_Start_Status
                0x00000000        0xc build/default/production/_ext/1360937237/stcc4_driver.o
 .text.STCC4_DRIVER_Get_Task_Completed_Status
                0x00000000        0xc build/default/production/_ext/1360937237/stcc4_driver.o
 .text.STCC4_DRIVER_Set_Task_Completed_Status
                0x00000000        0xc build/default/production/_ext/1360937237/stcc4_driver.o
 .text.STCC4_DRIVER_Start_Continuous_Measurement
                0x00000000       0x2c build/default/production/_ext/1360937237/stcc4_driver.o
 .text.STCC4_DRIVER_Stop_Continuous_Measurement
                0x00000000       0x2c build/default/production/_ext/1360937237/stcc4_driver.o
 .text.STCC4_DRIVER_Enter_Sleep_Mode
                0x00000000       0x2c build/default/production/_ext/1360937237/stcc4_driver.o
 .text.STCC4_DRIVER_Exit_Sleep_Mode
                0x00000000       0x28 build/default/production/_ext/1360937237/stcc4_driver.o
 .text.STCC4_DRIVER_Perform_Conditioning
                0x00000000       0x2c build/default/production/_ext/1360937237/stcc4_driver.o
 .text.STCC4_DRIVER_Perform_Soft_Reset
                0x00000000       0x28 build/default/production/_ext/1360937237/stcc4_driver.o
 .text.STCC4_DRIVER_Perform_Factory_Reset
                0x00000000       0x38 build/default/production/_ext/1360937237/stcc4_driver.o
 .text.STCC4_DRIVER_Store_Factory_Reset_Result
                0x00000000       0x14 build/default/production/_ext/1360937237/stcc4_driver.o
 .text.STCC4_DRIVER_Perform_Self_Test
                0x00000000       0x38 build/default/production/_ext/1360937237/stcc4_driver.o
 .text.STCC4_DRIVER_Store_Self_Test_Result
                0x00000000       0x18 build/default/production/_ext/1360937237/stcc4_driver.o
 .text.STCC4_DRIVER_Enable_Testing_Mode
                0x00000000       0x2c build/default/production/_ext/1360937237/stcc4_driver.o
 .text.STCC4_DRIVER_Disable_Testing_Mode
                0x00000000       0x2c build/default/production/_ext/1360937237/stcc4_driver.o
 .text.STCC4_DRIVER_Store_Forced_Recalibration_Result
                0x00000000       0x18 build/default/production/_ext/1360937237/stcc4_driver.o
 .text.STCC4_DRIVER_Calculation_CO2
                0x00000000       0x10 build/default/production/_ext/1360937237/stcc4_driver.o
 .text.STCC4_DRIVER_Calculation_CRC
                0x00000000       0x40 build/default/production/_ext/1360937237/stcc4_driver.o
 .text.STCC4_DRIVER_Calculation_Array_CRC
                0x00000000       0x16 build/default/production/_ext/1360937237/stcc4_driver.o
 .text.STCC4_DRIVER_Set_RHT_Compensation
                0x00000000       0x5c build/default/production/_ext/1360937237/stcc4_driver.o
 .text.STCC4_DRIVER_Set_Pressure_Compensation
                0x00000000       0x44 build/default/production/_ext/1360937237/stcc4_driver.o
 .text.STCC4_DRIVER_Perform_Forced_Recalibration
                0x00000000       0x4c build/default/production/_ext/1360937237/stcc4_driver.o
 .rodata.STCC4_DRIVER_Print_Data.str1.4
                0x00000000       0x47 build/default/production/_ext/1360937237/stcc4_driver.o
 .text.STCC4_DRIVER_Print_Data
                0x00000000       0x4c build/default/production/_ext/1360937237/stcc4_driver.o
 .text          0x00000000        0x0 build/default/production/_ext/1360937237/timer_driver.o
 .data          0x00000000        0x0 build/default/production/_ext/1360937237/timer_driver.o
 .bss           0x00000000        0x0 build/default/production/_ext/1360937237/timer_driver.o
 .text.TIMER_DRIVER_Get_Start_Up_TMR_Status
                0x00000000        0xc build/default/production/_ext/1360937237/timer_driver.o
 .text.TIMER_DRIVER_Set_Start_Up_TMR_Status
                0x00000000        0xc build/default/production/_ext/1360937237/timer_driver.o
 .text.TIMER_DRIVER_Start_Start_Up_TMR
                0x00000000       0x10 build/default/production/_ext/1360937237/timer_driver.o
 .text.TIMER_DRIVER_Get_Main_TMR_Status
                0x00000000        0xc build/default/production/_ext/1360937237/timer_driver.o
 .text.TIMER_DRIVER_Set_Main_TMR_Status
                0x00000000        0xc build/default/production/_ext/1360937237/timer_driver.o
 .text          0x00000000        0x0 build/default/production/_ext/1360937237/vcnl4200_driver.o
 .data          0x00000000        0x0 build/default/production/_ext/1360937237/vcnl4200_driver.o
 .bss           0x00000000        0x0 build/default/production/_ext/1360937237/vcnl4200_driver.o
 .text.VCNL4200_DRIVER_Get_Task_Start_Status
                0x00000000        0xc build/default/production/_ext/1360937237/vcnl4200_driver.o
 .text.VCNL4200_DRIVER_Set_Task_Start_Status
                0x00000000        0xc build/default/production/_ext/1360937237/vcnl4200_driver.o
 .text.VCNL4200_DRIVER_Get_Task_Completed_Status
                0x00000000        0xc build/default/production/_ext/1360937237/vcnl4200_driver.o
 .text.VCNL4200_DRIVER_Set_Task_Completed_Status
                0x00000000        0xc build/default/production/_ext/1360937237/vcnl4200_driver.o
 .text.VCNL4200_DRIVER_Get_Alert_Status
                0x00000000        0xc build/default/production/_ext/1360937237/vcnl4200_driver.o
 .text.VCNL4200_DRIVER_Set_Alert_Status
                0x00000000        0xc build/default/production/_ext/1360937237/vcnl4200_driver.o
 .text.VCNL4200_DRIVER_Set_I2C_Address
                0x00000000        0xc build/default/production/_ext/1360937237/vcnl4200_driver.o
 .text.VCNL4200_DRIVER_Get_ALS_CFG
                0x00000000       0x30 build/default/production/_ext/1360937237/vcnl4200_driver.o
 .text.VCNL4200_DRIVER_Store_ALS_CFG
                0x00000000       0x14 build/default/production/_ext/1360937237/vcnl4200_driver.o
 .text.VCNL4200_DRIVER_Set_ALS_CFG
                0x00000000       0x2c build/default/production/_ext/1360937237/vcnl4200_driver.o
 .text.VCNL4200_DRIVER_Get_ALS_High_Alert
                0x00000000       0x30 build/default/production/_ext/1360937237/vcnl4200_driver.o
 .text.VCNL4200_DRIVER_Store_ALS_High_Alert
                0x00000000       0x18 build/default/production/_ext/1360937237/vcnl4200_driver.o
 .text.VCNL4200_DRIVER_Set_ALS_High_Alert
                0x00000000       0x2c build/default/production/_ext/1360937237/vcnl4200_driver.o
 .text.VCNL4200_DRIVER_Get_ALS_Low_Alert
                0x00000000       0x2c build/default/production/_ext/1360937237/vcnl4200_driver.o
 .text.VCNL4200_DRIVER_Store_ALS_Low_Alert
                0x00000000       0x18 build/default/production/_ext/1360937237/vcnl4200_driver.o
 .text.VCNL4200_DRIVER_Set_ALS_Low_Alert
                0x00000000       0x2c build/default/production/_ext/1360937237/vcnl4200_driver.o
 .text.VCNL4200_DRIVER_Get_PS_Cancellation
                0x00000000       0x30 build/default/production/_ext/1360937237/vcnl4200_driver.o
 .text.VCNL4200_DRIVER_Store_PS_Cancellation
                0x00000000       0x18 build/default/production/_ext/1360937237/vcnl4200_driver.o
 .text.VCNL4200_DRIVER_Set_PS_Cancellation
                0x00000000       0x2c build/default/production/_ext/1360937237/vcnl4200_driver.o
 .text.VCNL4200_DRIVER_Get_PS_High_Alert
                0x00000000       0x30 build/default/production/_ext/1360937237/vcnl4200_driver.o
 .text.VCNL4200_DRIVER_Store_PS_High_Alert
                0x00000000       0x18 build/default/production/_ext/1360937237/vcnl4200_driver.o
 .text.VCNL4200_DRIVER_Set_PS_High_Alert
                0x00000000       0x2c build/default/production/_ext/1360937237/vcnl4200_driver.o
 .text.VCNL4200_DRIVER_Get_PS_Low_Alert
                0x00000000       0x30 build/default/production/_ext/1360937237/vcnl4200_driver.o
 .text.VCNL4200_DRIVER_Store_PS_Low_Alert
                0x00000000       0x18 build/default/production/_ext/1360937237/vcnl4200_driver.o
 .text.VCNL4200_DRIVER_Set_PS_Low_Alert
                0x00000000       0x2c build/default/production/_ext/1360937237/vcnl4200_driver.o
 .text.VCNL4200_DRIVER_Get_PS_Data
                0x00000000       0x30 build/default/production/_ext/1360937237/vcnl4200_driver.o
 .text.VCNL4200_DRIVER_Store_PS_Data
                0x00000000       0x18 build/default/production/_ext/1360937237/vcnl4200_driver.o
 .text.VCNL4200_DRIVER_Get_ALS_Data
                0x00000000       0x30 build/default/production/_ext/1360937237/vcnl4200_driver.o
 .text.VCNL4200_DRIVER_Store_ALS_Data
                0x00000000       0x18 build/default/production/_ext/1360937237/vcnl4200_driver.o
 .text.VCNL4200_DRIVER_Get_White_Data
                0x00000000       0x30 build/default/production/_ext/1360937237/vcnl4200_driver.o
 .text.VCNL4200_DRIVER_Store_White_Data
                0x00000000       0x18 build/default/production/_ext/1360937237/vcnl4200_driver.o
 .text.VCNL4200_DRIVER_Get_INT_Flag
                0x00000000       0x30 build/default/production/_ext/1360937237/vcnl4200_driver.o
 .text.VCNL4200_DRIVER_Store_INT_Flag
                0x00000000       0x14 build/default/production/_ext/1360937237/vcnl4200_driver.o
 .bss.vcnl4200_sensorData
                0x00000000       0x20 build/default/production/_ext/1360937237/vcnl4200_driver.o
 .text          0x00000000        0x0 build/default/production/_ext/1360937237/ws281x_driver.o
 .data          0x00000000        0x0 build/default/production/_ext/1360937237/ws281x_driver.o
 .bss           0x00000000        0x0 build/default/production/_ext/1360937237/ws281x_driver.o
 .text.WS281X_DRIVER_Get_Task_Start_Status
                0x00000000        0xc build/default/production/_ext/1360937237/ws281x_driver.o
 .text.WS281X_DRIVER_Set_Task_Start_Status
                0x00000000        0xc build/default/production/_ext/1360937237/ws281x_driver.o
 .text.WS281X_DRIVER_Get_Task_Completed_Status
                0x00000000        0xc build/default/production/_ext/1360937237/ws281x_driver.o
 .text.WS281X_DRIVER_Set_Task_Completed_Status
                0x00000000        0xc build/default/production/_ext/1360937237/ws281x_driver.o
 .text.WS281X_DRIVER_Set_Color
                0x00000000       0x10 build/default/production/_ext/1360937237/ws281x_driver.o
 .rodata.WS281X_DRIVER_Print_Data.str1.4
                0x00000000       0x3d build/default/production/_ext/1360937237/ws281x_driver.o
 .text.WS281X_DRIVER_Print_Data
                0x00000000       0x20 build/default/production/_ext/1360937237/ws281x_driver.o
 .text          0x00000000        0x0 build/default/production/_ext/1360937237/xm125_driver.o
 .data          0x00000000        0x0 build/default/production/_ext/1360937237/xm125_driver.o
 .bss           0x00000000        0x0 build/default/production/_ext/1360937237/xm125_driver.o
 .text.XM125_DRIVER_Get_Task_Start_Status
                0x00000000        0xc build/default/production/_ext/1360937237/xm125_driver.o
 .text.XM125_DRIVER_Set_Task_Start_Status
                0x00000000        0xc build/default/production/_ext/1360937237/xm125_driver.o
 .text.XM125_DRIVER_Get_Task_Completed_Status
                0x00000000        0xc build/default/production/_ext/1360937237/xm125_driver.o
 .text.XM125_DRIVER_Set_Task_Completed_Status
                0x00000000        0xc build/default/production/_ext/1360937237/xm125_driver.o
 .text.XM125_DRIVER_Get_Alert_Status
                0x00000000        0xc build/default/production/_ext/1360937237/xm125_driver.o
 .text.XM125_DRIVER_Set_Alert_Status
                0x00000000        0xc build/default/production/_ext/1360937237/xm125_driver.o
 .text.XM125_DRIVER_Set_I2C_Address
                0x00000000        0xc build/default/production/_ext/1360937237/xm125_driver.o
 .text          0x00000000        0x0 build/default/production/_ext/1360937237/wincs02_driver.o
 .data          0x00000000        0x0 build/default/production/_ext/1360937237/wincs02_driver.o
 .bss           0x00000000        0x0 build/default/production/_ext/1360937237/wincs02_driver.o
 .text.WINCS02_DRIVER_MQTT_Callback
                0x00000000       0x40 build/default/production/_ext/1360937237/wincs02_driver.o
 .rodata.WINCS02_DRIVER_MQTT_Callback
                0x00000000       0x24 build/default/production/_ext/1360937237/wincs02_driver.o
 .text.WINCS02_DRIVER_WIFI_Callback
                0x00000000       0x80 build/default/production/_ext/1360937237/wincs02_driver.o
 .rodata.WINCS02_DRIVER_WIFI_Callback
                0x00000000       0x38 build/default/production/_ext/1360937237/wincs02_driver.o
 .text.WINCS02_DRIVER_Get_Task_Start_Status
                0x00000000        0xc build/default/production/_ext/1360937237/wincs02_driver.o
 .text.WINCS02_DRIVER_Set_Task_Start_Status
                0x00000000        0xc build/default/production/_ext/1360937237/wincs02_driver.o
 .text.WINCS02_DRIVER_Get_Task_Completed_Status
                0x00000000        0xc build/default/production/_ext/1360937237/wincs02_driver.o
 .text.WINCS02_DRIVER_Set_Task_Completed_Status
                0x00000000        0xc build/default/production/_ext/1360937237/wincs02_driver.o
 .rodata.WINCS02_DRIVER_WIFI_Config.str1.4
                0x00000000        0x6 build/default/production/_ext/1360937237/wincs02_driver.o
 .text.WINCS02_DRIVER_WIFI_Config
                0x00000000       0x20 build/default/production/_ext/1360937237/wincs02_driver.o
 .rodata.WINCS02_DRIVER_MQTT_Config.str1.4
                0x00000000       0x1c build/default/production/_ext/1360937237/wincs02_driver.o
 .text.WINCS02_DRIVER_MQTT_Config
                0x00000000       0x3c build/default/production/_ext/1360937237/wincs02_driver.o
 .rodata.WINCS02_DRIVER_Set_MQTT_Publish_Payload.str1.4
                0x00000000       0x19 build/default/production/_ext/1360937237/wincs02_driver.o
 .text.WINCS02_DRIVER_Set_MQTT_Publish_Payload
                0x00000000       0x24 build/default/production/_ext/1360937237/wincs02_driver.o
 .rodata.WINCS02_DRIVER_Tasks.str1.4
                0x00000000       0x10 build/default/production/_ext/1360937237/wincs02_driver.o
 .text.WINCS02_DRIVER_Tasks
                0x00000000      0x1ac build/default/production/_ext/1360937237/wincs02_driver.o
 .rodata.WINCS02_DRIVER_Tasks
                0x00000000       0x50 build/default/production/_ext/1360937237/wincs02_driver.o
 .bss.MQTT_PUBLISH
                0x00000000       0x48 build/default/production/_ext/1360937237/wincs02_driver.o
 .bss.MQTT_CONFIG
                0x00000000       0x20 build/default/production/_ext/1360937237/wincs02_driver.o
 .bss.WIFI_CONFIG
                0x00000000       0x10 build/default/production/_ext/1360937237/wincs02_driver.o
 .text          0x00000000        0x0 build/default/production/_ext/1360937237/app.o
 .data          0x00000000        0x0 build/default/production/_ext/1360937237/app.o
 .bss           0x00000000        0x0 build/default/production/_ext/1360937237/app.o
 .text.APP_Get_CAN0_Error_Status
                0x00000000        0xc build/default/production/_ext/1360937237/app.o
 .text.APP_Set_CAN0_Error_Status
                0x00000000        0xc build/default/production/_ext/1360937237/app.o
 .text.APP_Get_I2C_Error_Status
                0x00000000        0xc build/default/production/_ext/1360937237/app.o
 .text.APP_Set_I2C_Error_Status
                0x00000000        0xc build/default/production/_ext/1360937237/app.o
 .text.APP_Get_SPI_Error_Status
                0x00000000        0xc build/default/production/_ext/1360937237/app.o
 .text.APP_Set_SPI_Error_Status
                0x00000000        0xc build/default/production/_ext/1360937237/app.o
 .text.APP_Get_UART_Error_Status
                0x00000000        0xc build/default/production/_ext/1360937237/app.o
 .text.APP_Set_UART_Error_Status
                0x00000000        0xc build/default/production/_ext/1360937237/app.o
 .text          0x00000000        0x0 build/default/production/_ext/1360937237/main.o
 .data          0x00000000        0x0 build/default/production/_ext/1360937237/main.o
 .bss           0x00000000        0x0 build/default/production/_ext/1360937237/main.o
 .text          0x00000000        0x0 C:/Applications/Microchip/XC32/bin/bin/../../lib/gcc/pic32c/13.2.1/../../../../pic32c/lib/thumb/v6-m/nofp\libpic32c.a(data_init.o)
 .data          0x00000000        0x0 C:/Applications/Microchip/XC32/bin/bin/../../lib/gcc/pic32c/13.2.1/../../../../pic32c/lib/thumb/v6-m/nofp\libpic32c.a(data_init.o)
 .xc_stack_usage
                0x00000000       0x68 C:/Applications/Microchip/XC32/bin/bin/../../lib/gcc/pic32c/13.2.1/../../../../pic32c/lib/thumb/v6-m/nofp\libpic32c.a(data_init.o)
 .xc_stack_usage.hdr
                0x00000000        0xe C:/Applications/Microchip/XC32/bin/bin/../../lib/gcc/pic32c/13.2.1/../../../../pic32c/lib/thumb/v6-m/nofp\libpic32c.a(data_init.o)
 .text          0x00000000        0x0 C:/Applications/Microchip/XC32/bin/bin/../../lib/gcc/pic32c/13.2.1/../../../../pic32c/lib/thumb/v6-m/nofp\libc-size-musl.a(memcmp.o)
 .data          0x00000000        0x0 C:/Applications/Microchip/XC32/bin/bin/../../lib/gcc/pic32c/13.2.1/../../../../pic32c/lib/thumb/v6-m/nofp\libc-size-musl.a(memcmp.o)
 .bss           0x00000000        0x0 C:/Applications/Microchip/XC32/bin/bin/../../lib/gcc/pic32c/13.2.1/../../../../pic32c/lib/thumb/v6-m/nofp\libc-size-musl.a(memcmp.o)
 .xc_stack_usage
                0x00000000       0x14 C:/Applications/Microchip/XC32/bin/bin/../../lib/gcc/pic32c/13.2.1/../../../../pic32c/lib/thumb/v6-m/nofp\libc-size-musl.a(memcmp.o)
 .xc_stack_usage.hdr
                0x00000000        0xe C:/Applications/Microchip/XC32/bin/bin/../../lib/gcc/pic32c/13.2.1/../../../../pic32c/lib/thumb/v6-m/nofp\libc-size-musl.a(memcmp.o)
 .text          0x00000000        0x0 C:/Applications/Microchip/XC32/bin/bin/../../lib/gcc/pic32c/13.2.1/../../../../pic32c/lib/thumb/v6-m/nofp\libc-size-musl.a(memcpy.o)
 .data          0x00000000        0x0 C:/Applications/Microchip/XC32/bin/bin/../../lib/gcc/pic32c/13.2.1/../../../../pic32c/lib/thumb/v6-m/nofp\libc-size-musl.a(memcpy.o)
 .bss           0x00000000        0x0 C:/Applications/Microchip/XC32/bin/bin/../../lib/gcc/pic32c/13.2.1/../../../../pic32c/lib/thumb/v6-m/nofp\libc-size-musl.a(memcpy.o)
 .xc_stack_usage
                0x00000000       0x14 C:/Applications/Microchip/XC32/bin/bin/../../lib/gcc/pic32c/13.2.1/../../../../pic32c/lib/thumb/v6-m/nofp\libc-size-musl.a(memcpy.o)
 .xc_stack_usage.hdr
                0x00000000        0xe C:/Applications/Microchip/XC32/bin/bin/../../lib/gcc/pic32c/13.2.1/../../../../pic32c/lib/thumb/v6-m/nofp\libc-size-musl.a(memcpy.o)
 .text          0x00000000        0x0 C:/Applications/Microchip/XC32/bin/bin/../../lib/gcc/pic32c/13.2.1/../../../../pic32c/lib/thumb/v6-m/nofp\libc-size-musl.a(memmove.o)
 .data          0x00000000        0x0 C:/Applications/Microchip/XC32/bin/bin/../../lib/gcc/pic32c/13.2.1/../../../../pic32c/lib/thumb/v6-m/nofp\libc-size-musl.a(memmove.o)
 .bss           0x00000000        0x0 C:/Applications/Microchip/XC32/bin/bin/../../lib/gcc/pic32c/13.2.1/../../../../pic32c/lib/thumb/v6-m/nofp\libc-size-musl.a(memmove.o)
 .xc_stack_usage
                0x00000000       0x15 C:/Applications/Microchip/XC32/bin/bin/../../lib/gcc/pic32c/13.2.1/../../../../pic32c/lib/thumb/v6-m/nofp\libc-size-musl.a(memmove.o)
 .text.memmove  0x00000000       0x30 C:/Applications/Microchip/XC32/bin/bin/../../lib/gcc/pic32c/13.2.1/../../../../pic32c/lib/thumb/v6-m/nofp\libc-size-musl.a(memmove.o)
 .xc_stack_usage.hdr
                0x00000000        0xe C:/Applications/Microchip/XC32/bin/bin/../../lib/gcc/pic32c/13.2.1/../../../../pic32c/lib/thumb/v6-m/nofp\libc-size-musl.a(memmove.o)
 .debug_info    0x00000000       0xe4 C:/Applications/Microchip/XC32/bin/bin/../../lib/gcc/pic32c/13.2.1/../../../../pic32c/lib/thumb/v6-m/nofp\libc-size-musl.a(memmove.o)
 .debug_abbrev  0x00000000       0xae C:/Applications/Microchip/XC32/bin/bin/../../lib/gcc/pic32c/13.2.1/../../../../pic32c/lib/thumb/v6-m/nofp\libc-size-musl.a(memmove.o)
 .debug_loc     0x00000000      0x1da C:/Applications/Microchip/XC32/bin/bin/../../lib/gcc/pic32c/13.2.1/../../../../pic32c/lib/thumb/v6-m/nofp\libc-size-musl.a(memmove.o)
 .debug_aranges
                0x00000000       0x20 C:/Applications/Microchip/XC32/bin/bin/../../lib/gcc/pic32c/13.2.1/../../../../pic32c/lib/thumb/v6-m/nofp\libc-size-musl.a(memmove.o)
 .debug_ranges  0x00000000       0x10 C:/Applications/Microchip/XC32/bin/bin/../../lib/gcc/pic32c/13.2.1/../../../../pic32c/lib/thumb/v6-m/nofp\libc-size-musl.a(memmove.o)
 .debug_line    0x00000000      0x19d C:/Applications/Microchip/XC32/bin/bin/../../lib/gcc/pic32c/13.2.1/../../../../pic32c/lib/thumb/v6-m/nofp\libc-size-musl.a(memmove.o)
 .debug_str     0x00000000      0x23f C:/Applications/Microchip/XC32/bin/bin/../../lib/gcc/pic32c/13.2.1/../../../../pic32c/lib/thumb/v6-m/nofp\libc-size-musl.a(memmove.o)
 .comment       0x00000000       0x36 C:/Applications/Microchip/XC32/bin/bin/../../lib/gcc/pic32c/13.2.1/../../../../pic32c/lib/thumb/v6-m/nofp\libc-size-musl.a(memmove.o)
 .note.GNU-stack
                0x00000000        0x0 C:/Applications/Microchip/XC32/bin/bin/../../lib/gcc/pic32c/13.2.1/../../../../pic32c/lib/thumb/v6-m/nofp\libc-size-musl.a(memmove.o)
 .debug_frame   0x00000000       0x28 C:/Applications/Microchip/XC32/bin/bin/../../lib/gcc/pic32c/13.2.1/../../../../pic32c/lib/thumb/v6-m/nofp\libc-size-musl.a(memmove.o)
 .ARM.attributes
                0x00000000       0x2e C:/Applications/Microchip/XC32/bin/bin/../../lib/gcc/pic32c/13.2.1/../../../../pic32c/lib/thumb/v6-m/nofp\libc-size-musl.a(memmove.o)
 .text          0x00000000        0x0 C:/Applications/Microchip/XC32/bin/bin/../../lib/gcc/pic32c/13.2.1/../../../../pic32c/lib/thumb/v6-m/nofp\libc-size-musl.a(memset.o)
 .data          0x00000000        0x0 C:/Applications/Microchip/XC32/bin/bin/../../lib/gcc/pic32c/13.2.1/../../../../pic32c/lib/thumb/v6-m/nofp\libc-size-musl.a(memset.o)
 .bss           0x00000000        0x0 C:/Applications/Microchip/XC32/bin/bin/../../lib/gcc/pic32c/13.2.1/../../../../pic32c/lib/thumb/v6-m/nofp\libc-size-musl.a(memset.o)
 .xc_stack_usage
                0x00000000       0x14 C:/Applications/Microchip/XC32/bin/bin/../../lib/gcc/pic32c/13.2.1/../../../../pic32c/lib/thumb/v6-m/nofp\libc-size-musl.a(memset.o)
 .xc_stack_usage.hdr
                0x00000000        0xe C:/Applications/Microchip/XC32/bin/bin/../../lib/gcc/pic32c/13.2.1/../../../../pic32c/lib/thumb/v6-m/nofp\libc-size-musl.a(memset.o)
 .text          0x00000000        0x0 C:/Applications/Microchip/XC32/bin/bin/../../lib/gcc/pic32c/13.2.1/../../../../pic32c/lib/thumb/v6-m/nofp\libc-size-musl.a(strlen.o)
 .data          0x00000000        0x0 C:/Applications/Microchip/XC32/bin/bin/../../lib/gcc/pic32c/13.2.1/../../../../pic32c/lib/thumb/v6-m/nofp\libc-size-musl.a(strlen.o)
 .bss           0x00000000        0x0 C:/Applications/Microchip/XC32/bin/bin/../../lib/gcc/pic32c/13.2.1/../../../../pic32c/lib/thumb/v6-m/nofp\libc-size-musl.a(strlen.o)
 .xc_stack_usage
                0x00000000       0x14 C:/Applications/Microchip/XC32/bin/bin/../../lib/gcc/pic32c/13.2.1/../../../../pic32c/lib/thumb/v6-m/nofp\libc-size-musl.a(strlen.o)
 .xc_stack_usage.hdr
                0x00000000        0xe C:/Applications/Microchip/XC32/bin/bin/../../lib/gcc/pic32c/13.2.1/../../../../pic32c/lib/thumb/v6-m/nofp\libc-size-musl.a(strlen.o)
 .text          0x00000000        0x0 C:/Applications/Microchip/XC32/bin/bin/../../lib/gcc/pic32c/13.2.1/../../../../pic32c/lib/thumb/v6-m/nofp\libc-size-musl.a(strstr.o)
 .data          0x00000000        0x0 C:/Applications/Microchip/XC32/bin/bin/../../lib/gcc/pic32c/13.2.1/../../../../pic32c/lib/thumb/v6-m/nofp\libc-size-musl.a(strstr.o)
 .bss           0x00000000        0x0 C:/Applications/Microchip/XC32/bin/bin/../../lib/gcc/pic32c/13.2.1/../../../../pic32c/lib/thumb/v6-m/nofp\libc-size-musl.a(strstr.o)
 .xc_stack_usage
                0x00000000       0x14 C:/Applications/Microchip/XC32/bin/bin/../../lib/gcc/pic32c/13.2.1/../../../../pic32c/lib/thumb/v6-m/nofp\libc-size-musl.a(strstr.o)
 .xc_stack_usage.hdr
                0x00000000        0xe C:/Applications/Microchip/XC32/bin/bin/../../lib/gcc/pic32c/13.2.1/../../../../pic32c/lib/thumb/v6-m/nofp\libc-size-musl.a(strstr.o)
 .text          0x00000000        0x0 C:/Applications/Microchip/XC32/bin/bin/../../lib/gcc/pic32c/13.2.1/../../../../pic32c/lib/thumb/v6-m/nofp\libc-size-musl.a(strchr.o)
 .data          0x00000000        0x0 C:/Applications/Microchip/XC32/bin/bin/../../lib/gcc/pic32c/13.2.1/../../../../pic32c/lib/thumb/v6-m/nofp\libc-size-musl.a(strchr.o)
 .bss           0x00000000        0x0 C:/Applications/Microchip/XC32/bin/bin/../../lib/gcc/pic32c/13.2.1/../../../../pic32c/lib/thumb/v6-m/nofp\libc-size-musl.a(strchr.o)
 .xc_stack_usage
                0x00000000       0x14 C:/Applications/Microchip/XC32/bin/bin/../../lib/gcc/pic32c/13.2.1/../../../../pic32c/lib/thumb/v6-m/nofp\libc-size-musl.a(strchr.o)
 .xc_stack_usage.hdr
                0x00000000        0xe C:/Applications/Microchip/XC32/bin/bin/../../lib/gcc/pic32c/13.2.1/../../../../pic32c/lib/thumb/v6-m/nofp\libc-size-musl.a(strchr.o)
 .text          0x00000000        0x0 C:/Applications/Microchip/XC32/bin/bin/../../lib/gcc/pic32c/13.2.1/../../../../pic32c/lib/thumb/v6-m/nofp\libc-size-musl.a(strchrnul.o)
 .data          0x00000000        0x0 C:/Applications/Microchip/XC32/bin/bin/../../lib/gcc/pic32c/13.2.1/../../../../pic32c/lib/thumb/v6-m/nofp\libc-size-musl.a(strchrnul.o)
 .bss           0x00000000        0x0 C:/Applications/Microchip/XC32/bin/bin/../../lib/gcc/pic32c/13.2.1/../../../../pic32c/lib/thumb/v6-m/nofp\libc-size-musl.a(strchrnul.o)
 .xc_stack_usage
                0x00000000       0x19 C:/Applications/Microchip/XC32/bin/bin/../../lib/gcc/pic32c/13.2.1/../../../../pic32c/lib/thumb/v6-m/nofp\libc-size-musl.a(strchrnul.o)
 .xc_stack_usage.hdr
                0x00000000        0xe C:/Applications/Microchip/XC32/bin/bin/../../lib/gcc/pic32c/13.2.1/../../../../pic32c/lib/thumb/v6-m/nofp\libc-size-musl.a(strchrnul.o)
 .text          0x00000000        0x0 C:/Applications/Microchip/XC32/bin/bin/../../lib/gcc/pic32c/13.2.1/../../../../pic32c/lib/thumb/v6-m/nofp\libc-size-musl.a(strcpy.o)
 .data          0x00000000        0x0 C:/Applications/Microchip/XC32/bin/bin/../../lib/gcc/pic32c/13.2.1/../../../../pic32c/lib/thumb/v6-m/nofp\libc-size-musl.a(strcpy.o)
 .bss           0x00000000        0x0 C:/Applications/Microchip/XC32/bin/bin/../../lib/gcc/pic32c/13.2.1/../../../../pic32c/lib/thumb/v6-m/nofp\libc-size-musl.a(strcpy.o)
 .xc_stack_usage
                0x00000000       0x14 C:/Applications/Microchip/XC32/bin/bin/../../lib/gcc/pic32c/13.2.1/../../../../pic32c/lib/thumb/v6-m/nofp\libc-size-musl.a(strcpy.o)
 .xc_stack_usage.hdr
                0x00000000        0xe C:/Applications/Microchip/XC32/bin/bin/../../lib/gcc/pic32c/13.2.1/../../../../pic32c/lib/thumb/v6-m/nofp\libc-size-musl.a(strcpy.o)
 .text          0x00000000        0x0 C:/Applications/Microchip/XC32/bin/bin/../../lib/gcc/pic32c/13.2.1/../../../../pic32c/lib/thumb/v6-m/nofp\libc-size-musl.a(strncmp.o)
 .data          0x00000000        0x0 C:/Applications/Microchip/XC32/bin/bin/../../lib/gcc/pic32c/13.2.1/../../../../pic32c/lib/thumb/v6-m/nofp\libc-size-musl.a(strncmp.o)
 .bss           0x00000000        0x0 C:/Applications/Microchip/XC32/bin/bin/../../lib/gcc/pic32c/13.2.1/../../../../pic32c/lib/thumb/v6-m/nofp\libc-size-musl.a(strncmp.o)
 .xc_stack_usage
                0x00000000       0x15 C:/Applications/Microchip/XC32/bin/bin/../../lib/gcc/pic32c/13.2.1/../../../../pic32c/lib/thumb/v6-m/nofp\libc-size-musl.a(strncmp.o)
 .text.strncmp  0x00000000       0x2c C:/Applications/Microchip/XC32/bin/bin/../../lib/gcc/pic32c/13.2.1/../../../../pic32c/lib/thumb/v6-m/nofp\libc-size-musl.a(strncmp.o)
 .xc_stack_usage.hdr
                0x00000000        0xe C:/Applications/Microchip/XC32/bin/bin/../../lib/gcc/pic32c/13.2.1/../../../../pic32c/lib/thumb/v6-m/nofp\libc-size-musl.a(strncmp.o)
 .debug_info    0x00000000       0xec C:/Applications/Microchip/XC32/bin/bin/../../lib/gcc/pic32c/13.2.1/../../../../pic32c/lib/thumb/v6-m/nofp\libc-size-musl.a(strncmp.o)
 .debug_abbrev  0x00000000       0xa2 C:/Applications/Microchip/XC32/bin/bin/../../lib/gcc/pic32c/13.2.1/../../../../pic32c/lib/thumb/v6-m/nofp\libc-size-musl.a(strncmp.o)
 .debug_loc     0x00000000      0x168 C:/Applications/Microchip/XC32/bin/bin/../../lib/gcc/pic32c/13.2.1/../../../../pic32c/lib/thumb/v6-m/nofp\libc-size-musl.a(strncmp.o)
 .debug_aranges
                0x00000000       0x20 C:/Applications/Microchip/XC32/bin/bin/../../lib/gcc/pic32c/13.2.1/../../../../pic32c/lib/thumb/v6-m/nofp\libc-size-musl.a(strncmp.o)
 .debug_ranges  0x00000000       0x10 C:/Applications/Microchip/XC32/bin/bin/../../lib/gcc/pic32c/13.2.1/../../../../pic32c/lib/thumb/v6-m/nofp\libc-size-musl.a(strncmp.o)
 .debug_line    0x00000000      0x115 C:/Applications/Microchip/XC32/bin/bin/../../lib/gcc/pic32c/13.2.1/../../../../pic32c/lib/thumb/v6-m/nofp\libc-size-musl.a(strncmp.o)
 .debug_str     0x00000000      0x240 C:/Applications/Microchip/XC32/bin/bin/../../lib/gcc/pic32c/13.2.1/../../../../pic32c/lib/thumb/v6-m/nofp\libc-size-musl.a(strncmp.o)
 .comment       0x00000000       0x36 C:/Applications/Microchip/XC32/bin/bin/../../lib/gcc/pic32c/13.2.1/../../../../pic32c/lib/thumb/v6-m/nofp\libc-size-musl.a(strncmp.o)
 .note.GNU-stack
                0x00000000        0x0 C:/Applications/Microchip/XC32/bin/bin/../../lib/gcc/pic32c/13.2.1/../../../../pic32c/lib/thumb/v6-m/nofp\libc-size-musl.a(strncmp.o)
 .debug_frame   0x00000000       0x2c C:/Applications/Microchip/XC32/bin/bin/../../lib/gcc/pic32c/13.2.1/../../../../pic32c/lib/thumb/v6-m/nofp\libc-size-musl.a(strncmp.o)
 .ARM.attributes
                0x00000000       0x2e C:/Applications/Microchip/XC32/bin/bin/../../lib/gcc/pic32c/13.2.1/../../../../pic32c/lib/thumb/v6-m/nofp\libc-size-musl.a(strncmp.o)
 .text          0x00000000        0x0 C:/Applications/Microchip/XC32/bin/bin/../../lib/gcc/pic32c/13.2.1/../../../../pic32c/lib/thumb/v6-m/nofp\libc-size-musl.a(strncpy.o)
 .data          0x00000000        0x0 C:/Applications/Microchip/XC32/bin/bin/../../lib/gcc/pic32c/13.2.1/../../../../pic32c/lib/thumb/v6-m/nofp\libc-size-musl.a(strncpy.o)
 .bss           0x00000000        0x0 C:/Applications/Microchip/XC32/bin/bin/../../lib/gcc/pic32c/13.2.1/../../../../pic32c/lib/thumb/v6-m/nofp\libc-size-musl.a(strncpy.o)
 .xc_stack_usage
                0x00000000       0x15 C:/Applications/Microchip/XC32/bin/bin/../../lib/gcc/pic32c/13.2.1/../../../../pic32c/lib/thumb/v6-m/nofp\libc-size-musl.a(strncpy.o)
 .text.strncpy  0x00000000        0xc C:/Applications/Microchip/XC32/bin/bin/../../lib/gcc/pic32c/13.2.1/../../../../pic32c/lib/thumb/v6-m/nofp\libc-size-musl.a(strncpy.o)
 .xc_stack_usage.hdr
                0x00000000        0xe C:/Applications/Microchip/XC32/bin/bin/../../lib/gcc/pic32c/13.2.1/../../../../pic32c/lib/thumb/v6-m/nofp\libc-size-musl.a(strncpy.o)
 .debug_info    0x00000000      0x109 C:/Applications/Microchip/XC32/bin/bin/../../lib/gcc/pic32c/13.2.1/../../../../pic32c/lib/thumb/v6-m/nofp\libc-size-musl.a(strncpy.o)
 .debug_abbrev  0x00000000       0xb0 C:/Applications/Microchip/XC32/bin/bin/../../lib/gcc/pic32c/13.2.1/../../../../pic32c/lib/thumb/v6-m/nofp\libc-size-musl.a(strncpy.o)
 .debug_loc     0x00000000       0xa5 C:/Applications/Microchip/XC32/bin/bin/../../lib/gcc/pic32c/13.2.1/../../../../pic32c/lib/thumb/v6-m/nofp\libc-size-musl.a(strncpy.o)
 .debug_aranges
                0x00000000       0x20 C:/Applications/Microchip/XC32/bin/bin/../../lib/gcc/pic32c/13.2.1/../../../../pic32c/lib/thumb/v6-m/nofp\libc-size-musl.a(strncpy.o)
 .debug_ranges  0x00000000       0x10 C:/Applications/Microchip/XC32/bin/bin/../../lib/gcc/pic32c/13.2.1/../../../../pic32c/lib/thumb/v6-m/nofp\libc-size-musl.a(strncpy.o)
 .debug_line    0x00000000       0xce C:/Applications/Microchip/XC32/bin/bin/../../lib/gcc/pic32c/13.2.1/../../../../pic32c/lib/thumb/v6-m/nofp\libc-size-musl.a(strncpy.o)
 .debug_str     0x00000000      0x23c C:/Applications/Microchip/XC32/bin/bin/../../lib/gcc/pic32c/13.2.1/../../../../pic32c/lib/thumb/v6-m/nofp\libc-size-musl.a(strncpy.o)
 .comment       0x00000000       0x36 C:/Applications/Microchip/XC32/bin/bin/../../lib/gcc/pic32c/13.2.1/../../../../pic32c/lib/thumb/v6-m/nofp\libc-size-musl.a(strncpy.o)
 .note.GNU-stack
                0x00000000        0x0 C:/Applications/Microchip/XC32/bin/bin/../../lib/gcc/pic32c/13.2.1/../../../../pic32c/lib/thumb/v6-m/nofp\libc-size-musl.a(strncpy.o)
 .debug_frame   0x00000000       0x28 C:/Applications/Microchip/XC32/bin/bin/../../lib/gcc/pic32c/13.2.1/../../../../pic32c/lib/thumb/v6-m/nofp\libc-size-musl.a(strncpy.o)
 .ARM.attributes
                0x00000000       0x2e C:/Applications/Microchip/XC32/bin/bin/../../lib/gcc/pic32c/13.2.1/../../../../pic32c/lib/thumb/v6-m/nofp\libc-size-musl.a(strncpy.o)
 .text          0x00000000        0x0 C:/Applications/Microchip/XC32/bin/bin/../../lib/gcc/pic32c/13.2.1/../../../../pic32c/lib/thumb/v6-m/nofp\libc-size-musl.a(strnlen.o)
 .data          0x00000000        0x0 C:/Applications/Microchip/XC32/bin/bin/../../lib/gcc/pic32c/13.2.1/../../../../pic32c/lib/thumb/v6-m/nofp\libc-size-musl.a(strnlen.o)
 .bss           0x00000000        0x0 C:/Applications/Microchip/XC32/bin/bin/../../lib/gcc/pic32c/13.2.1/../../../../pic32c/lib/thumb/v6-m/nofp\libc-size-musl.a(strnlen.o)
 .xc_stack_usage
                0x00000000       0x15 C:/Applications/Microchip/XC32/bin/bin/../../lib/gcc/pic32c/13.2.1/../../../../pic32c/lib/thumb/v6-m/nofp\libc-size-musl.a(strnlen.o)
 .text.strnlen  0x00000000       0x18 C:/Applications/Microchip/XC32/bin/bin/../../lib/gcc/pic32c/13.2.1/../../../../pic32c/lib/thumb/v6-m/nofp\libc-size-musl.a(strnlen.o)
 .xc_stack_usage.hdr
                0x00000000        0xe C:/Applications/Microchip/XC32/bin/bin/../../lib/gcc/pic32c/13.2.1/../../../../pic32c/lib/thumb/v6-m/nofp\libc-size-musl.a(strnlen.o)
 .debug_info    0x00000000      0x101 C:/Applications/Microchip/XC32/bin/bin/../../lib/gcc/pic32c/13.2.1/../../../../pic32c/lib/thumb/v6-m/nofp\libc-size-musl.a(strnlen.o)
 .debug_abbrev  0x00000000       0xd2 C:/Applications/Microchip/XC32/bin/bin/../../lib/gcc/pic32c/13.2.1/../../../../pic32c/lib/thumb/v6-m/nofp\libc-size-musl.a(strnlen.o)
 .debug_loc     0x00000000       0xb2 C:/Applications/Microchip/XC32/bin/bin/../../lib/gcc/pic32c/13.2.1/../../../../pic32c/lib/thumb/v6-m/nofp\libc-size-musl.a(strnlen.o)
 .debug_aranges
                0x00000000       0x20 C:/Applications/Microchip/XC32/bin/bin/../../lib/gcc/pic32c/13.2.1/../../../../pic32c/lib/thumb/v6-m/nofp\libc-size-musl.a(strnlen.o)
 .debug_ranges  0x00000000       0x10 C:/Applications/Microchip/XC32/bin/bin/../../lib/gcc/pic32c/13.2.1/../../../../pic32c/lib/thumb/v6-m/nofp\libc-size-musl.a(strnlen.o)
 .debug_line    0x00000000      0x155 C:/Applications/Microchip/XC32/bin/bin/../../lib/gcc/pic32c/13.2.1/../../../../pic32c/lib/thumb/v6-m/nofp\libc-size-musl.a(strnlen.o)
 .debug_str     0x00000000      0x239 C:/Applications/Microchip/XC32/bin/bin/../../lib/gcc/pic32c/13.2.1/../../../../pic32c/lib/thumb/v6-m/nofp\libc-size-musl.a(strnlen.o)
 .comment       0x00000000       0x36 C:/Applications/Microchip/XC32/bin/bin/../../lib/gcc/pic32c/13.2.1/../../../../pic32c/lib/thumb/v6-m/nofp\libc-size-musl.a(strnlen.o)
 .note.GNU-stack
                0x00000000        0x0 C:/Applications/Microchip/XC32/bin/bin/../../lib/gcc/pic32c/13.2.1/../../../../pic32c/lib/thumb/v6-m/nofp\libc-size-musl.a(strnlen.o)
 .debug_frame   0x00000000       0x2c C:/Applications/Microchip/XC32/bin/bin/../../lib/gcc/pic32c/13.2.1/../../../../pic32c/lib/thumb/v6-m/nofp\libc-size-musl.a(strnlen.o)
 .ARM.attributes
                0x00000000       0x2e C:/Applications/Microchip/XC32/bin/bin/../../lib/gcc/pic32c/13.2.1/../../../../pic32c/lib/thumb/v6-m/nofp\libc-size-musl.a(strnlen.o)
 .text          0x00000000        0x0 C:/Applications/Microchip/XC32/bin/bin/../../lib/gcc/pic32c/13.2.1/../../../../pic32c/lib/thumb/v6-m/nofp\libc-size-musl.a(strrchr.o)
 .data          0x00000000        0x0 C:/Applications/Microchip/XC32/bin/bin/../../lib/gcc/pic32c/13.2.1/../../../../pic32c/lib/thumb/v6-m/nofp\libc-size-musl.a(strrchr.o)
 .bss           0x00000000        0x0 C:/Applications/Microchip/XC32/bin/bin/../../lib/gcc/pic32c/13.2.1/../../../../pic32c/lib/thumb/v6-m/nofp\libc-size-musl.a(strrchr.o)
 .xc_stack_usage
                0x00000000       0x15 C:/Applications/Microchip/XC32/bin/bin/../../lib/gcc/pic32c/13.2.1/../../../../pic32c/lib/thumb/v6-m/nofp\libc-size-musl.a(strrchr.o)
 .text.strrchr  0x00000000       0x16 C:/Applications/Microchip/XC32/bin/bin/../../lib/gcc/pic32c/13.2.1/../../../../pic32c/lib/thumb/v6-m/nofp\libc-size-musl.a(strrchr.o)
 .xc_stack_usage.hdr
                0x00000000        0xe C:/Applications/Microchip/XC32/bin/bin/../../lib/gcc/pic32c/13.2.1/../../../../pic32c/lib/thumb/v6-m/nofp\libc-size-musl.a(strrchr.o)
 .debug_info    0x00000000      0x11d C:/Applications/Microchip/XC32/bin/bin/../../lib/gcc/pic32c/13.2.1/../../../../pic32c/lib/thumb/v6-m/nofp\libc-size-musl.a(strrchr.o)
 .debug_abbrev  0x00000000       0xcb C:/Applications/Microchip/XC32/bin/bin/../../lib/gcc/pic32c/13.2.1/../../../../pic32c/lib/thumb/v6-m/nofp\libc-size-musl.a(strrchr.o)
 .debug_loc     0x00000000       0x90 C:/Applications/Microchip/XC32/bin/bin/../../lib/gcc/pic32c/13.2.1/../../../../pic32c/lib/thumb/v6-m/nofp\libc-size-musl.a(strrchr.o)
 .debug_aranges
                0x00000000       0x20 C:/Applications/Microchip/XC32/bin/bin/../../lib/gcc/pic32c/13.2.1/../../../../pic32c/lib/thumb/v6-m/nofp\libc-size-musl.a(strrchr.o)
 .debug_ranges  0x00000000       0x10 C:/Applications/Microchip/XC32/bin/bin/../../lib/gcc/pic32c/13.2.1/../../../../pic32c/lib/thumb/v6-m/nofp\libc-size-musl.a(strrchr.o)
 .debug_line    0x00000000      0x142 C:/Applications/Microchip/XC32/bin/bin/../../lib/gcc/pic32c/13.2.1/../../../../pic32c/lib/thumb/v6-m/nofp\libc-size-musl.a(strrchr.o)
 .debug_str     0x00000000      0x243 C:/Applications/Microchip/XC32/bin/bin/../../lib/gcc/pic32c/13.2.1/../../../../pic32c/lib/thumb/v6-m/nofp\libc-size-musl.a(strrchr.o)
 .comment       0x00000000       0x36 C:/Applications/Microchip/XC32/bin/bin/../../lib/gcc/pic32c/13.2.1/../../../../pic32c/lib/thumb/v6-m/nofp\libc-size-musl.a(strrchr.o)
 .note.GNU-stack
                0x00000000        0x0 C:/Applications/Microchip/XC32/bin/bin/../../lib/gcc/pic32c/13.2.1/../../../../pic32c/lib/thumb/v6-m/nofp\libc-size-musl.a(strrchr.o)
 .debug_frame   0x00000000       0x2c C:/Applications/Microchip/XC32/bin/bin/../../lib/gcc/pic32c/13.2.1/../../../../pic32c/lib/thumb/v6-m/nofp\libc-size-musl.a(strrchr.o)
 .ARM.attributes
                0x00000000       0x2e C:/Applications/Microchip/XC32/bin/bin/../../lib/gcc/pic32c/13.2.1/../../../../pic32c/lib/thumb/v6-m/nofp\libc-size-musl.a(strrchr.o)
 .text          0x00000000        0x0 C:/Applications/Microchip/XC32/bin/bin/../../lib/gcc/pic32c/13.2.1/../../../../pic32c/lib/thumb/v6-m/nofp\libc-size-musl.a(strspn.o)
 .data          0x00000000        0x0 C:/Applications/Microchip/XC32/bin/bin/../../lib/gcc/pic32c/13.2.1/../../../../pic32c/lib/thumb/v6-m/nofp\libc-size-musl.a(strspn.o)
 .bss           0x00000000        0x0 C:/Applications/Microchip/XC32/bin/bin/../../lib/gcc/pic32c/13.2.1/../../../../pic32c/lib/thumb/v6-m/nofp\libc-size-musl.a(strspn.o)
 .xc_stack_usage
                0x00000000       0x14 C:/Applications/Microchip/XC32/bin/bin/../../lib/gcc/pic32c/13.2.1/../../../../pic32c/lib/thumb/v6-m/nofp\libc-size-musl.a(strspn.o)
 .text.strspn   0x00000000       0x7c C:/Applications/Microchip/XC32/bin/bin/../../lib/gcc/pic32c/13.2.1/../../../../pic32c/lib/thumb/v6-m/nofp\libc-size-musl.a(strspn.o)
 .xc_stack_usage.hdr
                0x00000000        0xe C:/Applications/Microchip/XC32/bin/bin/../../lib/gcc/pic32c/13.2.1/../../../../pic32c/lib/thumb/v6-m/nofp\libc-size-musl.a(strspn.o)
 .debug_info    0x00000000      0x101 C:/Applications/Microchip/XC32/bin/bin/../../lib/gcc/pic32c/13.2.1/../../../../pic32c/lib/thumb/v6-m/nofp\libc-size-musl.a(strspn.o)
 .debug_abbrev  0x00000000       0xdd C:/Applications/Microchip/XC32/bin/bin/../../lib/gcc/pic32c/13.2.1/../../../../pic32c/lib/thumb/v6-m/nofp\libc-size-musl.a(strspn.o)
 .debug_loc     0x00000000      0x105 C:/Applications/Microchip/XC32/bin/bin/../../lib/gcc/pic32c/13.2.1/../../../../pic32c/lib/thumb/v6-m/nofp\libc-size-musl.a(strspn.o)
 .debug_aranges
                0x00000000       0x20 C:/Applications/Microchip/XC32/bin/bin/../../lib/gcc/pic32c/13.2.1/../../../../pic32c/lib/thumb/v6-m/nofp\libc-size-musl.a(strspn.o)
 .debug_ranges  0x00000000       0x10 C:/Applications/Microchip/XC32/bin/bin/../../lib/gcc/pic32c/13.2.1/../../../../pic32c/lib/thumb/v6-m/nofp\libc-size-musl.a(strspn.o)
 .debug_line    0x00000000      0x194 C:/Applications/Microchip/XC32/bin/bin/../../lib/gcc/pic32c/13.2.1/../../../../pic32c/lib/thumb/v6-m/nofp\libc-size-musl.a(strspn.o)
 .debug_str     0x00000000      0x250 C:/Applications/Microchip/XC32/bin/bin/../../lib/gcc/pic32c/13.2.1/../../../../pic32c/lib/thumb/v6-m/nofp\libc-size-musl.a(strspn.o)
 .comment       0x00000000       0x36 C:/Applications/Microchip/XC32/bin/bin/../../lib/gcc/pic32c/13.2.1/../../../../pic32c/lib/thumb/v6-m/nofp\libc-size-musl.a(strspn.o)
 .note.GNU-stack
                0x00000000        0x0 C:/Applications/Microchip/XC32/bin/bin/../../lib/gcc/pic32c/13.2.1/../../../../pic32c/lib/thumb/v6-m/nofp\libc-size-musl.a(strspn.o)
 .debug_frame   0x00000000       0x30 C:/Applications/Microchip/XC32/bin/bin/../../lib/gcc/pic32c/13.2.1/../../../../pic32c/lib/thumb/v6-m/nofp\libc-size-musl.a(strspn.o)
 .ARM.attributes
                0x00000000       0x2e C:/Applications/Microchip/XC32/bin/bin/../../lib/gcc/pic32c/13.2.1/../../../../pic32c/lib/thumb/v6-m/nofp\libc-size-musl.a(strspn.o)
 .text          0x00000000        0x0 C:/Applications/Microchip/XC32/bin/bin/../../lib/gcc/pic32c/13.2.1/../../../../pic32c/lib/thumb/v6-m/nofp\libc-size-musl.a(memrchr.o)
 .data          0x00000000        0x0 C:/Applications/Microchip/XC32/bin/bin/../../lib/gcc/pic32c/13.2.1/../../../../pic32c/lib/thumb/v6-m/nofp\libc-size-musl.a(memrchr.o)
 .bss           0x00000000        0x0 C:/Applications/Microchip/XC32/bin/bin/../../lib/gcc/pic32c/13.2.1/../../../../pic32c/lib/thumb/v6-m/nofp\libc-size-musl.a(memrchr.o)
 .xc_stack_usage
                0x00000000       0x17 C:/Applications/Microchip/XC32/bin/bin/../../lib/gcc/pic32c/13.2.1/../../../../pic32c/lib/thumb/v6-m/nofp\libc-size-musl.a(memrchr.o)
 .text.__memrchr
                0x00000000       0x1e C:/Applications/Microchip/XC32/bin/bin/../../lib/gcc/pic32c/13.2.1/../../../../pic32c/lib/thumb/v6-m/nofp\libc-size-musl.a(memrchr.o)
 .xc_stack_usage.hdr
                0x00000000        0xe C:/Applications/Microchip/XC32/bin/bin/../../lib/gcc/pic32c/13.2.1/../../../../pic32c/lib/thumb/v6-m/nofp\libc-size-musl.a(memrchr.o)
 .debug_info    0x00000000       0xea C:/Applications/Microchip/XC32/bin/bin/../../lib/gcc/pic32c/13.2.1/../../../../pic32c/lib/thumb/v6-m/nofp\libc-size-musl.a(memrchr.o)
 .debug_abbrev  0x00000000       0x9d C:/Applications/Microchip/XC32/bin/bin/../../lib/gcc/pic32c/13.2.1/../../../../pic32c/lib/thumb/v6-m/nofp\libc-size-musl.a(memrchr.o)
 .debug_loc     0x00000000      0x138 C:/Applications/Microchip/XC32/bin/bin/../../lib/gcc/pic32c/13.2.1/../../../../pic32c/lib/thumb/v6-m/nofp\libc-size-musl.a(memrchr.o)
 .debug_aranges
                0x00000000       0x20 C:/Applications/Microchip/XC32/bin/bin/../../lib/gcc/pic32c/13.2.1/../../../../pic32c/lib/thumb/v6-m/nofp\libc-size-musl.a(memrchr.o)
 .debug_ranges  0x00000000       0x10 C:/Applications/Microchip/XC32/bin/bin/../../lib/gcc/pic32c/13.2.1/../../../../pic32c/lib/thumb/v6-m/nofp\libc-size-musl.a(memrchr.o)
 .debug_line    0x00000000       0xf9 C:/Applications/Microchip/XC32/bin/bin/../../lib/gcc/pic32c/13.2.1/../../../../pic32c/lib/thumb/v6-m/nofp\libc-size-musl.a(memrchr.o)
 .debug_str     0x00000000      0x259 C:/Applications/Microchip/XC32/bin/bin/../../lib/gcc/pic32c/13.2.1/../../../../pic32c/lib/thumb/v6-m/nofp\libc-size-musl.a(memrchr.o)
 .comment       0x00000000       0x36 C:/Applications/Microchip/XC32/bin/bin/../../lib/gcc/pic32c/13.2.1/../../../../pic32c/lib/thumb/v6-m/nofp\libc-size-musl.a(memrchr.o)
 .note.GNU-stack
                0x00000000        0x0 C:/Applications/Microchip/XC32/bin/bin/../../lib/gcc/pic32c/13.2.1/../../../../pic32c/lib/thumb/v6-m/nofp\libc-size-musl.a(memrchr.o)
 .debug_frame   0x00000000       0x28 C:/Applications/Microchip/XC32/bin/bin/../../lib/gcc/pic32c/13.2.1/../../../../pic32c/lib/thumb/v6-m/nofp\libc-size-musl.a(memrchr.o)
 .ARM.attributes
                0x00000000       0x2e C:/Applications/Microchip/XC32/bin/bin/../../lib/gcc/pic32c/13.2.1/../../../../pic32c/lib/thumb/v6-m/nofp\libc-size-musl.a(memrchr.o)
 .text          0x00000000        0x0 C:/Applications/Microchip/XC32/bin/bin/../../lib/gcc/pic32c/13.2.1/../../../../pic32c/lib/thumb/v6-m/nofp\libc-size-musl.a(memchr.o)
 .data          0x00000000        0x0 C:/Applications/Microchip/XC32/bin/bin/../../lib/gcc/pic32c/13.2.1/../../../../pic32c/lib/thumb/v6-m/nofp\libc-size-musl.a(memchr.o)
 .bss           0x00000000        0x0 C:/Applications/Microchip/XC32/bin/bin/../../lib/gcc/pic32c/13.2.1/../../../../pic32c/lib/thumb/v6-m/nofp\libc-size-musl.a(memchr.o)
 .xc_stack_usage
                0x00000000       0x14 C:/Applications/Microchip/XC32/bin/bin/../../lib/gcc/pic32c/13.2.1/../../../../pic32c/lib/thumb/v6-m/nofp\libc-size-musl.a(memchr.o)
 .text.memchr   0x00000000       0x1c C:/Applications/Microchip/XC32/bin/bin/../../lib/gcc/pic32c/13.2.1/../../../../pic32c/lib/thumb/v6-m/nofp\libc-size-musl.a(memchr.o)
 .xc_stack_usage.hdr
                0x00000000        0xe C:/Applications/Microchip/XC32/bin/bin/../../lib/gcc/pic32c/13.2.1/../../../../pic32c/lib/thumb/v6-m/nofp\libc-size-musl.a(memchr.o)
 .debug_info    0x00000000       0xec C:/Applications/Microchip/XC32/bin/bin/../../lib/gcc/pic32c/13.2.1/../../../../pic32c/lib/thumb/v6-m/nofp\libc-size-musl.a(memchr.o)
 .debug_abbrev  0x00000000       0xb1 C:/Applications/Microchip/XC32/bin/bin/../../lib/gcc/pic32c/13.2.1/../../../../pic32c/lib/thumb/v6-m/nofp\libc-size-musl.a(memchr.o)
 .debug_loc     0x00000000      0x127 C:/Applications/Microchip/XC32/bin/bin/../../lib/gcc/pic32c/13.2.1/../../../../pic32c/lib/thumb/v6-m/nofp\libc-size-musl.a(memchr.o)
 .debug_aranges
                0x00000000       0x20 C:/Applications/Microchip/XC32/bin/bin/../../lib/gcc/pic32c/13.2.1/../../../../pic32c/lib/thumb/v6-m/nofp\libc-size-musl.a(memchr.o)
 .debug_ranges  0x00000000       0x10 C:/Applications/Microchip/XC32/bin/bin/../../lib/gcc/pic32c/13.2.1/../../../../pic32c/lib/thumb/v6-m/nofp\libc-size-musl.a(memchr.o)
 .debug_line    0x00000000      0x171 C:/Applications/Microchip/XC32/bin/bin/../../lib/gcc/pic32c/13.2.1/../../../../pic32c/lib/thumb/v6-m/nofp\libc-size-musl.a(memchr.o)
 .debug_str     0x00000000      0x254 C:/Applications/Microchip/XC32/bin/bin/../../lib/gcc/pic32c/13.2.1/../../../../pic32c/lib/thumb/v6-m/nofp\libc-size-musl.a(memchr.o)
 .comment       0x00000000       0x36 C:/Applications/Microchip/XC32/bin/bin/../../lib/gcc/pic32c/13.2.1/../../../../pic32c/lib/thumb/v6-m/nofp\libc-size-musl.a(memchr.o)
 .note.GNU-stack
                0x00000000        0x0 C:/Applications/Microchip/XC32/bin/bin/../../lib/gcc/pic32c/13.2.1/../../../../pic32c/lib/thumb/v6-m/nofp\libc-size-musl.a(memchr.o)
 .debug_frame   0x00000000       0x20 C:/Applications/Microchip/XC32/bin/bin/../../lib/gcc/pic32c/13.2.1/../../../../pic32c/lib/thumb/v6-m/nofp\libc-size-musl.a(memchr.o)
 .ARM.attributes
                0x00000000       0x2e C:/Applications/Microchip/XC32/bin/bin/../../lib/gcc/pic32c/13.2.1/../../../../pic32c/lib/thumb/v6-m/nofp\libc-size-musl.a(memchr.o)
 .text          0x00000000        0x0 C:/Applications/Microchip/XC32/bin/bin/../../lib/gcc/pic32c/13.2.1/../../../../pic32c/lib/thumb/v6-m/nofp\libc-size-musl.a(stpcpy.o)
 .data          0x00000000        0x0 C:/Applications/Microchip/XC32/bin/bin/../../lib/gcc/pic32c/13.2.1/../../../../pic32c/lib/thumb/v6-m/nofp\libc-size-musl.a(stpcpy.o)
 .bss           0x00000000        0x0 C:/Applications/Microchip/XC32/bin/bin/../../lib/gcc/pic32c/13.2.1/../../../../pic32c/lib/thumb/v6-m/nofp\libc-size-musl.a(stpcpy.o)
 .xc_stack_usage
                0x00000000       0x14 C:/Applications/Microchip/XC32/bin/bin/../../lib/gcc/pic32c/13.2.1/../../../../pic32c/lib/thumb/v6-m/nofp\libc-size-musl.a(stpcpy.o)
 .xc_stack_usage.hdr
                0x00000000        0xe C:/Applications/Microchip/XC32/bin/bin/../../lib/gcc/pic32c/13.2.1/../../../../pic32c/lib/thumb/v6-m/nofp\libc-size-musl.a(stpcpy.o)
 .text          0x00000000        0x0 C:/Applications/Microchip/XC32/bin/bin/../../lib/gcc/pic32c/13.2.1/../../../../pic32c/lib/thumb/v6-m/nofp\libc-size-musl.a(stpncpy.o)
 .data          0x00000000        0x0 C:/Applications/Microchip/XC32/bin/bin/../../lib/gcc/pic32c/13.2.1/../../../../pic32c/lib/thumb/v6-m/nofp\libc-size-musl.a(stpncpy.o)
 .bss           0x00000000        0x0 C:/Applications/Microchip/XC32/bin/bin/../../lib/gcc/pic32c/13.2.1/../../../../pic32c/lib/thumb/v6-m/nofp\libc-size-musl.a(stpncpy.o)
 .xc_stack_usage
                0x00000000       0x15 C:/Applications/Microchip/XC32/bin/bin/../../lib/gcc/pic32c/13.2.1/../../../../pic32c/lib/thumb/v6-m/nofp\libc-size-musl.a(stpncpy.o)
 .text.stpncpy  0x00000000       0x3c C:/Applications/Microchip/XC32/bin/bin/../../lib/gcc/pic32c/13.2.1/../../../../pic32c/lib/thumb/v6-m/nofp\libc-size-musl.a(stpncpy.o)
 .xc_stack_usage.hdr
                0x00000000        0xe C:/Applications/Microchip/XC32/bin/bin/../../lib/gcc/pic32c/13.2.1/../../../../pic32c/lib/thumb/v6-m/nofp\libc-size-musl.a(stpncpy.o)
 .debug_info    0x00000000       0xe1 C:/Applications/Microchip/XC32/bin/bin/../../lib/gcc/pic32c/13.2.1/../../../../pic32c/lib/thumb/v6-m/nofp\libc-size-musl.a(stpncpy.o)
 .debug_abbrev  0x00000000       0xa5 C:/Applications/Microchip/XC32/bin/bin/../../lib/gcc/pic32c/13.2.1/../../../../pic32c/lib/thumb/v6-m/nofp\libc-size-musl.a(stpncpy.o)
 .debug_loc     0x00000000      0x1ae C:/Applications/Microchip/XC32/bin/bin/../../lib/gcc/pic32c/13.2.1/../../../../pic32c/lib/thumb/v6-m/nofp\libc-size-musl.a(stpncpy.o)
 .debug_aranges
                0x00000000       0x20 C:/Applications/Microchip/XC32/bin/bin/../../lib/gcc/pic32c/13.2.1/../../../../pic32c/lib/thumb/v6-m/nofp\libc-size-musl.a(stpncpy.o)
 .debug_ranges  0x00000000       0x10 C:/Applications/Microchip/XC32/bin/bin/../../lib/gcc/pic32c/13.2.1/../../../../pic32c/lib/thumb/v6-m/nofp\libc-size-musl.a(stpncpy.o)
 .debug_line    0x00000000      0x1a9 C:/Applications/Microchip/XC32/bin/bin/../../lib/gcc/pic32c/13.2.1/../../../../pic32c/lib/thumb/v6-m/nofp\libc-size-musl.a(stpncpy.o)
 .debug_str     0x00000000      0x243 C:/Applications/Microchip/XC32/bin/bin/../../lib/gcc/pic32c/13.2.1/../../../../pic32c/lib/thumb/v6-m/nofp\libc-size-musl.a(stpncpy.o)
 .comment       0x00000000       0x36 C:/Applications/Microchip/XC32/bin/bin/../../lib/gcc/pic32c/13.2.1/../../../../pic32c/lib/thumb/v6-m/nofp\libc-size-musl.a(stpncpy.o)
 .note.GNU-stack
                0x00000000        0x0 C:/Applications/Microchip/XC32/bin/bin/../../lib/gcc/pic32c/13.2.1/../../../../pic32c/lib/thumb/v6-m/nofp\libc-size-musl.a(stpncpy.o)
 .debug_frame   0x00000000       0x30 C:/Applications/Microchip/XC32/bin/bin/../../lib/gcc/pic32c/13.2.1/../../../../pic32c/lib/thumb/v6-m/nofp\libc-size-musl.a(stpncpy.o)
 .ARM.attributes
                0x00000000       0x2e C:/Applications/Microchip/XC32/bin/bin/../../lib/gcc/pic32c/13.2.1/../../../../pic32c/lib/thumb/v6-m/nofp\libc-size-musl.a(stpncpy.o)
 .text          0x00000000        0x0 C:/Applications/Microchip/XC32/bin/bin/../../lib/gcc/pic32c/13.2.1/../../../../pic32c/lib/thumb/v6-m/nofp\liblmalloc-musl.a(lite_free.o)
 .data          0x00000000        0x0 C:/Applications/Microchip/XC32/bin/bin/../../lib/gcc/pic32c/13.2.1/../../../../pic32c/lib/thumb/v6-m/nofp\liblmalloc-musl.a(lite_free.o)
 .xc_stack_usage
                0x00000000       0x59 C:/Applications/Microchip/XC32/bin/bin/../../lib/gcc/pic32c/13.2.1/../../../../pic32c/lib/thumb/v6-m/nofp\liblmalloc-musl.a(lite_free.o)
 .xc_stack_usage.hdr
                0x00000000        0xe C:/Applications/Microchip/XC32/bin/bin/../../lib/gcc/pic32c/13.2.1/../../../../pic32c/lib/thumb/v6-m/nofp\liblmalloc-musl.a(lite_free.o)
 .text          0x00000000        0x0 C:/Applications/Microchip/XC32/bin/bin/../../lib/gcc/pic32c/13.2.1/../../../../pic32c/lib/thumb/v6-m/nofp\liblmalloc-musl.a(lite_malloc.o)
 .bss           0x00000000        0x0 C:/Applications/Microchip/XC32/bin/bin/../../lib/gcc/pic32c/13.2.1/../../../../pic32c/lib/thumb/v6-m/nofp\liblmalloc-musl.a(lite_malloc.o)
 .xc_stack_usage
                0x00000000       0x1d C:/Applications/Microchip/XC32/bin/bin/../../lib/gcc/pic32c/13.2.1/../../../../pic32c/lib/thumb/v6-m/nofp\liblmalloc-musl.a(lite_malloc.o)
 .xc_stack_usage.hdr
                0x00000000        0xe C:/Applications/Microchip/XC32/bin/bin/../../lib/gcc/pic32c/13.2.1/../../../../pic32c/lib/thumb/v6-m/nofp\liblmalloc-musl.a(lite_malloc.o)
 .text          0x00000000        0x0 C:/Applications/Microchip/XC32/bin/bin/../../lib/gcc/pic32c/13.2.1/../../../../pic32c/lib/thumb/v6-m/nofp\libc-musl.a(isxdigit.o)
 .data          0x00000000        0x0 C:/Applications/Microchip/XC32/bin/bin/../../lib/gcc/pic32c/13.2.1/../../../../pic32c/lib/thumb/v6-m/nofp\libc-musl.a(isxdigit.o)
 .bss           0x00000000        0x0 C:/Applications/Microchip/XC32/bin/bin/../../lib/gcc/pic32c/13.2.1/../../../../pic32c/lib/thumb/v6-m/nofp\libc-musl.a(isxdigit.o)
 .xc_stack_usage
                0x00000000       0x30 C:/Applications/Microchip/XC32/bin/bin/../../lib/gcc/pic32c/13.2.1/../../../../pic32c/lib/thumb/v6-m/nofp\libc-musl.a(isxdigit.o)
 .text.isxdigit
                0x00000000       0x1c C:/Applications/Microchip/XC32/bin/bin/../../lib/gcc/pic32c/13.2.1/../../../../pic32c/lib/thumb/v6-m/nofp\libc-musl.a(isxdigit.o)
 .text.__isxdigit_l
                0x00000000        0x8 C:/Applications/Microchip/XC32/bin/bin/../../lib/gcc/pic32c/13.2.1/../../../../pic32c/lib/thumb/v6-m/nofp\libc-musl.a(isxdigit.o)
 .xc_stack_usage.hdr
                0x00000000        0xe C:/Applications/Microchip/XC32/bin/bin/../../lib/gcc/pic32c/13.2.1/../../../../pic32c/lib/thumb/v6-m/nofp\libc-musl.a(isxdigit.o)
 .debug_info    0x00000000      0x13e C:/Applications/Microchip/XC32/bin/bin/../../lib/gcc/pic32c/13.2.1/../../../../pic32c/lib/thumb/v6-m/nofp\libc-musl.a(isxdigit.o)
 .debug_abbrev  0x00000000       0xf4 C:/Applications/Microchip/XC32/bin/bin/../../lib/gcc/pic32c/13.2.1/../../../../pic32c/lib/thumb/v6-m/nofp\libc-musl.a(isxdigit.o)
 .debug_loc     0x00000000       0xae C:/Applications/Microchip/XC32/bin/bin/../../lib/gcc/pic32c/13.2.1/../../../../pic32c/lib/thumb/v6-m/nofp\libc-musl.a(isxdigit.o)
 .debug_aranges
                0x00000000       0x28 C:/Applications/Microchip/XC32/bin/bin/../../lib/gcc/pic32c/13.2.1/../../../../pic32c/lib/thumb/v6-m/nofp\libc-musl.a(isxdigit.o)
 .debug_ranges  0x00000000       0x18 C:/Applications/Microchip/XC32/bin/bin/../../lib/gcc/pic32c/13.2.1/../../../../pic32c/lib/thumb/v6-m/nofp\libc-musl.a(isxdigit.o)
 .debug_line    0x00000000      0x187 C:/Applications/Microchip/XC32/bin/bin/../../lib/gcc/pic32c/13.2.1/../../../../pic32c/lib/thumb/v6-m/nofp\libc-musl.a(isxdigit.o)
 .debug_str     0x00000000      0x276 C:/Applications/Microchip/XC32/bin/bin/../../lib/gcc/pic32c/13.2.1/../../../../pic32c/lib/thumb/v6-m/nofp\libc-musl.a(isxdigit.o)
 .comment       0x00000000       0x36 C:/Applications/Microchip/XC32/bin/bin/../../lib/gcc/pic32c/13.2.1/../../../../pic32c/lib/thumb/v6-m/nofp\libc-musl.a(isxdigit.o)
 .note.GNU-stack
                0x00000000        0x0 C:/Applications/Microchip/XC32/bin/bin/../../lib/gcc/pic32c/13.2.1/../../../../pic32c/lib/thumb/v6-m/nofp\libc-musl.a(isxdigit.o)
 .debug_frame   0x00000000       0x38 C:/Applications/Microchip/XC32/bin/bin/../../lib/gcc/pic32c/13.2.1/../../../../pic32c/lib/thumb/v6-m/nofp\libc-musl.a(isxdigit.o)
 .ARM.attributes
                0x00000000       0x2e C:/Applications/Microchip/XC32/bin/bin/../../lib/gcc/pic32c/13.2.1/../../../../pic32c/lib/thumb/v6-m/nofp\libc-musl.a(isxdigit.o)
 .text          0x00000000        0x0 C:/Applications/Microchip/XC32/bin/bin/../../lib/gcc/pic32c/13.2.1/../../../../pic32c/lib/thumb/v6-m/nofp\libc-musl.a(__libc_start_main.o)
 .data          0x00000000        0x0 C:/Applications/Microchip/XC32/bin/bin/../../lib/gcc/pic32c/13.2.1/../../../../pic32c/lib/thumb/v6-m/nofp\libc-musl.a(__libc_start_main.o)
 .bss           0x00000000        0x0 C:/Applications/Microchip/XC32/bin/bin/../../lib/gcc/pic32c/13.2.1/../../../../pic32c/lib/thumb/v6-m/nofp\libc-musl.a(__libc_start_main.o)
 .xc_stack_usage
                0x00000000       0x34 C:/Applications/Microchip/XC32/bin/bin/../../lib/gcc/pic32c/13.2.1/../../../../pic32c/lib/thumb/v6-m/nofp\libc-musl.a(__libc_start_main.o)
 .xc_stack_usage.hdr
                0x00000000        0xe C:/Applications/Microchip/XC32/bin/bin/../../lib/gcc/pic32c/13.2.1/../../../../pic32c/lib/thumb/v6-m/nofp\libc-musl.a(__libc_start_main.o)
 .text          0x00000000        0x0 C:/Applications/Microchip/XC32/bin/bin/../../lib/gcc/pic32c/13.2.1/../../../../pic32c/lib/thumb/v6-m/nofp\libc-musl.a(__errno_location.o)
 .data          0x00000000        0x0 C:/Applications/Microchip/XC32/bin/bin/../../lib/gcc/pic32c/13.2.1/../../../../pic32c/lib/thumb/v6-m/nofp\libc-musl.a(__errno_location.o)
 .xc_stack_usage.hdr
                0x00000000        0xe C:/Applications/Microchip/XC32/bin/bin/../../lib/gcc/pic32c/13.2.1/../../../../pic32c/lib/thumb/v6-m/nofp\libc-musl.a(__errno_location.o)
 .text          0x00000000        0x0 C:/Applications/Microchip/XC32/bin/bin/../../lib/gcc/pic32c/13.2.1/../../../../pic32c/lib/thumb/v6-m/nofp\libc-musl.a(libc.o)
 .data          0x00000000        0x0 C:/Applications/Microchip/XC32/bin/bin/../../lib/gcc/pic32c/13.2.1/../../../../pic32c/lib/thumb/v6-m/nofp\libc-musl.a(libc.o)
 .xc_stack_usage.hdr
                0x00000000        0xe C:/Applications/Microchip/XC32/bin/bin/../../lib/gcc/pic32c/13.2.1/../../../../pic32c/lib/thumb/v6-m/nofp\libc-musl.a(libc.o)
 .text          0x00000000        0x0 C:/Applications/Microchip/XC32/bin/bin/../../lib/gcc/pic32c/13.2.1/../../../../pic32c/lib/thumb/v6-m/nofp\libc-musl.a(expand_heap.o)
 .data          0x00000000        0x0 C:/Applications/Microchip/XC32/bin/bin/../../lib/gcc/pic32c/13.2.1/../../../../pic32c/lib/thumb/v6-m/nofp\libc-musl.a(expand_heap.o)
 .bss           0x00000000        0x0 C:/Applications/Microchip/XC32/bin/bin/../../lib/gcc/pic32c/13.2.1/../../../../pic32c/lib/thumb/v6-m/nofp\libc-musl.a(expand_heap.o)
 .xc_stack_usage
                0x00000000       0x1b C:/Applications/Microchip/XC32/bin/bin/../../lib/gcc/pic32c/13.2.1/../../../../pic32c/lib/thumb/v6-m/nofp\libc-musl.a(expand_heap.o)
 .xc_stack_usage.hdr
                0x00000000        0xe C:/Applications/Microchip/XC32/bin/bin/../../lib/gcc/pic32c/13.2.1/../../../../pic32c/lib/thumb/v6-m/nofp\libc-musl.a(expand_heap.o)
 .text          0x00000000        0x0 C:/Applications/Microchip/XC32/bin/bin/../../lib/gcc/pic32c/13.2.1/../../../../pic32c/lib/thumb/v6-m/nofp\libc-musl.a(vsnprintf.o)
 .data          0x00000000        0x0 C:/Applications/Microchip/XC32/bin/bin/../../lib/gcc/pic32c/13.2.1/../../../../pic32c/lib/thumb/v6-m/nofp\libc-musl.a(vsnprintf.o)
 .bss           0x00000000        0x0 C:/Applications/Microchip/XC32/bin/bin/../../lib/gcc/pic32c/13.2.1/../../../../pic32c/lib/thumb/v6-m/nofp\libc-musl.a(vsnprintf.o)
 .xc_stack_usage
                0x00000000       0x17 C:/Applications/Microchip/XC32/bin/bin/../../lib/gcc/pic32c/13.2.1/../../../../pic32c/lib/thumb/v6-m/nofp\libc-musl.a(vsnprintf.o)
 .xc_stack_usage.hdr
                0x00000000        0xe C:/Applications/Microchip/XC32/bin/bin/../../lib/gcc/pic32c/13.2.1/../../../../pic32c/lib/thumb/v6-m/nofp\libc-musl.a(vsnprintf.o)
 .text          0x00000000        0x0 C:/Applications/Microchip/XC32/bin/bin/../../lib/gcc/pic32c/13.2.1/../../../../pic32c/lib/thumb/v6-m/nofp\libc-musl.a(snprintf.o)
 .data          0x00000000        0x0 C:/Applications/Microchip/XC32/bin/bin/../../lib/gcc/pic32c/13.2.1/../../../../pic32c/lib/thumb/v6-m/nofp\libc-musl.a(snprintf.o)
 .bss           0x00000000        0x0 C:/Applications/Microchip/XC32/bin/bin/../../lib/gcc/pic32c/13.2.1/../../../../pic32c/lib/thumb/v6-m/nofp\libc-musl.a(snprintf.o)
 .xc_stack_usage
                0x00000000       0x16 C:/Applications/Microchip/XC32/bin/bin/../../lib/gcc/pic32c/13.2.1/../../../../pic32c/lib/thumb/v6-m/nofp\libc-musl.a(snprintf.o)
 .text.snprintf
                0x00000000       0x16 C:/Applications/Microchip/XC32/bin/bin/../../lib/gcc/pic32c/13.2.1/../../../../pic32c/lib/thumb/v6-m/nofp\libc-musl.a(snprintf.o)
 .xc_stack_usage.hdr
                0x00000000        0xe C:/Applications/Microchip/XC32/bin/bin/../../lib/gcc/pic32c/13.2.1/../../../../pic32c/lib/thumb/v6-m/nofp\libc-musl.a(snprintf.o)
 .debug_info    0x00000000      0x170 C:/Applications/Microchip/XC32/bin/bin/../../lib/gcc/pic32c/13.2.1/../../../../pic32c/lib/thumb/v6-m/nofp\libc-musl.a(snprintf.o)
 .debug_abbrev  0x00000000      0x10e C:/Applications/Microchip/XC32/bin/bin/../../lib/gcc/pic32c/13.2.1/../../../../pic32c/lib/thumb/v6-m/nofp\libc-musl.a(snprintf.o)
 .debug_loc     0x00000000       0x97 C:/Applications/Microchip/XC32/bin/bin/../../lib/gcc/pic32c/13.2.1/../../../../pic32c/lib/thumb/v6-m/nofp\libc-musl.a(snprintf.o)
 .debug_aranges
                0x00000000       0x20 C:/Applications/Microchip/XC32/bin/bin/../../lib/gcc/pic32c/13.2.1/../../../../pic32c/lib/thumb/v6-m/nofp\libc-musl.a(snprintf.o)
 .debug_ranges  0x00000000       0x10 C:/Applications/Microchip/XC32/bin/bin/../../lib/gcc/pic32c/13.2.1/../../../../pic32c/lib/thumb/v6-m/nofp\libc-musl.a(snprintf.o)
 .debug_line    0x00000000      0x154 C:/Applications/Microchip/XC32/bin/bin/../../lib/gcc/pic32c/13.2.1/../../../../pic32c/lib/thumb/v6-m/nofp\libc-musl.a(snprintf.o)
 .debug_str     0x00000000      0x26c C:/Applications/Microchip/XC32/bin/bin/../../lib/gcc/pic32c/13.2.1/../../../../pic32c/lib/thumb/v6-m/nofp\libc-musl.a(snprintf.o)
 .comment       0x00000000       0x36 C:/Applications/Microchip/XC32/bin/bin/../../lib/gcc/pic32c/13.2.1/../../../../pic32c/lib/thumb/v6-m/nofp\libc-musl.a(snprintf.o)
 .note.GNU-stack
                0x00000000        0x0 C:/Applications/Microchip/XC32/bin/bin/../../lib/gcc/pic32c/13.2.1/../../../../pic32c/lib/thumb/v6-m/nofp\libc-musl.a(snprintf.o)
 .debug_frame   0x00000000       0x30 C:/Applications/Microchip/XC32/bin/bin/../../lib/gcc/pic32c/13.2.1/../../../../pic32c/lib/thumb/v6-m/nofp\libc-musl.a(snprintf.o)
 .ARM.attributes
                0x00000000       0x2e C:/Applications/Microchip/XC32/bin/bin/../../lib/gcc/pic32c/13.2.1/../../../../pic32c/lib/thumb/v6-m/nofp\libc-musl.a(snprintf.o)
 .text          0x00000000        0x0 C:/Applications/Microchip/XC32/bin/bin/../../lib/gcc/pic32c/13.2.1/../../../../pic32c/lib/thumb/v6-m/nofp\libc-musl.a(sprintf.o)
 .data          0x00000000        0x0 C:/Applications/Microchip/XC32/bin/bin/../../lib/gcc/pic32c/13.2.1/../../../../pic32c/lib/thumb/v6-m/nofp\libc-musl.a(sprintf.o)
 .bss           0x00000000        0x0 C:/Applications/Microchip/XC32/bin/bin/../../lib/gcc/pic32c/13.2.1/../../../../pic32c/lib/thumb/v6-m/nofp\libc-musl.a(sprintf.o)
 .xc_stack_usage
                0x00000000       0x15 C:/Applications/Microchip/XC32/bin/bin/../../lib/gcc/pic32c/13.2.1/../../../../pic32c/lib/thumb/v6-m/nofp\libc-musl.a(sprintf.o)
 .xc_stack_usage.hdr
                0x00000000        0xe C:/Applications/Microchip/XC32/bin/bin/../../lib/gcc/pic32c/13.2.1/../../../../pic32c/lib/thumb/v6-m/nofp\libc-musl.a(sprintf.o)
 .text          0x00000000        0x0 C:/Applications/Microchip/XC32/bin/bin/../../lib/gcc/pic32c/13.2.1/../../../../pic32c/lib/thumb/v6-m/nofp\libc-musl.a(vsprintf.o)
 .data          0x00000000        0x0 C:/Applications/Microchip/XC32/bin/bin/../../lib/gcc/pic32c/13.2.1/../../../../pic32c/lib/thumb/v6-m/nofp\libc-musl.a(vsprintf.o)
 .bss           0x00000000        0x0 C:/Applications/Microchip/XC32/bin/bin/../../lib/gcc/pic32c/13.2.1/../../../../pic32c/lib/thumb/v6-m/nofp\libc-musl.a(vsprintf.o)
 .xc_stack_usage
                0x00000000       0x16 C:/Applications/Microchip/XC32/bin/bin/../../lib/gcc/pic32c/13.2.1/../../../../pic32c/lib/thumb/v6-m/nofp\libc-musl.a(vsprintf.o)
 .xc_stack_usage.hdr
                0x00000000        0xe C:/Applications/Microchip/XC32/bin/bin/../../lib/gcc/pic32c/13.2.1/../../../../pic32c/lib/thumb/v6-m/nofp\libc-musl.a(vsprintf.o)
 .text          0x00000000        0x0 C:/Applications/Microchip/XC32/bin/bin/../../lib/gcc/pic32c/13.2.1/../../../../pic32c/lib/thumb/v6-m/nofp\libc-musl.a(strtol.o)
 .data          0x00000000        0x0 C:/Applications/Microchip/XC32/bin/bin/../../lib/gcc/pic32c/13.2.1/../../../../pic32c/lib/thumb/v6-m/nofp\libc-musl.a(strtol.o)
 .bss           0x00000000        0x0 C:/Applications/Microchip/XC32/bin/bin/../../lib/gcc/pic32c/13.2.1/../../../../pic32c/lib/thumb/v6-m/nofp\libc-musl.a(strtol.o)
 .xc_stack_usage
                0x00000000       0x96 C:/Applications/Microchip/XC32/bin/bin/../../lib/gcc/pic32c/13.2.1/../../../../pic32c/lib/thumb/v6-m/nofp\libc-musl.a(strtol.o)
 .text.strtox   0x00000000       0x58 C:/Applications/Microchip/XC32/bin/bin/../../lib/gcc/pic32c/13.2.1/../../../../pic32c/lib/thumb/v6-m/nofp\libc-musl.a(strtol.o)
 .text.strtoull
                0x00000000       0x14 C:/Applications/Microchip/XC32/bin/bin/../../lib/gcc/pic32c/13.2.1/../../../../pic32c/lib/thumb/v6-m/nofp\libc-musl.a(strtol.o)
 .text.strtoll  0x00000000       0x14 C:/Applications/Microchip/XC32/bin/bin/../../lib/gcc/pic32c/13.2.1/../../../../pic32c/lib/thumb/v6-m/nofp\libc-musl.a(strtol.o)
 .text.strtoul  0x00000000       0x12 C:/Applications/Microchip/XC32/bin/bin/../../lib/gcc/pic32c/13.2.1/../../../../pic32c/lib/thumb/v6-m/nofp\libc-musl.a(strtol.o)
 .text.strtol   0x00000000       0x12 C:/Applications/Microchip/XC32/bin/bin/../../lib/gcc/pic32c/13.2.1/../../../../pic32c/lib/thumb/v6-m/nofp\libc-musl.a(strtol.o)
 .text.strtoimax
                0x00000000        0x8 C:/Applications/Microchip/XC32/bin/bin/../../lib/gcc/pic32c/13.2.1/../../../../pic32c/lib/thumb/v6-m/nofp\libc-musl.a(strtol.o)
 .text.strtoumax
                0x00000000        0x8 C:/Applications/Microchip/XC32/bin/bin/../../lib/gcc/pic32c/13.2.1/../../../../pic32c/lib/thumb/v6-m/nofp\libc-musl.a(strtol.o)
 .xc_stack_usage.hdr
                0x00000000        0xe C:/Applications/Microchip/XC32/bin/bin/../../lib/gcc/pic32c/13.2.1/../../../../pic32c/lib/thumb/v6-m/nofp\libc-musl.a(strtol.o)
 .debug_info    0x00000000      0x7b0 C:/Applications/Microchip/XC32/bin/bin/../../lib/gcc/pic32c/13.2.1/../../../../pic32c/lib/thumb/v6-m/nofp\libc-musl.a(strtol.o)
 .debug_abbrev  0x00000000      0x1b9 C:/Applications/Microchip/XC32/bin/bin/../../lib/gcc/pic32c/13.2.1/../../../../pic32c/lib/thumb/v6-m/nofp\libc-musl.a(strtol.o)
 .debug_loc     0x00000000      0x509 C:/Applications/Microchip/XC32/bin/bin/../../lib/gcc/pic32c/13.2.1/../../../../pic32c/lib/thumb/v6-m/nofp\libc-musl.a(strtol.o)
 .debug_aranges
                0x00000000       0x50 C:/Applications/Microchip/XC32/bin/bin/../../lib/gcc/pic32c/13.2.1/../../../../pic32c/lib/thumb/v6-m/nofp\libc-musl.a(strtol.o)
 .debug_ranges  0x00000000       0x40 C:/Applications/Microchip/XC32/bin/bin/../../lib/gcc/pic32c/13.2.1/../../../../pic32c/lib/thumb/v6-m/nofp\libc-musl.a(strtol.o)
 .debug_line    0x00000000      0x2d6 C:/Applications/Microchip/XC32/bin/bin/../../lib/gcc/pic32c/13.2.1/../../../../pic32c/lib/thumb/v6-m/nofp\libc-musl.a(strtol.o)
 .debug_str     0x00000000      0x3a3 C:/Applications/Microchip/XC32/bin/bin/../../lib/gcc/pic32c/13.2.1/../../../../pic32c/lib/thumb/v6-m/nofp\libc-musl.a(strtol.o)
 .comment       0x00000000       0x36 C:/Applications/Microchip/XC32/bin/bin/../../lib/gcc/pic32c/13.2.1/../../../../pic32c/lib/thumb/v6-m/nofp\libc-musl.a(strtol.o)
 .note.GNU-stack
                0x00000000        0x0 C:/Applications/Microchip/XC32/bin/bin/../../lib/gcc/pic32c/13.2.1/../../../../pic32c/lib/thumb/v6-m/nofp\libc-musl.a(strtol.o)
 .debug_frame   0x00000000       0xe0 C:/Applications/Microchip/XC32/bin/bin/../../lib/gcc/pic32c/13.2.1/../../../../pic32c/lib/thumb/v6-m/nofp\libc-musl.a(strtol.o)
 .ARM.attributes
                0x00000000       0x2e C:/Applications/Microchip/XC32/bin/bin/../../lib/gcc/pic32c/13.2.1/../../../../pic32c/lib/thumb/v6-m/nofp\libc-musl.a(strtol.o)
 .text          0x00000000        0x0 C:/Applications/Microchip/XC32/bin/bin/../../lib/gcc/pic32c/13.2.1/../../../../pic32c/lib/thumb/v6-m/nofp\libc-musl.a(gmtime.o)
 .data          0x00000000        0x0 C:/Applications/Microchip/XC32/bin/bin/../../lib/gcc/pic32c/13.2.1/../../../../pic32c/lib/thumb/v6-m/nofp\libc-musl.a(gmtime.o)
 .bss           0x00000000       0x2c C:/Applications/Microchip/XC32/bin/bin/../../lib/gcc/pic32c/13.2.1/../../../../pic32c/lib/thumb/v6-m/nofp\libc-musl.a(gmtime.o)
 .xc_stack_usage
                0x00000000       0x14 C:/Applications/Microchip/XC32/bin/bin/../../lib/gcc/pic32c/13.2.1/../../../../pic32c/lib/thumb/v6-m/nofp\libc-musl.a(gmtime.o)
 .text.gmtime   0x00000000       0x10 C:/Applications/Microchip/XC32/bin/bin/../../lib/gcc/pic32c/13.2.1/../../../../pic32c/lib/thumb/v6-m/nofp\libc-musl.a(gmtime.o)
 .xc_stack_usage.hdr
                0x00000000        0xe C:/Applications/Microchip/XC32/bin/bin/../../lib/gcc/pic32c/13.2.1/../../../../pic32c/lib/thumb/v6-m/nofp\libc-musl.a(gmtime.o)
 .debug_info    0x00000000      0x1b2 C:/Applications/Microchip/XC32/bin/bin/../../lib/gcc/pic32c/13.2.1/../../../../pic32c/lib/thumb/v6-m/nofp\libc-musl.a(gmtime.o)
 .debug_abbrev  0x00000000       0xe3 C:/Applications/Microchip/XC32/bin/bin/../../lib/gcc/pic32c/13.2.1/../../../../pic32c/lib/thumb/v6-m/nofp\libc-musl.a(gmtime.o)
 .debug_loc     0x00000000       0x4b C:/Applications/Microchip/XC32/bin/bin/../../lib/gcc/pic32c/13.2.1/../../../../pic32c/lib/thumb/v6-m/nofp\libc-musl.a(gmtime.o)
 .debug_aranges
                0x00000000       0x20 C:/Applications/Microchip/XC32/bin/bin/../../lib/gcc/pic32c/13.2.1/../../../../pic32c/lib/thumb/v6-m/nofp\libc-musl.a(gmtime.o)
 .debug_ranges  0x00000000       0x10 C:/Applications/Microchip/XC32/bin/bin/../../lib/gcc/pic32c/13.2.1/../../../../pic32c/lib/thumb/v6-m/nofp\libc-musl.a(gmtime.o)
 .debug_line    0x00000000      0x134 C:/Applications/Microchip/XC32/bin/bin/../../lib/gcc/pic32c/13.2.1/../../../../pic32c/lib/thumb/v6-m/nofp\libc-musl.a(gmtime.o)
 .debug_str     0x00000000      0x2b0 C:/Applications/Microchip/XC32/bin/bin/../../lib/gcc/pic32c/13.2.1/../../../../pic32c/lib/thumb/v6-m/nofp\libc-musl.a(gmtime.o)
 .comment       0x00000000       0x36 C:/Applications/Microchip/XC32/bin/bin/../../lib/gcc/pic32c/13.2.1/../../../../pic32c/lib/thumb/v6-m/nofp\libc-musl.a(gmtime.o)
 .note.GNU-stack
                0x00000000        0x0 C:/Applications/Microchip/XC32/bin/bin/../../lib/gcc/pic32c/13.2.1/../../../../pic32c/lib/thumb/v6-m/nofp\libc-musl.a(gmtime.o)
 .debug_frame   0x00000000       0x28 C:/Applications/Microchip/XC32/bin/bin/../../lib/gcc/pic32c/13.2.1/../../../../pic32c/lib/thumb/v6-m/nofp\libc-musl.a(gmtime.o)
 .ARM.attributes
                0x00000000       0x2e C:/Applications/Microchip/XC32/bin/bin/../../lib/gcc/pic32c/13.2.1/../../../../pic32c/lib/thumb/v6-m/nofp\libc-musl.a(gmtime.o)
 .text          0x00000000        0x0 C:/Applications/Microchip/XC32/bin/bin/../../lib/gcc/pic32c/13.2.1/../../../../pic32c/lib/thumb/v6-m/nofp\libc-musl.a(gmtime_r.o)
 .data          0x00000000        0x0 C:/Applications/Microchip/XC32/bin/bin/../../lib/gcc/pic32c/13.2.1/../../../../pic32c/lib/thumb/v6-m/nofp\libc-musl.a(gmtime_r.o)
 .bss           0x00000000        0x0 C:/Applications/Microchip/XC32/bin/bin/../../lib/gcc/pic32c/13.2.1/../../../../pic32c/lib/thumb/v6-m/nofp\libc-musl.a(gmtime_r.o)
 .rodata.str1.1
                0x00000000        0x4 C:/Applications/Microchip/XC32/bin/bin/../../lib/gcc/pic32c/13.2.1/../../../../pic32c/lib/thumb/v6-m/nofp\libc-musl.a(gmtime_r.o)
 .xc_stack_usage
                0x00000000       0x18 C:/Applications/Microchip/XC32/bin/bin/../../lib/gcc/pic32c/13.2.1/../../../../pic32c/lib/thumb/v6-m/nofp\libc-musl.a(gmtime_r.o)
 .text.__gmtime_r
                0x00000000       0x34 C:/Applications/Microchip/XC32/bin/bin/../../lib/gcc/pic32c/13.2.1/../../../../pic32c/lib/thumb/v6-m/nofp\libc-musl.a(gmtime_r.o)
 .xc_stack_usage.hdr
                0x00000000        0xe C:/Applications/Microchip/XC32/bin/bin/../../lib/gcc/pic32c/13.2.1/../../../../pic32c/lib/thumb/v6-m/nofp\libc-musl.a(gmtime_r.o)
 .debug_info    0x00000000      0x1bd C:/Applications/Microchip/XC32/bin/bin/../../lib/gcc/pic32c/13.2.1/../../../../pic32c/lib/thumb/v6-m/nofp\libc-musl.a(gmtime_r.o)
 .debug_abbrev  0x00000000       0xe7 C:/Applications/Microchip/XC32/bin/bin/../../lib/gcc/pic32c/13.2.1/../../../../pic32c/lib/thumb/v6-m/nofp\libc-musl.a(gmtime_r.o)
 .debug_loc     0x00000000       0x9d C:/Applications/Microchip/XC32/bin/bin/../../lib/gcc/pic32c/13.2.1/../../../../pic32c/lib/thumb/v6-m/nofp\libc-musl.a(gmtime_r.o)
 .debug_aranges
                0x00000000       0x20 C:/Applications/Microchip/XC32/bin/bin/../../lib/gcc/pic32c/13.2.1/../../../../pic32c/lib/thumb/v6-m/nofp\libc-musl.a(gmtime_r.o)
 .debug_ranges  0x00000000       0x10 C:/Applications/Microchip/XC32/bin/bin/../../lib/gcc/pic32c/13.2.1/../../../../pic32c/lib/thumb/v6-m/nofp\libc-musl.a(gmtime_r.o)
 .debug_line    0x00000000      0x264 C:/Applications/Microchip/XC32/bin/bin/../../lib/gcc/pic32c/13.2.1/../../../../pic32c/lib/thumb/v6-m/nofp\libc-musl.a(gmtime_r.o)
 .debug_str     0x00000000      0x2d7 C:/Applications/Microchip/XC32/bin/bin/../../lib/gcc/pic32c/13.2.1/../../../../pic32c/lib/thumb/v6-m/nofp\libc-musl.a(gmtime_r.o)
 .comment       0x00000000       0x36 C:/Applications/Microchip/XC32/bin/bin/../../lib/gcc/pic32c/13.2.1/../../../../pic32c/lib/thumb/v6-m/nofp\libc-musl.a(gmtime_r.o)
 .note.GNU-stack
                0x00000000        0x0 C:/Applications/Microchip/XC32/bin/bin/../../lib/gcc/pic32c/13.2.1/../../../../pic32c/lib/thumb/v6-m/nofp\libc-musl.a(gmtime_r.o)
 .debug_frame   0x00000000       0x2c C:/Applications/Microchip/XC32/bin/bin/../../lib/gcc/pic32c/13.2.1/../../../../pic32c/lib/thumb/v6-m/nofp\libc-musl.a(gmtime_r.o)
 .ARM.attributes
                0x00000000       0x2e C:/Applications/Microchip/XC32/bin/bin/../../lib/gcc/pic32c/13.2.1/../../../../pic32c/lib/thumb/v6-m/nofp\libc-musl.a(gmtime_r.o)
 .text          0x00000000        0x0 C:/Applications/Microchip/XC32/bin/bin/../../lib/gcc/pic32c/13.2.1/../../../../pic32c/lib/thumb/v6-m/nofp\libc-musl.a(__environ.o)
 .data          0x00000000        0x0 C:/Applications/Microchip/XC32/bin/bin/../../lib/gcc/pic32c/13.2.1/../../../../pic32c/lib/thumb/v6-m/nofp\libc-musl.a(__environ.o)
 .xc_stack_usage.hdr
                0x00000000        0xe C:/Applications/Microchip/XC32/bin/bin/../../lib/gcc/pic32c/13.2.1/../../../../pic32c/lib/thumb/v6-m/nofp\libc-musl.a(__environ.o)
 .text          0x00000000        0x0 C:/Applications/Microchip/XC32/bin/bin/../../lib/gcc/pic32c/13.2.1/../../../../pic32c/lib/thumb/v6-m/nofp\libc-musl.a(intscan.o)
 .data          0x00000000        0x0 C:/Applications/Microchip/XC32/bin/bin/../../lib/gcc/pic32c/13.2.1/../../../../pic32c/lib/thumb/v6-m/nofp\libc-musl.a(intscan.o)
 .bss           0x00000000        0x0 C:/Applications/Microchip/XC32/bin/bin/../../lib/gcc/pic32c/13.2.1/../../../../pic32c/lib/thumb/v6-m/nofp\libc-musl.a(intscan.o)
 .xc_stack_usage
                0x00000000       0x17 C:/Applications/Microchip/XC32/bin/bin/../../lib/gcc/pic32c/13.2.1/../../../../pic32c/lib/thumb/v6-m/nofp\libc-musl.a(intscan.o)
 .text.__intscan
                0x00000000      0x450 C:/Applications/Microchip/XC32/bin/bin/../../lib/gcc/pic32c/13.2.1/../../../../pic32c/lib/thumb/v6-m/nofp\libc-musl.a(intscan.o)
 .rodata        0x00000000      0x10a C:/Applications/Microchip/XC32/bin/bin/../../lib/gcc/pic32c/13.2.1/../../../../pic32c/lib/thumb/v6-m/nofp\libc-musl.a(intscan.o)
 .xc_stack_usage.hdr
                0x00000000        0xe C:/Applications/Microchip/XC32/bin/bin/../../lib/gcc/pic32c/13.2.1/../../../../pic32c/lib/thumb/v6-m/nofp\libc-musl.a(intscan.o)
 .debug_info    0x00000000      0x600 C:/Applications/Microchip/XC32/bin/bin/../../lib/gcc/pic32c/13.2.1/../../../../pic32c/lib/thumb/v6-m/nofp\libc-musl.a(intscan.o)
 .debug_abbrev  0x00000000      0x229 C:/Applications/Microchip/XC32/bin/bin/../../lib/gcc/pic32c/13.2.1/../../../../pic32c/lib/thumb/v6-m/nofp\libc-musl.a(intscan.o)
 .debug_loc     0x00000000      0x885 C:/Applications/Microchip/XC32/bin/bin/../../lib/gcc/pic32c/13.2.1/../../../../pic32c/lib/thumb/v6-m/nofp\libc-musl.a(intscan.o)
 .debug_aranges
                0x00000000       0x20 C:/Applications/Microchip/XC32/bin/bin/../../lib/gcc/pic32c/13.2.1/../../../../pic32c/lib/thumb/v6-m/nofp\libc-musl.a(intscan.o)
 .debug_ranges  0x00000000       0x28 C:/Applications/Microchip/XC32/bin/bin/../../lib/gcc/pic32c/13.2.1/../../../../pic32c/lib/thumb/v6-m/nofp\libc-musl.a(intscan.o)
 .debug_line    0x00000000      0x6fd C:/Applications/Microchip/XC32/bin/bin/../../lib/gcc/pic32c/13.2.1/../../../../pic32c/lib/thumb/v6-m/nofp\libc-musl.a(intscan.o)
 .debug_str     0x00000000      0x3a4 C:/Applications/Microchip/XC32/bin/bin/../../lib/gcc/pic32c/13.2.1/../../../../pic32c/lib/thumb/v6-m/nofp\libc-musl.a(intscan.o)
 .comment       0x00000000       0x36 C:/Applications/Microchip/XC32/bin/bin/../../lib/gcc/pic32c/13.2.1/../../../../pic32c/lib/thumb/v6-m/nofp\libc-musl.a(intscan.o)
 .note.GNU-stack
                0x00000000        0x0 C:/Applications/Microchip/XC32/bin/bin/../../lib/gcc/pic32c/13.2.1/../../../../pic32c/lib/thumb/v6-m/nofp\libc-musl.a(intscan.o)
 .debug_frame   0x00000000       0x30 C:/Applications/Microchip/XC32/bin/bin/../../lib/gcc/pic32c/13.2.1/../../../../pic32c/lib/thumb/v6-m/nofp\libc-musl.a(intscan.o)
 .ARM.attributes
                0x00000000       0x2e C:/Applications/Microchip/XC32/bin/bin/../../lib/gcc/pic32c/13.2.1/../../../../pic32c/lib/thumb/v6-m/nofp\libc-musl.a(intscan.o)
 .text          0x00000000        0x0 C:/Applications/Microchip/XC32/bin/bin/../../lib/gcc/pic32c/13.2.1/../../../../pic32c/lib/thumb/v6-m/nofp\libc-musl.a(shgetc.o)
 .data          0x00000000        0x0 C:/Applications/Microchip/XC32/bin/bin/../../lib/gcc/pic32c/13.2.1/../../../../pic32c/lib/thumb/v6-m/nofp\libc-musl.a(shgetc.o)
 .bss           0x00000000        0x0 C:/Applications/Microchip/XC32/bin/bin/../../lib/gcc/pic32c/13.2.1/../../../../pic32c/lib/thumb/v6-m/nofp\libc-musl.a(shgetc.o)
 .xc_stack_usage
                0x00000000       0x2b C:/Applications/Microchip/XC32/bin/bin/../../lib/gcc/pic32c/13.2.1/../../../../pic32c/lib/thumb/v6-m/nofp\libc-musl.a(shgetc.o)
 .text.__shlim  0x00000000       0x1a C:/Applications/Microchip/XC32/bin/bin/../../lib/gcc/pic32c/13.2.1/../../../../pic32c/lib/thumb/v6-m/nofp\libc-musl.a(shgetc.o)
 .text.__shgetc
                0x00000000       0x5c C:/Applications/Microchip/XC32/bin/bin/../../lib/gcc/pic32c/13.2.1/../../../../pic32c/lib/thumb/v6-m/nofp\libc-musl.a(shgetc.o)
 .xc_stack_usage.hdr
                0x00000000        0xe C:/Applications/Microchip/XC32/bin/bin/../../lib/gcc/pic32c/13.2.1/../../../../pic32c/lib/thumb/v6-m/nofp\libc-musl.a(shgetc.o)
 .debug_info    0x00000000      0x3a3 C:/Applications/Microchip/XC32/bin/bin/../../lib/gcc/pic32c/13.2.1/../../../../pic32c/lib/thumb/v6-m/nofp\libc-musl.a(shgetc.o)
 .debug_abbrev  0x00000000      0x167 C:/Applications/Microchip/XC32/bin/bin/../../lib/gcc/pic32c/13.2.1/../../../../pic32c/lib/thumb/v6-m/nofp\libc-musl.a(shgetc.o)
 .debug_loc     0x00000000       0xa7 C:/Applications/Microchip/XC32/bin/bin/../../lib/gcc/pic32c/13.2.1/../../../../pic32c/lib/thumb/v6-m/nofp\libc-musl.a(shgetc.o)
 .debug_aranges
                0x00000000       0x28 C:/Applications/Microchip/XC32/bin/bin/../../lib/gcc/pic32c/13.2.1/../../../../pic32c/lib/thumb/v6-m/nofp\libc-musl.a(shgetc.o)
 .debug_ranges  0x00000000       0x18 C:/Applications/Microchip/XC32/bin/bin/../../lib/gcc/pic32c/13.2.1/../../../../pic32c/lib/thumb/v6-m/nofp\libc-musl.a(shgetc.o)
 .debug_line    0x00000000      0x23d C:/Applications/Microchip/XC32/bin/bin/../../lib/gcc/pic32c/13.2.1/../../../../pic32c/lib/thumb/v6-m/nofp\libc-musl.a(shgetc.o)
 .debug_str     0x00000000      0x354 C:/Applications/Microchip/XC32/bin/bin/../../lib/gcc/pic32c/13.2.1/../../../../pic32c/lib/thumb/v6-m/nofp\libc-musl.a(shgetc.o)
 .comment       0x00000000       0x36 C:/Applications/Microchip/XC32/bin/bin/../../lib/gcc/pic32c/13.2.1/../../../../pic32c/lib/thumb/v6-m/nofp\libc-musl.a(shgetc.o)
 .note.GNU-stack
                0x00000000        0x0 C:/Applications/Microchip/XC32/bin/bin/../../lib/gcc/pic32c/13.2.1/../../../../pic32c/lib/thumb/v6-m/nofp\libc-musl.a(shgetc.o)
 .debug_frame   0x00000000       0x44 C:/Applications/Microchip/XC32/bin/bin/../../lib/gcc/pic32c/13.2.1/../../../../pic32c/lib/thumb/v6-m/nofp\libc-musl.a(shgetc.o)
 .ARM.attributes
                0x00000000       0x2e C:/Applications/Microchip/XC32/bin/bin/../../lib/gcc/pic32c/13.2.1/../../../../pic32c/lib/thumb/v6-m/nofp\libc-musl.a(shgetc.o)
 .text          0x00000000        0x0 C:/Applications/Microchip/XC32/bin/bin/../../lib/gcc/pic32c/13.2.1/../../../../pic32c/lib/thumb/v6-m/nofp\libc-musl.a(__uflow.o)
 .data          0x00000000        0x0 C:/Applications/Microchip/XC32/bin/bin/../../lib/gcc/pic32c/13.2.1/../../../../pic32c/lib/thumb/v6-m/nofp\libc-musl.a(__uflow.o)
 .bss           0x00000000        0x0 C:/Applications/Microchip/XC32/bin/bin/../../lib/gcc/pic32c/13.2.1/../../../../pic32c/lib/thumb/v6-m/nofp\libc-musl.a(__uflow.o)
 .xc_stack_usage
                0x00000000       0x15 C:/Applications/Microchip/XC32/bin/bin/../../lib/gcc/pic32c/13.2.1/../../../../pic32c/lib/thumb/v6-m/nofp\libc-musl.a(__uflow.o)
 .text.__uflow  0x00000000       0x28 C:/Applications/Microchip/XC32/bin/bin/../../lib/gcc/pic32c/13.2.1/../../../../pic32c/lib/thumb/v6-m/nofp\libc-musl.a(__uflow.o)
 .xc_stack_usage.hdr
                0x00000000        0xe C:/Applications/Microchip/XC32/bin/bin/../../lib/gcc/pic32c/13.2.1/../../../../pic32c/lib/thumb/v6-m/nofp\libc-musl.a(__uflow.o)
 .debug_info    0x00000000      0x383 C:/Applications/Microchip/XC32/bin/bin/../../lib/gcc/pic32c/13.2.1/../../../../pic32c/lib/thumb/v6-m/nofp\libc-musl.a(__uflow.o)
 .debug_abbrev  0x00000000      0x142 C:/Applications/Microchip/XC32/bin/bin/../../lib/gcc/pic32c/13.2.1/../../../../pic32c/lib/thumb/v6-m/nofp\libc-musl.a(__uflow.o)
 .debug_loc     0x00000000       0x65 C:/Applications/Microchip/XC32/bin/bin/../../lib/gcc/pic32c/13.2.1/../../../../pic32c/lib/thumb/v6-m/nofp\libc-musl.a(__uflow.o)
 .debug_aranges
                0x00000000       0x20 C:/Applications/Microchip/XC32/bin/bin/../../lib/gcc/pic32c/13.2.1/../../../../pic32c/lib/thumb/v6-m/nofp\libc-musl.a(__uflow.o)
 .debug_ranges  0x00000000       0x10 C:/Applications/Microchip/XC32/bin/bin/../../lib/gcc/pic32c/13.2.1/../../../../pic32c/lib/thumb/v6-m/nofp\libc-musl.a(__uflow.o)
 .debug_line    0x00000000      0x1d4 C:/Applications/Microchip/XC32/bin/bin/../../lib/gcc/pic32c/13.2.1/../../../../pic32c/lib/thumb/v6-m/nofp\libc-musl.a(__uflow.o)
 .debug_str     0x00000000      0x34a C:/Applications/Microchip/XC32/bin/bin/../../lib/gcc/pic32c/13.2.1/../../../../pic32c/lib/thumb/v6-m/nofp\libc-musl.a(__uflow.o)
 .comment       0x00000000       0x36 C:/Applications/Microchip/XC32/bin/bin/../../lib/gcc/pic32c/13.2.1/../../../../pic32c/lib/thumb/v6-m/nofp\libc-musl.a(__uflow.o)
 .note.GNU-stack
                0x00000000        0x0 C:/Applications/Microchip/XC32/bin/bin/../../lib/gcc/pic32c/13.2.1/../../../../pic32c/lib/thumb/v6-m/nofp\libc-musl.a(__uflow.o)
 .debug_frame   0x00000000       0x30 C:/Applications/Microchip/XC32/bin/bin/../../lib/gcc/pic32c/13.2.1/../../../../pic32c/lib/thumb/v6-m/nofp\libc-musl.a(__uflow.o)
 .ARM.attributes
                0x00000000       0x2e C:/Applications/Microchip/XC32/bin/bin/../../lib/gcc/pic32c/13.2.1/../../../../pic32c/lib/thumb/v6-m/nofp\libc-musl.a(__uflow.o)
 .text          0x00000000        0x0 C:/Applications/Microchip/XC32/bin/bin/../../lib/gcc/pic32c/13.2.1/../../../../pic32c/lib/thumb/v6-m/nofp\libc-musl.a(vfprintf.o)
 .data          0x00000000        0x0 C:/Applications/Microchip/XC32/bin/bin/../../lib/gcc/pic32c/13.2.1/../../../../pic32c/lib/thumb/v6-m/nofp\libc-musl.a(vfprintf.o)
 .bss           0x00000000        0x0 C:/Applications/Microchip/XC32/bin/bin/../../lib/gcc/pic32c/13.2.1/../../../../pic32c/lib/thumb/v6-m/nofp\libc-musl.a(vfprintf.o)
 .xc_stack_usage
                0x00000000       0x38 C:/Applications/Microchip/XC32/bin/bin/../../lib/gcc/pic32c/13.2.1/../../../../pic32c/lib/thumb/v6-m/nofp\libc-musl.a(vfprintf.o)
 __xc_reference_data
                0x00000000        0x8 C:/Applications/Microchip/XC32/bin/bin/../../lib/gcc/pic32c/13.2.1/../../../../pic32c/lib/thumb/v6-m/nofp\libc-musl.a(vfprintf.o)
 .xc_stack_usage.hdr
                0x00000000        0xe C:/Applications/Microchip/XC32/bin/bin/../../lib/gcc/pic32c/13.2.1/../../../../pic32c/lib/thumb/v6-m/nofp\libc-musl.a(vfprintf.o)
 .text          0x00000000        0x0 C:/Applications/Microchip/XC32/bin/bin/../../lib/gcc/pic32c/13.2.1/../../../../pic32c/lib/thumb/v6-m/nofp\libc-musl.a(__secs_to_tm.o)
 .data          0x00000000        0x0 C:/Applications/Microchip/XC32/bin/bin/../../lib/gcc/pic32c/13.2.1/../../../../pic32c/lib/thumb/v6-m/nofp\libc-musl.a(__secs_to_tm.o)
 .bss           0x00000000        0x0 C:/Applications/Microchip/XC32/bin/bin/../../lib/gcc/pic32c/13.2.1/../../../../pic32c/lib/thumb/v6-m/nofp\libc-musl.a(__secs_to_tm.o)
 .xc_stack_usage
                0x00000000       0x1a C:/Applications/Microchip/XC32/bin/bin/../../lib/gcc/pic32c/13.2.1/../../../../pic32c/lib/thumb/v6-m/nofp\libc-musl.a(__secs_to_tm.o)
 .text.__secs_to_tm
                0x00000000      0x1cc C:/Applications/Microchip/XC32/bin/bin/../../lib/gcc/pic32c/13.2.1/../../../../pic32c/lib/thumb/v6-m/nofp\libc-musl.a(__secs_to_tm.o)
 .rodata        0x00000000        0xc C:/Applications/Microchip/XC32/bin/bin/../../lib/gcc/pic32c/13.2.1/../../../../pic32c/lib/thumb/v6-m/nofp\libc-musl.a(__secs_to_tm.o)
 .xc_stack_usage.hdr
                0x00000000        0xe C:/Applications/Microchip/XC32/bin/bin/../../lib/gcc/pic32c/13.2.1/../../../../pic32c/lib/thumb/v6-m/nofp\libc-musl.a(__secs_to_tm.o)
 .debug_info    0x00000000      0x324 C:/Applications/Microchip/XC32/bin/bin/../../lib/gcc/pic32c/13.2.1/../../../../pic32c/lib/thumb/v6-m/nofp\libc-musl.a(__secs_to_tm.o)
 .debug_abbrev  0x00000000       0xe0 C:/Applications/Microchip/XC32/bin/bin/../../lib/gcc/pic32c/13.2.1/../../../../pic32c/lib/thumb/v6-m/nofp\libc-musl.a(__secs_to_tm.o)
 .debug_loc     0x00000000      0x34c C:/Applications/Microchip/XC32/bin/bin/../../lib/gcc/pic32c/13.2.1/../../../../pic32c/lib/thumb/v6-m/nofp\libc-musl.a(__secs_to_tm.o)
 .debug_aranges
                0x00000000       0x20 C:/Applications/Microchip/XC32/bin/bin/../../lib/gcc/pic32c/13.2.1/../../../../pic32c/lib/thumb/v6-m/nofp\libc-musl.a(__secs_to_tm.o)
 .debug_ranges  0x00000000       0x10 C:/Applications/Microchip/XC32/bin/bin/../../lib/gcc/pic32c/13.2.1/../../../../pic32c/lib/thumb/v6-m/nofp\libc-musl.a(__secs_to_tm.o)
 .debug_line    0x00000000      0x36a C:/Applications/Microchip/XC32/bin/bin/../../lib/gcc/pic32c/13.2.1/../../../../pic32c/lib/thumb/v6-m/nofp\libc-musl.a(__secs_to_tm.o)
 .debug_str     0x00000000      0x360 C:/Applications/Microchip/XC32/bin/bin/../../lib/gcc/pic32c/13.2.1/../../../../pic32c/lib/thumb/v6-m/nofp\libc-musl.a(__secs_to_tm.o)
 .comment       0x00000000       0x36 C:/Applications/Microchip/XC32/bin/bin/../../lib/gcc/pic32c/13.2.1/../../../../pic32c/lib/thumb/v6-m/nofp\libc-musl.a(__secs_to_tm.o)
 .note.GNU-stack
                0x00000000        0x0 C:/Applications/Microchip/XC32/bin/bin/../../lib/gcc/pic32c/13.2.1/../../../../pic32c/lib/thumb/v6-m/nofp\libc-musl.a(__secs_to_tm.o)
 .debug_frame   0x00000000       0x30 C:/Applications/Microchip/XC32/bin/bin/../../lib/gcc/pic32c/13.2.1/../../../../pic32c/lib/thumb/v6-m/nofp\libc-musl.a(__secs_to_tm.o)
 .ARM.attributes
                0x00000000       0x2e C:/Applications/Microchip/XC32/bin/bin/../../lib/gcc/pic32c/13.2.1/../../../../pic32c/lib/thumb/v6-m/nofp\libc-musl.a(__secs_to_tm.o)
 .text          0x00000000        0x0 C:/Applications/Microchip/XC32/bin/bin/../../lib/gcc/pic32c/13.2.1/../../../../pic32c/lib/thumb/v6-m/nofp\libc-musl.a(__toread.o)
 .data          0x00000000        0x0 C:/Applications/Microchip/XC32/bin/bin/../../lib/gcc/pic32c/13.2.1/../../../../pic32c/lib/thumb/v6-m/nofp\libc-musl.a(__toread.o)
 .bss           0x00000000        0x0 C:/Applications/Microchip/XC32/bin/bin/../../lib/gcc/pic32c/13.2.1/../../../../pic32c/lib/thumb/v6-m/nofp\libc-musl.a(__toread.o)
 .xc_stack_usage
                0x00000000       0x3d C:/Applications/Microchip/XC32/bin/bin/../../lib/gcc/pic32c/13.2.1/../../../../pic32c/lib/thumb/v6-m/nofp\libc-musl.a(__toread.o)
 .text.__toread
                0x00000000       0x4c C:/Applications/Microchip/XC32/bin/bin/../../lib/gcc/pic32c/13.2.1/../../../../pic32c/lib/thumb/v6-m/nofp\libc-musl.a(__toread.o)
 .text.__toread_needs_stdio_exit
                0x00000000        0x8 C:/Applications/Microchip/XC32/bin/bin/../../lib/gcc/pic32c/13.2.1/../../../../pic32c/lib/thumb/v6-m/nofp\libc-musl.a(__toread.o)
 .xc_stack_usage.hdr
                0x00000000        0xe C:/Applications/Microchip/XC32/bin/bin/../../lib/gcc/pic32c/13.2.1/../../../../pic32c/lib/thumb/v6-m/nofp\libc-musl.a(__toread.o)
 .debug_info    0x00000000      0x377 C:/Applications/Microchip/XC32/bin/bin/../../lib/gcc/pic32c/13.2.1/../../../../pic32c/lib/thumb/v6-m/nofp\libc-musl.a(__toread.o)
 .debug_abbrev  0x00000000      0x145 C:/Applications/Microchip/XC32/bin/bin/../../lib/gcc/pic32c/13.2.1/../../../../pic32c/lib/thumb/v6-m/nofp\libc-musl.a(__toread.o)
 .debug_loc     0x00000000       0x85 C:/Applications/Microchip/XC32/bin/bin/../../lib/gcc/pic32c/13.2.1/../../../../pic32c/lib/thumb/v6-m/nofp\libc-musl.a(__toread.o)
 .debug_aranges
                0x00000000       0x28 C:/Applications/Microchip/XC32/bin/bin/../../lib/gcc/pic32c/13.2.1/../../../../pic32c/lib/thumb/v6-m/nofp\libc-musl.a(__toread.o)
 .debug_ranges  0x00000000       0x18 C:/Applications/Microchip/XC32/bin/bin/../../lib/gcc/pic32c/13.2.1/../../../../pic32c/lib/thumb/v6-m/nofp\libc-musl.a(__toread.o)
 .debug_line    0x00000000      0x231 C:/Applications/Microchip/XC32/bin/bin/../../lib/gcc/pic32c/13.2.1/../../../../pic32c/lib/thumb/v6-m/nofp\libc-musl.a(__toread.o)
 .debug_str     0x00000000      0x371 C:/Applications/Microchip/XC32/bin/bin/../../lib/gcc/pic32c/13.2.1/../../../../pic32c/lib/thumb/v6-m/nofp\libc-musl.a(__toread.o)
 .comment       0x00000000       0x36 C:/Applications/Microchip/XC32/bin/bin/../../lib/gcc/pic32c/13.2.1/../../../../pic32c/lib/thumb/v6-m/nofp\libc-musl.a(__toread.o)
 .note.GNU-stack
                0x00000000        0x0 C:/Applications/Microchip/XC32/bin/bin/../../lib/gcc/pic32c/13.2.1/../../../../pic32c/lib/thumb/v6-m/nofp\libc-musl.a(__toread.o)
 .debug_frame   0x00000000       0x40 C:/Applications/Microchip/XC32/bin/bin/../../lib/gcc/pic32c/13.2.1/../../../../pic32c/lib/thumb/v6-m/nofp\libc-musl.a(__toread.o)
 .ARM.attributes
                0x00000000       0x2e C:/Applications/Microchip/XC32/bin/bin/../../lib/gcc/pic32c/13.2.1/../../../../pic32c/lib/thumb/v6-m/nofp\libc-musl.a(__toread.o)
 .text          0x00000000        0x0 C:/Applications/Microchip/XC32/bin/bin/../../lib/gcc/pic32c/13.2.1/../../../../pic32c/lib/thumb/v6-m/nofp\libc-musl.a(__io_fmt_needed.o)
 .data          0x00000000        0x0 C:/Applications/Microchip/XC32/bin/bin/../../lib/gcc/pic32c/13.2.1/../../../../pic32c/lib/thumb/v6-m/nofp\libc-musl.a(__io_fmt_needed.o)
 .bss           0x00000000        0x0 C:/Applications/Microchip/XC32/bin/bin/../../lib/gcc/pic32c/13.2.1/../../../../pic32c/lib/thumb/v6-m/nofp\libc-musl.a(__io_fmt_needed.o)
 .xc_stack_usage
                0x00000000       0x1d C:/Applications/Microchip/XC32/bin/bin/../../lib/gcc/pic32c/13.2.1/../../../../pic32c/lib/thumb/v6-m/nofp\libc-musl.a(__io_fmt_needed.o)
 __xc_reference_data
                0x00000000       0x54 C:/Applications/Microchip/XC32/bin/bin/../../lib/gcc/pic32c/13.2.1/../../../../pic32c/lib/thumb/v6-m/nofp\libc-musl.a(__io_fmt_needed.o)
 .xc_stack_usage.hdr
                0x00000000        0xe C:/Applications/Microchip/XC32/bin/bin/../../lib/gcc/pic32c/13.2.1/../../../../pic32c/lib/thumb/v6-m/nofp\libc-musl.a(__io_fmt_needed.o)
 .debug_info    0x00000000      0x197 C:/Applications/Microchip/XC32/bin/bin/../../lib/gcc/pic32c/13.2.1/../../../../pic32c/lib/thumb/v6-m/nofp\libc-musl.a(__io_fmt_needed.o)
 .debug_abbrev  0x00000000       0x69 C:/Applications/Microchip/XC32/bin/bin/../../lib/gcc/pic32c/13.2.1/../../../../pic32c/lib/thumb/v6-m/nofp\libc-musl.a(__io_fmt_needed.o)
 .debug_loc     0x00000000       0x20 C:/Applications/Microchip/XC32/bin/bin/../../lib/gcc/pic32c/13.2.1/../../../../pic32c/lib/thumb/v6-m/nofp\libc-musl.a(__io_fmt_needed.o)
 .debug_aranges
                0x00000000       0x20 C:/Applications/Microchip/XC32/bin/bin/../../lib/gcc/pic32c/13.2.1/../../../../pic32c/lib/thumb/v6-m/nofp\libc-musl.a(__io_fmt_needed.o)
 .debug_ranges  0x00000000       0x10 C:/Applications/Microchip/XC32/bin/bin/../../lib/gcc/pic32c/13.2.1/../../../../pic32c/lib/thumb/v6-m/nofp\libc-musl.a(__io_fmt_needed.o)
 .debug_line    0x00000000       0x99 C:/Applications/Microchip/XC32/bin/bin/../../lib/gcc/pic32c/13.2.1/../../../../pic32c/lib/thumb/v6-m/nofp\libc-musl.a(__io_fmt_needed.o)
 .debug_str     0x00000000      0x349 C:/Applications/Microchip/XC32/bin/bin/../../lib/gcc/pic32c/13.2.1/../../../../pic32c/lib/thumb/v6-m/nofp\libc-musl.a(__io_fmt_needed.o)
 .comment       0x00000000       0x36 C:/Applications/Microchip/XC32/bin/bin/../../lib/gcc/pic32c/13.2.1/../../../../pic32c/lib/thumb/v6-m/nofp\libc-musl.a(__io_fmt_needed.o)
 .note.GNU-stack
                0x00000000        0x0 C:/Applications/Microchip/XC32/bin/bin/../../lib/gcc/pic32c/13.2.1/../../../../pic32c/lib/thumb/v6-m/nofp\libc-musl.a(__io_fmt_needed.o)
 .debug_frame   0x00000000       0x28 C:/Applications/Microchip/XC32/bin/bin/../../lib/gcc/pic32c/13.2.1/../../../../pic32c/lib/thumb/v6-m/nofp\libc-musl.a(__io_fmt_needed.o)
 .ARM.attributes
                0x00000000       0x2e C:/Applications/Microchip/XC32/bin/bin/../../lib/gcc/pic32c/13.2.1/../../../../pic32c/lib/thumb/v6-m/nofp\libc-musl.a(__io_fmt_needed.o)
 .text          0x00000000        0x0 C:/Applications/Microchip/XC32/bin/bin/../../lib/gcc/pic32c/13.2.1/../../../../pic32c/lib/thumb/v6-m/nofp\libc-musl.a(__pop_float.o)
 .data          0x00000000        0x0 C:/Applications/Microchip/XC32/bin/bin/../../lib/gcc/pic32c/13.2.1/../../../../pic32c/lib/thumb/v6-m/nofp\libc-musl.a(__pop_float.o)
 .bss           0x00000000        0x0 C:/Applications/Microchip/XC32/bin/bin/../../lib/gcc/pic32c/13.2.1/../../../../pic32c/lib/thumb/v6-m/nofp\libc-musl.a(__pop_float.o)
 .xc_stack_usage
                0x00000000       0x19 C:/Applications/Microchip/XC32/bin/bin/../../lib/gcc/pic32c/13.2.1/../../../../pic32c/lib/thumb/v6-m/nofp\libc-musl.a(__pop_float.o)
 .xc_stack_usage.hdr
                0x00000000        0xe C:/Applications/Microchip/XC32/bin/bin/../../lib/gcc/pic32c/13.2.1/../../../../pic32c/lib/thumb/v6-m/nofp\libc-musl.a(__pop_float.o)
 .text          0x00000000        0x0 C:/Applications/Microchip/XC32/bin/bin/../../lib/gcc/pic32c/13.2.1/../../../../pic32c/lib/thumb/v6-m/nofp\libc-musl.a(__pop_int.o)
 .data          0x00000000        0x0 C:/Applications/Microchip/XC32/bin/bin/../../lib/gcc/pic32c/13.2.1/../../../../pic32c/lib/thumb/v6-m/nofp\libc-musl.a(__pop_int.o)
 .bss           0x00000000        0x0 C:/Applications/Microchip/XC32/bin/bin/../../lib/gcc/pic32c/13.2.1/../../../../pic32c/lib/thumb/v6-m/nofp\libc-musl.a(__pop_int.o)
 .xc_stack_usage
                0x00000000       0x17 C:/Applications/Microchip/XC32/bin/bin/../../lib/gcc/pic32c/13.2.1/../../../../pic32c/lib/thumb/v6-m/nofp\libc-musl.a(__pop_int.o)
 .xc_stack_usage.hdr
                0x00000000        0xe C:/Applications/Microchip/XC32/bin/bin/../../lib/gcc/pic32c/13.2.1/../../../../pic32c/lib/thumb/v6-m/nofp\libc-musl.a(__pop_int.o)
 .text          0x00000000        0x0 C:/Applications/Microchip/XC32/bin/bin/../../lib/gcc/pic32c/13.2.1/../../../../pic32c/lib/thumb/v6-m/nofp\libc-musl.a(__pop_ptr.o)
 .data          0x00000000        0x0 C:/Applications/Microchip/XC32/bin/bin/../../lib/gcc/pic32c/13.2.1/../../../../pic32c/lib/thumb/v6-m/nofp\libc-musl.a(__pop_ptr.o)
 .bss           0x00000000        0x0 C:/Applications/Microchip/XC32/bin/bin/../../lib/gcc/pic32c/13.2.1/../../../../pic32c/lib/thumb/v6-m/nofp\libc-musl.a(__pop_ptr.o)
 .xc_stack_usage
                0x00000000       0x17 C:/Applications/Microchip/XC32/bin/bin/../../lib/gcc/pic32c/13.2.1/../../../../pic32c/lib/thumb/v6-m/nofp\libc-musl.a(__pop_ptr.o)
 .xc_stack_usage.hdr
                0x00000000        0xe C:/Applications/Microchip/XC32/bin/bin/../../lib/gcc/pic32c/13.2.1/../../../../pic32c/lib/thumb/v6-m/nofp\libc-musl.a(__pop_ptr.o)
 .text          0x00000000        0x0 C:/Applications/Microchip/XC32/bin/bin/../../lib/gcc/pic32c/13.2.1/../../../../pic32c/lib/thumb/v6-m/nofp\libc-musl.a(__printf_core.o)
 .data          0x00000000        0x0 C:/Applications/Microchip/XC32/bin/bin/../../lib/gcc/pic32c/13.2.1/../../../../pic32c/lib/thumb/v6-m/nofp\libc-musl.a(__printf_core.o)
 .bss           0x00000000        0x0 C:/Applications/Microchip/XC32/bin/bin/../../lib/gcc/pic32c/13.2.1/../../../../pic32c/lib/thumb/v6-m/nofp\libc-musl.a(__printf_core.o)
 .xc_stack_usage
                0x00000000       0xaf C:/Applications/Microchip/XC32/bin/bin/../../lib/gcc/pic32c/13.2.1/../../../../pic32c/lib/thumb/v6-m/nofp\libc-musl.a(__printf_core.o)
 .text.__dummy_fmt3
                0x00000000        0x4 C:/Applications/Microchip/XC32/bin/bin/../../lib/gcc/pic32c/13.2.1/../../../../pic32c/lib/thumb/v6-m/nofp\libc-musl.a(__printf_core.o)
 .text.__dummy_fmt4
                0x00000000        0x4 C:/Applications/Microchip/XC32/bin/bin/../../lib/gcc/pic32c/13.2.1/../../../../pic32c/lib/thumb/v6-m/nofp\libc-musl.a(__printf_core.o)
 .text.__dummy_fmts
                0x00000000        0x4 C:/Applications/Microchip/XC32/bin/bin/../../lib/gcc/pic32c/13.2.1/../../../../pic32c/lib/thumb/v6-m/nofp\libc-musl.a(__printf_core.o)
 .xc_stack_usage.hdr
                0x00000000        0xe C:/Applications/Microchip/XC32/bin/bin/../../lib/gcc/pic32c/13.2.1/../../../../pic32c/lib/thumb/v6-m/nofp\libc-musl.a(__printf_core.o)
 .text          0x00000000        0x0 C:/Applications/Microchip/XC32/bin/bin/../../lib/gcc/pic32c/13.2.1/../../../../pic32c/lib/thumb/v6-m/nofp\libc-musl.a(__stdio_exit.o)
 .data          0x00000000        0x0 C:/Applications/Microchip/XC32/bin/bin/../../lib/gcc/pic32c/13.2.1/../../../../pic32c/lib/thumb/v6-m/nofp\libc-musl.a(__stdio_exit.o)
 .bss           0x00000000        0x4 C:/Applications/Microchip/XC32/bin/bin/../../lib/gcc/pic32c/13.2.1/../../../../pic32c/lib/thumb/v6-m/nofp\libc-musl.a(__stdio_exit.o)
 .xc_stack_usage
                0x00000000       0x45 C:/Applications/Microchip/XC32/bin/bin/../../lib/gcc/pic32c/13.2.1/../../../../pic32c/lib/thumb/v6-m/nofp\libc-musl.a(__stdio_exit.o)
 .text.__dummy  0x00000000        0x2 C:/Applications/Microchip/XC32/bin/bin/../../lib/gcc/pic32c/13.2.1/../../../../pic32c/lib/thumb/v6-m/nofp\libc-musl.a(__stdio_exit.o)
 .text.__dummy1
                0x00000000        0x4 C:/Applications/Microchip/XC32/bin/bin/../../lib/gcc/pic32c/13.2.1/../../../../pic32c/lib/thumb/v6-m/nofp\libc-musl.a(__stdio_exit.o)
 .text.__stdio_exit
                0x00000000       0x34 C:/Applications/Microchip/XC32/bin/bin/../../lib/gcc/pic32c/13.2.1/../../../../pic32c/lib/thumb/v6-m/nofp\libc-musl.a(__stdio_exit.o)
 .xc_stack_usage.hdr
                0x00000000        0xe C:/Applications/Microchip/XC32/bin/bin/../../lib/gcc/pic32c/13.2.1/../../../../pic32c/lib/thumb/v6-m/nofp\libc-musl.a(__stdio_exit.o)
 .debug_info    0x00000000      0x2dd C:/Applications/Microchip/XC32/bin/bin/../../lib/gcc/pic32c/13.2.1/../../../../pic32c/lib/thumb/v6-m/nofp\libc-musl.a(__stdio_exit.o)
 .debug_abbrev  0x00000000      0x173 C:/Applications/Microchip/XC32/bin/bin/../../lib/gcc/pic32c/13.2.1/../../../../pic32c/lib/thumb/v6-m/nofp\libc-musl.a(__stdio_exit.o)
 .debug_loc     0x00000000       0x4b C:/Applications/Microchip/XC32/bin/bin/../../lib/gcc/pic32c/13.2.1/../../../../pic32c/lib/thumb/v6-m/nofp\libc-musl.a(__stdio_exit.o)
 .debug_aranges
                0x00000000       0x30 C:/Applications/Microchip/XC32/bin/bin/../../lib/gcc/pic32c/13.2.1/../../../../pic32c/lib/thumb/v6-m/nofp\libc-musl.a(__stdio_exit.o)
 .debug_ranges  0x00000000       0x20 C:/Applications/Microchip/XC32/bin/bin/../../lib/gcc/pic32c/13.2.1/../../../../pic32c/lib/thumb/v6-m/nofp\libc-musl.a(__stdio_exit.o)
 .debug_line    0x00000000      0x180 C:/Applications/Microchip/XC32/bin/bin/../../lib/gcc/pic32c/13.2.1/../../../../pic32c/lib/thumb/v6-m/nofp\libc-musl.a(__stdio_exit.o)
 .debug_str     0x00000000      0x33f C:/Applications/Microchip/XC32/bin/bin/../../lib/gcc/pic32c/13.2.1/../../../../pic32c/lib/thumb/v6-m/nofp\libc-musl.a(__stdio_exit.o)
 .comment       0x00000000       0x36 C:/Applications/Microchip/XC32/bin/bin/../../lib/gcc/pic32c/13.2.1/../../../../pic32c/lib/thumb/v6-m/nofp\libc-musl.a(__stdio_exit.o)
 .note.GNU-stack
                0x00000000        0x0 C:/Applications/Microchip/XC32/bin/bin/../../lib/gcc/pic32c/13.2.1/../../../../pic32c/lib/thumb/v6-m/nofp\libc-musl.a(__stdio_exit.o)
 .debug_frame   0x00000000       0x48 C:/Applications/Microchip/XC32/bin/bin/../../lib/gcc/pic32c/13.2.1/../../../../pic32c/lib/thumb/v6-m/nofp\libc-musl.a(__stdio_exit.o)
 .ARM.attributes
                0x00000000       0x2e C:/Applications/Microchip/XC32/bin/bin/../../lib/gcc/pic32c/13.2.1/../../../../pic32c/lib/thumb/v6-m/nofp\libc-musl.a(__stdio_exit.o)
 .text          0x00000000        0x0 C:/Applications/Microchip/XC32/bin/bin/../../lib/gcc/pic32c/13.2.1/../../../../pic32c/lib/thumb/v6-m/nofp\libc-musl.a(atoi.o)
 .data          0x00000000        0x0 C:/Applications/Microchip/XC32/bin/bin/../../lib/gcc/pic32c/13.2.1/../../../../pic32c/lib/thumb/v6-m/nofp\libc-musl.a(atoi.o)
 .bss           0x00000000        0x0 C:/Applications/Microchip/XC32/bin/bin/../../lib/gcc/pic32c/13.2.1/../../../../pic32c/lib/thumb/v6-m/nofp\libc-musl.a(atoi.o)
 .xc_stack_usage
                0x00000000       0x12 C:/Applications/Microchip/XC32/bin/bin/../../lib/gcc/pic32c/13.2.1/../../../../pic32c/lib/thumb/v6-m/nofp\libc-musl.a(atoi.o)
 .xc_stack_usage.hdr
                0x00000000        0xe C:/Applications/Microchip/XC32/bin/bin/../../lib/gcc/pic32c/13.2.1/../../../../pic32c/lib/thumb/v6-m/nofp\libc-musl.a(atoi.o)
 .text          0x00000000        0x0 C:/Applications/Microchip/XC32/bin/bin/../../lib/gcc/pic32c/13.2.1/../../../../pic32c/lib/thumb/v6-m/nofp\libc-musl.a(tolower.o)
 .data          0x00000000        0x0 C:/Applications/Microchip/XC32/bin/bin/../../lib/gcc/pic32c/13.2.1/../../../../pic32c/lib/thumb/v6-m/nofp\libc-musl.a(tolower.o)
 .bss           0x00000000        0x0 C:/Applications/Microchip/XC32/bin/bin/../../lib/gcc/pic32c/13.2.1/../../../../pic32c/lib/thumb/v6-m/nofp\libc-musl.a(tolower.o)
 .xc_stack_usage
                0x00000000       0x2e C:/Applications/Microchip/XC32/bin/bin/../../lib/gcc/pic32c/13.2.1/../../../../pic32c/lib/thumb/v6-m/nofp\libc-musl.a(tolower.o)
 .text.__tolower_l
                0x00000000        0x8 C:/Applications/Microchip/XC32/bin/bin/../../lib/gcc/pic32c/13.2.1/../../../../pic32c/lib/thumb/v6-m/nofp\libc-musl.a(tolower.o)
 .xc_stack_usage.hdr
                0x00000000        0xe C:/Applications/Microchip/XC32/bin/bin/../../lib/gcc/pic32c/13.2.1/../../../../pic32c/lib/thumb/v6-m/nofp\libc-musl.a(tolower.o)
 .text          0x00000000        0x0 C:/Applications/Microchip/XC32/bin/bin/../../lib/gcc/pic32c/13.2.1/../../../../pic32c/lib/thumb/v6-m/nofp\libc-musl.a(__fmt_a.o)
 .data          0x00000000        0x0 C:/Applications/Microchip/XC32/bin/bin/../../lib/gcc/pic32c/13.2.1/../../../../pic32c/lib/thumb/v6-m/nofp\libc-musl.a(__fmt_a.o)
 .bss           0x00000000        0x0 C:/Applications/Microchip/XC32/bin/bin/../../lib/gcc/pic32c/13.2.1/../../../../pic32c/lib/thumb/v6-m/nofp\libc-musl.a(__fmt_a.o)
 .xc_stack_usage
                0x00000000       0x15 C:/Applications/Microchip/XC32/bin/bin/../../lib/gcc/pic32c/13.2.1/../../../../pic32c/lib/thumb/v6-m/nofp\libc-musl.a(__fmt_a.o)
 .xc_stack_usage.hdr
                0x00000000        0xe C:/Applications/Microchip/XC32/bin/bin/../../lib/gcc/pic32c/13.2.1/../../../../pic32c/lib/thumb/v6-m/nofp\libc-musl.a(__fmt_a.o)
 .text          0x00000000        0x0 C:/Applications/Microchip/XC32/bin/bin/../../lib/gcc/pic32c/13.2.1/../../../../pic32c/lib/thumb/v6-m/nofp\libc-musl.a(__fmt_d.o)
 .data          0x00000000        0x0 C:/Applications/Microchip/XC32/bin/bin/../../lib/gcc/pic32c/13.2.1/../../../../pic32c/lib/thumb/v6-m/nofp\libc-musl.a(__fmt_d.o)
 .bss           0x00000000        0x0 C:/Applications/Microchip/XC32/bin/bin/../../lib/gcc/pic32c/13.2.1/../../../../pic32c/lib/thumb/v6-m/nofp\libc-musl.a(__fmt_d.o)
 .xc_stack_usage
                0x00000000       0x15 C:/Applications/Microchip/XC32/bin/bin/../../lib/gcc/pic32c/13.2.1/../../../../pic32c/lib/thumb/v6-m/nofp\libc-musl.a(__fmt_d.o)
 .xc_stack_usage.hdr
                0x00000000        0xe C:/Applications/Microchip/XC32/bin/bin/../../lib/gcc/pic32c/13.2.1/../../../../pic32c/lib/thumb/v6-m/nofp\libc-musl.a(__fmt_d.o)
 .text          0x00000000        0x0 C:/Applications/Microchip/XC32/bin/bin/../../lib/gcc/pic32c/13.2.1/../../../../pic32c/lib/thumb/v6-m/nofp\libc-musl.a(__fmt_fp.o)
 .data          0x00000000        0x0 C:/Applications/Microchip/XC32/bin/bin/../../lib/gcc/pic32c/13.2.1/../../../../pic32c/lib/thumb/v6-m/nofp\libc-musl.a(__fmt_fp.o)
 .bss           0x00000000        0x0 C:/Applications/Microchip/XC32/bin/bin/../../lib/gcc/pic32c/13.2.1/../../../../pic32c/lib/thumb/v6-m/nofp\libc-musl.a(__fmt_fp.o)
 .xc_stack_usage
                0x00000000       0x16 C:/Applications/Microchip/XC32/bin/bin/../../lib/gcc/pic32c/13.2.1/../../../../pic32c/lib/thumb/v6-m/nofp\libc-musl.a(__fmt_fp.o)
 .xc_stack_usage.hdr
                0x00000000        0xe C:/Applications/Microchip/XC32/bin/bin/../../lib/gcc/pic32c/13.2.1/../../../../pic32c/lib/thumb/v6-m/nofp\libc-musl.a(__fmt_fp.o)
 .text          0x00000000        0x0 C:/Applications/Microchip/XC32/bin/bin/../../lib/gcc/pic32c/13.2.1/../../../../pic32c/lib/thumb/v6-m/nofp\libc-musl.a(__fmt_o.o)
 .data          0x00000000        0x0 C:/Applications/Microchip/XC32/bin/bin/../../lib/gcc/pic32c/13.2.1/../../../../pic32c/lib/thumb/v6-m/nofp\libc-musl.a(__fmt_o.o)
 .bss           0x00000000        0x0 C:/Applications/Microchip/XC32/bin/bin/../../lib/gcc/pic32c/13.2.1/../../../../pic32c/lib/thumb/v6-m/nofp\libc-musl.a(__fmt_o.o)
 .xc_stack_usage
                0x00000000       0x15 C:/Applications/Microchip/XC32/bin/bin/../../lib/gcc/pic32c/13.2.1/../../../../pic32c/lib/thumb/v6-m/nofp\libc-musl.a(__fmt_o.o)
 .xc_stack_usage.hdr
                0x00000000        0xe C:/Applications/Microchip/XC32/bin/bin/../../lib/gcc/pic32c/13.2.1/../../../../pic32c/lib/thumb/v6-m/nofp\libc-musl.a(__fmt_o.o)
 .text          0x00000000        0x0 C:/Applications/Microchip/XC32/bin/bin/../../lib/gcc/pic32c/13.2.1/../../../../pic32c/lib/thumb/v6-m/nofp\libc-musl.a(__fmt_s.o)
 .data          0x00000000        0x0 C:/Applications/Microchip/XC32/bin/bin/../../lib/gcc/pic32c/13.2.1/../../../../pic32c/lib/thumb/v6-m/nofp\libc-musl.a(__fmt_s.o)
 .bss           0x00000000        0x0 C:/Applications/Microchip/XC32/bin/bin/../../lib/gcc/pic32c/13.2.1/../../../../pic32c/lib/thumb/v6-m/nofp\libc-musl.a(__fmt_s.o)
 .xc_stack_usage
                0x00000000       0x15 C:/Applications/Microchip/XC32/bin/bin/../../lib/gcc/pic32c/13.2.1/../../../../pic32c/lib/thumb/v6-m/nofp\libc-musl.a(__fmt_s.o)
 .xc_stack_usage.hdr
                0x00000000        0xe C:/Applications/Microchip/XC32/bin/bin/../../lib/gcc/pic32c/13.2.1/../../../../pic32c/lib/thumb/v6-m/nofp\libc-musl.a(__fmt_s.o)
 .text          0x00000000        0x0 C:/Applications/Microchip/XC32/bin/bin/../../lib/gcc/pic32c/13.2.1/../../../../pic32c/lib/thumb/v6-m/nofp\libc-musl.a(__fmt_u.o)
 .data          0x00000000        0x0 C:/Applications/Microchip/XC32/bin/bin/../../lib/gcc/pic32c/13.2.1/../../../../pic32c/lib/thumb/v6-m/nofp\libc-musl.a(__fmt_u.o)
 .bss           0x00000000        0x0 C:/Applications/Microchip/XC32/bin/bin/../../lib/gcc/pic32c/13.2.1/../../../../pic32c/lib/thumb/v6-m/nofp\libc-musl.a(__fmt_u.o)
 .xc_stack_usage
                0x00000000       0x15 C:/Applications/Microchip/XC32/bin/bin/../../lib/gcc/pic32c/13.2.1/../../../../pic32c/lib/thumb/v6-m/nofp\libc-musl.a(__fmt_u.o)
 .xc_stack_usage.hdr
                0x00000000        0xe C:/Applications/Microchip/XC32/bin/bin/../../lib/gcc/pic32c/13.2.1/../../../../pic32c/lib/thumb/v6-m/nofp\libc-musl.a(__fmt_u.o)
 .text          0x00000000        0x0 C:/Applications/Microchip/XC32/bin/bin/../../lib/gcc/pic32c/13.2.1/../../../../pic32c/lib/thumb/v6-m/nofp\libc-musl.a(__fmt_x.o)
 .data          0x00000000        0x0 C:/Applications/Microchip/XC32/bin/bin/../../lib/gcc/pic32c/13.2.1/../../../../pic32c/lib/thumb/v6-m/nofp\libc-musl.a(__fmt_x.o)
 .bss           0x00000000        0x0 C:/Applications/Microchip/XC32/bin/bin/../../lib/gcc/pic32c/13.2.1/../../../../pic32c/lib/thumb/v6-m/nofp\libc-musl.a(__fmt_x.o)
 .xc_stack_usage
                0x00000000       0x15 C:/Applications/Microchip/XC32/bin/bin/../../lib/gcc/pic32c/13.2.1/../../../../pic32c/lib/thumb/v6-m/nofp\libc-musl.a(__fmt_x.o)
 .xc_stack_usage.hdr
                0x00000000        0xe C:/Applications/Microchip/XC32/bin/bin/../../lib/gcc/pic32c/13.2.1/../../../../pic32c/lib/thumb/v6-m/nofp\libc-musl.a(__fmt_x.o)
 .text          0x00000000        0x0 C:/Applications/Microchip/XC32/bin/bin/../../lib/gcc/pic32c/13.2.1/../../../../pic32c/lib/thumb/v6-m/nofp\libc-musl.a(toupper.o)
 .data          0x00000000        0x0 C:/Applications/Microchip/XC32/bin/bin/../../lib/gcc/pic32c/13.2.1/../../../../pic32c/lib/thumb/v6-m/nofp\libc-musl.a(toupper.o)
 .bss           0x00000000        0x0 C:/Applications/Microchip/XC32/bin/bin/../../lib/gcc/pic32c/13.2.1/../../../../pic32c/lib/thumb/v6-m/nofp\libc-musl.a(toupper.o)
 .xc_stack_usage
                0x00000000       0x2e C:/Applications/Microchip/XC32/bin/bin/../../lib/gcc/pic32c/13.2.1/../../../../pic32c/lib/thumb/v6-m/nofp\libc-musl.a(toupper.o)
 .text.__toupper_l
                0x00000000        0x8 C:/Applications/Microchip/XC32/bin/bin/../../lib/gcc/pic32c/13.2.1/../../../../pic32c/lib/thumb/v6-m/nofp\libc-musl.a(toupper.o)
 .xc_stack_usage.hdr
                0x00000000        0xe C:/Applications/Microchip/XC32/bin/bin/../../lib/gcc/pic32c/13.2.1/../../../../pic32c/lib/thumb/v6-m/nofp\libc-musl.a(toupper.o)
 .text          0x00000000        0x0 C:/Applications/Microchip/XC32/bin/bin/../../lib/gcc/pic32c/13.2.1/../../../../pic32c/lib/thumb/v6-m/nofp\libc-musl.a(__cvt_u.o)
 .data          0x00000000        0x0 C:/Applications/Microchip/XC32/bin/bin/../../lib/gcc/pic32c/13.2.1/../../../../pic32c/lib/thumb/v6-m/nofp\libc-musl.a(__cvt_u.o)
 .bss           0x00000000        0x0 C:/Applications/Microchip/XC32/bin/bin/../../lib/gcc/pic32c/13.2.1/../../../../pic32c/lib/thumb/v6-m/nofp\libc-musl.a(__cvt_u.o)
 .xc_stack_usage
                0x00000000       0x15 C:/Applications/Microchip/XC32/bin/bin/../../lib/gcc/pic32c/13.2.1/../../../../pic32c/lib/thumb/v6-m/nofp\libc-musl.a(__cvt_u.o)
 .xc_stack_usage.hdr
                0x00000000        0xe C:/Applications/Microchip/XC32/bin/bin/../../lib/gcc/pic32c/13.2.1/../../../../pic32c/lib/thumb/v6-m/nofp\libc-musl.a(__cvt_u.o)
 .xc_stack_usage.hdr
                0x00000000        0xe C:/Applications/Microchip/XC32/bin/bin/../../lib/gcc/pic32c/13.2.1/../../../../pic32c/lib/thumb/v6-m/nofp\libm-fast-emfloat.a(fma.o)
 .xc_stack_usage
                0x00000000       0x11 C:/Applications/Microchip/XC32/bin/bin/../../lib/gcc/pic32c/13.2.1/../../../../pic32c/lib/thumb/v6-m/nofp\libm-fast-emfloat.a(fma.o)
 .xc_stack_usage.hdr
                0x00000000        0xe C:/Applications/Microchip/XC32/bin/bin/../../lib/gcc/pic32c/13.2.1/../../../../pic32c/lib/thumb/v6-m/nofp\libm-fast-emfloat.a(floor.o)
 .xc_stack_usage
                0x00000000       0x13 C:/Applications/Microchip/XC32/bin/bin/../../lib/gcc/pic32c/13.2.1/../../../../pic32c/lib/thumb/v6-m/nofp\libm-fast-emfloat.a(floor.o)
 .xc_stack_usage.hdr
                0x00000000        0xe C:/Applications/Microchip/XC32/bin/bin/../../lib/gcc/pic32c/13.2.1/../../../../pic32c/lib/thumb/v6-m/nofp\libm-fast-emfloat.a(__aeabi_fadd.o)
 .xc_stack_usage
                0x00000000       0x41 C:/Applications/Microchip/XC32/bin/bin/../../lib/gcc/pic32c/13.2.1/../../../../pic32c/lib/thumb/v6-m/nofp\libm-fast-emfloat.a(__aeabi_fadd.o)
 .xc_stack_usage.hdr
                0x00000000        0xe C:/Applications/Microchip/XC32/bin/bin/../../lib/gcc/pic32c/13.2.1/../../../../pic32c/lib/thumb/v6-m/nofp\libm-fast-emfloat.a(__aeabi_dadd.o)
 .xc_stack_usage
                0x00000000       0x41 C:/Applications/Microchip/XC32/bin/bin/../../lib/gcc/pic32c/13.2.1/../../../../pic32c/lib/thumb/v6-m/nofp\libm-fast-emfloat.a(__aeabi_dadd.o)
 .xc_stack_usage.hdr
                0x00000000        0xe C:/Applications/Microchip/XC32/bin/bin/../../lib/gcc/pic32c/13.2.1/../../../../pic32c/lib/thumb/v6-m/nofp\libm-fast-emfloat.a(__aeabi_fsub.o)
 .xc_stack_usage
                0x00000000       0x1a C:/Applications/Microchip/XC32/bin/bin/../../lib/gcc/pic32c/13.2.1/../../../../pic32c/lib/thumb/v6-m/nofp\libm-fast-emfloat.a(__aeabi_fsub.o)
 .xc_stack_usage.hdr
                0x00000000        0xe C:/Applications/Microchip/XC32/bin/bin/../../lib/gcc/pic32c/13.2.1/../../../../pic32c/lib/thumb/v6-m/nofp\libm-fast-emfloat.a(__aeabi_dsub.o)
 .xc_stack_usage
                0x00000000       0x1a C:/Applications/Microchip/XC32/bin/bin/../../lib/gcc/pic32c/13.2.1/../../../../pic32c/lib/thumb/v6-m/nofp\libm-fast-emfloat.a(__aeabi_dsub.o)
 .xc_stack_usage.hdr
                0x00000000        0xe C:/Applications/Microchip/XC32/bin/bin/../../lib/gcc/pic32c/13.2.1/../../../../pic32c/lib/thumb/v6-m/nofp\libm-fast-emfloat.a(__aeabi_fmul.o)
 .xc_stack_usage
                0x00000000       0x1a C:/Applications/Microchip/XC32/bin/bin/../../lib/gcc/pic32c/13.2.1/../../../../pic32c/lib/thumb/v6-m/nofp\libm-fast-emfloat.a(__aeabi_fmul.o)
 .xc_stack_usage.hdr
                0x00000000        0xe C:/Applications/Microchip/XC32/bin/bin/../../lib/gcc/pic32c/13.2.1/../../../../pic32c/lib/thumb/v6-m/nofp\libm-fast-emfloat.a(__aeabi_dmul_aux.o)
 .xc_stack_usage
                0x00000000       0x38 C:/Applications/Microchip/XC32/bin/bin/../../lib/gcc/pic32c/13.2.1/../../../../pic32c/lib/thumb/v6-m/nofp\libm-fast-emfloat.a(__aeabi_dmul_aux.o)
 .xc_stack_usage.hdr
                0x00000000        0xe C:/Applications/Microchip/XC32/bin/bin/../../lib/gcc/pic32c/13.2.1/../../../../pic32c/lib/thumb/v6-m/nofp\libm-fast-emfloat.a(__aeabi_fdiv.o)
 .xc_stack_usage
                0x00000000       0x1a C:/Applications/Microchip/XC32/bin/bin/../../lib/gcc/pic32c/13.2.1/../../../../pic32c/lib/thumb/v6-m/nofp\libm-fast-emfloat.a(__aeabi_fdiv.o)
 .xc_stack_usage.hdr
                0x00000000        0xe C:/Applications/Microchip/XC32/bin/bin/../../lib/gcc/pic32c/13.2.1/../../../../pic32c/lib/thumb/v6-m/nofp\libm-fast-emfloat.a(__aeabi_ddiv.o)
 .xc_stack_usage
                0x00000000       0x1a C:/Applications/Microchip/XC32/bin/bin/../../lib/gcc/pic32c/13.2.1/../../../../pic32c/lib/thumb/v6-m/nofp\libm-fast-emfloat.a(__aeabi_ddiv.o)
 .xc_stack_usage.hdr
                0x00000000        0xe C:/Applications/Microchip/XC32/bin/bin/../../lib/gcc/pic32c/13.2.1/../../../../pic32c/lib/thumb/v6-m/nofp\libm-fast-emfloat.a(__aeabi_dcmple.o)
 .xc_stack_usage
                0x00000000       0x1c C:/Applications/Microchip/XC32/bin/bin/../../lib/gcc/pic32c/13.2.1/../../../../pic32c/lib/thumb/v6-m/nofp\libm-fast-emfloat.a(__aeabi_dcmple.o)
 .xc_stack_usage.hdr
                0x00000000        0xe C:/Applications/Microchip/XC32/bin/bin/../../lib/gcc/pic32c/13.2.1/../../../../pic32c/lib/thumb/v6-m/nofp\libm-fast-emfloat.a(__aeabi_dcmpeq.o)
 .xc_stack_usage
                0x00000000       0x1c C:/Applications/Microchip/XC32/bin/bin/../../lib/gcc/pic32c/13.2.1/../../../../pic32c/lib/thumb/v6-m/nofp\libm-fast-emfloat.a(__aeabi_dcmpeq.o)
 .xc_stack_usage.hdr
                0x00000000        0xe C:/Applications/Microchip/XC32/bin/bin/../../lib/gcc/pic32c/13.2.1/../../../../pic32c/lib/thumb/v6-m/nofp\libm-fast-emfloat.a(__aeabi_dcmpgt.o)
 .xc_stack_usage
                0x00000000       0x1c C:/Applications/Microchip/XC32/bin/bin/../../lib/gcc/pic32c/13.2.1/../../../../pic32c/lib/thumb/v6-m/nofp\libm-fast-emfloat.a(__aeabi_dcmpgt.o)
 .ARM.attributes
                0x00000000       0x1c C:/Applications/Microchip/XC32/bin/bin/../../lib/gcc/pic32c/13.2.1/../../../../pic32c/lib/thumb/v6-m/nofp\libm-fast-emfloat.a(__aeabi_fcmplt.o)
 .text.__aeabi_fcmplt
                0x00000000       0x2e C:/Applications/Microchip/XC32/bin/bin/../../lib/gcc/pic32c/13.2.1/../../../../pic32c/lib/thumb/v6-m/nofp\libm-fast-emfloat.a(__aeabi_fcmplt.o)
 .xc_stack_usage.hdr
                0x00000000        0xe C:/Applications/Microchip/XC32/bin/bin/../../lib/gcc/pic32c/13.2.1/../../../../pic32c/lib/thumb/v6-m/nofp\libm-fast-emfloat.a(__aeabi_fcmplt.o)
 .xc_stack_usage
                0x00000000       0x1c C:/Applications/Microchip/XC32/bin/bin/../../lib/gcc/pic32c/13.2.1/../../../../pic32c/lib/thumb/v6-m/nofp\libm-fast-emfloat.a(__aeabi_fcmplt.o)
 .xc_stack_usage.hdr
                0x00000000        0xe C:/Applications/Microchip/XC32/bin/bin/../../lib/gcc/pic32c/13.2.1/../../../../pic32c/lib/thumb/v6-m/nofp\libm-fast-emfloat.a(__aeabi_dcmplt.o)
 .xc_stack_usage
                0x00000000       0x1c C:/Applications/Microchip/XC32/bin/bin/../../lib/gcc/pic32c/13.2.1/../../../../pic32c/lib/thumb/v6-m/nofp\libm-fast-emfloat.a(__aeabi_dcmplt.o)
 .xc_stack_usage.hdr
                0x00000000        0xe C:/Applications/Microchip/XC32/bin/bin/../../lib/gcc/pic32c/13.2.1/../../../../pic32c/lib/thumb/v6-m/nofp\libm-fast-emfloat.a(__aeabi_f2iz.o)
 .xc_stack_usage
                0x00000000       0x1a C:/Applications/Microchip/XC32/bin/bin/../../lib/gcc/pic32c/13.2.1/../../../../pic32c/lib/thumb/v6-m/nofp\libm-fast-emfloat.a(__aeabi_f2iz.o)
 .xc_stack_usage.hdr
                0x00000000        0xe C:/Applications/Microchip/XC32/bin/bin/../../lib/gcc/pic32c/13.2.1/../../../../pic32c/lib/thumb/v6-m/nofp\libm-fast-emfloat.a(__aeabi_d2iz.o)
 .xc_stack_usage
                0x00000000       0x1a C:/Applications/Microchip/XC32/bin/bin/../../lib/gcc/pic32c/13.2.1/../../../../pic32c/lib/thumb/v6-m/nofp\libm-fast-emfloat.a(__aeabi_d2iz.o)
 .xc_stack_usage.hdr
                0x00000000        0xe C:/Applications/Microchip/XC32/bin/bin/../../lib/gcc/pic32c/13.2.1/../../../../pic32c/lib/thumb/v6-m/nofp\libm-fast-emfloat.a(__aeabi_f2uiz.o)
 .xc_stack_usage
                0x00000000       0x1b C:/Applications/Microchip/XC32/bin/bin/../../lib/gcc/pic32c/13.2.1/../../../../pic32c/lib/thumb/v6-m/nofp\libm-fast-emfloat.a(__aeabi_f2uiz.o)
 .xc_stack_usage.hdr
                0x00000000        0xe C:/Applications/Microchip/XC32/bin/bin/../../lib/gcc/pic32c/13.2.1/../../../../pic32c/lib/thumb/v6-m/nofp\libm-fast-emfloat.a(__aeabi_d2uiz.o)
 .xc_stack_usage
                0x00000000       0x43 C:/Applications/Microchip/XC32/bin/bin/../../lib/gcc/pic32c/13.2.1/../../../../pic32c/lib/thumb/v6-m/nofp\libm-fast-emfloat.a(__aeabi_d2uiz.o)
 .xc_stack_usage.hdr
                0x00000000        0xe C:/Applications/Microchip/XC32/bin/bin/../../lib/gcc/pic32c/13.2.1/../../../../pic32c/lib/thumb/v6-m/nofp\libm-fast-emfloat.a(__aeabi_i2f.o)
 .xc_stack_usage
                0x00000000       0x19 C:/Applications/Microchip/XC32/bin/bin/../../lib/gcc/pic32c/13.2.1/../../../../pic32c/lib/thumb/v6-m/nofp\libm-fast-emfloat.a(__aeabi_i2f.o)
 .ARM.attributes
                0x00000000       0x1c C:/Applications/Microchip/XC32/bin/bin/../../lib/gcc/pic32c/13.2.1/../../../../pic32c/lib/thumb/v6-m/nofp\libm-fast-emfloat.a(__aeabi_l2f.o)
 .text.__aeabi_l2f
                0x00000000       0x20 C:/Applications/Microchip/XC32/bin/bin/../../lib/gcc/pic32c/13.2.1/../../../../pic32c/lib/thumb/v6-m/nofp\libm-fast-emfloat.a(__aeabi_l2f.o)
 .xc_stack_usage.hdr
                0x00000000        0xe C:/Applications/Microchip/XC32/bin/bin/../../lib/gcc/pic32c/13.2.1/../../../../pic32c/lib/thumb/v6-m/nofp\libm-fast-emfloat.a(__aeabi_l2f.o)
 .xc_stack_usage
                0x00000000       0x19 C:/Applications/Microchip/XC32/bin/bin/../../lib/gcc/pic32c/13.2.1/../../../../pic32c/lib/thumb/v6-m/nofp\libm-fast-emfloat.a(__aeabi_l2f.o)
 .xc_stack_usage.hdr
                0x00000000        0xe C:/Applications/Microchip/XC32/bin/bin/../../lib/gcc/pic32c/13.2.1/../../../../pic32c/lib/thumb/v6-m/nofp\libm-fast-emfloat.a(__aeabi_ui2f.o)
 .xc_stack_usage
                0x00000000       0x1a C:/Applications/Microchip/XC32/bin/bin/../../lib/gcc/pic32c/13.2.1/../../../../pic32c/lib/thumb/v6-m/nofp\libm-fast-emfloat.a(__aeabi_ui2f.o)
 .ARM.attributes
                0x00000000       0x1c C:/Applications/Microchip/XC32/bin/bin/../../lib/gcc/pic32c/13.2.1/../../../../pic32c/lib/thumb/v6-m/nofp\libm-fast-emfloat.a(__aeabi_ul2f.o)
 .text.__aeabi_ul2f
                0x00000000       0x30 C:/Applications/Microchip/XC32/bin/bin/../../lib/gcc/pic32c/13.2.1/../../../../pic32c/lib/thumb/v6-m/nofp\libm-fast-emfloat.a(__aeabi_ul2f.o)
 .xc_stack_usage.hdr
                0x00000000        0xe C:/Applications/Microchip/XC32/bin/bin/../../lib/gcc/pic32c/13.2.1/../../../../pic32c/lib/thumb/v6-m/nofp\libm-fast-emfloat.a(__aeabi_ul2f.o)
 .xc_stack_usage
                0x00000000       0x1a C:/Applications/Microchip/XC32/bin/bin/../../lib/gcc/pic32c/13.2.1/../../../../pic32c/lib/thumb/v6-m/nofp\libm-fast-emfloat.a(__aeabi_ul2f.o)
 .xc_stack_usage.hdr
                0x00000000        0xe C:/Applications/Microchip/XC32/bin/bin/../../lib/gcc/pic32c/13.2.1/../../../../pic32c/lib/thumb/v6-m/nofp\libm-fast-emfloat.a(__aeabi_f2d.o)
 .xc_stack_usage
                0x00000000       0x19 C:/Applications/Microchip/XC32/bin/bin/../../lib/gcc/pic32c/13.2.1/../../../../pic32c/lib/thumb/v6-m/nofp\libm-fast-emfloat.a(__aeabi_f2d.o)
 .xc_stack_usage.hdr
                0x00000000        0xe C:/Applications/Microchip/XC32/bin/bin/../../lib/gcc/pic32c/13.2.1/../../../../pic32c/lib/thumb/v6-m/nofp\libm-fast-emfloat.a(__aeabi_d2f.o)
 .xc_stack_usage
                0x00000000       0x19 C:/Applications/Microchip/XC32/bin/bin/../../lib/gcc/pic32c/13.2.1/../../../../pic32c/lib/thumb/v6-m/nofp\libm-fast-emfloat.a(__aeabi_d2f.o)
 .text          0x00000000        0x0 C:/Applications/Microchip/XC32/bin/bin/../../lib/gcc/pic32c/13.2.1/../../../../pic32c/lib/thumb/v6-m/nofp\libpic32c.a(sbrk.o)
 .data          0x00000000        0x0 C:/Applications/Microchip/XC32/bin/bin/../../lib/gcc/pic32c/13.2.1/../../../../pic32c/lib/thumb/v6-m/nofp\libpic32c.a(sbrk.o)
 .xc_stack_usage
                0x00000000       0x4d C:/Applications/Microchip/XC32/bin/bin/../../lib/gcc/pic32c/13.2.1/../../../../pic32c/lib/thumb/v6-m/nofp\libpic32c.a(sbrk.o)
 .xc_stack_usage.hdr
                0x00000000        0xe C:/Applications/Microchip/XC32/bin/bin/../../lib/gcc/pic32c/13.2.1/../../../../pic32c/lib/thumb/v6-m/nofp\libpic32c.a(sbrk.o)
 .data          0x00000000        0x0 C:/Applications/Microchip/XC32/bin/bin/../../lib/gcc/pic32c/13.2.1/thumb/v6-m/nofp\libgcc.a(_thumb1_case_uqi.o)
 .bss           0x00000000        0x0 C:/Applications/Microchip/XC32/bin/bin/../../lib/gcc/pic32c/13.2.1/thumb/v6-m/nofp\libgcc.a(_thumb1_case_uqi.o)
 .xc_stack_usage.hdr
                0x00000000        0xe C:/Applications/Microchip/XC32/bin/bin/../../lib/gcc/pic32c/13.2.1/thumb/v6-m/nofp\libgcc.a(_thumb1_case_uqi.o)
 .xc_stack_usage
                0x00000000       0x23 C:/Applications/Microchip/XC32/bin/bin/../../lib/gcc/pic32c/13.2.1/thumb/v6-m/nofp\libgcc.a(_thumb1_case_uqi.o)
 .data          0x00000000        0x0 C:/Applications/Microchip/XC32/bin/bin/../../lib/gcc/pic32c/13.2.1/thumb/v6-m/nofp\libgcc.a(_udivsi3.o)
 .bss           0x00000000        0x0 C:/Applications/Microchip/XC32/bin/bin/../../lib/gcc/pic32c/13.2.1/thumb/v6-m/nofp\libgcc.a(_udivsi3.o)
 .xc_stack_usage.hdr
                0x00000000        0xe C:/Applications/Microchip/XC32/bin/bin/../../lib/gcc/pic32c/13.2.1/thumb/v6-m/nofp\libgcc.a(_udivsi3.o)
 .xc_stack_usage
                0x00000000       0x35 C:/Applications/Microchip/XC32/bin/bin/../../lib/gcc/pic32c/13.2.1/thumb/v6-m/nofp\libgcc.a(_udivsi3.o)
 .data          0x00000000        0x0 C:/Applications/Microchip/XC32/bin/bin/../../lib/gcc/pic32c/13.2.1/thumb/v6-m/nofp\libgcc.a(_divsi3.o)
 .bss           0x00000000        0x0 C:/Applications/Microchip/XC32/bin/bin/../../lib/gcc/pic32c/13.2.1/thumb/v6-m/nofp\libgcc.a(_divsi3.o)
 .xc_stack_usage.hdr
                0x00000000        0xe C:/Applications/Microchip/XC32/bin/bin/../../lib/gcc/pic32c/13.2.1/thumb/v6-m/nofp\libgcc.a(_divsi3.o)
 .xc_stack_usage
                0x00000000       0x33 C:/Applications/Microchip/XC32/bin/bin/../../lib/gcc/pic32c/13.2.1/thumb/v6-m/nofp\libgcc.a(_divsi3.o)
 .data          0x00000000        0x0 C:/Applications/Microchip/XC32/bin/bin/../../lib/gcc/pic32c/13.2.1/thumb/v6-m/nofp\libgcc.a(_dvmd_tls.o)
 .bss           0x00000000        0x0 C:/Applications/Microchip/XC32/bin/bin/../../lib/gcc/pic32c/13.2.1/thumb/v6-m/nofp\libgcc.a(_dvmd_tls.o)
 .xc_stack_usage.hdr
                0x00000000        0xe C:/Applications/Microchip/XC32/bin/bin/../../lib/gcc/pic32c/13.2.1/thumb/v6-m/nofp\libgcc.a(_dvmd_tls.o)
 .xc_stack_usage
                0x00000000       0x36 C:/Applications/Microchip/XC32/bin/bin/../../lib/gcc/pic32c/13.2.1/thumb/v6-m/nofp\libgcc.a(_dvmd_tls.o)
 .data          0x00000000        0x0 C:/Applications/Microchip/XC32/bin/bin/../../lib/gcc/pic32c/13.2.1/thumb/v6-m/nofp\libgcc.a(_lshrdi3.o)
 .bss           0x00000000        0x0 C:/Applications/Microchip/XC32/bin/bin/../../lib/gcc/pic32c/13.2.1/thumb/v6-m/nofp\libgcc.a(_lshrdi3.o)
 .xc_stack_usage.hdr
                0x00000000        0xe C:/Applications/Microchip/XC32/bin/bin/../../lib/gcc/pic32c/13.2.1/thumb/v6-m/nofp\libgcc.a(_lshrdi3.o)
 .xc_stack_usage
                0x00000000       0x17 C:/Applications/Microchip/XC32/bin/bin/../../lib/gcc/pic32c/13.2.1/thumb/v6-m/nofp\libgcc.a(_lshrdi3.o)
 .data          0x00000000        0x0 C:/Applications/Microchip/XC32/bin/bin/../../lib/gcc/pic32c/13.2.1/thumb/v6-m/nofp\libgcc.a(_ashldi3.o)
 .bss           0x00000000        0x0 C:/Applications/Microchip/XC32/bin/bin/../../lib/gcc/pic32c/13.2.1/thumb/v6-m/nofp\libgcc.a(_ashldi3.o)
 .xc_stack_usage.hdr
                0x00000000        0xe C:/Applications/Microchip/XC32/bin/bin/../../lib/gcc/pic32c/13.2.1/thumb/v6-m/nofp\libgcc.a(_ashldi3.o)
 .xc_stack_usage
                0x00000000       0x17 C:/Applications/Microchip/XC32/bin/bin/../../lib/gcc/pic32c/13.2.1/thumb/v6-m/nofp\libgcc.a(_ashldi3.o)
 .text          0x00000000       0x48 C:/Applications/Microchip/XC32/bin/bin/../../lib/gcc/pic32c/13.2.1/thumb/v6-m/nofp\libgcc.a(_aeabi_ldivmod.o)
 .data          0x00000000        0x0 C:/Applications/Microchip/XC32/bin/bin/../../lib/gcc/pic32c/13.2.1/thumb/v6-m/nofp\libgcc.a(_aeabi_ldivmod.o)
 .bss           0x00000000        0x0 C:/Applications/Microchip/XC32/bin/bin/../../lib/gcc/pic32c/13.2.1/thumb/v6-m/nofp\libgcc.a(_aeabi_ldivmod.o)
 .xc_stack_usage.hdr
                0x00000000        0xe C:/Applications/Microchip/XC32/bin/bin/../../lib/gcc/pic32c/13.2.1/thumb/v6-m/nofp\libgcc.a(_aeabi_ldivmod.o)
 .xc_stack_usage
                0x00000000       0x1d C:/Applications/Microchip/XC32/bin/bin/../../lib/gcc/pic32c/13.2.1/thumb/v6-m/nofp\libgcc.a(_aeabi_ldivmod.o)
 .debug_line    0x00000000       0x90 C:/Applications/Microchip/XC32/bin/bin/../../lib/gcc/pic32c/13.2.1/thumb/v6-m/nofp\libgcc.a(_aeabi_ldivmod.o)
 .debug_info    0x00000000       0x35 C:/Applications/Microchip/XC32/bin/bin/../../lib/gcc/pic32c/13.2.1/thumb/v6-m/nofp\libgcc.a(_aeabi_ldivmod.o)
 .debug_abbrev  0x00000000       0x21 C:/Applications/Microchip/XC32/bin/bin/../../lib/gcc/pic32c/13.2.1/thumb/v6-m/nofp\libgcc.a(_aeabi_ldivmod.o)
 .debug_aranges
                0x00000000       0x20 C:/Applications/Microchip/XC32/bin/bin/../../lib/gcc/pic32c/13.2.1/thumb/v6-m/nofp\libgcc.a(_aeabi_ldivmod.o)
 .debug_str     0x00000000       0xdd C:/Applications/Microchip/XC32/bin/bin/../../lib/gcc/pic32c/13.2.1/thumb/v6-m/nofp\libgcc.a(_aeabi_ldivmod.o)
 .ARM.attributes
                0x00000000       0x1e C:/Applications/Microchip/XC32/bin/bin/../../lib/gcc/pic32c/13.2.1/thumb/v6-m/nofp\libgcc.a(_aeabi_ldivmod.o)
 .data          0x00000000        0x0 C:/Applications/Microchip/XC32/bin/bin/../../lib/gcc/pic32c/13.2.1/thumb/v6-m/nofp\libgcc.a(_aeabi_uldivmod.o)
 .bss           0x00000000        0x0 C:/Applications/Microchip/XC32/bin/bin/../../lib/gcc/pic32c/13.2.1/thumb/v6-m/nofp\libgcc.a(_aeabi_uldivmod.o)
 .xc_stack_usage.hdr
                0x00000000        0xe C:/Applications/Microchip/XC32/bin/bin/../../lib/gcc/pic32c/13.2.1/thumb/v6-m/nofp\libgcc.a(_aeabi_uldivmod.o)
 .xc_stack_usage
                0x00000000       0x1e C:/Applications/Microchip/XC32/bin/bin/../../lib/gcc/pic32c/13.2.1/thumb/v6-m/nofp\libgcc.a(_aeabi_uldivmod.o)
 .data          0x00000000        0x0 C:/Applications/Microchip/XC32/bin/bin/../../lib/gcc/pic32c/13.2.1/thumb/v6-m/nofp\libgcc.a(_muldi3.o)
 .bss           0x00000000        0x0 C:/Applications/Microchip/XC32/bin/bin/../../lib/gcc/pic32c/13.2.1/thumb/v6-m/nofp\libgcc.a(_muldi3.o)
 .xc_stack_usage
                0x00000000       0x16 C:/Applications/Microchip/XC32/bin/bin/../../lib/gcc/pic32c/13.2.1/thumb/v6-m/nofp\libgcc.a(_muldi3.o)
 .xc_stack_usage.hdr
                0x00000000        0xe C:/Applications/Microchip/XC32/bin/bin/../../lib/gcc/pic32c/13.2.1/thumb/v6-m/nofp\libgcc.a(_muldi3.o)
 .data          0x00000000        0x0 C:/Applications/Microchip/XC32/bin/bin/../../lib/gcc/pic32c/13.2.1/thumb/v6-m/nofp\libgcc.a(_udivmoddi4.o)
 .bss           0x00000000        0x0 C:/Applications/Microchip/XC32/bin/bin/../../lib/gcc/pic32c/13.2.1/thumb/v6-m/nofp\libgcc.a(_udivmoddi4.o)
 .xc_stack_usage
                0x00000000       0x1a C:/Applications/Microchip/XC32/bin/bin/../../lib/gcc/pic32c/13.2.1/thumb/v6-m/nofp\libgcc.a(_udivmoddi4.o)
 .ARM.extab     0x00000000        0x0 C:/Applications/Microchip/XC32/bin/bin/../../lib/gcc/pic32c/13.2.1/thumb/v6-m/nofp\libgcc.a(_udivmoddi4.o)
 .xc_stack_usage.hdr
                0x00000000        0xe C:/Applications/Microchip/XC32/bin/bin/../../lib/gcc/pic32c/13.2.1/thumb/v6-m/nofp\libgcc.a(_udivmoddi4.o)
 .text          0x00000000       0x30 C:/Applications/Microchip/XC32/bin/bin/../../lib/gcc/pic32c/13.2.1/thumb/v6-m/nofp\libgcc.a(bpabi.o)
 .data          0x00000000        0x0 C:/Applications/Microchip/XC32/bin/bin/../../lib/gcc/pic32c/13.2.1/thumb/v6-m/nofp\libgcc.a(bpabi.o)
 .bss           0x00000000        0x0 C:/Applications/Microchip/XC32/bin/bin/../../lib/gcc/pic32c/13.2.1/thumb/v6-m/nofp\libgcc.a(bpabi.o)
 .xc_stack_usage
                0x00000000       0x22 C:/Applications/Microchip/XC32/bin/bin/../../lib/gcc/pic32c/13.2.1/thumb/v6-m/nofp\libgcc.a(bpabi.o)
 .xc_stack_usage.hdr
                0x00000000        0xe C:/Applications/Microchip/XC32/bin/bin/../../lib/gcc/pic32c/13.2.1/thumb/v6-m/nofp\libgcc.a(bpabi.o)
 .debug_info    0x00000000       0xfd C:/Applications/Microchip/XC32/bin/bin/../../lib/gcc/pic32c/13.2.1/thumb/v6-m/nofp\libgcc.a(bpabi.o)
 .debug_abbrev  0x00000000       0xcf C:/Applications/Microchip/XC32/bin/bin/../../lib/gcc/pic32c/13.2.1/thumb/v6-m/nofp\libgcc.a(bpabi.o)
 .debug_loc     0x00000000       0xdd C:/Applications/Microchip/XC32/bin/bin/../../lib/gcc/pic32c/13.2.1/thumb/v6-m/nofp\libgcc.a(bpabi.o)
 .debug_aranges
                0x00000000       0x20 C:/Applications/Microchip/XC32/bin/bin/../../lib/gcc/pic32c/13.2.1/thumb/v6-m/nofp\libgcc.a(bpabi.o)
 .debug_line    0x00000000       0xb6 C:/Applications/Microchip/XC32/bin/bin/../../lib/gcc/pic32c/13.2.1/thumb/v6-m/nofp\libgcc.a(bpabi.o)
 .debug_str     0x00000000      0x223 C:/Applications/Microchip/XC32/bin/bin/../../lib/gcc/pic32c/13.2.1/thumb/v6-m/nofp\libgcc.a(bpabi.o)
 .comment       0x00000000       0x36 C:/Applications/Microchip/XC32/bin/bin/../../lib/gcc/pic32c/13.2.1/thumb/v6-m/nofp\libgcc.a(bpabi.o)
 .debug_frame   0x00000000       0x34 C:/Applications/Microchip/XC32/bin/bin/../../lib/gcc/pic32c/13.2.1/thumb/v6-m/nofp\libgcc.a(bpabi.o)
 .ARM.attributes
                0x00000000       0x2c C:/Applications/Microchip/XC32/bin/bin/../../lib/gcc/pic32c/13.2.1/thumb/v6-m/nofp\libgcc.a(bpabi.o)
 .data          0x00000000        0x0 C:/Applications/Microchip/XC32/bin/bin/../../lib/gcc/pic32c/13.2.1/thumb/v6-m/nofp\libgcc.a(_clzdi2.o)
 .bss           0x00000000        0x0 C:/Applications/Microchip/XC32/bin/bin/../../lib/gcc/pic32c/13.2.1/thumb/v6-m/nofp\libgcc.a(_clzdi2.o)
 .xc_stack_usage.hdr
                0x00000000        0xe C:/Applications/Microchip/XC32/bin/bin/../../lib/gcc/pic32c/13.2.1/thumb/v6-m/nofp\libgcc.a(_clzdi2.o)
 .xc_stack_usage
                0x00000000       0x16 C:/Applications/Microchip/XC32/bin/bin/../../lib/gcc/pic32c/13.2.1/thumb/v6-m/nofp\libgcc.a(_clzdi2.o)
 .text          0x00000000      0x12c C:/Applications/Microchip/XC32/bin/bin/../../lib/gcc/pic32c/13.2.1/thumb/v6-m/nofp\libgcc.a(_divdi3.o)
 .data          0x00000000        0x0 C:/Applications/Microchip/XC32/bin/bin/../../lib/gcc/pic32c/13.2.1/thumb/v6-m/nofp\libgcc.a(_divdi3.o)
 .bss           0x00000000        0x0 C:/Applications/Microchip/XC32/bin/bin/../../lib/gcc/pic32c/13.2.1/thumb/v6-m/nofp\libgcc.a(_divdi3.o)
 .xc_stack_usage
                0x00000000       0x16 C:/Applications/Microchip/XC32/bin/bin/../../lib/gcc/pic32c/13.2.1/thumb/v6-m/nofp\libgcc.a(_divdi3.o)
 .ARM.extab     0x00000000        0x0 C:/Applications/Microchip/XC32/bin/bin/../../lib/gcc/pic32c/13.2.1/thumb/v6-m/nofp\libgcc.a(_divdi3.o)
 .ARM.exidx     0x00000000        0x8 C:/Applications/Microchip/XC32/bin/bin/../../lib/gcc/pic32c/13.2.1/thumb/v6-m/nofp\libgcc.a(_divdi3.o)
 .xc_stack_usage.hdr
                0x00000000        0xe C:/Applications/Microchip/XC32/bin/bin/../../lib/gcc/pic32c/13.2.1/thumb/v6-m/nofp\libgcc.a(_divdi3.o)
 .debug_info    0x00000000      0x53a C:/Applications/Microchip/XC32/bin/bin/../../lib/gcc/pic32c/13.2.1/thumb/v6-m/nofp\libgcc.a(_divdi3.o)
 .debug_abbrev  0x00000000      0x1b6 C:/Applications/Microchip/XC32/bin/bin/../../lib/gcc/pic32c/13.2.1/thumb/v6-m/nofp\libgcc.a(_divdi3.o)
 .debug_loc     0x00000000      0x369 C:/Applications/Microchip/XC32/bin/bin/../../lib/gcc/pic32c/13.2.1/thumb/v6-m/nofp\libgcc.a(_divdi3.o)
 .debug_aranges
                0x00000000       0x20 C:/Applications/Microchip/XC32/bin/bin/../../lib/gcc/pic32c/13.2.1/thumb/v6-m/nofp\libgcc.a(_divdi3.o)
 .debug_ranges  0x00000000       0x18 C:/Applications/Microchip/XC32/bin/bin/../../lib/gcc/pic32c/13.2.1/thumb/v6-m/nofp\libgcc.a(_divdi3.o)
 .debug_line    0x00000000      0x1e4 C:/Applications/Microchip/XC32/bin/bin/../../lib/gcc/pic32c/13.2.1/thumb/v6-m/nofp\libgcc.a(_divdi3.o)
 .debug_str     0x00000000      0x717 C:/Applications/Microchip/XC32/bin/bin/../../lib/gcc/pic32c/13.2.1/thumb/v6-m/nofp\libgcc.a(_divdi3.o)
 .comment       0x00000000       0x36 C:/Applications/Microchip/XC32/bin/bin/../../lib/gcc/pic32c/13.2.1/thumb/v6-m/nofp\libgcc.a(_divdi3.o)
 .debug_frame   0x00000000       0x30 C:/Applications/Microchip/XC32/bin/bin/../../lib/gcc/pic32c/13.2.1/thumb/v6-m/nofp\libgcc.a(_divdi3.o)
 .ARM.attributes
                0x00000000       0x2c C:/Applications/Microchip/XC32/bin/bin/../../lib/gcc/pic32c/13.2.1/thumb/v6-m/nofp\libgcc.a(_divdi3.o)
 .data          0x00000000        0x0 C:/Applications/Microchip/XC32/bin/bin/../../lib/gcc/pic32c/13.2.1/thumb/v6-m/nofp\libgcc.a(_clzsi2.o)
 .bss           0x00000000        0x0 C:/Applications/Microchip/XC32/bin/bin/../../lib/gcc/pic32c/13.2.1/thumb/v6-m/nofp\libgcc.a(_clzsi2.o)
 .xc_stack_usage.hdr
                0x00000000        0xe C:/Applications/Microchip/XC32/bin/bin/../../lib/gcc/pic32c/13.2.1/thumb/v6-m/nofp\libgcc.a(_clzsi2.o)
 .xc_stack_usage
                0x00000000       0x16 C:/Applications/Microchip/XC32/bin/bin/../../lib/gcc/pic32c/13.2.1/thumb/v6-m/nofp\libgcc.a(_clzsi2.o)
 .text          0x00000000        0x0 C:/Applications/Microchip/XC32/bin/bin/../../lib/gcc/pic32c/13.2.1/thumb/v6-m/nofp/crtend.o
 .data          0x00000000        0x0 C:/Applications/Microchip/XC32/bin/bin/../../lib/gcc/pic32c/13.2.1/thumb/v6-m/nofp/crtend.o
 .bss           0x00000000        0x0 C:/Applications/Microchip/XC32/bin/bin/../../lib/gcc/pic32c/13.2.1/thumb/v6-m/nofp/crtend.o
 .rodata        0x00000000       0x24 C:/Applications/Microchip/XC32/bin/bin/../../lib/gcc/pic32c/13.2.1/thumb/v6-m/nofp/crtend.o
 .eh_frame      0x00000000        0x4 C:/Applications/Microchip/XC32/bin/bin/../../lib/gcc/pic32c/13.2.1/thumb/v6-m/nofp/crtend.o
 .xc_stack_usage.hdr
                0x00000000        0xe C:/Applications/Microchip/XC32/bin/bin/../../lib/gcc/pic32c/13.2.1/thumb/v6-m/nofp/crtend.o
 .comment       0x00000000       0x36 C:/Applications/Microchip/XC32/bin/bin/../../lib/gcc/pic32c/13.2.1/thumb/v6-m/nofp/crtend.o
 .ARM.attributes
                0x00000000       0x2c C:/Applications/Microchip/XC32/bin/bin/../../lib/gcc/pic32c/13.2.1/thumb/v6-m/nofp/crtend.o
 .text          0x00000000        0x0 C:/Applications/Microchip/XC32/bin/bin/../../lib/gcc/pic32c/13.2.1/thumb/v6-m/nofp/crtn.o
 .data          0x00000000        0x0 C:/Applications/Microchip/XC32/bin/bin/../../lib/gcc/pic32c/13.2.1/thumb/v6-m/nofp/crtn.o
 .bss           0x00000000        0x0 C:/Applications/Microchip/XC32/bin/bin/../../lib/gcc/pic32c/13.2.1/thumb/v6-m/nofp/crtn.o
 .xc_stack_usage.hdr
                0x00000000        0xe C:/Applications/Microchip/XC32/bin/bin/../../lib/gcc/pic32c/13.2.1/thumb/v6-m/nofp/crtn.o
 .text          0x00000000        0x0 C:/Applications/Microchip/XC32/bin/bin/../../lib/gcc/pic32c/13.2.1/../../../../pic32c/lib/thumb/v6-m/nofp\libpic32c.a(pic32_data_init_clear.o)
 .data          0x00000000        0x0 C:/Applications/Microchip/XC32/bin/bin/../../lib/gcc/pic32c/13.2.1/../../../../pic32c/lib/thumb/v6-m/nofp\libpic32c.a(pic32_data_init_clear.o)
 .bss           0x00000000        0x0 C:/Applications/Microchip/XC32/bin/bin/../../lib/gcc/pic32c/13.2.1/../../../../pic32c/lib/thumb/v6-m/nofp\libpic32c.a(pic32_data_init_clear.o)
 .xc_stack_usage
                0x00000000       0x1b C:/Applications/Microchip/XC32/bin/bin/../../lib/gcc/pic32c/13.2.1/../../../../pic32c/lib/thumb/v6-m/nofp\libpic32c.a(pic32_data_init_clear.o)
 .xc_stack_usage.hdr
                0x00000000        0xe C:/Applications/Microchip/XC32/bin/bin/../../lib/gcc/pic32c/13.2.1/../../../../pic32c/lib/thumb/v6-m/nofp\libpic32c.a(pic32_data_init_clear.o)
 .text          0x00000000        0x0 C:/Applications/Microchip/XC32/bin/bin/../../lib/gcc/pic32c/13.2.1/../../../../pic32c/lib/thumb/v6-m/nofp\libpic32c.a(pic32_data_init_copy.o)
 .data          0x00000000        0x0 C:/Applications/Microchip/XC32/bin/bin/../../lib/gcc/pic32c/13.2.1/../../../../pic32c/lib/thumb/v6-m/nofp\libpic32c.a(pic32_data_init_copy.o)
 .bss           0x00000000        0x0 C:/Applications/Microchip/XC32/bin/bin/../../lib/gcc/pic32c/13.2.1/../../../../pic32c/lib/thumb/v6-m/nofp\libpic32c.a(pic32_data_init_copy.o)
 .xc_stack_usage
                0x00000000       0x1a C:/Applications/Microchip/XC32/bin/bin/../../lib/gcc/pic32c/13.2.1/../../../../pic32c/lib/thumb/v6-m/nofp\libpic32c.a(pic32_data_init_copy.o)
 .xc_stack_usage.hdr
                0x00000000        0xe C:/Applications/Microchip/XC32/bin/bin/../../lib/gcc/pic32c/13.2.1/../../../../pic32c/lib/thumb/v6-m/nofp\libpic32c.a(pic32_data_init_copy.o)

Memory Configuration

Name             Origin             Length             Attributes
rom              0x00000000         0x00080000         xrl
ram              0x20000000         0x00010000         xw!r
config_00804000  0x00804000         0x00000004
config_00804004  0x00804004         0x00000004
*default*        0x00000000         0xffffffff

Linker script and memory map

LOAD C:/Applications/Microchip/XC32/bin/bin/../../lib/gcc/pic32c/13.2.1/thumb/v6-m/nofp/crti.o
LOAD C:/Applications/Microchip/XC32/bin/bin/../../lib/gcc/pic32c/13.2.1/thumb/v6-m/nofp/crtbegin.o
LOAD build/default/production/_ext/158385033/drv_i2c.o
LOAD build/default/production/_ext/2070931557/drv_spi.o
LOAD build/default/production/_ext/869808652/drv_usart.o
LOAD build/default/production/_ext/622324608/wdrv_winc_spi.o
LOAD build/default/production/_ext/622324608/wdrv_winc_eint.o
LOAD build/default/production/_ext/1857064221/winc_cmds.o
LOAD build/default/production/_ext/1857064221/winc_cmd_req.o
LOAD build/default/production/_ext/1857064221/winc_dev.o
LOAD build/default/production/_ext/1857064221/winc_sdio_drv.o
LOAD build/default/production/_ext/1857064221/winc_socket.o
LOAD build/default/production/_ext/1857064221/winc_tables.o
LOAD build/default/production/_ext/1706628858/wdrv_winc.o
LOAD build/default/production/_ext/1706628858/wdrv_winc_assoc.o
LOAD build/default/production/_ext/1706628858/wdrv_winc_authctx.o
LOAD build/default/production/_ext/1706628858/wdrv_winc_bssctx.o
LOAD build/default/production/_ext/1706628858/wdrv_winc_bssfind.o
LOAD build/default/production/_ext/1706628858/wdrv_winc_dns.o
LOAD build/default/production/_ext/1706628858/wdrv_winc_dhcps.o
LOAD build/default/production/_ext/1706628858/wdrv_winc_extcrypto.o
LOAD build/default/production/_ext/1706628858/wdrv_winc_file.o
LOAD build/default/production/_ext/1706628858/wdrv_winc_mqtt.o
LOAD build/default/production/_ext/1706628858/wdrv_winc_netif.o
LOAD build/default/production/_ext/1706628858/wdrv_winc_ota.o
LOAD build/default/production/_ext/1706628858/wdrv_winc_pps.o
LOAD build/default/production/_ext/1706628858/wdrv_winc_nvm.o
LOAD build/default/production/_ext/1706628858/wdrv_winc_prov.o
LOAD build/default/production/_ext/1706628858/wdrv_winc_sntp.o
LOAD build/default/production/_ext/1706628858/wdrv_winc_socket.o
LOAD build/default/production/_ext/1706628858/wdrv_winc_softap.o
LOAD build/default/production/_ext/1706628858/wdrv_winc_sta.o
LOAD build/default/production/_ext/1706628858/wdrv_winc_systime.o
LOAD build/default/production/_ext/1706628858/wdrv_winc_tls.o
LOAD build/default/production/_ext/1706628858/wdrv_winc_utils.o
LOAD build/default/production/_ext/1706628858/wdrv_winc_wifi.o
LOAD build/default/production/_ext/60163342/plib_adc0.o
LOAD build/default/production/_ext/60165182/plib_can0.o
LOAD build/default/production/_ext/1984496892/plib_clock.o
LOAD build/default/production/_ext/60166132/plib_dac.o
LOAD build/default/production/_ext/1985337713/plib_divas.o
LOAD build/default/production/_ext/1865161661/plib_dmac.o
LOAD build/default/production/_ext/60167341/plib_eic.o
LOAD build/default/production/_ext/1986646378/plib_evsys.o
LOAD build/default/production/_ext/1987437027/plib_freqm.o
LOAD build/default/production/_ext/1865468468/plib_nvic.o
LOAD build/default/production/_ext/1593096446/plib_nvmctrl.o
LOAD build/default/production/_ext/829342769/plib_pm.o
LOAD build/default/production/_ext/1865521619/plib_port.o
LOAD build/default/production/_ext/1865585090/plib_rstc.o
LOAD build/default/production/_ext/60180175/plib_rtc_clock.o
LOAD build/default/production/_ext/508257091/plib_sercom2_i2c_master.o
LOAD build/default/production/_ext/17022449/plib_sercom3_spi_master.o
LOAD build/default/production/_ext/17022449/plib_sercom4_spi_master.o
LOAD build/default/production/_ext/17022449/plib_sercom5_spi_master.o
LOAD build/default/production/_ext/504274921/plib_sercom1_usart.o
LOAD build/default/production/_ext/504274921/plib_sercom0_usart.o
LOAD build/default/production/_ext/1865616679/plib_supc.o
LOAD build/default/production/_ext/1827571544/plib_systick.o
LOAD build/default/production/_ext/60181570/plib_tcc0.o
LOAD build/default/production/_ext/60184501/plib_wdt.o
LOAD build/default/production/_ext/163028504/xc32_monitor.o
LOAD build/default/production/_ext/1832805299/sys_console_uart.o
LOAD build/default/production/_ext/1832805299/sys_console.o
LOAD build/default/production/_ext/14461671/sys_dma.o
LOAD build/default/production/_ext/1881668453/sys_int.o
LOAD build/default/production/_ext/692303624/sys_wincs_mqtt_service.o
LOAD build/default/production/_ext/1766557203/sys_wincs_net_service.o
LOAD build/default/production/_ext/101884895/sys_time.o
LOAD build/default/production/_ext/634868841/sys_wincs_wifi_service.o
LOAD build/default/production/_ext/753841488/sys_wincs_system_service.o
LOAD build/default/production/_ext/1171490990/tasks.o
LOAD build/default/production/_ext/1171490990/initialization.o
LOAD build/default/production/_ext/1171490990/interrupts.o
LOAD build/default/production/_ext/1171490990/exceptions.o
LOAD build/default/production/_ext/1171490990/startup_xc32.o
LOAD build/default/production/_ext/1171490990/libc_syscalls.o
LOAD build/default/production/_ext/1360937237/ad9954_driver.o
LOAD build/default/production/_ext/1360937237/bme690_driver.o
LOAD build/default/production/_ext/1360937237/bmp585_driver.o
LOAD build/default/production/_ext/1360937237/can0_driver.o
LOAD build/default/production/_ext/1360937237/console_driver.o
LOAD build/default/production/_ext/1360937237/fcm360w_driver.o
LOAD build/default/production/_ext/1360937237/hdc302x_driver.o
LOAD build/default/production/_ext/1360937237/mcp9808_driver.o
LOAD build/default/production/_ext/1360937237/ntc_driver.o
LOAD build/default/production/_ext/1360937237/rstc_driver.o
LOAD build/default/production/_ext/1360937237/rtc_driver.o
LOAD build/default/production/_ext/1360937237/sen63c_driver.o
LOAD build/default/production/_ext/1360937237/sht4x_driver.o
LOAD build/default/production/_ext/1360937237/ssd1306_driver.o
LOAD build/default/production/_ext/1360937237/stcc4_driver.o
LOAD build/default/production/_ext/1360937237/timer_driver.o
LOAD build/default/production/_ext/1360937237/vcnl4200_driver.o
LOAD build/default/production/_ext/1360937237/ws281x_driver.o
LOAD build/default/production/_ext/1360937237/xm125_driver.o
LOAD build/default/production/_ext/1360937237/wincs02_driver.o
LOAD build/default/production/_ext/1360937237/app.o
LOAD build/default/production/_ext/1360937237/main.o
                0x00000001                        __MPLAB_BUILD = 0x1
                0x00080000                        __rom_end = (ORIGIN (rom) + LENGTH (rom))
                0x20010000                        __ram_end = (ORIGIN (ram) + LENGTH (ram))

.config_00804000
                0x00804000        0x4
 *(.config_00804000)
 .config_00804000
                0x00804000        0x4 build/default/production/_ext/1171490990/initialization.o
                0x00804000                __config_00804000

.config_00804004
                0x00804004        0x4
 *(.config_00804004)
 .config_00804004
                0x00804004        0x4 build/default/production/_ext/1171490990/initialization.o
                0x00804004                __config_00804004

.vectors        0x00000000       0xc0
                0x00000000                        . = ALIGN (0x4)
                0x00000000                        _sfixed = .
 *(.vectors .vectors.* .vectors_default .vectors_default.*)
 .vectors       0x00000000       0xc0 build/default/production/_ext/1171490990/interrupts.o
                0x00000000                exception_table
 *(.isr_vector)
 *(.reset*)
 *(.after_vectors)

.text           0x000000c0       0x20
                0x000000c0                        . = ALIGN (0x4)
 *(.glue_7t)
 .glue_7t       0x000000c0        0x0 linker stubs
 *(.glue_7)
 .glue_7        0x000000c0        0x0 linker stubs
 *(.gnu.linkonce.r.*)
 *(.ARM.extab* .gnu.linkonce.armextab.*)
                0x000000c0                        . = ALIGN (0x4)
 *(.init)
 .init          0x000000c0        0x4 C:/Applications/Microchip/XC32/bin/bin/../../lib/gcc/pic32c/13.2.1/thumb/v6-m/nofp/crti.o
                0x000000c0                _init
 .init          0x000000c4        0x8 C:/Applications/Microchip/XC32/bin/bin/../../lib/gcc/pic32c/13.2.1/thumb/v6-m/nofp/crtn.o
                0x000000cc                        . = ALIGN (0x4)
                0x000000cc                        __preinit_array_start = .
 *(.preinit_array)
                0x000000cc                        __preinit_array_end = .
                0x000000cc                        . = ALIGN (0x4)
                0x000000cc                        __init_array_start = .
 *(SORT_BY_NAME(.init_array.*))
 *(.init_array)
 .init_array    0x000000cc        0x4 C:/Applications/Microchip/XC32/bin/bin/../../lib/gcc/pic32c/13.2.1/thumb/v6-m/nofp/crtbegin.o
                0x000000d0                        __init_array_end = .
                0x000000d0                        . = ALIGN (0x4)
 *crtbegin.o(.ctors)
 *(EXCLUDE_FILE(*crtend.o) .ctors)
 *(SORT_BY_NAME(.ctors.*))
 *crtend.o(.ctors)
                0x000000d0                        . = ALIGN (0x4)
 *(.fini)
 .fini          0x000000d0        0x4 C:/Applications/Microchip/XC32/bin/bin/../../lib/gcc/pic32c/13.2.1/thumb/v6-m/nofp/crti.o
                0x000000d0                _fini
 .fini          0x000000d4        0x8 C:/Applications/Microchip/XC32/bin/bin/../../lib/gcc/pic32c/13.2.1/thumb/v6-m/nofp/crtn.o
                0x000000dc                        . = ALIGN (0x4)
                0x000000dc                        __fini_array_start = .
 *(.fini_array)
 .fini_array    0x000000dc        0x4 C:/Applications/Microchip/XC32/bin/bin/../../lib/gcc/pic32c/13.2.1/thumb/v6-m/nofp/crtbegin.o
 *(SORT_BY_NAME(.fini_array.*))
                0x000000e0                        __fini_array_end = .
 *crtbegin.o(.dtors)
 *(EXCLUDE_FILE(*crtend.o) .dtors)
 *(SORT_BY_NAME(.dtors.*))
 *crtend.o(.dtors)
                0x000000e0                        . = ALIGN (0x4)
                0x000000e0                        _efixed = .
                [!provide]                        PROVIDE (__exidx_start = .)

.ARM.exidx      0x000000e0        0x8
 *(.ARM.exidx* .gnu.linkonce.armexidx.*)
 .ARM.exidx     0x000000e0        0x8 C:/Applications/Microchip/XC32/bin/bin/../../lib/gcc/pic32c/13.2.1/thumb/v6-m/nofp\libgcc.a(_udivmoddi4.o)
                [!provide]                        PROVIDE (__exidx_end = .)
                0x000000e8                        . = ALIGN (0x4)
                0x000000e8                        _etext = .

.bss            0x20000000        0x0
                0x20000000                        . = ALIGN (0x4)
                0x20000000                        __bss_start__ = .
                0x20000000                        _sbss = .
                0x20000000                        _szero = .
 *(COMMON)
                0x20000000                        . = ALIGN (0x4)
                0x20000000                        __bss_end__ = .
                0x20000000                        _ebss = .
                0x20000000                        _ezero = .
                0x20000000                        . = ALIGN (0x4)
                0x20000000                        _end = .
                0x2000ffff                        _ram_end_ = ((ORIGIN (ram) + LENGTH (ram)) - 0x1)
                0x00002000                        _min_heap_size = 0x2000
START GROUP
LOAD C:/Applications/Microchip/XC32/bin/bin/../../lib/gcc/pic32c/13.2.1/../../../../pic32c/lib/thumb/v6-m/nofp\libpic32c.a
LOAD C:/Applications/Microchip/XC32/bin/bin/../../lib/gcc/pic32c/13.2.1/../../../../pic32c/lib/thumb/v6-m/nofp\libc-size-musl.a
LOAD C:/Applications/Microchip/XC32/bin/bin/../../lib/gcc/pic32c/13.2.1/../../../../pic32c/lib/thumb/v6-m/nofp\liblmalloc-musl.a
LOAD C:/Applications/Microchip/XC32/bin/bin/../../lib/gcc/pic32c/13.2.1/../../../../pic32c/lib/thumb/v6-m/nofp\libc-musl.a
LOAD C:/Applications/Microchip/XC32/bin/bin/../../lib/gcc/pic32c/13.2.1/../../../../pic32c/lib/thumb/v6-m/nofp\libm-fast-emfloat.a
LOAD C:/Applications/Microchip/XC32/bin/bin/../../lib/gcc/pic32c/13.2.1/../../../../pic32c/lib/thumb/v6-m/nofp\libm-musl.a
END GROUP
LOAD C:/Applications/Microchip/XC32/bin/bin/../../lib/gcc/pic32c/13.2.1/thumb/v6-m/nofp\libgcc.a
LOAD C:/Applications/Microchip/XC32/bin/bin/../../lib/gcc/pic32c/13.2.1/thumb/v6-m/nofp/crtend.o
LOAD C:/Applications/Microchip/XC32/bin/bin/../../lib/gcc/pic32c/13.2.1/thumb/v6-m/nofp/crtn.o
OUTPUT(dist/default/production/PIC32CMJH01.X.production.elf elf32-littlearm)
LOAD linker stubs
LOAD data_init

.note           0x00000000     0x10c8
 .note          0x00000000       0x18 C:/Applications/Microchip/XC32/bin/bin/../../lib/gcc/pic32c/13.2.1/thumb/v6-m/nofp/crti.o
 .note          0x00000018       0x18 C:/Applications/Microchip/XC32/bin/bin/../../lib/gcc/pic32c/13.2.1/thumb/v6-m/nofp/crtbegin.o
 .note          0x00000030       0x18 build/default/production/_ext/158385033/drv_i2c.o
 .note          0x00000048       0x18 build/default/production/_ext/2070931557/drv_spi.o
 .note          0x00000060       0x18 build/default/production/_ext/869808652/drv_usart.o
 .note          0x00000078       0x18 build/default/production/_ext/622324608/wdrv_winc_spi.o
 .note          0x00000090       0x18 build/default/production/_ext/622324608/wdrv_winc_eint.o
 .note          0x000000a8       0x18 build/default/production/_ext/1857064221/winc_cmds.o
 .note          0x000000c0       0x18 build/default/production/_ext/1857064221/winc_cmd_req.o
 .note          0x000000d8       0x18 build/default/production/_ext/1857064221/winc_dev.o
 .note          0x000000f0       0x18 build/default/production/_ext/1857064221/winc_sdio_drv.o
 .note          0x00000108       0x18 build/default/production/_ext/1857064221/winc_socket.o
 .note          0x00000120       0x18 build/default/production/_ext/1857064221/winc_tables.o
 .note          0x00000138       0x18 build/default/production/_ext/1706628858/wdrv_winc.o
 .note          0x00000150       0x18 build/default/production/_ext/1706628858/wdrv_winc_assoc.o
 .note          0x00000168       0x18 build/default/production/_ext/1706628858/wdrv_winc_authctx.o
 .note          0x00000180       0x18 build/default/production/_ext/1706628858/wdrv_winc_bssctx.o
 .note          0x00000198       0x18 build/default/production/_ext/1706628858/wdrv_winc_bssfind.o
 .note          0x000001b0       0x18 build/default/production/_ext/1706628858/wdrv_winc_dns.o
 .note          0x000001c8       0x18 build/default/production/_ext/1706628858/wdrv_winc_dhcps.o
 .note          0x000001e0       0x18 build/default/production/_ext/1706628858/wdrv_winc_extcrypto.o
 .note          0x000001f8       0x18 build/default/production/_ext/1706628858/wdrv_winc_file.o
 .note          0x00000210       0x18 build/default/production/_ext/1706628858/wdrv_winc_mqtt.o
 .note          0x00000228       0x18 build/default/production/_ext/1706628858/wdrv_winc_netif.o
 .note          0x00000240       0x18 build/default/production/_ext/1706628858/wdrv_winc_ota.o
 .note          0x00000258       0x18 build/default/production/_ext/1706628858/wdrv_winc_pps.o
 .note          0x00000270       0x18 build/default/production/_ext/1706628858/wdrv_winc_nvm.o
 .note          0x00000288       0x18 build/default/production/_ext/1706628858/wdrv_winc_prov.o
 .note          0x000002a0       0x18 build/default/production/_ext/1706628858/wdrv_winc_sntp.o
 .note          0x000002b8       0x18 build/default/production/_ext/1706628858/wdrv_winc_socket.o
 .note          0x000002d0       0x18 build/default/production/_ext/1706628858/wdrv_winc_softap.o
 .note          0x000002e8       0x18 build/default/production/_ext/1706628858/wdrv_winc_sta.o
 .note          0x00000300       0x18 build/default/production/_ext/1706628858/wdrv_winc_systime.o
 .note          0x00000318       0x18 build/default/production/_ext/1706628858/wdrv_winc_tls.o
 .note          0x00000330       0x18 build/default/production/_ext/1706628858/wdrv_winc_utils.o
 .note          0x00000348       0x18 build/default/production/_ext/1706628858/wdrv_winc_wifi.o
 .note          0x00000360       0x18 build/default/production/_ext/60163342/plib_adc0.o
 .note          0x00000378       0x18 build/default/production/_ext/60165182/plib_can0.o
 .note          0x00000390       0x18 build/default/production/_ext/1984496892/plib_clock.o
 .note          0x000003a8       0x18 build/default/production/_ext/60166132/plib_dac.o
 .note          0x000003c0       0x18 build/default/production/_ext/1985337713/plib_divas.o
 .note          0x000003d8       0x18 build/default/production/_ext/1865161661/plib_dmac.o
 .note          0x000003f0       0x18 build/default/production/_ext/60167341/plib_eic.o
 .note          0x00000408       0x18 build/default/production/_ext/1986646378/plib_evsys.o
 .note          0x00000420       0x18 build/default/production/_ext/1987437027/plib_freqm.o
 .note          0x00000438       0x18 build/default/production/_ext/1865468468/plib_nvic.o
 .note          0x00000450       0x18 build/default/production/_ext/1593096446/plib_nvmctrl.o
 .note          0x00000468       0x18 build/default/production/_ext/829342769/plib_pm.o
 .note          0x00000480       0x18 build/default/production/_ext/1865521619/plib_port.o
 .note          0x00000498       0x18 build/default/production/_ext/1865585090/plib_rstc.o
 .note          0x000004b0       0x18 build/default/production/_ext/60180175/plib_rtc_clock.o
 .note          0x000004c8       0x18 build/default/production/_ext/508257091/plib_sercom2_i2c_master.o
 .note          0x000004e0       0x18 build/default/production/_ext/17022449/plib_sercom3_spi_master.o
 .note          0x000004f8       0x18 build/default/production/_ext/17022449/plib_sercom4_spi_master.o
 .note          0x00000510       0x18 build/default/production/_ext/17022449/plib_sercom5_spi_master.o
 .note          0x00000528       0x18 build/default/production/_ext/504274921/plib_sercom1_usart.o
 .note          0x00000540       0x18 build/default/production/_ext/504274921/plib_sercom0_usart.o
 .note          0x00000558       0x18 build/default/production/_ext/1865616679/plib_supc.o
 .note          0x00000570       0x18 build/default/production/_ext/1827571544/plib_systick.o
 .note          0x00000588       0x18 build/default/production/_ext/60181570/plib_tcc0.o
 .note          0x000005a0       0x18 build/default/production/_ext/60184501/plib_wdt.o
 .note          0x000005b8       0x18 build/default/production/_ext/163028504/xc32_monitor.o
 .note          0x000005d0       0x18 build/default/production/_ext/1832805299/sys_console_uart.o
 .note          0x000005e8       0x18 build/default/production/_ext/1832805299/sys_console.o
 .note          0x00000600       0x18 build/default/production/_ext/14461671/sys_dma.o
 .note          0x00000618       0x18 build/default/production/_ext/1881668453/sys_int.o
 .note          0x00000630       0x18 build/default/production/_ext/692303624/sys_wincs_mqtt_service.o
 .note          0x00000648       0x18 build/default/production/_ext/1766557203/sys_wincs_net_service.o
 .note          0x00000660       0x18 build/default/production/_ext/101884895/sys_time.o
 .note          0x00000678       0x18 build/default/production/_ext/634868841/sys_wincs_wifi_service.o
 .note          0x00000690       0x18 build/default/production/_ext/753841488/sys_wincs_system_service.o
 .note          0x000006a8       0x18 build/default/production/_ext/1171490990/tasks.o
 .note          0x000006c0       0x78 build/default/production/_ext/1171490990/initialization.o
 .note          0x00000738       0x18 build/default/production/_ext/1171490990/interrupts.o
 .note          0x00000750       0x18 build/default/production/_ext/1171490990/exceptions.o
 .note          0x00000768       0x18 build/default/production/_ext/1171490990/startup_xc32.o
 .note          0x00000780       0x18 build/default/production/_ext/1171490990/libc_syscalls.o
 .note          0x00000798       0x18 build/default/production/_ext/1360937237/ad9954_driver.o
 .note          0x000007b0       0x18 build/default/production/_ext/1360937237/bme690_driver.o
 .note          0x000007c8       0x18 build/default/production/_ext/1360937237/bmp585_driver.o
 .note          0x000007e0       0x18 build/default/production/_ext/1360937237/can0_driver.o
 .note          0x000007f8       0x18 build/default/production/_ext/1360937237/console_driver.o
 .note          0x00000810       0x18 build/default/production/_ext/1360937237/fcm360w_driver.o
 .note          0x00000828       0x18 build/default/production/_ext/1360937237/hdc302x_driver.o
 .note          0x00000840       0x18 build/default/production/_ext/1360937237/mcp9808_driver.o
 .note          0x00000858       0x18 build/default/production/_ext/1360937237/ntc_driver.o
 .note          0x00000870       0x18 build/default/production/_ext/1360937237/rstc_driver.o
 .note          0x00000888       0x18 build/default/production/_ext/1360937237/rtc_driver.o
 .note          0x000008a0       0x18 build/default/production/_ext/1360937237/sen63c_driver.o
 .note          0x000008b8       0x18 build/default/production/_ext/1360937237/sht4x_driver.o
 .note          0x000008d0       0x18 build/default/production/_ext/1360937237/ssd1306_driver.o
 .note          0x000008e8       0x18 build/default/production/_ext/1360937237/stcc4_driver.o
 .note          0x00000900       0x18 build/default/production/_ext/1360937237/timer_driver.o
 .note          0x00000918       0x18 build/default/production/_ext/1360937237/vcnl4200_driver.o
 .note          0x00000930       0x18 build/default/production/_ext/1360937237/ws281x_driver.o
 .note          0x00000948       0x18 build/default/production/_ext/1360937237/xm125_driver.o
 .note          0x00000960       0x18 build/default/production/_ext/1360937237/wincs02_driver.o
 .note          0x00000978       0x18 build/default/production/_ext/1360937237/app.o
 .note          0x00000990       0x18 build/default/production/_ext/1360937237/main.o
 .note          0x000009a8       0x18 C:/Applications/Microchip/XC32/bin/bin/../../lib/gcc/pic32c/13.2.1/../../../../pic32c/lib/thumb/v6-m/nofp\libpic32c.a(data_init.o)
 .note          0x000009c0       0x18 C:/Applications/Microchip/XC32/bin/bin/../../lib/gcc/pic32c/13.2.1/../../../../pic32c/lib/thumb/v6-m/nofp\libc-size-musl.a(memcmp.o)
 .note          0x000009d8       0x18 C:/Applications/Microchip/XC32/bin/bin/../../lib/gcc/pic32c/13.2.1/../../../../pic32c/lib/thumb/v6-m/nofp\libc-size-musl.a(memcpy.o)
 .note          0x000009f0       0x18 C:/Applications/Microchip/XC32/bin/bin/../../lib/gcc/pic32c/13.2.1/../../../../pic32c/lib/thumb/v6-m/nofp\libc-size-musl.a(memmove.o)
 .note          0x00000a08       0x18 C:/Applications/Microchip/XC32/bin/bin/../../lib/gcc/pic32c/13.2.1/../../../../pic32c/lib/thumb/v6-m/nofp\libc-size-musl.a(memset.o)
 .note          0x00000a20       0x18 C:/Applications/Microchip/XC32/bin/bin/../../lib/gcc/pic32c/13.2.1/../../../../pic32c/lib/thumb/v6-m/nofp\libc-size-musl.a(strlen.o)
 .note          0x00000a38       0x18 C:/Applications/Microchip/XC32/bin/bin/../../lib/gcc/pic32c/13.2.1/../../../../pic32c/lib/thumb/v6-m/nofp\libc-size-musl.a(strstr.o)
 .note          0x00000a50       0x18 C:/Applications/Microchip/XC32/bin/bin/../../lib/gcc/pic32c/13.2.1/../../../../pic32c/lib/thumb/v6-m/nofp\libc-size-musl.a(strchr.o)
 .note          0x00000a68       0x18 C:/Applications/Microchip/XC32/bin/bin/../../lib/gcc/pic32c/13.2.1/../../../../pic32c/lib/thumb/v6-m/nofp\libc-size-musl.a(strchrnul.o)
 .note          0x00000a80       0x18 C:/Applications/Microchip/XC32/bin/bin/../../lib/gcc/pic32c/13.2.1/../../../../pic32c/lib/thumb/v6-m/nofp\libc-size-musl.a(strcpy.o)
 .note          0x00000a98       0x18 C:/Applications/Microchip/XC32/bin/bin/../../lib/gcc/pic32c/13.2.1/../../../../pic32c/lib/thumb/v6-m/nofp\libc-size-musl.a(strncmp.o)
 .note          0x00000ab0       0x18 C:/Applications/Microchip/XC32/bin/bin/../../lib/gcc/pic32c/13.2.1/../../../../pic32c/lib/thumb/v6-m/nofp\libc-size-musl.a(strncpy.o)
 .note          0x00000ac8       0x18 C:/Applications/Microchip/XC32/bin/bin/../../lib/gcc/pic32c/13.2.1/../../../../pic32c/lib/thumb/v6-m/nofp\libc-size-musl.a(strnlen.o)
 .note          0x00000ae0       0x18 C:/Applications/Microchip/XC32/bin/bin/../../lib/gcc/pic32c/13.2.1/../../../../pic32c/lib/thumb/v6-m/nofp\libc-size-musl.a(strrchr.o)
 .note          0x00000af8       0x18 C:/Applications/Microchip/XC32/bin/bin/../../lib/gcc/pic32c/13.2.1/../../../../pic32c/lib/thumb/v6-m/nofp\libc-size-musl.a(strspn.o)
 .note          0x00000b10       0x18 C:/Applications/Microchip/XC32/bin/bin/../../lib/gcc/pic32c/13.2.1/../../../../pic32c/lib/thumb/v6-m/nofp\libc-size-musl.a(memrchr.o)
 .note          0x00000b28       0x18 C:/Applications/Microchip/XC32/bin/bin/../../lib/gcc/pic32c/13.2.1/../../../../pic32c/lib/thumb/v6-m/nofp\libc-size-musl.a(memchr.o)
 .note          0x00000b40       0x18 C:/Applications/Microchip/XC32/bin/bin/../../lib/gcc/pic32c/13.2.1/../../../../pic32c/lib/thumb/v6-m/nofp\libc-size-musl.a(stpcpy.o)
 .note          0x00000b58       0x18 C:/Applications/Microchip/XC32/bin/bin/../../lib/gcc/pic32c/13.2.1/../../../../pic32c/lib/thumb/v6-m/nofp\libc-size-musl.a(stpncpy.o)
 .note          0x00000b70       0x18 C:/Applications/Microchip/XC32/bin/bin/../../lib/gcc/pic32c/13.2.1/../../../../pic32c/lib/thumb/v6-m/nofp\liblmalloc-musl.a(lite_free.o)
 .note          0x00000b88       0x18 C:/Applications/Microchip/XC32/bin/bin/../../lib/gcc/pic32c/13.2.1/../../../../pic32c/lib/thumb/v6-m/nofp\liblmalloc-musl.a(lite_malloc.o)
 .note          0x00000ba0       0x18 C:/Applications/Microchip/XC32/bin/bin/../../lib/gcc/pic32c/13.2.1/../../../../pic32c/lib/thumb/v6-m/nofp\libc-musl.a(isxdigit.o)
 .note          0x00000bb8       0x18 C:/Applications/Microchip/XC32/bin/bin/../../lib/gcc/pic32c/13.2.1/../../../../pic32c/lib/thumb/v6-m/nofp\libc-musl.a(__libc_start_main.o)
 .note          0x00000bd0       0x18 C:/Applications/Microchip/XC32/bin/bin/../../lib/gcc/pic32c/13.2.1/../../../../pic32c/lib/thumb/v6-m/nofp\libc-musl.a(__errno_location.o)
 .note          0x00000be8       0x18 C:/Applications/Microchip/XC32/bin/bin/../../lib/gcc/pic32c/13.2.1/../../../../pic32c/lib/thumb/v6-m/nofp\libc-musl.a(libc.o)
 .note          0x00000c00       0x18 C:/Applications/Microchip/XC32/bin/bin/../../lib/gcc/pic32c/13.2.1/../../../../pic32c/lib/thumb/v6-m/nofp\libc-musl.a(expand_heap.o)
 .note          0x00000c18       0x18 C:/Applications/Microchip/XC32/bin/bin/../../lib/gcc/pic32c/13.2.1/../../../../pic32c/lib/thumb/v6-m/nofp\libc-musl.a(vsnprintf.o)
 .note          0x00000c30       0x18 C:/Applications/Microchip/XC32/bin/bin/../../lib/gcc/pic32c/13.2.1/../../../../pic32c/lib/thumb/v6-m/nofp\libc-musl.a(snprintf.o)
 .note          0x00000c48       0x18 C:/Applications/Microchip/XC32/bin/bin/../../lib/gcc/pic32c/13.2.1/../../../../pic32c/lib/thumb/v6-m/nofp\libc-musl.a(sprintf.o)
 .note          0x00000c60       0x18 C:/Applications/Microchip/XC32/bin/bin/../../lib/gcc/pic32c/13.2.1/../../../../pic32c/lib/thumb/v6-m/nofp\libc-musl.a(vsprintf.o)
 .note          0x00000c78       0x18 C:/Applications/Microchip/XC32/bin/bin/../../lib/gcc/pic32c/13.2.1/../../../../pic32c/lib/thumb/v6-m/nofp\libc-musl.a(strtol.o)
 .note          0x00000c90       0x18 C:/Applications/Microchip/XC32/bin/bin/../../lib/gcc/pic32c/13.2.1/../../../../pic32c/lib/thumb/v6-m/nofp\libc-musl.a(gmtime.o)
 .note          0x00000ca8       0x18 C:/Applications/Microchip/XC32/bin/bin/../../lib/gcc/pic32c/13.2.1/../../../../pic32c/lib/thumb/v6-m/nofp\libc-musl.a(gmtime_r.o)
 .note          0x00000cc0       0x18 C:/Applications/Microchip/XC32/bin/bin/../../lib/gcc/pic32c/13.2.1/../../../../pic32c/lib/thumb/v6-m/nofp\libc-musl.a(__environ.o)
 .note          0x00000cd8       0x18 C:/Applications/Microchip/XC32/bin/bin/../../lib/gcc/pic32c/13.2.1/../../../../pic32c/lib/thumb/v6-m/nofp\libc-musl.a(intscan.o)
 .note          0x00000cf0       0x18 C:/Applications/Microchip/XC32/bin/bin/../../lib/gcc/pic32c/13.2.1/../../../../pic32c/lib/thumb/v6-m/nofp\libc-musl.a(shgetc.o)
 .note          0x00000d08       0x18 C:/Applications/Microchip/XC32/bin/bin/../../lib/gcc/pic32c/13.2.1/../../../../pic32c/lib/thumb/v6-m/nofp\libc-musl.a(__uflow.o)
 .note          0x00000d20       0x18 C:/Applications/Microchip/XC32/bin/bin/../../lib/gcc/pic32c/13.2.1/../../../../pic32c/lib/thumb/v6-m/nofp\libc-musl.a(vfprintf.o)
 .note          0x00000d38       0x18 C:/Applications/Microchip/XC32/bin/bin/../../lib/gcc/pic32c/13.2.1/../../../../pic32c/lib/thumb/v6-m/nofp\libc-musl.a(__secs_to_tm.o)
 .note          0x00000d50       0x18 C:/Applications/Microchip/XC32/bin/bin/../../lib/gcc/pic32c/13.2.1/../../../../pic32c/lib/thumb/v6-m/nofp\libc-musl.a(__toread.o)
 .note          0x00000d68       0x18 C:/Applications/Microchip/XC32/bin/bin/../../lib/gcc/pic32c/13.2.1/../../../../pic32c/lib/thumb/v6-m/nofp\libc-musl.a(__io_fmt_needed.o)
 .note          0x00000d80       0x18 C:/Applications/Microchip/XC32/bin/bin/../../lib/gcc/pic32c/13.2.1/../../../../pic32c/lib/thumb/v6-m/nofp\libc-musl.a(__pop_float.o)
 .note          0x00000d98       0x18 C:/Applications/Microchip/XC32/bin/bin/../../lib/gcc/pic32c/13.2.1/../../../../pic32c/lib/thumb/v6-m/nofp\libc-musl.a(__pop_int.o)
 .note          0x00000db0       0x18 C:/Applications/Microchip/XC32/bin/bin/../../lib/gcc/pic32c/13.2.1/../../../../pic32c/lib/thumb/v6-m/nofp\libc-musl.a(__pop_ptr.o)
 .note          0x00000dc8       0x18 C:/Applications/Microchip/XC32/bin/bin/../../lib/gcc/pic32c/13.2.1/../../../../pic32c/lib/thumb/v6-m/nofp\libc-musl.a(__printf_core.o)
 .note          0x00000de0       0x18 C:/Applications/Microchip/XC32/bin/bin/../../lib/gcc/pic32c/13.2.1/../../../../pic32c/lib/thumb/v6-m/nofp\libc-musl.a(__stdio_exit.o)
 .note          0x00000df8       0x18 C:/Applications/Microchip/XC32/bin/bin/../../lib/gcc/pic32c/13.2.1/../../../../pic32c/lib/thumb/v6-m/nofp\libc-musl.a(atoi.o)
 .note          0x00000e10       0x18 C:/Applications/Microchip/XC32/bin/bin/../../lib/gcc/pic32c/13.2.1/../../../../pic32c/lib/thumb/v6-m/nofp\libc-musl.a(tolower.o)
 .note          0x00000e28       0x18 C:/Applications/Microchip/XC32/bin/bin/../../lib/gcc/pic32c/13.2.1/../../../../pic32c/lib/thumb/v6-m/nofp\libc-musl.a(__fmt_a.o)
 .note          0x00000e40       0x18 C:/Applications/Microchip/XC32/bin/bin/../../lib/gcc/pic32c/13.2.1/../../../../pic32c/lib/thumb/v6-m/nofp\libc-musl.a(__fmt_d.o)
 .note          0x00000e58       0x18 C:/Applications/Microchip/XC32/bin/bin/../../lib/gcc/pic32c/13.2.1/../../../../pic32c/lib/thumb/v6-m/nofp\libc-musl.a(__fmt_fp.o)
 .note          0x00000e70       0x18 C:/Applications/Microchip/XC32/bin/bin/../../lib/gcc/pic32c/13.2.1/../../../../pic32c/lib/thumb/v6-m/nofp\libc-musl.a(__fmt_o.o)
 .note          0x00000e88       0x18 C:/Applications/Microchip/XC32/bin/bin/../../lib/gcc/pic32c/13.2.1/../../../../pic32c/lib/thumb/v6-m/nofp\libc-musl.a(__fmt_s.o)
 .note          0x00000ea0       0x18 C:/Applications/Microchip/XC32/bin/bin/../../lib/gcc/pic32c/13.2.1/../../../../pic32c/lib/thumb/v6-m/nofp\libc-musl.a(__fmt_u.o)
 .note          0x00000eb8       0x18 C:/Applications/Microchip/XC32/bin/bin/../../lib/gcc/pic32c/13.2.1/../../../../pic32c/lib/thumb/v6-m/nofp\libc-musl.a(__fmt_x.o)
 .note          0x00000ed0       0x18 C:/Applications/Microchip/XC32/bin/bin/../../lib/gcc/pic32c/13.2.1/../../../../pic32c/lib/thumb/v6-m/nofp\libc-musl.a(toupper.o)
 .note          0x00000ee8       0x18 C:/Applications/Microchip/XC32/bin/bin/../../lib/gcc/pic32c/13.2.1/../../../../pic32c/lib/thumb/v6-m/nofp\libc-musl.a(__cvt_u.o)
 .note          0x00000f00       0x18 C:/Applications/Microchip/XC32/bin/bin/../../lib/gcc/pic32c/13.2.1/../../../../pic32c/lib/thumb/v6-m/nofp\libpic32c.a(sbrk.o)
 .note          0x00000f18       0x18 C:/Applications/Microchip/XC32/bin/bin/../../lib/gcc/pic32c/13.2.1/thumb/v6-m/nofp\libgcc.a(_thumb1_case_uqi.o)
 .note          0x00000f30       0x18 C:/Applications/Microchip/XC32/bin/bin/../../lib/gcc/pic32c/13.2.1/thumb/v6-m/nofp\libgcc.a(_udivsi3.o)
 .note          0x00000f48       0x18 C:/Applications/Microchip/XC32/bin/bin/../../lib/gcc/pic32c/13.2.1/thumb/v6-m/nofp\libgcc.a(_divsi3.o)
 .note          0x00000f60       0x18 C:/Applications/Microchip/XC32/bin/bin/../../lib/gcc/pic32c/13.2.1/thumb/v6-m/nofp\libgcc.a(_dvmd_tls.o)
 .note          0x00000f78       0x18 C:/Applications/Microchip/XC32/bin/bin/../../lib/gcc/pic32c/13.2.1/thumb/v6-m/nofp\libgcc.a(_lshrdi3.o)
 .note          0x00000f90       0x18 C:/Applications/Microchip/XC32/bin/bin/../../lib/gcc/pic32c/13.2.1/thumb/v6-m/nofp\libgcc.a(_ashldi3.o)
 .note          0x00000fa8       0x18 C:/Applications/Microchip/XC32/bin/bin/../../lib/gcc/pic32c/13.2.1/thumb/v6-m/nofp\libgcc.a(_aeabi_ldivmod.o)
 .note          0x00000fc0       0x18 C:/Applications/Microchip/XC32/bin/bin/../../lib/gcc/pic32c/13.2.1/thumb/v6-m/nofp\libgcc.a(_aeabi_uldivmod.o)
 .note          0x00000fd8       0x18 C:/Applications/Microchip/XC32/bin/bin/../../lib/gcc/pic32c/13.2.1/thumb/v6-m/nofp\libgcc.a(_muldi3.o)
 .note          0x00000ff0       0x18 C:/Applications/Microchip/XC32/bin/bin/../../lib/gcc/pic32c/13.2.1/thumb/v6-m/nofp\libgcc.a(_udivmoddi4.o)
 .note          0x00001008       0x18 C:/Applications/Microchip/XC32/bin/bin/../../lib/gcc/pic32c/13.2.1/thumb/v6-m/nofp\libgcc.a(bpabi.o)
 .note          0x00001020       0x18 C:/Applications/Microchip/XC32/bin/bin/../../lib/gcc/pic32c/13.2.1/thumb/v6-m/nofp\libgcc.a(_clzdi2.o)
 .note          0x00001038       0x18 C:/Applications/Microchip/XC32/bin/bin/../../lib/gcc/pic32c/13.2.1/thumb/v6-m/nofp\libgcc.a(_divdi3.o)
 .note          0x00001050       0x18 C:/Applications/Microchip/XC32/bin/bin/../../lib/gcc/pic32c/13.2.1/thumb/v6-m/nofp\libgcc.a(_clzsi2.o)
 .note          0x00001068       0x18 C:/Applications/Microchip/XC32/bin/bin/../../lib/gcc/pic32c/13.2.1/thumb/v6-m/nofp/crtend.o
 .note          0x00001080       0x18 C:/Applications/Microchip/XC32/bin/bin/../../lib/gcc/pic32c/13.2.1/thumb/v6-m/nofp/crtn.o
 .note          0x00001098       0x18 C:/Applications/Microchip/XC32/bin/bin/../../lib/gcc/pic32c/13.2.1/../../../../pic32c/lib/thumb/v6-m/nofp\libpic32c.a(pic32_data_init_clear.o)
 .note          0x000010b0       0x18 C:/Applications/Microchip/XC32/bin/bin/../../lib/gcc/pic32c/13.2.1/../../../../pic32c/lib/thumb/v6-m/nofp\libpic32c.a(pic32_data_init_copy.o)

.ARM.attributes
                0x00000000       0x2a
 .ARM.attributes
                0x00000000       0x1e C:/Applications/Microchip/XC32/bin/bin/../../lib/gcc/pic32c/13.2.1/thumb/v6-m/nofp/crti.o
 .ARM.attributes
                0x0000001e       0x2c C:/Applications/Microchip/XC32/bin/bin/../../lib/gcc/pic32c/13.2.1/thumb/v6-m/nofp/crtbegin.o
 .ARM.attributes
                0x0000004a       0x2c build/default/production/_ext/158385033/drv_i2c.o
 .ARM.attributes
                0x00000076       0x2c build/default/production/_ext/2070931557/drv_spi.o
 .ARM.attributes
                0x000000a2       0x2c build/default/production/_ext/869808652/drv_usart.o
 .ARM.attributes
                0x000000ce       0x2c build/default/production/_ext/622324608/wdrv_winc_spi.o
 .ARM.attributes
                0x000000fa       0x2c build/default/production/_ext/622324608/wdrv_winc_eint.o
 .ARM.attributes
                0x00000126       0x2c build/default/production/_ext/1857064221/winc_cmds.o
 .ARM.attributes
                0x00000152       0x2c build/default/production/_ext/1857064221/winc_cmd_req.o
 .ARM.attributes
                0x0000017e       0x2c build/default/production/_ext/1857064221/winc_dev.o
 .ARM.attributes
                0x000001aa       0x2c build/default/production/_ext/1857064221/winc_sdio_drv.o
 .ARM.attributes
                0x000001d6       0x2c build/default/production/_ext/1857064221/winc_socket.o
 .ARM.attributes
                0x00000202       0x2c build/default/production/_ext/1706628858/wdrv_winc.o
 .ARM.attributes
                0x0000022e       0x2c build/default/production/_ext/1706628858/wdrv_winc_assoc.o
 .ARM.attributes
                0x0000025a       0x2c build/default/production/_ext/1706628858/wdrv_winc_bssfind.o
 .ARM.attributes
                0x00000286       0x2c build/default/production/_ext/1706628858/wdrv_winc_dns.o
 .ARM.attributes
                0x000002b2       0x2c build/default/production/_ext/1706628858/wdrv_winc_extcrypto.o
 .ARM.attributes
                0x000002de       0x2c build/default/production/_ext/1706628858/wdrv_winc_mqtt.o
 .ARM.attributes
                0x0000030a       0x2c build/default/production/_ext/1706628858/wdrv_winc_netif.o
 .ARM.attributes
                0x00000336       0x2c build/default/production/_ext/1706628858/wdrv_winc_ota.o
 .ARM.attributes
                0x00000362       0x2c build/default/production/_ext/1706628858/wdrv_winc_pps.o
 .ARM.attributes
                0x0000038e       0x2c build/default/production/_ext/1706628858/wdrv_winc_nvm.o
 .ARM.attributes
                0x000003ba       0x2c build/default/production/_ext/1706628858/wdrv_winc_prov.o
 .ARM.attributes
                0x000003e6       0x2c build/default/production/_ext/1706628858/wdrv_winc_socket.o
 .ARM.attributes
                0x00000412       0x2c build/default/production/_ext/1706628858/wdrv_winc_softap.o
 .ARM.attributes
                0x0000043e       0x2c build/default/production/_ext/1706628858/wdrv_winc_sta.o
 .ARM.attributes
                0x0000046a       0x2c build/default/production/_ext/1706628858/wdrv_winc_systime.o
 .ARM.attributes
                0x00000496       0x2c build/default/production/_ext/60163342/plib_adc0.o
 .ARM.attributes
                0x000004c2       0x2c build/default/production/_ext/60165182/plib_can0.o
 .ARM.attributes
                0x000004ee       0x2c build/default/production/_ext/1984496892/plib_clock.o
 .ARM.attributes
                0x0000051a       0x2c build/default/production/_ext/60166132/plib_dac.o
 .ARM.attributes
                0x00000546       0x2c build/default/production/_ext/1865161661/plib_dmac.o
 .ARM.attributes
                0x00000572       0x2c build/default/production/_ext/60167341/plib_eic.o
 .ARM.attributes
                0x0000059e       0x2c build/default/production/_ext/1986646378/plib_evsys.o
 .ARM.attributes
                0x000005ca       0x2c build/default/production/_ext/1987437027/plib_freqm.o
 .ARM.attributes
                0x000005f6       0x2c build/default/production/_ext/1865468468/plib_nvic.o
 .ARM.attributes
                0x00000622       0x2c build/default/production/_ext/1593096446/plib_nvmctrl.o
 .ARM.attributes
                0x0000064e       0x2c build/default/production/_ext/829342769/plib_pm.o
 .ARM.attributes
                0x0000067a       0x2c build/default/production/_ext/1865521619/plib_port.o
 .ARM.attributes
                0x000006a6       0x2c build/default/production/_ext/1865585090/plib_rstc.o
 .ARM.attributes
                0x000006d2       0x2c build/default/production/_ext/60180175/plib_rtc_clock.o
 .ARM.attributes
                0x000006fe       0x2c build/default/production/_ext/508257091/plib_sercom2_i2c_master.o
 .ARM.attributes
                0x0000072a       0x2c build/default/production/_ext/17022449/plib_sercom3_spi_master.o
 .ARM.attributes
                0x00000756       0x2c build/default/production/_ext/17022449/plib_sercom4_spi_master.o
 .ARM.attributes
                0x00000782       0x2c build/default/production/_ext/17022449/plib_sercom5_spi_master.o
 .ARM.attributes
                0x000007ae       0x2c build/default/production/_ext/504274921/plib_sercom1_usart.o
 .ARM.attributes
                0x000007da       0x2c build/default/production/_ext/504274921/plib_sercom0_usart.o
 .ARM.attributes
                0x00000806       0x2c build/default/production/_ext/1865616679/plib_supc.o
 .ARM.attributes
                0x00000832       0x2c build/default/production/_ext/1827571544/plib_systick.o
 .ARM.attributes
                0x0000085e       0x2c build/default/production/_ext/60181570/plib_tcc0.o
 .ARM.attributes
                0x0000088a       0x2c build/default/production/_ext/60184501/plib_wdt.o
 .ARM.attributes
                0x000008b6       0x2c build/default/production/_ext/1832805299/sys_console_uart.o
 .ARM.attributes
                0x000008e2       0x2c build/default/production/_ext/1832805299/sys_console.o
 .ARM.attributes
                0x0000090e       0x2c build/default/production/_ext/14461671/sys_dma.o
 .ARM.attributes
                0x0000093a       0x2c build/default/production/_ext/1881668453/sys_int.o
 .ARM.attributes
                0x00000966       0x2c build/default/production/_ext/101884895/sys_time.o
 .ARM.attributes
                0x00000992       0x2c build/default/production/_ext/1171490990/tasks.o
 .ARM.attributes
                0x000009be       0x2c build/default/production/_ext/1171490990/initialization.o
 .ARM.attributes
                0x000009ea       0x2c build/default/production/_ext/1171490990/interrupts.o
 .ARM.attributes
                0x00000a16       0x2c build/default/production/_ext/1171490990/exceptions.o
 .ARM.attributes
                0x00000a42       0x2c build/default/production/_ext/1171490990/startup_xc32.o
 .ARM.attributes
                0x00000a6e       0x2c build/default/production/_ext/1360937237/ad9954_driver.o
 .ARM.attributes
                0x00000a9a       0x2c build/default/production/_ext/1360937237/bme690_driver.o
 .ARM.attributes
                0x00000ac6       0x2c build/default/production/_ext/1360937237/bmp585_driver.o
 .ARM.attributes
                0x00000af2       0x2c build/default/production/_ext/1360937237/can0_driver.o
 .ARM.attributes
                0x00000b1e       0x2c build/default/production/_ext/1360937237/console_driver.o
 .ARM.attributes
                0x00000b4a       0x2c build/default/production/_ext/1360937237/fcm360w_driver.o
 .ARM.attributes
                0x00000b76       0x2c build/default/production/_ext/1360937237/hdc302x_driver.o
 .ARM.attributes
                0x00000ba2       0x2c build/default/production/_ext/1360937237/mcp9808_driver.o
 .ARM.attributes
                0x00000bce       0x2c build/default/production/_ext/1360937237/ntc_driver.o
 .ARM.attributes
                0x00000bfa       0x2c build/default/production/_ext/1360937237/rstc_driver.o
 .ARM.attributes
                0x00000c26       0x2c build/default/production/_ext/1360937237/rtc_driver.o
 .ARM.attributes
                0x00000c52       0x2c build/default/production/_ext/1360937237/sen63c_driver.o
 .ARM.attributes
                0x00000c7e       0x2c build/default/production/_ext/1360937237/sht4x_driver.o
 .ARM.attributes
                0x00000caa       0x2c build/default/production/_ext/1360937237/ssd1306_driver.o
 .ARM.attributes
                0x00000cd6       0x2c build/default/production/_ext/1360937237/stcc4_driver.o
 .ARM.attributes
                0x00000d02       0x2c build/default/production/_ext/1360937237/timer_driver.o
 .ARM.attributes
                0x00000d2e       0x2c build/default/production/_ext/1360937237/vcnl4200_driver.o
 .ARM.attributes
                0x00000d5a       0x2c build/default/production/_ext/1360937237/ws281x_driver.o
 .ARM.attributes
                0x00000d86       0x2c build/default/production/_ext/1360937237/xm125_driver.o
 .ARM.attributes
                0x00000db2       0x2c build/default/production/_ext/1360937237/wincs02_driver.o
 .ARM.attributes
                0x00000dde       0x2c build/default/production/_ext/1360937237/app.o
 .ARM.attributes
                0x00000e0a       0x2c build/default/production/_ext/1360937237/main.o
 .ARM.attributes
                0x00000e36       0x2c C:/Applications/Microchip/XC32/bin/bin/../../lib/gcc/pic32c/13.2.1/../../../../pic32c/lib/thumb/v6-m/nofp\libpic32c.a(data_init.o)
 .ARM.attributes
                0x00000e62       0x2e C:/Applications/Microchip/XC32/bin/bin/../../lib/gcc/pic32c/13.2.1/../../../../pic32c/lib/thumb/v6-m/nofp\libc-size-musl.a(memcmp.o)
 .ARM.attributes
                0x00000e90       0x2e C:/Applications/Microchip/XC32/bin/bin/../../lib/gcc/pic32c/13.2.1/../../../../pic32c/lib/thumb/v6-m/nofp\libc-size-musl.a(memcpy.o)
 .ARM.attributes
                0x00000ebe       0x2e C:/Applications/Microchip/XC32/bin/bin/../../lib/gcc/pic32c/13.2.1/../../../../pic32c/lib/thumb/v6-m/nofp\libc-size-musl.a(memset.o)
 .ARM.attributes
                0x00000eec       0x2e C:/Applications/Microchip/XC32/bin/bin/../../lib/gcc/pic32c/13.2.1/../../../../pic32c/lib/thumb/v6-m/nofp\libc-size-musl.a(strlen.o)
 .ARM.attributes
                0x00000f1a       0x2e C:/Applications/Microchip/XC32/bin/bin/../../lib/gcc/pic32c/13.2.1/../../../../pic32c/lib/thumb/v6-m/nofp\libc-size-musl.a(strstr.o)
 .ARM.attributes
                0x00000f48       0x2e C:/Applications/Microchip/XC32/bin/bin/../../lib/gcc/pic32c/13.2.1/../../../../pic32c/lib/thumb/v6-m/nofp\libc-size-musl.a(strchr.o)
 .ARM.attributes
                0x00000f76       0x2e C:/Applications/Microchip/XC32/bin/bin/../../lib/gcc/pic32c/13.2.1/../../../../pic32c/lib/thumb/v6-m/nofp\libc-size-musl.a(strchrnul.o)
 .ARM.attributes
                0x00000fa4       0x2e C:/Applications/Microchip/XC32/bin/bin/../../lib/gcc/pic32c/13.2.1/../../../../pic32c/lib/thumb/v6-m/nofp\libc-size-musl.a(strcpy.o)
 .ARM.attributes
                0x00000fd2       0x2e C:/Applications/Microchip/XC32/bin/bin/../../lib/gcc/pic32c/13.2.1/../../../../pic32c/lib/thumb/v6-m/nofp\libc-size-musl.a(stpcpy.o)
 .ARM.attributes
                0x00001000       0x2e C:/Applications/Microchip/XC32/bin/bin/../../lib/gcc/pic32c/13.2.1/../../../../pic32c/lib/thumb/v6-m/nofp\liblmalloc-musl.a(lite_free.o)
 .ARM.attributes
                0x0000102e       0x2e C:/Applications/Microchip/XC32/bin/bin/../../lib/gcc/pic32c/13.2.1/../../../../pic32c/lib/thumb/v6-m/nofp\liblmalloc-musl.a(lite_malloc.o)
 .ARM.attributes
                0x0000105c       0x2e C:/Applications/Microchip/XC32/bin/bin/../../lib/gcc/pic32c/13.2.1/../../../../pic32c/lib/thumb/v6-m/nofp\libc-musl.a(__libc_start_main.o)
 .ARM.attributes
                0x0000108a       0x2e C:/Applications/Microchip/XC32/bin/bin/../../lib/gcc/pic32c/13.2.1/../../../../pic32c/lib/thumb/v6-m/nofp\libc-musl.a(__errno_location.o)
 .ARM.attributes
                0x000010b8       0x2e C:/Applications/Microchip/XC32/bin/bin/../../lib/gcc/pic32c/13.2.1/../../../../pic32c/lib/thumb/v6-m/nofp\libc-musl.a(libc.o)
 .ARM.attributes
                0x000010e6       0x2e C:/Applications/Microchip/XC32/bin/bin/../../lib/gcc/pic32c/13.2.1/../../../../pic32c/lib/thumb/v6-m/nofp\libc-musl.a(expand_heap.o)
 .ARM.attributes
                0x00001114       0x2e C:/Applications/Microchip/XC32/bin/bin/../../lib/gcc/pic32c/13.2.1/../../../../pic32c/lib/thumb/v6-m/nofp\libc-musl.a(vsnprintf.o)
 .ARM.attributes
                0x00001142       0x2e C:/Applications/Microchip/XC32/bin/bin/../../lib/gcc/pic32c/13.2.1/../../../../pic32c/lib/thumb/v6-m/nofp\libc-musl.a(sprintf.o)
 .ARM.attributes
                0x00001170       0x2e C:/Applications/Microchip/XC32/bin/bin/../../lib/gcc/pic32c/13.2.1/../../../../pic32c/lib/thumb/v6-m/nofp\libc-musl.a(vsprintf.o)
 .ARM.attributes
                0x0000119e       0x2e C:/Applications/Microchip/XC32/bin/bin/../../lib/gcc/pic32c/13.2.1/../../../../pic32c/lib/thumb/v6-m/nofp\libc-musl.a(__environ.o)
 .ARM.attributes
                0x000011cc       0x2e C:/Applications/Microchip/XC32/bin/bin/../../lib/gcc/pic32c/13.2.1/../../../../pic32c/lib/thumb/v6-m/nofp\libc-musl.a(vfprintf.o)
 .ARM.attributes
                0x000011fa       0x2e C:/Applications/Microchip/XC32/bin/bin/../../lib/gcc/pic32c/13.2.1/../../../../pic32c/lib/thumb/v6-m/nofp\libc-musl.a(__pop_float.o)
 .ARM.attributes
                0x00001228       0x2e C:/Applications/Microchip/XC32/bin/bin/../../lib/gcc/pic32c/13.2.1/../../../../pic32c/lib/thumb/v6-m/nofp\libc-musl.a(__pop_int.o)
 .ARM.attributes
                0x00001256       0x2e C:/Applications/Microchip/XC32/bin/bin/../../lib/gcc/pic32c/13.2.1/../../../../pic32c/lib/thumb/v6-m/nofp\libc-musl.a(__pop_ptr.o)
 .ARM.attributes
                0x00001284       0x2e C:/Applications/Microchip/XC32/bin/bin/../../lib/gcc/pic32c/13.2.1/../../../../pic32c/lib/thumb/v6-m/nofp\libc-musl.a(__printf_core.o)
 .ARM.attributes
                0x000012b2       0x2e C:/Applications/Microchip/XC32/bin/bin/../../lib/gcc/pic32c/13.2.1/../../../../pic32c/lib/thumb/v6-m/nofp\libc-musl.a(atoi.o)
 .ARM.attributes
                0x000012e0       0x2e C:/Applications/Microchip/XC32/bin/bin/../../lib/gcc/pic32c/13.2.1/../../../../pic32c/lib/thumb/v6-m/nofp\libc-musl.a(tolower.o)
 .ARM.attributes
                0x0000130e       0x2e C:/Applications/Microchip/XC32/bin/bin/../../lib/gcc/pic32c/13.2.1/../../../../pic32c/lib/thumb/v6-m/nofp\libc-musl.a(__fmt_a.o)
 .ARM.attributes
                0x0000133c       0x2e C:/Applications/Microchip/XC32/bin/bin/../../lib/gcc/pic32c/13.2.1/../../../../pic32c/lib/thumb/v6-m/nofp\libc-musl.a(__fmt_d.o)
 .ARM.attributes
                0x0000136a       0x2e C:/Applications/Microchip/XC32/bin/bin/../../lib/gcc/pic32c/13.2.1/../../../../pic32c/lib/thumb/v6-m/nofp\libc-musl.a(__fmt_fp.o)
 .ARM.attributes
                0x00001398       0x2e C:/Applications/Microchip/XC32/bin/bin/../../lib/gcc/pic32c/13.2.1/../../../../pic32c/lib/thumb/v6-m/nofp\libc-musl.a(__fmt_o.o)
 .ARM.attributes
                0x000013c6       0x2e C:/Applications/Microchip/XC32/bin/bin/../../lib/gcc/pic32c/13.2.1/../../../../pic32c/lib/thumb/v6-m/nofp\libc-musl.a(__fmt_s.o)
 .ARM.attributes
                0x000013f4       0x2e C:/Applications/Microchip/XC32/bin/bin/../../lib/gcc/pic32c/13.2.1/../../../../pic32c/lib/thumb/v6-m/nofp\libc-musl.a(__fmt_u.o)
 .ARM.attributes
                0x00001422       0x2e C:/Applications/Microchip/XC32/bin/bin/../../lib/gcc/pic32c/13.2.1/../../../../pic32c/lib/thumb/v6-m/nofp\libc-musl.a(__fmt_x.o)
 .ARM.attributes
                0x00001450       0x2e C:/Applications/Microchip/XC32/bin/bin/../../lib/gcc/pic32c/13.2.1/../../../../pic32c/lib/thumb/v6-m/nofp\libc-musl.a(toupper.o)
 .ARM.attributes
                0x0000147e       0x2e C:/Applications/Microchip/XC32/bin/bin/../../lib/gcc/pic32c/13.2.1/../../../../pic32c/lib/thumb/v6-m/nofp\libc-musl.a(__cvt_u.o)
 .ARM.attributes
                0x000014ac       0x2c C:/Applications/Microchip/XC32/bin/bin/../../lib/gcc/pic32c/13.2.1/../../../../pic32c/lib/thumb/v6-m/nofp\libm-fast-emfloat.a(fma.o)
 .ARM.attributes
                0x000014d8       0x2c C:/Applications/Microchip/XC32/bin/bin/../../lib/gcc/pic32c/13.2.1/../../../../pic32c/lib/thumb/v6-m/nofp\libm-fast-emfloat.a(floor.o)
 .ARM.attributes
                0x00001504       0x1c C:/Applications/Microchip/XC32/bin/bin/../../lib/gcc/pic32c/13.2.1/../../../../pic32c/lib/thumb/v6-m/nofp\libm-fast-emfloat.a(__aeabi_fadd.o)
 .ARM.attributes
                0x00001520       0x1c C:/Applications/Microchip/XC32/bin/bin/../../lib/gcc/pic32c/13.2.1/../../../../pic32c/lib/thumb/v6-m/nofp\libm-fast-emfloat.a(__aeabi_dadd.o)
 .ARM.attributes
                0x0000153c       0x1c C:/Applications/Microchip/XC32/bin/bin/../../lib/gcc/pic32c/13.2.1/../../../../pic32c/lib/thumb/v6-m/nofp\libm-fast-emfloat.a(__aeabi_fsub.o)
 .ARM.attributes
                0x00001558       0x1c C:/Applications/Microchip/XC32/bin/bin/../../lib/gcc/pic32c/13.2.1/../../../../pic32c/lib/thumb/v6-m/nofp\libm-fast-emfloat.a(__aeabi_dsub.o)
 .ARM.attributes
                0x00001574       0x1c C:/Applications/Microchip/XC32/bin/bin/../../lib/gcc/pic32c/13.2.1/../../../../pic32c/lib/thumb/v6-m/nofp\libm-fast-emfloat.a(__aeabi_fmul.o)
 .ARM.attributes
                0x00001590       0x1c C:/Applications/Microchip/XC32/bin/bin/../../lib/gcc/pic32c/13.2.1/../../../../pic32c/lib/thumb/v6-m/nofp\libm-fast-emfloat.a(__aeabi_dmul_aux.o)
 .ARM.attributes
                0x000015ac       0x1c C:/Applications/Microchip/XC32/bin/bin/../../lib/gcc/pic32c/13.2.1/../../../../pic32c/lib/thumb/v6-m/nofp\libm-fast-emfloat.a(__aeabi_fdiv.o)
 .ARM.attributes
                0x000015c8       0x1c C:/Applications/Microchip/XC32/bin/bin/../../lib/gcc/pic32c/13.2.1/../../../../pic32c/lib/thumb/v6-m/nofp\libm-fast-emfloat.a(__aeabi_ddiv.o)
 .ARM.attributes
                0x000015e4       0x1c C:/Applications/Microchip/XC32/bin/bin/../../lib/gcc/pic32c/13.2.1/../../../../pic32c/lib/thumb/v6-m/nofp\libm-fast-emfloat.a(__aeabi_dcmple.o)
 .ARM.attributes
                0x00001600       0x1c C:/Applications/Microchip/XC32/bin/bin/../../lib/gcc/pic32c/13.2.1/../../../../pic32c/lib/thumb/v6-m/nofp\libm-fast-emfloat.a(__aeabi_dcmpeq.o)
 .ARM.attributes
                0x0000161c       0x1c C:/Applications/Microchip/XC32/bin/bin/../../lib/gcc/pic32c/13.2.1/../../../../pic32c/lib/thumb/v6-m/nofp\libm-fast-emfloat.a(__aeabi_dcmpgt.o)
 .ARM.attributes
                0x00001638       0x1c C:/Applications/Microchip/XC32/bin/bin/../../lib/gcc/pic32c/13.2.1/../../../../pic32c/lib/thumb/v6-m/nofp\libm-fast-emfloat.a(__aeabi_dcmplt.o)
 .ARM.attributes
                0x00001654       0x1c C:/Applications/Microchip/XC32/bin/bin/../../lib/gcc/pic32c/13.2.1/../../../../pic32c/lib/thumb/v6-m/nofp\libm-fast-emfloat.a(__aeabi_f2iz.o)
 .ARM.attributes
                0x00001670       0x1c C:/Applications/Microchip/XC32/bin/bin/../../lib/gcc/pic32c/13.2.1/../../../../pic32c/lib/thumb/v6-m/nofp\libm-fast-emfloat.a(__aeabi_d2iz.o)
 .ARM.attributes
                0x0000168c       0x1c C:/Applications/Microchip/XC32/bin/bin/../../lib/gcc/pic32c/13.2.1/../../../../pic32c/lib/thumb/v6-m/nofp\libm-fast-emfloat.a(__aeabi_f2uiz.o)
 .ARM.attributes
                0x000016a8       0x1c C:/Applications/Microchip/XC32/bin/bin/../../lib/gcc/pic32c/13.2.1/../../../../pic32c/lib/thumb/v6-m/nofp\libm-fast-emfloat.a(__aeabi_d2uiz.o)
 .ARM.attributes
                0x000016c4       0x1c C:/Applications/Microchip/XC32/bin/bin/../../lib/gcc/pic32c/13.2.1/../../../../pic32c/lib/thumb/v6-m/nofp\libm-fast-emfloat.a(__aeabi_i2f.o)
 .ARM.attributes
                0x000016e0       0x1c C:/Applications/Microchip/XC32/bin/bin/../../lib/gcc/pic32c/13.2.1/../../../../pic32c/lib/thumb/v6-m/nofp\libm-fast-emfloat.a(__aeabi_ui2f.o)
 .ARM.attributes
                0x000016fc       0x1c C:/Applications/Microchip/XC32/bin/bin/../../lib/gcc/pic32c/13.2.1/../../../../pic32c/lib/thumb/v6-m/nofp\libm-fast-emfloat.a(__aeabi_f2d.o)
 .ARM.attributes
                0x00001718       0x1c C:/Applications/Microchip/XC32/bin/bin/../../lib/gcc/pic32c/13.2.1/../../../../pic32c/lib/thumb/v6-m/nofp\libm-fast-emfloat.a(__aeabi_d2f.o)
 .ARM.attributes
                0x00001734       0x2c C:/Applications/Microchip/XC32/bin/bin/../../lib/gcc/pic32c/13.2.1/../../../../pic32c/lib/thumb/v6-m/nofp\libpic32c.a(sbrk.o)
 .ARM.attributes
                0x00001760       0x1e C:/Applications/Microchip/XC32/bin/bin/../../lib/gcc/pic32c/13.2.1/thumb/v6-m/nofp\libgcc.a(_thumb1_case_uqi.o)
 .ARM.attributes
                0x0000177e       0x1e C:/Applications/Microchip/XC32/bin/bin/../../lib/gcc/pic32c/13.2.1/thumb/v6-m/nofp\libgcc.a(_udivsi3.o)
 .ARM.attributes
                0x0000179c       0x1e C:/Applications/Microchip/XC32/bin/bin/../../lib/gcc/pic32c/13.2.1/thumb/v6-m/nofp\libgcc.a(_divsi3.o)
 .ARM.attributes
                0x000017ba       0x1e C:/Applications/Microchip/XC32/bin/bin/../../lib/gcc/pic32c/13.2.1/thumb/v6-m/nofp\libgcc.a(_dvmd_tls.o)
 .ARM.attributes
                0x000017d8       0x1e C:/Applications/Microchip/XC32/bin/bin/../../lib/gcc/pic32c/13.2.1/thumb/v6-m/nofp\libgcc.a(_lshrdi3.o)
 .ARM.attributes
                0x000017f6       0x1e C:/Applications/Microchip/XC32/bin/bin/../../lib/gcc/pic32c/13.2.1/thumb/v6-m/nofp\libgcc.a(_ashldi3.o)
 .ARM.attributes
                0x00001814       0x1e C:/Applications/Microchip/XC32/bin/bin/../../lib/gcc/pic32c/13.2.1/thumb/v6-m/nofp\libgcc.a(_aeabi_uldivmod.o)
 .ARM.attributes
                0x00001832       0x2c C:/Applications/Microchip/XC32/bin/bin/../../lib/gcc/pic32c/13.2.1/thumb/v6-m/nofp\libgcc.a(_muldi3.o)
 .ARM.attributes
                0x0000185e       0x2c C:/Applications/Microchip/XC32/bin/bin/../../lib/gcc/pic32c/13.2.1/thumb/v6-m/nofp\libgcc.a(_udivmoddi4.o)
 .ARM.attributes
                0x0000188a       0x1e C:/Applications/Microchip/XC32/bin/bin/../../lib/gcc/pic32c/13.2.1/thumb/v6-m/nofp\libgcc.a(_clzdi2.o)
 .ARM.attributes
                0x000018a8       0x1e C:/Applications/Microchip/XC32/bin/bin/../../lib/gcc/pic32c/13.2.1/thumb/v6-m/nofp\libgcc.a(_clzsi2.o)
 .ARM.attributes
                0x000018c6       0x1e C:/Applications/Microchip/XC32/bin/bin/../../lib/gcc/pic32c/13.2.1/thumb/v6-m/nofp/crtn.o
 .ARM.attributes
                0x000018e4       0x2c C:/Applications/Microchip/XC32/bin/bin/../../lib/gcc/pic32c/13.2.1/../../../../pic32c/lib/thumb/v6-m/nofp\libpic32c.a(pic32_data_init_clear.o)
 .ARM.attributes
                0x00001910       0x2c C:/Applications/Microchip/XC32/bin/bin/../../lib/gcc/pic32c/13.2.1/../../../../pic32c/lib/thumb/v6-m/nofp\libpic32c.a(pic32_data_init_copy.o)

.comment        0x00000000       0x35
 .comment       0x00000000       0x35 C:/Applications/Microchip/XC32/bin/bin/../../lib/gcc/pic32c/13.2.1/thumb/v6-m/nofp/crtbegin.o
                                 0x36 (size before relaxing)
 .comment       0x00000035       0x36 build/default/production/_ext/158385033/drv_i2c.o
 .comment       0x00000035       0x36 build/default/production/_ext/2070931557/drv_spi.o
 .comment       0x00000035       0x36 build/default/production/_ext/869808652/drv_usart.o
 .comment       0x00000035       0x36 build/default/production/_ext/622324608/wdrv_winc_spi.o
 .comment       0x00000035       0x36 build/default/production/_ext/622324608/wdrv_winc_eint.o
 .comment       0x00000035       0x36 build/default/production/_ext/1857064221/winc_cmds.o
 .comment       0x00000035       0x36 build/default/production/_ext/1857064221/winc_cmd_req.o
 .comment       0x00000035       0x36 build/default/production/_ext/1857064221/winc_dev.o
 .comment       0x00000035       0x36 build/default/production/_ext/1857064221/winc_sdio_drv.o
 .comment       0x00000035       0x36 build/default/production/_ext/1857064221/winc_socket.o
 .comment       0x00000035       0x36 build/default/production/_ext/1706628858/wdrv_winc.o
 .comment       0x00000035       0x36 build/default/production/_ext/1706628858/wdrv_winc_assoc.o
 .comment       0x00000035       0x36 build/default/production/_ext/1706628858/wdrv_winc_bssfind.o
 .comment       0x00000035       0x36 build/default/production/_ext/1706628858/wdrv_winc_dns.o
 .comment       0x00000035       0x36 build/default/production/_ext/1706628858/wdrv_winc_extcrypto.o
 .comment       0x00000035       0x36 build/default/production/_ext/1706628858/wdrv_winc_mqtt.o
 .comment       0x00000035       0x36 build/default/production/_ext/1706628858/wdrv_winc_netif.o
 .comment       0x00000035       0x36 build/default/production/_ext/1706628858/wdrv_winc_ota.o
 .comment       0x00000035       0x36 build/default/production/_ext/1706628858/wdrv_winc_pps.o
 .comment       0x00000035       0x36 build/default/production/_ext/1706628858/wdrv_winc_nvm.o
 .comment       0x00000035       0x36 build/default/production/_ext/1706628858/wdrv_winc_prov.o
 .comment       0x00000035       0x36 build/default/production/_ext/1706628858/wdrv_winc_socket.o
 .comment       0x00000035       0x36 build/default/production/_ext/1706628858/wdrv_winc_softap.o
 .comment       0x00000035       0x36 build/default/production/_ext/1706628858/wdrv_winc_sta.o
 .comment       0x00000035       0x36 build/default/production/_ext/1706628858/wdrv_winc_systime.o
 .comment       0x00000035       0x36 build/default/production/_ext/60163342/plib_adc0.o
 .comment       0x00000035       0x36 build/default/production/_ext/60165182/plib_can0.o
 .comment       0x00000035       0x36 build/default/production/_ext/1984496892/plib_clock.o
 .comment       0x00000035       0x36 build/default/production/_ext/60166132/plib_dac.o
 .comment       0x00000035       0x36 build/default/production/_ext/1865161661/plib_dmac.o
 .comment       0x00000035       0x36 build/default/production/_ext/60167341/plib_eic.o
 .comment       0x00000035       0x36 build/default/production/_ext/1986646378/plib_evsys.o
 .comment       0x00000035       0x36 build/default/production/_ext/1987437027/plib_freqm.o
 .comment       0x00000035       0x36 build/default/production/_ext/1865468468/plib_nvic.o
 .comment       0x00000035       0x36 build/default/production/_ext/1593096446/plib_nvmctrl.o
 .comment       0x00000035       0x36 build/default/production/_ext/829342769/plib_pm.o
 .comment       0x00000035       0x36 build/default/production/_ext/1865521619/plib_port.o
 .comment       0x00000035       0x36 build/default/production/_ext/1865585090/plib_rstc.o
 .comment       0x00000035       0x36 build/default/production/_ext/60180175/plib_rtc_clock.o
 .comment       0x00000035       0x36 build/default/production/_ext/508257091/plib_sercom2_i2c_master.o
 .comment       0x00000035       0x36 build/default/production/_ext/17022449/plib_sercom3_spi_master.o
 .comment       0x00000035       0x36 build/default/production/_ext/17022449/plib_sercom4_spi_master.o
 .comment       0x00000035       0x36 build/default/production/_ext/17022449/plib_sercom5_spi_master.o
 .comment       0x00000035       0x36 build/default/production/_ext/504274921/plib_sercom1_usart.o
 .comment       0x00000035       0x36 build/default/production/_ext/504274921/plib_sercom0_usart.o
 .comment       0x00000035       0x36 build/default/production/_ext/1865616679/plib_supc.o
 .comment       0x00000035       0x36 build/default/production/_ext/1827571544/plib_systick.o
 .comment       0x00000035       0x36 build/default/production/_ext/60181570/plib_tcc0.o
 .comment       0x00000035       0x36 build/default/production/_ext/60184501/plib_wdt.o
 .comment       0x00000035       0x36 build/default/production/_ext/1832805299/sys_console_uart.o
 .comment       0x00000035       0x36 build/default/production/_ext/1832805299/sys_console.o
 .comment       0x00000035       0x36 build/default/production/_ext/14461671/sys_dma.o
 .comment       0x00000035       0x36 build/default/production/_ext/1881668453/sys_int.o
 .comment       0x00000035       0x36 build/default/production/_ext/101884895/sys_time.o
 .comment       0x00000035       0x36 build/default/production/_ext/1171490990/tasks.o
 .comment       0x00000035       0x36 build/default/production/_ext/1171490990/initialization.o
 .comment       0x00000035       0x36 build/default/production/_ext/1171490990/interrupts.o
 .comment       0x00000035       0x36 build/default/production/_ext/1171490990/exceptions.o
 .comment       0x00000035       0x36 build/default/production/_ext/1171490990/startup_xc32.o
 .comment       0x00000035       0x36 build/default/production/_ext/1360937237/ad9954_driver.o
 .comment       0x00000035       0x36 build/default/production/_ext/1360937237/bme690_driver.o
 .comment       0x00000035       0x36 build/default/production/_ext/1360937237/bmp585_driver.o
 .comment       0x00000035       0x36 build/default/production/_ext/1360937237/can0_driver.o
 .comment       0x00000035       0x36 build/default/production/_ext/1360937237/console_driver.o
 .comment       0x00000035       0x36 build/default/production/_ext/1360937237/fcm360w_driver.o
 .comment       0x00000035       0x36 build/default/production/_ext/1360937237/hdc302x_driver.o
 .comment       0x00000035       0x36 build/default/production/_ext/1360937237/mcp9808_driver.o
 .comment       0x00000035       0x36 build/default/production/_ext/1360937237/ntc_driver.o
 .comment       0x00000035       0x36 build/default/production/_ext/1360937237/rstc_driver.o
 .comment       0x00000035       0x36 build/default/production/_ext/1360937237/rtc_driver.o
 .comment       0x00000035       0x36 build/default/production/_ext/1360937237/sen63c_driver.o
 .comment       0x00000035       0x36 build/default/production/_ext/1360937237/sht4x_driver.o
 .comment       0x00000035       0x36 build/default/production/_ext/1360937237/ssd1306_driver.o
 .comment       0x00000035       0x36 build/default/production/_ext/1360937237/stcc4_driver.o
 .comment       0x00000035       0x36 build/default/production/_ext/1360937237/timer_driver.o
 .comment       0x00000035       0x36 build/default/production/_ext/1360937237/vcnl4200_driver.o
 .comment       0x00000035       0x36 build/default/production/_ext/1360937237/ws281x_driver.o
 .comment       0x00000035       0x36 build/default/production/_ext/1360937237/xm125_driver.o
 .comment       0x00000035       0x36 build/default/production/_ext/1360937237/wincs02_driver.o
 .comment       0x00000035       0x36 build/default/production/_ext/1360937237/app.o
 .comment       0x00000035       0x36 build/default/production/_ext/1360937237/main.o
 .comment       0x00000035       0x36 C:/Applications/Microchip/XC32/bin/bin/../../lib/gcc/pic32c/13.2.1/../../../../pic32c/lib/thumb/v6-m/nofp\libpic32c.a(data_init.o)
 .comment       0x00000035       0x36 C:/Applications/Microchip/XC32/bin/bin/../../lib/gcc/pic32c/13.2.1/../../../../pic32c/lib/thumb/v6-m/nofp\libc-size-musl.a(memcmp.o)
 .comment       0x00000035       0x36 C:/Applications/Microchip/XC32/bin/bin/../../lib/gcc/pic32c/13.2.1/../../../../pic32c/lib/thumb/v6-m/nofp\libc-size-musl.a(memcpy.o)
 .comment       0x00000035       0x36 C:/Applications/Microchip/XC32/bin/bin/../../lib/gcc/pic32c/13.2.1/../../../../pic32c/lib/thumb/v6-m/nofp\libc-size-musl.a(memset.o)
 .comment       0x00000035       0x36 C:/Applications/Microchip/XC32/bin/bin/../../lib/gcc/pic32c/13.2.1/../../../../pic32c/lib/thumb/v6-m/nofp\libc-size-musl.a(strlen.o)
 .comment       0x00000035       0x36 C:/Applications/Microchip/XC32/bin/bin/../../lib/gcc/pic32c/13.2.1/../../../../pic32c/lib/thumb/v6-m/nofp\libc-size-musl.a(strstr.o)
 .comment       0x00000035       0x36 C:/Applications/Microchip/XC32/bin/bin/../../lib/gcc/pic32c/13.2.1/../../../../pic32c/lib/thumb/v6-m/nofp\libc-size-musl.a(strchr.o)
 .comment       0x00000035       0x36 C:/Applications/Microchip/XC32/bin/bin/../../lib/gcc/pic32c/13.2.1/../../../../pic32c/lib/thumb/v6-m/nofp\libc-size-musl.a(strchrnul.o)
 .comment       0x00000035       0x36 C:/Applications/Microchip/XC32/bin/bin/../../lib/gcc/pic32c/13.2.1/../../../../pic32c/lib/thumb/v6-m/nofp\libc-size-musl.a(strcpy.o)
 .comment       0x00000035       0x36 C:/Applications/Microchip/XC32/bin/bin/../../lib/gcc/pic32c/13.2.1/../../../../pic32c/lib/thumb/v6-m/nofp\libc-size-musl.a(stpcpy.o)
 .comment       0x00000035       0x36 C:/Applications/Microchip/XC32/bin/bin/../../lib/gcc/pic32c/13.2.1/../../../../pic32c/lib/thumb/v6-m/nofp\liblmalloc-musl.a(lite_free.o)
 .comment       0x00000035       0x36 C:/Applications/Microchip/XC32/bin/bin/../../lib/gcc/pic32c/13.2.1/../../../../pic32c/lib/thumb/v6-m/nofp\liblmalloc-musl.a(lite_malloc.o)
 .comment       0x00000035       0x36 C:/Applications/Microchip/XC32/bin/bin/../../lib/gcc/pic32c/13.2.1/../../../../pic32c/lib/thumb/v6-m/nofp\libc-musl.a(__libc_start_main.o)
 .comment       0x00000035       0x36 C:/Applications/Microchip/XC32/bin/bin/../../lib/gcc/pic32c/13.2.1/../../../../pic32c/lib/thumb/v6-m/nofp\libc-musl.a(__errno_location.o)
 .comment       0x00000035       0x36 C:/Applications/Microchip/XC32/bin/bin/../../lib/gcc/pic32c/13.2.1/../../../../pic32c/lib/thumb/v6-m/nofp\libc-musl.a(libc.o)
 .comment       0x00000035       0x36 C:/Applications/Microchip/XC32/bin/bin/../../lib/gcc/pic32c/13.2.1/../../../../pic32c/lib/thumb/v6-m/nofp\libc-musl.a(expand_heap.o)
 .comment       0x00000035       0x36 C:/Applications/Microchip/XC32/bin/bin/../../lib/gcc/pic32c/13.2.1/../../../../pic32c/lib/thumb/v6-m/nofp\libc-musl.a(vsnprintf.o)
 .comment       0x00000035       0x36 C:/Applications/Microchip/XC32/bin/bin/../../lib/gcc/pic32c/13.2.1/../../../../pic32c/lib/thumb/v6-m/nofp\libc-musl.a(sprintf.o)
 .comment       0x00000035       0x36 C:/Applications/Microchip/XC32/bin/bin/../../lib/gcc/pic32c/13.2.1/../../../../pic32c/lib/thumb/v6-m/nofp\libc-musl.a(vsprintf.o)
 .comment       0x00000035       0x36 C:/Applications/Microchip/XC32/bin/bin/../../lib/gcc/pic32c/13.2.1/../../../../pic32c/lib/thumb/v6-m/nofp\libc-musl.a(__environ.o)
 .comment       0x00000035       0x36 C:/Applications/Microchip/XC32/bin/bin/../../lib/gcc/pic32c/13.2.1/../../../../pic32c/lib/thumb/v6-m/nofp\libc-musl.a(vfprintf.o)
 .comment       0x00000035       0x36 C:/Applications/Microchip/XC32/bin/bin/../../lib/gcc/pic32c/13.2.1/../../../../pic32c/lib/thumb/v6-m/nofp\libc-musl.a(__pop_float.o)
 .comment       0x00000035       0x36 C:/Applications/Microchip/XC32/bin/bin/../../lib/gcc/pic32c/13.2.1/../../../../pic32c/lib/thumb/v6-m/nofp\libc-musl.a(__pop_int.o)
 .comment       0x00000035       0x36 C:/Applications/Microchip/XC32/bin/bin/../../lib/gcc/pic32c/13.2.1/../../../../pic32c/lib/thumb/v6-m/nofp\libc-musl.a(__pop_ptr.o)
 .comment       0x00000035       0x36 C:/Applications/Microchip/XC32/bin/bin/../../lib/gcc/pic32c/13.2.1/../../../../pic32c/lib/thumb/v6-m/nofp\libc-musl.a(__printf_core.o)
 .comment       0x00000035       0x36 C:/Applications/Microchip/XC32/bin/bin/../../lib/gcc/pic32c/13.2.1/../../../../pic32c/lib/thumb/v6-m/nofp\libc-musl.a(atoi.o)
 .comment       0x00000035       0x36 C:/Applications/Microchip/XC32/bin/bin/../../lib/gcc/pic32c/13.2.1/../../../../pic32c/lib/thumb/v6-m/nofp\libc-musl.a(tolower.o)
 .comment       0x00000035       0x36 C:/Applications/Microchip/XC32/bin/bin/../../lib/gcc/pic32c/13.2.1/../../../../pic32c/lib/thumb/v6-m/nofp\libc-musl.a(__fmt_a.o)
 .comment       0x00000035       0x36 C:/Applications/Microchip/XC32/bin/bin/../../lib/gcc/pic32c/13.2.1/../../../../pic32c/lib/thumb/v6-m/nofp\libc-musl.a(__fmt_d.o)
 .comment       0x00000035       0x36 C:/Applications/Microchip/XC32/bin/bin/../../lib/gcc/pic32c/13.2.1/../../../../pic32c/lib/thumb/v6-m/nofp\libc-musl.a(__fmt_fp.o)
 .comment       0x00000035       0x36 C:/Applications/Microchip/XC32/bin/bin/../../lib/gcc/pic32c/13.2.1/../../../../pic32c/lib/thumb/v6-m/nofp\libc-musl.a(__fmt_o.o)
 .comment       0x00000035       0x36 C:/Applications/Microchip/XC32/bin/bin/../../lib/gcc/pic32c/13.2.1/../../../../pic32c/lib/thumb/v6-m/nofp\libc-musl.a(__fmt_s.o)
 .comment       0x00000035       0x36 C:/Applications/Microchip/XC32/bin/bin/../../lib/gcc/pic32c/13.2.1/../../../../pic32c/lib/thumb/v6-m/nofp\libc-musl.a(__fmt_u.o)
 .comment       0x00000035       0x36 C:/Applications/Microchip/XC32/bin/bin/../../lib/gcc/pic32c/13.2.1/../../../../pic32c/lib/thumb/v6-m/nofp\libc-musl.a(__fmt_x.o)
 .comment       0x00000035       0x36 C:/Applications/Microchip/XC32/bin/bin/../../lib/gcc/pic32c/13.2.1/../../../../pic32c/lib/thumb/v6-m/nofp\libc-musl.a(toupper.o)
 .comment       0x00000035       0x36 C:/Applications/Microchip/XC32/bin/bin/../../lib/gcc/pic32c/13.2.1/../../../../pic32c/lib/thumb/v6-m/nofp\libc-musl.a(__cvt_u.o)
 .comment       0x00000035       0x36 C:/Applications/Microchip/XC32/bin/bin/../../lib/gcc/pic32c/13.2.1/../../../../pic32c/lib/thumb/v6-m/nofp\libm-fast-emfloat.a(fma.o)
 .comment       0x00000035       0x36 C:/Applications/Microchip/XC32/bin/bin/../../lib/gcc/pic32c/13.2.1/../../../../pic32c/lib/thumb/v6-m/nofp\libm-fast-emfloat.a(floor.o)
 .comment       0x00000035       0x36 C:/Applications/Microchip/XC32/bin/bin/../../lib/gcc/pic32c/13.2.1/../../../../pic32c/lib/thumb/v6-m/nofp\libpic32c.a(sbrk.o)
 .comment       0x00000035       0x36 C:/Applications/Microchip/XC32/bin/bin/../../lib/gcc/pic32c/13.2.1/thumb/v6-m/nofp\libgcc.a(_muldi3.o)
 .comment       0x00000035       0x36 C:/Applications/Microchip/XC32/bin/bin/../../lib/gcc/pic32c/13.2.1/thumb/v6-m/nofp\libgcc.a(_udivmoddi4.o)
 .comment       0x00000035       0x36 C:/Applications/Microchip/XC32/bin/bin/../../lib/gcc/pic32c/13.2.1/../../../../pic32c/lib/thumb/v6-m/nofp\libpic32c.a(pic32_data_init_clear.o)
 .comment       0x00000035       0x36 C:/Applications/Microchip/XC32/bin/bin/../../lib/gcc/pic32c/13.2.1/../../../../pic32c/lib/thumb/v6-m/nofp\libpic32c.a(pic32_data_init_copy.o)

.debug_info     0x00000000    0x73a81
 .debug_info    0x00000000     0x1f5d build/default/production/_ext/158385033/drv_i2c.o
 .debug_info    0x00001f5d     0x2ce9 build/default/production/_ext/2070931557/drv_spi.o
 .debug_info    0x00004c46     0x2aab build/default/production/_ext/869808652/drv_usart.o
 .debug_info    0x000076f1      0xb65 build/default/production/_ext/622324608/wdrv_winc_spi.o
 .debug_info    0x00008256      0x1fc build/default/production/_ext/622324608/wdrv_winc_eint.o
 .debug_info    0x00008452     0x5112 build/default/production/_ext/1857064221/winc_cmds.o
 .debug_info    0x0000d564      0x54c build/default/production/_ext/1857064221/winc_cmd_req.o
 .debug_info    0x0000dab0     0x1e84 build/default/production/_ext/1857064221/winc_dev.o
 .debug_info    0x0000f934      0xc7c build/default/production/_ext/1857064221/winc_sdio_drv.o
 .debug_info    0x000105b0     0x5980 build/default/production/_ext/1857064221/winc_socket.o
 .debug_info    0x00015f30     0x576f build/default/production/_ext/1706628858/wdrv_winc.o
 .debug_info    0x0001b69f     0x2b0a build/default/production/_ext/1706628858/wdrv_winc_assoc.o
 .debug_info    0x0001e1a9     0x3317 build/default/production/_ext/1706628858/wdrv_winc_bssfind.o
 .debug_info    0x000214c0     0x2c63 build/default/production/_ext/1706628858/wdrv_winc_dns.o
 .debug_info    0x00024123     0x29be build/default/production/_ext/1706628858/wdrv_winc_extcrypto.o
 .debug_info    0x00026ae1     0x4a08 build/default/production/_ext/1706628858/wdrv_winc_mqtt.o
 .debug_info    0x0002b4e9     0x310c build/default/production/_ext/1706628858/wdrv_winc_netif.o
 .debug_info    0x0002e5f5     0x3400 build/default/production/_ext/1706628858/wdrv_winc_ota.o
 .debug_info    0x000319f5     0x2a3b build/default/production/_ext/1706628858/wdrv_winc_pps.o
 .debug_info    0x00034430     0x3502 build/default/production/_ext/1706628858/wdrv_winc_nvm.o
 .debug_info    0x00037932     0x2967 build/default/production/_ext/1706628858/wdrv_winc_prov.o
 .debug_info    0x0003a299     0x2b38 build/default/production/_ext/1706628858/wdrv_winc_socket.o
 .debug_info    0x0003cdd1     0x3087 build/default/production/_ext/1706628858/wdrv_winc_softap.o
 .debug_info    0x0003fe58     0x2fd7 build/default/production/_ext/1706628858/wdrv_winc_sta.o
 .debug_info    0x00042e2f     0x27cb build/default/production/_ext/1706628858/wdrv_winc_systime.o
 .debug_info    0x000455fa      0x6dd build/default/production/_ext/60163342/plib_adc0.o
 .debug_info    0x00045cd7     0x142f build/default/production/_ext/60165182/plib_can0.o
 .debug_info    0x00047106      0x5c9 build/default/production/_ext/1984496892/plib_clock.o
 .debug_info    0x000476cf      0x24b build/default/production/_ext/60166132/plib_dac.o
 .debug_info    0x0004791a      0xc1b build/default/production/_ext/1865161661/plib_dmac.o
 .debug_info    0x00048535      0x3c0 build/default/production/_ext/60167341/plib_eic.o
 .debug_info    0x000488f5       0x9b build/default/production/_ext/1986646378/plib_evsys.o
 .debug_info    0x00048990      0x3d2 build/default/production/_ext/1987437027/plib_freqm.o
 .debug_info    0x00048d62      0xb47 build/default/production/_ext/1865468468/plib_nvic.o
 .debug_info    0x000498a9      0x868 build/default/production/_ext/1593096446/plib_nvmctrl.o
 .debug_info    0x0004a111      0x175 build/default/production/_ext/829342769/plib_pm.o
 .debug_info    0x0004a286      0x7b3 build/default/production/_ext/1865521619/plib_port.o
 .debug_info    0x0004aa39       0xf3 build/default/production/_ext/1865585090/plib_rstc.o
 .debug_info    0x0004ab2c      0x895 build/default/production/_ext/60180175/plib_rtc_clock.o
 .debug_info    0x0004b3c1     0x139d build/default/production/_ext/508257091/plib_sercom2_i2c_master.o
 .debug_info    0x0004c75e      0xf3c build/default/production/_ext/17022449/plib_sercom3_spi_master.o
 .debug_info    0x0004d69a      0xf3c build/default/production/_ext/17022449/plib_sercom4_spi_master.o
 .debug_info    0x0004e5d6      0xd22 build/default/production/_ext/17022449/plib_sercom5_spi_master.o
 .debug_info    0x0004f2f8     0x1283 build/default/production/_ext/504274921/plib_sercom1_usart.o
 .debug_info    0x0005057b     0x188a build/default/production/_ext/504274921/plib_sercom0_usart.o
 .debug_info    0x00051e05      0x262 build/default/production/_ext/1865616679/plib_supc.o
 .debug_info    0x00052067      0x6fb build/default/production/_ext/1827571544/plib_systick.o
 .debug_info    0x00052762      0x529 build/default/production/_ext/60181570/plib_tcc0.o
 .debug_info    0x00052c8b      0x27f build/default/production/_ext/60184501/plib_wdt.o
 .debug_info    0x00052f0a      0xdbb build/default/production/_ext/1832805299/sys_console_uart.o
 .debug_info    0x00053cc5      0xcc7 build/default/production/_ext/1832805299/sys_console.o
 .debug_info    0x0005498c      0x326 build/default/production/_ext/14461671/sys_dma.o
 .debug_info    0x00054cb2      0x5c7 build/default/production/_ext/1881668453/sys_int.o
 .debug_info    0x00055279     0x1ac7 build/default/production/_ext/101884895/sys_time.o
 .debug_info    0x00056d40      0x2e0 build/default/production/_ext/1171490990/tasks.o
 .debug_info    0x00057020     0x369d build/default/production/_ext/1171490990/initialization.o
 .debug_info    0x0005a6bd      0x54a build/default/production/_ext/1171490990/interrupts.o
 .debug_info    0x0005ac07       0xc1 build/default/production/_ext/1171490990/exceptions.o
 .debug_info    0x0005acc8      0x31f build/default/production/_ext/1171490990/startup_xc32.o
 .debug_info    0x0005afe7     0x1528 build/default/production/_ext/1360937237/ad9954_driver.o
 .debug_info    0x0005c50f     0x1eaa build/default/production/_ext/1360937237/bme690_driver.o
 .debug_info    0x0005e3b9     0x214a build/default/production/_ext/1360937237/bmp585_driver.o
 .debug_info    0x00060503      0xe34 build/default/production/_ext/1360937237/can0_driver.o
 .debug_info    0x00061337      0x34d build/default/production/_ext/1360937237/console_driver.o
 .debug_info    0x00061684      0x7ea build/default/production/_ext/1360937237/fcm360w_driver.o
 .debug_info    0x00061e6e     0x183f build/default/production/_ext/1360937237/hdc302x_driver.o
 .debug_info    0x000636ad      0xd95 build/default/production/_ext/1360937237/mcp9808_driver.o
 .debug_info    0x00064442      0x4d6 build/default/production/_ext/1360937237/ntc_driver.o
 .debug_info    0x00064918      0x539 build/default/production/_ext/1360937237/rstc_driver.o
 .debug_info    0x00064e51      0x68f build/default/production/_ext/1360937237/rtc_driver.o
 .debug_info    0x000654e0     0x104f build/default/production/_ext/1360937237/sen63c_driver.o
 .debug_info    0x0006652f      0xabc build/default/production/_ext/1360937237/sht4x_driver.o
 .debug_info    0x00066feb     0x13cf build/default/production/_ext/1360937237/ssd1306_driver.o
 .debug_info    0x000683ba     0x1307 build/default/production/_ext/1360937237/stcc4_driver.o
 .debug_info    0x000696c1      0x619 build/default/production/_ext/1360937237/timer_driver.o
 .debug_info    0x00069cda     0x1028 build/default/production/_ext/1360937237/vcnl4200_driver.o
 .debug_info    0x0006ad02      0xfc6 build/default/production/_ext/1360937237/ws281x_driver.o
 .debug_info    0x0006bcc8      0x5d3 build/default/production/_ext/1360937237/xm125_driver.o
 .debug_info    0x0006c29b      0xd73 build/default/production/_ext/1360937237/wincs02_driver.o
 .debug_info    0x0006d00e      0x57d build/default/production/_ext/1360937237/app.o
 .debug_info    0x0006d58b       0xed build/default/production/_ext/1360937237/main.o
 .debug_info    0x0006d678      0x212 C:/Applications/Microchip/XC32/bin/bin/../../lib/gcc/pic32c/13.2.1/../../../../pic32c/lib/thumb/v6-m/nofp\libpic32c.a(data_init.o)
 .debug_info    0x0006d88a       0xe7 C:/Applications/Microchip/XC32/bin/bin/../../lib/gcc/pic32c/13.2.1/../../../../pic32c/lib/thumb/v6-m/nofp\libc-size-musl.a(memcmp.o)
 .debug_info    0x0006d971       0xed C:/Applications/Microchip/XC32/bin/bin/../../lib/gcc/pic32c/13.2.1/../../../../pic32c/lib/thumb/v6-m/nofp\libc-size-musl.a(memcpy.o)
 .debug_info    0x0006da5e       0xc2 C:/Applications/Microchip/XC32/bin/bin/../../lib/gcc/pic32c/13.2.1/../../../../pic32c/lib/thumb/v6-m/nofp\libc-size-musl.a(memset.o)
 .debug_info    0x0006db20       0xab C:/Applications/Microchip/XC32/bin/bin/../../lib/gcc/pic32c/13.2.1/../../../../pic32c/lib/thumb/v6-m/nofp\libc-size-musl.a(strlen.o)
 .debug_info    0x0006dbcb       0xc7 C:/Applications/Microchip/XC32/bin/bin/../../lib/gcc/pic32c/13.2.1/../../../../pic32c/lib/thumb/v6-m/nofp\libc-size-musl.a(strstr.o)
 .debug_info    0x0006dc92       0xeb C:/Applications/Microchip/XC32/bin/bin/../../lib/gcc/pic32c/13.2.1/../../../../pic32c/lib/thumb/v6-m/nofp\libc-size-musl.a(strchr.o)
 .debug_info    0x0006dd7d      0x13a C:/Applications/Microchip/XC32/bin/bin/../../lib/gcc/pic32c/13.2.1/../../../../pic32c/lib/thumb/v6-m/nofp\libc-size-musl.a(strchrnul.o)
 .debug_info    0x0006deb7       0xdd C:/Applications/Microchip/XC32/bin/bin/../../lib/gcc/pic32c/13.2.1/../../../../pic32c/lib/thumb/v6-m/nofp\libc-size-musl.a(strcpy.o)
 .debug_info    0x0006df94       0xb3 C:/Applications/Microchip/XC32/bin/bin/../../lib/gcc/pic32c/13.2.1/../../../../pic32c/lib/thumb/v6-m/nofp\libc-size-musl.a(stpcpy.o)
 .debug_info    0x0006e047      0x276 C:/Applications/Microchip/XC32/bin/bin/../../lib/gcc/pic32c/13.2.1/../../../../pic32c/lib/thumb/v6-m/nofp\liblmalloc-musl.a(lite_free.o)
 .debug_info    0x0006e2bd      0x1dc C:/Applications/Microchip/XC32/bin/bin/../../lib/gcc/pic32c/13.2.1/../../../../pic32c/lib/thumb/v6-m/nofp\liblmalloc-musl.a(lite_malloc.o)
 .debug_info    0x0006e499      0x2fb C:/Applications/Microchip/XC32/bin/bin/../../lib/gcc/pic32c/13.2.1/../../../../pic32c/lib/thumb/v6-m/nofp\libc-musl.a(__libc_start_main.o)
 .debug_info    0x0006e794       0x5b C:/Applications/Microchip/XC32/bin/bin/../../lib/gcc/pic32c/13.2.1/../../../../pic32c/lib/thumb/v6-m/nofp\libc-musl.a(__errno_location.o)
 .debug_info    0x0006e7ef      0x276 C:/Applications/Microchip/XC32/bin/bin/../../lib/gcc/pic32c/13.2.1/../../../../pic32c/lib/thumb/v6-m/nofp\libc-musl.a(libc.o)
 .debug_info    0x0006ea65      0x115 C:/Applications/Microchip/XC32/bin/bin/../../lib/gcc/pic32c/13.2.1/../../../../pic32c/lib/thumb/v6-m/nofp\libc-musl.a(expand_heap.o)
 .debug_info    0x0006eb7a      0x45b C:/Applications/Microchip/XC32/bin/bin/../../lib/gcc/pic32c/13.2.1/../../../../pic32c/lib/thumb/v6-m/nofp\libc-musl.a(vsnprintf.o)
 .debug_info    0x0006efd5      0x140 C:/Applications/Microchip/XC32/bin/bin/../../lib/gcc/pic32c/13.2.1/../../../../pic32c/lib/thumb/v6-m/nofp\libc-musl.a(sprintf.o)
 .debug_info    0x0006f115      0x14f C:/Applications/Microchip/XC32/bin/bin/../../lib/gcc/pic32c/13.2.1/../../../../pic32c/lib/thumb/v6-m/nofp\libc-musl.a(vsprintf.o)
 .debug_info    0x0006f264       0x97 C:/Applications/Microchip/XC32/bin/bin/../../lib/gcc/pic32c/13.2.1/../../../../pic32c/lib/thumb/v6-m/nofp\libc-musl.a(__environ.o)
 .debug_info    0x0006f2fb      0x42c C:/Applications/Microchip/XC32/bin/bin/../../lib/gcc/pic32c/13.2.1/../../../../pic32c/lib/thumb/v6-m/nofp\libc-musl.a(vfprintf.o)
 .debug_info    0x0006f727      0x163 C:/Applications/Microchip/XC32/bin/bin/../../lib/gcc/pic32c/13.2.1/../../../../pic32c/lib/thumb/v6-m/nofp\libc-musl.a(__pop_float.o)
 .debug_info    0x0006f88a      0x183 C:/Applications/Microchip/XC32/bin/bin/../../lib/gcc/pic32c/13.2.1/../../../../pic32c/lib/thumb/v6-m/nofp\libc-musl.a(__pop_int.o)
 .debug_info    0x0006fa0d      0x18d C:/Applications/Microchip/XC32/bin/bin/../../lib/gcc/pic32c/13.2.1/../../../../pic32c/lib/thumb/v6-m/nofp\libc-musl.a(__pop_ptr.o)
 .debug_info    0x0006fb9a      0xb26 C:/Applications/Microchip/XC32/bin/bin/../../lib/gcc/pic32c/13.2.1/../../../../pic32c/lib/thumb/v6-m/nofp\libc-musl.a(__printf_core.o)
 .debug_info    0x000706c0       0xf4 C:/Applications/Microchip/XC32/bin/bin/../../lib/gcc/pic32c/13.2.1/../../../../pic32c/lib/thumb/v6-m/nofp\libc-musl.a(atoi.o)
 .debug_info    0x000707b4      0x13e C:/Applications/Microchip/XC32/bin/bin/../../lib/gcc/pic32c/13.2.1/../../../../pic32c/lib/thumb/v6-m/nofp\libc-musl.a(tolower.o)
 .debug_info    0x000708f2      0x7a3 C:/Applications/Microchip/XC32/bin/bin/../../lib/gcc/pic32c/13.2.1/../../../../pic32c/lib/thumb/v6-m/nofp\libc-musl.a(__fmt_a.o)
 .debug_info    0x00071095      0x374 C:/Applications/Microchip/XC32/bin/bin/../../lib/gcc/pic32c/13.2.1/../../../../pic32c/lib/thumb/v6-m/nofp\libc-musl.a(__fmt_d.o)
 .debug_info    0x00071409      0x80e C:/Applications/Microchip/XC32/bin/bin/../../lib/gcc/pic32c/13.2.1/../../../../pic32c/lib/thumb/v6-m/nofp\libc-musl.a(__fmt_fp.o)
 .debug_info    0x00071c17      0x345 C:/Applications/Microchip/XC32/bin/bin/../../lib/gcc/pic32c/13.2.1/../../../../pic32c/lib/thumb/v6-m/nofp\libc-musl.a(__fmt_o.o)
 .debug_info    0x00071f5c      0x31e C:/Applications/Microchip/XC32/bin/bin/../../lib/gcc/pic32c/13.2.1/../../../../pic32c/lib/thumb/v6-m/nofp\libc-musl.a(__fmt_s.o)
 .debug_info    0x0007227a      0x345 C:/Applications/Microchip/XC32/bin/bin/../../lib/gcc/pic32c/13.2.1/../../../../pic32c/lib/thumb/v6-m/nofp\libc-musl.a(__fmt_u.o)
 .debug_info    0x000725bf      0x35f C:/Applications/Microchip/XC32/bin/bin/../../lib/gcc/pic32c/13.2.1/../../../../pic32c/lib/thumb/v6-m/nofp\libc-musl.a(__fmt_x.o)
 .debug_info    0x0007291e      0x13e C:/Applications/Microchip/XC32/bin/bin/../../lib/gcc/pic32c/13.2.1/../../../../pic32c/lib/thumb/v6-m/nofp\libc-musl.a(toupper.o)
 .debug_info    0x00072a5c      0x1e3 C:/Applications/Microchip/XC32/bin/bin/../../lib/gcc/pic32c/13.2.1/../../../../pic32c/lib/thumb/v6-m/nofp\libc-musl.a(__cvt_u.o)
 .debug_info    0x00072c3f      0x186 C:/Applications/Microchip/XC32/bin/bin/../../lib/gcc/pic32c/13.2.1/../../../../pic32c/lib/thumb/v6-m/nofp\libpic32c.a(sbrk.o)
 .debug_info    0x00072dc5       0x35 C:/Applications/Microchip/XC32/bin/bin/../../lib/gcc/pic32c/13.2.1/thumb/v6-m/nofp\libgcc.a(_thumb1_case_uqi.o)
 .debug_info    0x00072dfa       0x51 C:/Applications/Microchip/XC32/bin/bin/../../lib/gcc/pic32c/13.2.1/thumb/v6-m/nofp\libgcc.a(_udivsi3.o)
 .debug_info    0x00072e4b       0x51 C:/Applications/Microchip/XC32/bin/bin/../../lib/gcc/pic32c/13.2.1/thumb/v6-m/nofp\libgcc.a(_divsi3.o)
 .debug_info    0x00072e9c       0x41 C:/Applications/Microchip/XC32/bin/bin/../../lib/gcc/pic32c/13.2.1/thumb/v6-m/nofp\libgcc.a(_dvmd_tls.o)
 .debug_info    0x00072edd       0x43 C:/Applications/Microchip/XC32/bin/bin/../../lib/gcc/pic32c/13.2.1/thumb/v6-m/nofp\libgcc.a(_lshrdi3.o)
 .debug_info    0x00072f20       0x43 C:/Applications/Microchip/XC32/bin/bin/../../lib/gcc/pic32c/13.2.1/thumb/v6-m/nofp\libgcc.a(_ashldi3.o)
 .debug_info    0x00072f63       0x35 C:/Applications/Microchip/XC32/bin/bin/../../lib/gcc/pic32c/13.2.1/thumb/v6-m/nofp\libgcc.a(_aeabi_uldivmod.o)
 .debug_info    0x00072f98      0x44f C:/Applications/Microchip/XC32/bin/bin/../../lib/gcc/pic32c/13.2.1/thumb/v6-m/nofp\libgcc.a(_muldi3.o)
 .debug_info    0x000733e7      0x3fc C:/Applications/Microchip/XC32/bin/bin/../../lib/gcc/pic32c/13.2.1/thumb/v6-m/nofp\libgcc.a(_udivmoddi4.o)
 .debug_info    0x000737e3       0x26 C:/Applications/Microchip/XC32/bin/bin/../../lib/gcc/pic32c/13.2.1/thumb/v6-m/nofp\libgcc.a(_clzdi2.o)
 .debug_info    0x00073809       0x35 C:/Applications/Microchip/XC32/bin/bin/../../lib/gcc/pic32c/13.2.1/thumb/v6-m/nofp\libgcc.a(_clzsi2.o)
 .debug_info    0x0007383e      0x117 C:/Applications/Microchip/XC32/bin/bin/../../lib/gcc/pic32c/13.2.1/../../../../pic32c/lib/thumb/v6-m/nofp\libpic32c.a(pic32_data_init_clear.o)
 .debug_info    0x00073955      0x12c C:/Applications/Microchip/XC32/bin/bin/../../lib/gcc/pic32c/13.2.1/../../../../pic32c/lib/thumb/v6-m/nofp\libpic32c.a(pic32_data_init_copy.o)

.debug_abbrev   0x00000000    0x10ed8
 .debug_abbrev  0x00000000      0x4d4 build/default/production/_ext/158385033/drv_i2c.o
 .debug_abbrev  0x000004d4      0x547 build/default/production/_ext/2070931557/drv_spi.o
 .debug_abbrev  0x00000a1b      0x580 build/default/production/_ext/869808652/drv_usart.o
 .debug_abbrev  0x00000f9b      0x35e build/default/production/_ext/622324608/wdrv_winc_spi.o
 .debug_abbrev  0x000012f9       0xe6 build/default/production/_ext/622324608/wdrv_winc_eint.o
 .debug_abbrev  0x000013df      0x302 build/default/production/_ext/1857064221/winc_cmds.o
 .debug_abbrev  0x000016e1      0x1af build/default/production/_ext/1857064221/winc_cmd_req.o
 .debug_abbrev  0x00001890      0x4ce build/default/production/_ext/1857064221/winc_dev.o
 .debug_abbrev  0x00001d5e      0x2e1 build/default/production/_ext/1857064221/winc_sdio_drv.o
 .debug_abbrev  0x0000203f      0x586 build/default/production/_ext/1857064221/winc_socket.o
 .debug_abbrev  0x000025c5      0x639 build/default/production/_ext/1706628858/wdrv_winc.o
 .debug_abbrev  0x00002bfe      0x3cd build/default/production/_ext/1706628858/wdrv_winc_assoc.o
 .debug_abbrev  0x00002fcb      0x41a build/default/production/_ext/1706628858/wdrv_winc_bssfind.o
 .debug_abbrev  0x000033e5      0x39d build/default/production/_ext/1706628858/wdrv_winc_dns.o
 .debug_abbrev  0x00003782      0x3ab build/default/production/_ext/1706628858/wdrv_winc_extcrypto.o
 .debug_abbrev  0x00003b2d      0x454 build/default/production/_ext/1706628858/wdrv_winc_mqtt.o
 .debug_abbrev  0x00003f81      0x43b build/default/production/_ext/1706628858/wdrv_winc_netif.o
 .debug_abbrev  0x000043bc      0x3f0 build/default/production/_ext/1706628858/wdrv_winc_ota.o
 .debug_abbrev  0x000047ac      0x350 build/default/production/_ext/1706628858/wdrv_winc_pps.o
 .debug_abbrev  0x00004afc      0x43c build/default/production/_ext/1706628858/wdrv_winc_nvm.o
 .debug_abbrev  0x00004f38      0x3a0 build/default/production/_ext/1706628858/wdrv_winc_prov.o
 .debug_abbrev  0x000052d8      0x3a6 build/default/production/_ext/1706628858/wdrv_winc_socket.o
 .debug_abbrev  0x0000567e      0x3ea build/default/production/_ext/1706628858/wdrv_winc_softap.o
 .debug_abbrev  0x00005a68      0x3ba build/default/production/_ext/1706628858/wdrv_winc_sta.o
 .debug_abbrev  0x00005e22      0x36b build/default/production/_ext/1706628858/wdrv_winc_systime.o
 .debug_abbrev  0x0000618d      0x1e1 build/default/production/_ext/60163342/plib_adc0.o
 .debug_abbrev  0x0000636e      0x340 build/default/production/_ext/60165182/plib_can0.o
 .debug_abbrev  0x000066ae      0x140 build/default/production/_ext/1984496892/plib_clock.o
 .debug_abbrev  0x000067ee       0xf0 build/default/production/_ext/60166132/plib_dac.o
 .debug_abbrev  0x000068de      0x2b9 build/default/production/_ext/1865161661/plib_dmac.o
 .debug_abbrev  0x00006b97      0x181 build/default/production/_ext/60167341/plib_eic.o
 .debug_abbrev  0x00006d18       0x46 build/default/production/_ext/1986646378/plib_evsys.o
 .debug_abbrev  0x00006d5e      0x1c4 build/default/production/_ext/1987437027/plib_freqm.o
 .debug_abbrev  0x00006f22      0x268 build/default/production/_ext/1865468468/plib_nvic.o
 .debug_abbrev  0x0000718a      0x21e build/default/production/_ext/1593096446/plib_nvmctrl.o
 .debug_abbrev  0x000073a8       0xa4 build/default/production/_ext/829342769/plib_pm.o
 .debug_abbrev  0x0000744c      0x1ea build/default/production/_ext/1865521619/plib_port.o
 .debug_abbrev  0x00007636       0x94 build/default/production/_ext/1865585090/plib_rstc.o
 .debug_abbrev  0x000076ca      0x1ed build/default/production/_ext/60180175/plib_rtc_clock.o
 .debug_abbrev  0x000078b7      0x3c2 build/default/production/_ext/508257091/plib_sercom2_i2c_master.o
 .debug_abbrev  0x00007c79      0x28f build/default/production/_ext/17022449/plib_sercom3_spi_master.o
 .debug_abbrev  0x00007f08      0x28f build/default/production/_ext/17022449/plib_sercom4_spi_master.o
 .debug_abbrev  0x00008197      0x1ef build/default/production/_ext/17022449/plib_sercom5_spi_master.o
 .debug_abbrev  0x00008386      0x315 build/default/production/_ext/504274921/plib_sercom1_usart.o
 .debug_abbrev  0x0000869b      0x428 build/default/production/_ext/504274921/plib_sercom0_usart.o
 .debug_abbrev  0x00008ac3      0x12b build/default/production/_ext/1865616679/plib_supc.o
 .debug_abbrev  0x00008bee      0x244 build/default/production/_ext/1827571544/plib_systick.o
 .debug_abbrev  0x00008e32      0x122 build/default/production/_ext/60181570/plib_tcc0.o
 .debug_abbrev  0x00008f54       0xed build/default/production/_ext/60184501/plib_wdt.o
 .debug_abbrev  0x00009041      0x2e9 build/default/production/_ext/1832805299/sys_console_uart.o
 .debug_abbrev  0x0000932a      0x3da build/default/production/_ext/1832805299/sys_console.o
 .debug_abbrev  0x00009704      0x121 build/default/production/_ext/14461671/sys_dma.o
 .debug_abbrev  0x00009825      0x2b9 build/default/production/_ext/1881668453/sys_int.o
 .debug_abbrev  0x00009ade      0x536 build/default/production/_ext/101884895/sys_time.o
 .debug_abbrev  0x0000a014       0xd5 build/default/production/_ext/1171490990/tasks.o
 .debug_abbrev  0x0000a0e9      0x2f8 build/default/production/_ext/1171490990/initialization.o
 .debug_abbrev  0x0000a3e1      0x11d build/default/production/_ext/1171490990/interrupts.o
 .debug_abbrev  0x0000a4fe       0x49 build/default/production/_ext/1171490990/exceptions.o
 .debug_abbrev  0x0000a547      0x190 build/default/production/_ext/1171490990/startup_xc32.o
 .debug_abbrev  0x0000a6d7      0x2e5 build/default/production/_ext/1360937237/ad9954_driver.o
 .debug_abbrev  0x0000a9bc      0x336 build/default/production/_ext/1360937237/bme690_driver.o
 .debug_abbrev  0x0000acf2      0x31d build/default/production/_ext/1360937237/bmp585_driver.o
 .debug_abbrev  0x0000b00f      0x408 build/default/production/_ext/1360937237/can0_driver.o
 .debug_abbrev  0x0000b417      0x227 build/default/production/_ext/1360937237/console_driver.o
 .debug_abbrev  0x0000b63e      0x2ff build/default/production/_ext/1360937237/fcm360w_driver.o
 .debug_abbrev  0x0000b93d      0x350 build/default/production/_ext/1360937237/hdc302x_driver.o
 .debug_abbrev  0x0000bc8d      0x2bf build/default/production/_ext/1360937237/mcp9808_driver.o
 .debug_abbrev  0x0000bf4c      0x274 build/default/production/_ext/1360937237/ntc_driver.o
 .debug_abbrev  0x0000c1c0      0x240 build/default/production/_ext/1360937237/rstc_driver.o
 .debug_abbrev  0x0000c400      0x2ad build/default/production/_ext/1360937237/rtc_driver.o
 .debug_abbrev  0x0000c6ad      0x331 build/default/production/_ext/1360937237/sen63c_driver.o
 .debug_abbrev  0x0000c9de      0x2a0 build/default/production/_ext/1360937237/sht4x_driver.o
 .debug_abbrev  0x0000cc7e      0x333 build/default/production/_ext/1360937237/ssd1306_driver.o
 .debug_abbrev  0x0000cfb1      0x374 build/default/production/_ext/1360937237/stcc4_driver.o
 .debug_abbrev  0x0000d325      0x17c build/default/production/_ext/1360937237/timer_driver.o
 .debug_abbrev  0x0000d4a1      0x2c4 build/default/production/_ext/1360937237/vcnl4200_driver.o
 .debug_abbrev  0x0000d765      0x2db build/default/production/_ext/1360937237/ws281x_driver.o
 .debug_abbrev  0x0000da40      0x262 build/default/production/_ext/1360937237/xm125_driver.o
 .debug_abbrev  0x0000dca2      0x2fa build/default/production/_ext/1360937237/wincs02_driver.o
 .debug_abbrev  0x0000df9c      0x1ee build/default/production/_ext/1360937237/app.o
 .debug_abbrev  0x0000e18a       0xa2 build/default/production/_ext/1360937237/main.o
 .debug_abbrev  0x0000e22c      0x156 C:/Applications/Microchip/XC32/bin/bin/../../lib/gcc/pic32c/13.2.1/../../../../pic32c/lib/thumb/v6-m/nofp\libpic32c.a(data_init.o)
 .debug_abbrev  0x0000e382       0x96 C:/Applications/Microchip/XC32/bin/bin/../../lib/gcc/pic32c/13.2.1/../../../../pic32c/lib/thumb/v6-m/nofp\libc-size-musl.a(memcmp.o)
 .debug_abbrev  0x0000e418       0xbb C:/Applications/Microchip/XC32/bin/bin/../../lib/gcc/pic32c/13.2.1/../../../../pic32c/lib/thumb/v6-m/nofp\libc-size-musl.a(memcpy.o)
 .debug_abbrev  0x0000e4d3       0xa2 C:/Applications/Microchip/XC32/bin/bin/../../lib/gcc/pic32c/13.2.1/../../../../pic32c/lib/thumb/v6-m/nofp\libc-size-musl.a(memset.o)
 .debug_abbrev  0x0000e575       0x91 C:/Applications/Microchip/XC32/bin/bin/../../lib/gcc/pic32c/13.2.1/../../../../pic32c/lib/thumb/v6-m/nofp\libc-size-musl.a(strlen.o)
 .debug_abbrev  0x0000e606       0xa2 C:/Applications/Microchip/XC32/bin/bin/../../lib/gcc/pic32c/13.2.1/../../../../pic32c/lib/thumb/v6-m/nofp\libc-size-musl.a(strstr.o)
 .debug_abbrev  0x0000e6a8       0xb5 C:/Applications/Microchip/XC32/bin/bin/../../lib/gcc/pic32c/13.2.1/../../../../pic32c/lib/thumb/v6-m/nofp\libc-size-musl.a(strchr.o)
 .debug_abbrev  0x0000e75d       0xc4 C:/Applications/Microchip/XC32/bin/bin/../../lib/gcc/pic32c/13.2.1/../../../../pic32c/lib/thumb/v6-m/nofp\libc-size-musl.a(strchrnul.o)
 .debug_abbrev  0x0000e821       0xb5 C:/Applications/Microchip/XC32/bin/bin/../../lib/gcc/pic32c/13.2.1/../../../../pic32c/lib/thumb/v6-m/nofp\libc-size-musl.a(strcpy.o)
 .debug_abbrev  0x0000e8d6       0x6e C:/Applications/Microchip/XC32/bin/bin/../../lib/gcc/pic32c/13.2.1/../../../../pic32c/lib/thumb/v6-m/nofp\libc-size-musl.a(stpcpy.o)
 .debug_abbrev  0x0000e944      0x184 C:/Applications/Microchip/XC32/bin/bin/../../lib/gcc/pic32c/13.2.1/../../../../pic32c/lib/thumb/v6-m/nofp\liblmalloc-musl.a(lite_free.o)
 .debug_abbrev  0x0000eac8      0x13d C:/Applications/Microchip/XC32/bin/bin/../../lib/gcc/pic32c/13.2.1/../../../../pic32c/lib/thumb/v6-m/nofp\liblmalloc-musl.a(lite_malloc.o)
 .debug_abbrev  0x0000ec05      0x133 C:/Applications/Microchip/XC32/bin/bin/../../lib/gcc/pic32c/13.2.1/../../../../pic32c/lib/thumb/v6-m/nofp\libc-musl.a(__libc_start_main.o)
 .debug_abbrev  0x0000ed38       0x39 C:/Applications/Microchip/XC32/bin/bin/../../lib/gcc/pic32c/13.2.1/../../../../pic32c/lib/thumb/v6-m/nofp\libc-musl.a(__errno_location.o)
 .debug_abbrev  0x0000ed71       0xd4 C:/Applications/Microchip/XC32/bin/bin/../../lib/gcc/pic32c/13.2.1/../../../../pic32c/lib/thumb/v6-m/nofp\libc-musl.a(libc.o)
 .debug_abbrev  0x0000ee45       0xcc C:/Applications/Microchip/XC32/bin/bin/../../lib/gcc/pic32c/13.2.1/../../../../pic32c/lib/thumb/v6-m/nofp\libc-musl.a(expand_heap.o)
 .debug_abbrev  0x0000ef11      0x198 C:/Applications/Microchip/XC32/bin/bin/../../lib/gcc/pic32c/13.2.1/../../../../pic32c/lib/thumb/v6-m/nofp\libc-musl.a(vsnprintf.o)
 .debug_abbrev  0x0000f0a9      0x10e C:/Applications/Microchip/XC32/bin/bin/../../lib/gcc/pic32c/13.2.1/../../../../pic32c/lib/thumb/v6-m/nofp\libc-musl.a(sprintf.o)
 .debug_abbrev  0x0000f1b7       0xd3 C:/Applications/Microchip/XC32/bin/bin/../../lib/gcc/pic32c/13.2.1/../../../../pic32c/lib/thumb/v6-m/nofp\libc-musl.a(vsprintf.o)
 .debug_abbrev  0x0000f28a       0x62 C:/Applications/Microchip/XC32/bin/bin/../../lib/gcc/pic32c/13.2.1/../../../../pic32c/lib/thumb/v6-m/nofp\libc-musl.a(__environ.o)
 .debug_abbrev  0x0000f2ec      0x1a1 C:/Applications/Microchip/XC32/bin/bin/../../lib/gcc/pic32c/13.2.1/../../../../pic32c/lib/thumb/v6-m/nofp\libc-musl.a(vfprintf.o)
 .debug_abbrev  0x0000f48d       0xdc C:/Applications/Microchip/XC32/bin/bin/../../lib/gcc/pic32c/13.2.1/../../../../pic32c/lib/thumb/v6-m/nofp\libc-musl.a(__pop_float.o)
 .debug_abbrev  0x0000f569       0xdc C:/Applications/Microchip/XC32/bin/bin/../../lib/gcc/pic32c/13.2.1/../../../../pic32c/lib/thumb/v6-m/nofp\libc-musl.a(__pop_int.o)
 .debug_abbrev  0x0000f645       0xdc C:/Applications/Microchip/XC32/bin/bin/../../lib/gcc/pic32c/13.2.1/../../../../pic32c/lib/thumb/v6-m/nofp\libc-musl.a(__pop_ptr.o)
 .debug_abbrev  0x0000f721      0x324 C:/Applications/Microchip/XC32/bin/bin/../../lib/gcc/pic32c/13.2.1/../../../../pic32c/lib/thumb/v6-m/nofp\libc-musl.a(__printf_core.o)
 .debug_abbrev  0x0000fa45       0xc6 C:/Applications/Microchip/XC32/bin/bin/../../lib/gcc/pic32c/13.2.1/../../../../pic32c/lib/thumb/v6-m/nofp\libc-musl.a(atoi.o)
 .debug_abbrev  0x0000fb0b       0xf4 C:/Applications/Microchip/XC32/bin/bin/../../lib/gcc/pic32c/13.2.1/../../../../pic32c/lib/thumb/v6-m/nofp\libc-musl.a(tolower.o)
 .debug_abbrev  0x0000fbff      0x1eb C:/Applications/Microchip/XC32/bin/bin/../../lib/gcc/pic32c/13.2.1/../../../../pic32c/lib/thumb/v6-m/nofp\libc-musl.a(__fmt_a.o)
 .debug_abbrev  0x0000fdea      0x16b C:/Applications/Microchip/XC32/bin/bin/../../lib/gcc/pic32c/13.2.1/../../../../pic32c/lib/thumb/v6-m/nofp\libc-musl.a(__fmt_d.o)
 .debug_abbrev  0x0000ff55      0x1ee C:/Applications/Microchip/XC32/bin/bin/../../lib/gcc/pic32c/13.2.1/../../../../pic32c/lib/thumb/v6-m/nofp\libc-musl.a(__fmt_fp.o)
 .debug_abbrev  0x00010143      0x16b C:/Applications/Microchip/XC32/bin/bin/../../lib/gcc/pic32c/13.2.1/../../../../pic32c/lib/thumb/v6-m/nofp\libc-musl.a(__fmt_o.o)
 .debug_abbrev  0x000102ae      0x16f C:/Applications/Microchip/XC32/bin/bin/../../lib/gcc/pic32c/13.2.1/../../../../pic32c/lib/thumb/v6-m/nofp\libc-musl.a(__fmt_s.o)
 .debug_abbrev  0x0001041d      0x16b C:/Applications/Microchip/XC32/bin/bin/../../lib/gcc/pic32c/13.2.1/../../../../pic32c/lib/thumb/v6-m/nofp\libc-musl.a(__fmt_u.o)
 .debug_abbrev  0x00010588      0x15a C:/Applications/Microchip/XC32/bin/bin/../../lib/gcc/pic32c/13.2.1/../../../../pic32c/lib/thumb/v6-m/nofp\libc-musl.a(__fmt_x.o)
 .debug_abbrev  0x000106e2       0xf4 C:/Applications/Microchip/XC32/bin/bin/../../lib/gcc/pic32c/13.2.1/../../../../pic32c/lib/thumb/v6-m/nofp\libc-musl.a(toupper.o)
 .debug_abbrev  0x000107d6      0x10c C:/Applications/Microchip/XC32/bin/bin/../../lib/gcc/pic32c/13.2.1/../../../../pic32c/lib/thumb/v6-m/nofp\libc-musl.a(__cvt_u.o)
 .debug_abbrev  0x000108e2      0x105 C:/Applications/Microchip/XC32/bin/bin/../../lib/gcc/pic32c/13.2.1/../../../../pic32c/lib/thumb/v6-m/nofp\libpic32c.a(sbrk.o)
 .debug_abbrev  0x000109e7       0x21 C:/Applications/Microchip/XC32/bin/bin/../../lib/gcc/pic32c/13.2.1/thumb/v6-m/nofp\libgcc.a(_thumb1_case_uqi.o)
 .debug_abbrev  0x00010a08       0x21 C:/Applications/Microchip/XC32/bin/bin/../../lib/gcc/pic32c/13.2.1/thumb/v6-m/nofp\libgcc.a(_udivsi3.o)
 .debug_abbrev  0x00010a29       0x21 C:/Applications/Microchip/XC32/bin/bin/../../lib/gcc/pic32c/13.2.1/thumb/v6-m/nofp\libgcc.a(_divsi3.o)
 .debug_abbrev  0x00010a4a       0x1f C:/Applications/Microchip/XC32/bin/bin/../../lib/gcc/pic32c/13.2.1/thumb/v6-m/nofp\libgcc.a(_dvmd_tls.o)
 .debug_abbrev  0x00010a69       0x21 C:/Applications/Microchip/XC32/bin/bin/../../lib/gcc/pic32c/13.2.1/thumb/v6-m/nofp\libgcc.a(_lshrdi3.o)
 .debug_abbrev  0x00010a8a       0x21 C:/Applications/Microchip/XC32/bin/bin/../../lib/gcc/pic32c/13.2.1/thumb/v6-m/nofp\libgcc.a(_ashldi3.o)
 .debug_abbrev  0x00010aab       0x21 C:/Applications/Microchip/XC32/bin/bin/../../lib/gcc/pic32c/13.2.1/thumb/v6-m/nofp\libgcc.a(_aeabi_uldivmod.o)
 .debug_abbrev  0x00010acc      0x15d C:/Applications/Microchip/XC32/bin/bin/../../lib/gcc/pic32c/13.2.1/thumb/v6-m/nofp\libgcc.a(_muldi3.o)
 .debug_abbrev  0x00010c29      0x11c C:/Applications/Microchip/XC32/bin/bin/../../lib/gcc/pic32c/13.2.1/thumb/v6-m/nofp\libgcc.a(_udivmoddi4.o)
 .debug_abbrev  0x00010d45       0x14 C:/Applications/Microchip/XC32/bin/bin/../../lib/gcc/pic32c/13.2.1/thumb/v6-m/nofp\libgcc.a(_clzdi2.o)
 .debug_abbrev  0x00010d59       0x21 C:/Applications/Microchip/XC32/bin/bin/../../lib/gcc/pic32c/13.2.1/thumb/v6-m/nofp\libgcc.a(_clzsi2.o)
 .debug_abbrev  0x00010d7a       0xa5 C:/Applications/Microchip/XC32/bin/bin/../../lib/gcc/pic32c/13.2.1/../../../../pic32c/lib/thumb/v6-m/nofp\libpic32c.a(pic32_data_init_clear.o)
 .debug_abbrev  0x00010e1f       0xb9 C:/Applications/Microchip/XC32/bin/bin/../../lib/gcc/pic32c/13.2.1/../../../../pic32c/lib/thumb/v6-m/nofp\libpic32c.a(pic32_data_init_copy.o)

.debug_loc      0x00000000    0x41b7c
 .debug_loc     0x00000000     0x1dcc build/default/production/_ext/158385033/drv_i2c.o
 .debug_loc     0x00001dcc     0x274c build/default/production/_ext/2070931557/drv_spi.o
 .debug_loc     0x00004518     0x2b58 build/default/production/_ext/869808652/drv_usart.o
 .debug_loc     0x00007070      0x42d build/default/production/_ext/622324608/wdrv_winc_spi.o
 .debug_loc     0x0000749d       0xce build/default/production/_ext/622324608/wdrv_winc_eint.o
 .debug_loc     0x0000756b     0x6730 build/default/production/_ext/1857064221/winc_cmds.o
 .debug_loc     0x0000dc9b      0x34d build/default/production/_ext/1857064221/winc_cmd_req.o
 .debug_loc     0x0000dfe8     0x1fe4 build/default/production/_ext/1857064221/winc_dev.o
 .debug_loc     0x0000ffcc      0xc05 build/default/production/_ext/1857064221/winc_sdio_drv.o
 .debug_loc     0x00010bd1     0x6dd3 build/default/production/_ext/1857064221/winc_socket.o
 .debug_loc     0x000179a4     0x3875 build/default/production/_ext/1706628858/wdrv_winc.o
 .debug_loc     0x0001b219      0xce5 build/default/production/_ext/1706628858/wdrv_winc_assoc.o
 .debug_loc     0x0001befe     0x1cff build/default/production/_ext/1706628858/wdrv_winc_bssfind.o
 .debug_loc     0x0001dbfd      0xe76 build/default/production/_ext/1706628858/wdrv_winc_dns.o
 .debug_loc     0x0001ea73      0x819 build/default/production/_ext/1706628858/wdrv_winc_extcrypto.o
 .debug_loc     0x0001f28c     0x2eba build/default/production/_ext/1706628858/wdrv_winc_mqtt.o
 .debug_loc     0x00022146     0x13a0 build/default/production/_ext/1706628858/wdrv_winc_netif.o
 .debug_loc     0x000234e6     0x1972 build/default/production/_ext/1706628858/wdrv_winc_ota.o
 .debug_loc     0x00024e58      0x934 build/default/production/_ext/1706628858/wdrv_winc_pps.o
 .debug_loc     0x0002578c     0x15ab build/default/production/_ext/1706628858/wdrv_winc_nvm.o
 .debug_loc     0x00026d37      0x829 build/default/production/_ext/1706628858/wdrv_winc_prov.o
 .debug_loc     0x00027560      0xb23 build/default/production/_ext/1706628858/wdrv_winc_socket.o
 .debug_loc     0x00028083      0xcc6 build/default/production/_ext/1706628858/wdrv_winc_softap.o
 .debug_loc     0x00028d49      0xd5b build/default/production/_ext/1706628858/wdrv_winc_sta.o
 .debug_loc     0x00029aa4      0x77d build/default/production/_ext/1706628858/wdrv_winc_systime.o
 .debug_loc     0x0002a221      0x1d7 build/default/production/_ext/60163342/plib_adc0.o
 .debug_loc     0x0002a3f8      0xeae build/default/production/_ext/60165182/plib_can0.o
 .debug_loc     0x0002b2a6       0x45 build/default/production/_ext/1984496892/plib_clock.o
 .debug_loc     0x0002b2eb       0x2b build/default/production/_ext/60166132/plib_dac.o
 .debug_loc     0x0002b316      0xc0c build/default/production/_ext/1865161661/plib_dmac.o
 .debug_loc     0x0002bf22       0xda build/default/production/_ext/60167341/plib_eic.o
 .debug_loc     0x0002bffc      0x13b build/default/production/_ext/1987437027/plib_freqm.o
 .debug_loc     0x0002c137      0x3db build/default/production/_ext/1865468468/plib_nvic.o
 .debug_loc     0x0002c512      0x725 build/default/production/_ext/1593096446/plib_nvmctrl.o
 .debug_loc     0x0002cc37      0x2d8 build/default/production/_ext/1865521619/plib_port.o
 .debug_loc     0x0002cf0f      0x1f8 build/default/production/_ext/60180175/plib_rtc_clock.o
 .debug_loc     0x0002d107      0xce6 build/default/production/_ext/508257091/plib_sercom2_i2c_master.o
 .debug_loc     0x0002dded      0x6e2 build/default/production/_ext/17022449/plib_sercom3_spi_master.o
 .debug_loc     0x0002e4cf      0x6e2 build/default/production/_ext/17022449/plib_sercom4_spi_master.o
 .debug_loc     0x0002ebb1      0x683 build/default/production/_ext/17022449/plib_sercom5_spi_master.o
 .debug_loc     0x0002f234      0x8e6 build/default/production/_ext/504274921/plib_sercom1_usart.o
 .debug_loc     0x0002fb1a      0xeba build/default/production/_ext/504274921/plib_sercom0_usart.o
 .debug_loc     0x000309d4       0x6e build/default/production/_ext/1865616679/plib_supc.o
 .debug_loc     0x00030a42      0x509 build/default/production/_ext/1827571544/plib_systick.o
 .debug_loc     0x00030f4b      0x193 build/default/production/_ext/60181570/plib_tcc0.o
 .debug_loc     0x000310de      0xbf1 build/default/production/_ext/1832805299/sys_console_uart.o
 .debug_loc     0x00031ccf      0xdc2 build/default/production/_ext/1832805299/sys_console.o
 .debug_loc     0x00032a91      0x197 build/default/production/_ext/14461671/sys_dma.o
 .debug_loc     0x00032c28      0x161 build/default/production/_ext/1881668453/sys_int.o
 .debug_loc     0x00032d89     0x208d build/default/production/_ext/101884895/sys_time.o
 .debug_loc     0x00034e16       0x20 build/default/production/_ext/1171490990/tasks.o
 .debug_loc     0x00034e36       0x4b build/default/production/_ext/1171490990/initialization.o
 .debug_loc     0x00034e81       0x60 build/default/production/_ext/1171490990/interrupts.o
 .debug_loc     0x00034ee1       0x6b build/default/production/_ext/1171490990/startup_xc32.o
 .debug_loc     0x00034f4c     0x1042 build/default/production/_ext/1360937237/ad9954_driver.o
 .debug_loc     0x00035f8e      0xd8c build/default/production/_ext/1360937237/bme690_driver.o
 .debug_loc     0x00036d1a     0x15ac build/default/production/_ext/1360937237/bmp585_driver.o
 .debug_loc     0x000382c6      0x42e build/default/production/_ext/1360937237/can0_driver.o
 .debug_loc     0x000386f4       0x36 build/default/production/_ext/1360937237/console_driver.o
 .debug_loc     0x0003872a       0xfa build/default/production/_ext/1360937237/fcm360w_driver.o
 .debug_loc     0x00038824     0x10d2 build/default/production/_ext/1360937237/hdc302x_driver.o
 .debug_loc     0x000398f6      0x498 build/default/production/_ext/1360937237/mcp9808_driver.o
 .debug_loc     0x00039d8e      0x124 build/default/production/_ext/1360937237/ntc_driver.o
 .debug_loc     0x00039eb2      0x173 build/default/production/_ext/1360937237/rstc_driver.o
 .debug_loc     0x0003a025      0x1b2 build/default/production/_ext/1360937237/rtc_driver.o
 .debug_loc     0x0003a1d7      0x9b9 build/default/production/_ext/1360937237/sen63c_driver.o
 .debug_loc     0x0003ab90      0x334 build/default/production/_ext/1360937237/sht4x_driver.o
 .debug_loc     0x0003aec4      0x5bb build/default/production/_ext/1360937237/ssd1306_driver.o
 .debug_loc     0x0003b47f      0xc4b build/default/production/_ext/1360937237/stcc4_driver.o
 .debug_loc     0x0003c0ca      0x120 build/default/production/_ext/1360937237/timer_driver.o
 .debug_loc     0x0003c1ea      0x992 build/default/production/_ext/1360937237/vcnl4200_driver.o
 .debug_loc     0x0003cb7c      0x24a build/default/production/_ext/1360937237/ws281x_driver.o
 .debug_loc     0x0003cdc6       0x82 build/default/production/_ext/1360937237/xm125_driver.o
 .debug_loc     0x0003ce48      0x12a build/default/production/_ext/1360937237/wincs02_driver.o
 .debug_loc     0x0003cf72       0x20 build/default/production/_ext/1360937237/app.o
 .debug_loc     0x0003cf92       0x20 build/default/production/_ext/1360937237/main.o
 .debug_loc     0x0003cfb2      0x113 C:/Applications/Microchip/XC32/bin/bin/../../lib/gcc/pic32c/13.2.1/../../../../pic32c/lib/thumb/v6-m/nofp\libpic32c.a(data_init.o)
 .debug_loc     0x0003d0c5       0xcf C:/Applications/Microchip/XC32/bin/bin/../../lib/gcc/pic32c/13.2.1/../../../../pic32c/lib/thumb/v6-m/nofp\libc-size-musl.a(memcmp.o)
 .debug_loc     0x0003d194      0x12d C:/Applications/Microchip/XC32/bin/bin/../../lib/gcc/pic32c/13.2.1/../../../../pic32c/lib/thumb/v6-m/nofp\libc-size-musl.a(memcpy.o)
 .debug_loc     0x0003d2c1       0xe5 C:/Applications/Microchip/XC32/bin/bin/../../lib/gcc/pic32c/13.2.1/../../../../pic32c/lib/thumb/v6-m/nofp\libc-size-musl.a(memset.o)
 .debug_loc     0x0003d3a6       0x93 C:/Applications/Microchip/XC32/bin/bin/../../lib/gcc/pic32c/13.2.1/../../../../pic32c/lib/thumb/v6-m/nofp\libc-size-musl.a(strlen.o)
 .debug_loc     0x0003d439       0xc1 C:/Applications/Microchip/XC32/bin/bin/../../lib/gcc/pic32c/13.2.1/../../../../pic32c/lib/thumb/v6-m/nofp\libc-size-musl.a(strstr.o)
 .debug_loc     0x0003d4fa       0x98 C:/Applications/Microchip/XC32/bin/bin/../../lib/gcc/pic32c/13.2.1/../../../../pic32c/lib/thumb/v6-m/nofp\libc-size-musl.a(strchr.o)
 .debug_loc     0x0003d592       0xdb C:/Applications/Microchip/XC32/bin/bin/../../lib/gcc/pic32c/13.2.1/../../../../pic32c/lib/thumb/v6-m/nofp\libc-size-musl.a(strchrnul.o)
 .debug_loc     0x0003d66d       0x7a C:/Applications/Microchip/XC32/bin/bin/../../lib/gcc/pic32c/13.2.1/../../../../pic32c/lib/thumb/v6-m/nofp\libc-size-musl.a(strcpy.o)
 .debug_loc     0x0003d6e7       0xb5 C:/Applications/Microchip/XC32/bin/bin/../../lib/gcc/pic32c/13.2.1/../../../../pic32c/lib/thumb/v6-m/nofp\libc-size-musl.a(stpcpy.o)
 .debug_loc     0x0003d79c      0x318 C:/Applications/Microchip/XC32/bin/bin/../../lib/gcc/pic32c/13.2.1/../../../../pic32c/lib/thumb/v6-m/nofp\liblmalloc-musl.a(lite_free.o)
 .debug_loc     0x0003dab4      0x11c C:/Applications/Microchip/XC32/bin/bin/../../lib/gcc/pic32c/13.2.1/../../../../pic32c/lib/thumb/v6-m/nofp\liblmalloc-musl.a(lite_malloc.o)
 .debug_loc     0x0003dbd0       0x5e C:/Applications/Microchip/XC32/bin/bin/../../lib/gcc/pic32c/13.2.1/../../../../pic32c/lib/thumb/v6-m/nofp\libc-musl.a(__libc_start_main.o)
 .debug_loc     0x0003dc2e       0x82 C:/Applications/Microchip/XC32/bin/bin/../../lib/gcc/pic32c/13.2.1/../../../../pic32c/lib/thumb/v6-m/nofp\libc-musl.a(expand_heap.o)
 .debug_loc     0x0003dcb0      0x120 C:/Applications/Microchip/XC32/bin/bin/../../lib/gcc/pic32c/13.2.1/../../../../pic32c/lib/thumb/v6-m/nofp\libc-musl.a(vsnprintf.o)
 .debug_loc     0x0003ddd0       0x6c C:/Applications/Microchip/XC32/bin/bin/../../lib/gcc/pic32c/13.2.1/../../../../pic32c/lib/thumb/v6-m/nofp\libc-musl.a(sprintf.o)
 .debug_loc     0x0003de3c       0x98 C:/Applications/Microchip/XC32/bin/bin/../../lib/gcc/pic32c/13.2.1/../../../../pic32c/lib/thumb/v6-m/nofp\libc-musl.a(vsprintf.o)
 .debug_loc     0x0003ded4       0xdc C:/Applications/Microchip/XC32/bin/bin/../../lib/gcc/pic32c/13.2.1/../../../../pic32c/lib/thumb/v6-m/nofp\libc-musl.a(vfprintf.o)
 .debug_loc     0x0003dfb0       0xfb C:/Applications/Microchip/XC32/bin/bin/../../lib/gcc/pic32c/13.2.1/../../../../pic32c/lib/thumb/v6-m/nofp\libc-musl.a(__pop_float.o)
 .debug_loc     0x0003e0ab      0x374 C:/Applications/Microchip/XC32/bin/bin/../../lib/gcc/pic32c/13.2.1/../../../../pic32c/lib/thumb/v6-m/nofp\libc-musl.a(__pop_int.o)
 .debug_loc     0x0003e41f      0x1a1 C:/Applications/Microchip/XC32/bin/bin/../../lib/gcc/pic32c/13.2.1/../../../../pic32c/lib/thumb/v6-m/nofp\libc-musl.a(__pop_ptr.o)
 .debug_loc     0x0003e5c0      0x68c C:/Applications/Microchip/XC32/bin/bin/../../lib/gcc/pic32c/13.2.1/../../../../pic32c/lib/thumb/v6-m/nofp\libc-musl.a(__printf_core.o)
 .debug_loc     0x0003ec4c       0xbc C:/Applications/Microchip/XC32/bin/bin/../../lib/gcc/pic32c/13.2.1/../../../../pic32c/lib/thumb/v6-m/nofp\libc-musl.a(atoi.o)
 .debug_loc     0x0003ed08       0xa1 C:/Applications/Microchip/XC32/bin/bin/../../lib/gcc/pic32c/13.2.1/../../../../pic32c/lib/thumb/v6-m/nofp\libc-musl.a(tolower.o)
 .debug_loc     0x0003eda9      0xd70 C:/Applications/Microchip/XC32/bin/bin/../../lib/gcc/pic32c/13.2.1/../../../../pic32c/lib/thumb/v6-m/nofp\libc-musl.a(__fmt_a.o)
 .debug_loc     0x0003fb19      0x2b3 C:/Applications/Microchip/XC32/bin/bin/../../lib/gcc/pic32c/13.2.1/../../../../pic32c/lib/thumb/v6-m/nofp\libc-musl.a(__fmt_d.o)
 .debug_loc     0x0003fdcc      0xc86 C:/Applications/Microchip/XC32/bin/bin/../../lib/gcc/pic32c/13.2.1/../../../../pic32c/lib/thumb/v6-m/nofp\libc-musl.a(__fmt_fp.o)
 .debug_loc     0x00040a52      0x13e C:/Applications/Microchip/XC32/bin/bin/../../lib/gcc/pic32c/13.2.1/../../../../pic32c/lib/thumb/v6-m/nofp\libc-musl.a(__fmt_o.o)
 .debug_loc     0x00040b90      0x150 C:/Applications/Microchip/XC32/bin/bin/../../lib/gcc/pic32c/13.2.1/../../../../pic32c/lib/thumb/v6-m/nofp\libc-musl.a(__fmt_s.o)
 .debug_loc     0x00040ce0      0x13e C:/Applications/Microchip/XC32/bin/bin/../../lib/gcc/pic32c/13.2.1/../../../../pic32c/lib/thumb/v6-m/nofp\libc-musl.a(__fmt_u.o)
 .debug_loc     0x00040e1e      0x3d5 C:/Applications/Microchip/XC32/bin/bin/../../lib/gcc/pic32c/13.2.1/../../../../pic32c/lib/thumb/v6-m/nofp\libc-musl.a(__fmt_x.o)
 .debug_loc     0x000411f3       0xa1 C:/Applications/Microchip/XC32/bin/bin/../../lib/gcc/pic32c/13.2.1/../../../../pic32c/lib/thumb/v6-m/nofp\libc-musl.a(toupper.o)
 .debug_loc     0x00041294      0x1d9 C:/Applications/Microchip/XC32/bin/bin/../../lib/gcc/pic32c/13.2.1/../../../../pic32c/lib/thumb/v6-m/nofp\libc-musl.a(__cvt_u.o)
 .debug_loc     0x0004146d       0xca C:/Applications/Microchip/XC32/bin/bin/../../lib/gcc/pic32c/13.2.1/../../../../pic32c/lib/thumb/v6-m/nofp\libpic32c.a(sbrk.o)
 .debug_loc     0x00041537      0x12d C:/Applications/Microchip/XC32/bin/bin/../../lib/gcc/pic32c/13.2.1/thumb/v6-m/nofp\libgcc.a(_muldi3.o)
 .debug_loc     0x00041664      0x28a C:/Applications/Microchip/XC32/bin/bin/../../lib/gcc/pic32c/13.2.1/thumb/v6-m/nofp\libgcc.a(_udivmoddi4.o)
 .debug_loc     0x000418ee       0xf7 C:/Applications/Microchip/XC32/bin/bin/../../lib/gcc/pic32c/13.2.1/../../../../pic32c/lib/thumb/v6-m/nofp\libpic32c.a(pic32_data_init_clear.o)
 .debug_loc     0x000419e5      0x197 C:/Applications/Microchip/XC32/bin/bin/../../lib/gcc/pic32c/13.2.1/../../../../pic32c/lib/thumb/v6-m/nofp\libpic32c.a(pic32_data_init_copy.o)

.debug_aranges  0x00000000     0x36c0
 .debug_aranges
                0x00000000       0xc0 build/default/production/_ext/158385033/drv_i2c.o
 .debug_aranges
                0x000000c0       0xb8 build/default/production/_ext/2070931557/drv_spi.o
 .debug_aranges
                0x00000178      0x110 build/default/production/_ext/869808652/drv_usart.o
 .debug_aranges
                0x00000288       0x40 build/default/production/_ext/622324608/wdrv_winc_spi.o
 .debug_aranges
                0x000002c8       0x28 build/default/production/_ext/622324608/wdrv_winc_eint.o
 .debug_aranges
                0x000002f0      0x2e0 build/default/production/_ext/1857064221/winc_cmds.o
 .debug_aranges
                0x000005d0       0x28 build/default/production/_ext/1857064221/winc_cmd_req.o
 .debug_aranges
                0x000005f8       0x98 build/default/production/_ext/1857064221/winc_dev.o
 .debug_aranges
                0x00000690       0x60 build/default/production/_ext/1857064221/winc_sdio_drv.o
 .debug_aranges
                0x000006f0      0x180 build/default/production/_ext/1857064221/winc_socket.o
 .debug_aranges
                0x00000870      0x140 build/default/production/_ext/1706628858/wdrv_winc.o
 .debug_aranges
                0x000009b0       0x50 build/default/production/_ext/1706628858/wdrv_winc_assoc.o
 .debug_aranges
                0x00000a00       0x80 build/default/production/_ext/1706628858/wdrv_winc_bssfind.o
 .debug_aranges
                0x00000a80       0x40 build/default/production/_ext/1706628858/wdrv_winc_dns.o
 .debug_aranges
                0x00000ac0       0x30 build/default/production/_ext/1706628858/wdrv_winc_extcrypto.o
 .debug_aranges
                0x00000af0      0x100 build/default/production/_ext/1706628858/wdrv_winc_mqtt.o
 .debug_aranges
                0x00000bf0       0x58 build/default/production/_ext/1706628858/wdrv_winc_netif.o
 .debug_aranges
                0x00000c48       0x58 build/default/production/_ext/1706628858/wdrv_winc_ota.o
 .debug_aranges
                0x00000ca0       0x38 build/default/production/_ext/1706628858/wdrv_winc_pps.o
 .debug_aranges
                0x00000cd8       0x70 build/default/production/_ext/1706628858/wdrv_winc_nvm.o
 .debug_aranges
                0x00000d48       0x38 build/default/production/_ext/1706628858/wdrv_winc_prov.o
 .debug_aranges
                0x00000d80       0x38 build/default/production/_ext/1706628858/wdrv_winc_socket.o
 .debug_aranges
                0x00000db8       0x40 build/default/production/_ext/1706628858/wdrv_winc_softap.o
 .debug_aranges
                0x00000df8       0x48 build/default/production/_ext/1706628858/wdrv_winc_sta.o
 .debug_aranges
                0x00000e40       0x38 build/default/production/_ext/1706628858/wdrv_winc_systime.o
 .debug_aranges
                0x00000e78       0x88 build/default/production/_ext/60163342/plib_adc0.o
 .debug_aranges
                0x00000f00       0xa0 build/default/production/_ext/60165182/plib_can0.o
 .debug_aranges
                0x00000fa0       0x20 build/default/production/_ext/1984496892/plib_clock.o
 .debug_aranges
                0x00000fc0       0x30 build/default/production/_ext/60166132/plib_dac.o
 .debug_aranges
                0x00000ff0       0x98 build/default/production/_ext/1865161661/plib_dmac.o
 .debug_aranges
                0x00001088       0x40 build/default/production/_ext/60167341/plib_eic.o
 .debug_aranges
                0x000010c8       0x20 build/default/production/_ext/1986646378/plib_evsys.o
 .debug_aranges
                0x000010e8       0x50 build/default/production/_ext/1987437027/plib_freqm.o
 .debug_aranges
                0x00001138       0x48 build/default/production/_ext/1865468468/plib_nvic.o
 .debug_aranges
                0x00001180       0xb0 build/default/production/_ext/1593096446/plib_nvmctrl.o
 .debug_aranges
                0x00001230       0x30 build/default/production/_ext/829342769/plib_pm.o
 .debug_aranges
                0x00001260       0x70 build/default/production/_ext/1865521619/plib_port.o
 .debug_aranges
                0x000012d0       0x20 build/default/production/_ext/1865585090/plib_rstc.o
 .debug_aranges
                0x000012f0       0x58 build/default/production/_ext/60180175/plib_rtc_clock.o
 .debug_aranges
                0x00001348       0x78 build/default/production/_ext/508257091/plib_sercom2_i2c_master.o
 .debug_aranges
                0x000013c0       0x60 build/default/production/_ext/17022449/plib_sercom3_spi_master.o
 .debug_aranges
                0x00001420       0x60 build/default/production/_ext/17022449/plib_sercom4_spi_master.o
 .debug_aranges
                0x00001480       0x48 build/default/production/_ext/17022449/plib_sercom5_spi_master.o
 .debug_aranges
                0x000014c8       0xe0 build/default/production/_ext/504274921/plib_sercom1_usart.o
 .debug_aranges
                0x000015a8       0xe8 build/default/production/_ext/504274921/plib_sercom0_usart.o
 .debug_aranges
                0x00001690       0x30 build/default/production/_ext/1865616679/plib_supc.o
 .debug_aranges
                0x000016c0       0xb0 build/default/production/_ext/1827571544/plib_systick.o
 .debug_aranges
                0x00001770       0x80 build/default/production/_ext/60181570/plib_tcc0.o
 .debug_aranges
                0x000017f0       0x68 build/default/production/_ext/60184501/plib_wdt.o
 .debug_aranges
                0x00001858       0x68 build/default/production/_ext/1832805299/sys_console_uart.o
 .debug_aranges
                0x000018c0       0x88 build/default/production/_ext/1832805299/sys_console.o
 .debug_aranges
                0x00001948       0x28 build/default/production/_ext/14461671/sys_dma.o
 .debug_aranges
                0x00001970       0x40 build/default/production/_ext/1881668453/sys_int.o
 .debug_aranges
                0x000019b0      0x108 build/default/production/_ext/101884895/sys_time.o
 .debug_aranges
                0x00001ab8       0x20 build/default/production/_ext/1171490990/tasks.o
 .debug_aranges
                0x00001ad8       0x20 build/default/production/_ext/1171490990/initialization.o
 .debug_aranges
                0x00001af8       0x38 build/default/production/_ext/1171490990/interrupts.o
 .debug_aranges
                0x00001b30       0x28 build/default/production/_ext/1171490990/exceptions.o
 .debug_aranges
                0x00001b58       0x28 build/default/production/_ext/1171490990/startup_xc32.o
 .debug_aranges
                0x00001b80      0x190 build/default/production/_ext/1360937237/ad9954_driver.o
 .debug_aranges
                0x00001d10      0x3d8 build/default/production/_ext/1360937237/bme690_driver.o
 .debug_aranges
                0x000020e8      0x298 build/default/production/_ext/1360937237/bmp585_driver.o
 .debug_aranges
                0x00002380       0x78 build/default/production/_ext/1360937237/can0_driver.o
 .debug_aranges
                0x000023f8       0x48 build/default/production/_ext/1360937237/console_driver.o
 .debug_aranges
                0x00002440       0x68 build/default/production/_ext/1360937237/fcm360w_driver.o
 .debug_aranges
                0x000024a8      0x1e8 build/default/production/_ext/1360937237/hdc302x_driver.o
 .debug_aranges
                0x00002690       0xd8 build/default/production/_ext/1360937237/mcp9808_driver.o
 .debug_aranges
                0x00002768       0x60 build/default/production/_ext/1360937237/ntc_driver.o
 .debug_aranges
                0x000027c8       0x50 build/default/production/_ext/1360937237/rstc_driver.o
 .debug_aranges
                0x00002818       0x80 build/default/production/_ext/1360937237/rtc_driver.o
 .debug_aranges
                0x00002898      0x150 build/default/production/_ext/1360937237/sen63c_driver.o
 .debug_aranges
                0x000029e8       0x98 build/default/production/_ext/1360937237/sht4x_driver.o
 .debug_aranges
                0x00002a80       0x90 build/default/production/_ext/1360937237/ssd1306_driver.o
 .debug_aranges
                0x00002b10      0x128 build/default/production/_ext/1360937237/stcc4_driver.o
 .debug_aranges
                0x00002c38       0xc0 build/default/production/_ext/1360937237/timer_driver.o
 .debug_aranges
                0x00002cf8      0x138 build/default/production/_ext/1360937237/vcnl4200_driver.o
 .debug_aranges
                0x00002e30       0x88 build/default/production/_ext/1360937237/ws281x_driver.o
 .debug_aranges
                0x00002eb8       0x68 build/default/production/_ext/1360937237/xm125_driver.o
 .debug_aranges
                0x00002f20       0x70 build/default/production/_ext/1360937237/wincs02_driver.o
 .debug_aranges
                0x00002f90       0x68 build/default/production/_ext/1360937237/app.o
 .debug_aranges
                0x00002ff8       0x20 build/default/production/_ext/1360937237/main.o
 .debug_aranges
                0x00003018       0x30 C:/Applications/Microchip/XC32/bin/bin/../../lib/gcc/pic32c/13.2.1/../../../../pic32c/lib/thumb/v6-m/nofp\libpic32c.a(data_init.o)
 .debug_aranges
                0x00003048       0x20 C:/Applications/Microchip/XC32/bin/bin/../../lib/gcc/pic32c/13.2.1/../../../../pic32c/lib/thumb/v6-m/nofp\libc-size-musl.a(memcmp.o)
 .debug_aranges
                0x00003068       0x20 C:/Applications/Microchip/XC32/bin/bin/../../lib/gcc/pic32c/13.2.1/../../../../pic32c/lib/thumb/v6-m/nofp\libc-size-musl.a(memcpy.o)
 .debug_aranges
                0x00003088       0x20 C:/Applications/Microchip/XC32/bin/bin/../../lib/gcc/pic32c/13.2.1/../../../../pic32c/lib/thumb/v6-m/nofp\libc-size-musl.a(memset.o)
 .debug_aranges
                0x000030a8       0x20 C:/Applications/Microchip/XC32/bin/bin/../../lib/gcc/pic32c/13.2.1/../../../../pic32c/lib/thumb/v6-m/nofp\libc-size-musl.a(strlen.o)
 .debug_aranges
                0x000030c8       0x20 C:/Applications/Microchip/XC32/bin/bin/../../lib/gcc/pic32c/13.2.1/../../../../pic32c/lib/thumb/v6-m/nofp\libc-size-musl.a(strstr.o)
 .debug_aranges
                0x000030e8       0x20 C:/Applications/Microchip/XC32/bin/bin/../../lib/gcc/pic32c/13.2.1/../../../../pic32c/lib/thumb/v6-m/nofp\libc-size-musl.a(strchr.o)
 .debug_aranges
                0x00003108       0x20 C:/Applications/Microchip/XC32/bin/bin/../../lib/gcc/pic32c/13.2.1/../../../../pic32c/lib/thumb/v6-m/nofp\libc-size-musl.a(strchrnul.o)
 .debug_aranges
                0x00003128       0x20 C:/Applications/Microchip/XC32/bin/bin/../../lib/gcc/pic32c/13.2.1/../../../../pic32c/lib/thumb/v6-m/nofp\libc-size-musl.a(strcpy.o)
 .debug_aranges
                0x00003148       0x20 C:/Applications/Microchip/XC32/bin/bin/../../lib/gcc/pic32c/13.2.1/../../../../pic32c/lib/thumb/v6-m/nofp\libc-size-musl.a(stpcpy.o)
 .debug_aranges
                0x00003168       0x30 C:/Applications/Microchip/XC32/bin/bin/../../lib/gcc/pic32c/13.2.1/../../../../pic32c/lib/thumb/v6-m/nofp\liblmalloc-musl.a(lite_free.o)
 .debug_aranges
                0x00003198       0x20 C:/Applications/Microchip/XC32/bin/bin/../../lib/gcc/pic32c/13.2.1/../../../../pic32c/lib/thumb/v6-m/nofp\liblmalloc-musl.a(lite_malloc.o)
 .debug_aranges
                0x000031b8       0x28 C:/Applications/Microchip/XC32/bin/bin/../../lib/gcc/pic32c/13.2.1/../../../../pic32c/lib/thumb/v6-m/nofp\libc-musl.a(__libc_start_main.o)
 .debug_aranges
                0x000031e0       0x18 C:/Applications/Microchip/XC32/bin/bin/../../lib/gcc/pic32c/13.2.1/../../../../pic32c/lib/thumb/v6-m/nofp\libc-musl.a(__errno_location.o)
 .debug_aranges
                0x000031f8       0x18 C:/Applications/Microchip/XC32/bin/bin/../../lib/gcc/pic32c/13.2.1/../../../../pic32c/lib/thumb/v6-m/nofp\libc-musl.a(libc.o)
 .debug_aranges
                0x00003210       0x20 C:/Applications/Microchip/XC32/bin/bin/../../lib/gcc/pic32c/13.2.1/../../../../pic32c/lib/thumb/v6-m/nofp\libc-musl.a(expand_heap.o)
 .debug_aranges
                0x00003230       0x20 C:/Applications/Microchip/XC32/bin/bin/../../lib/gcc/pic32c/13.2.1/../../../../pic32c/lib/thumb/v6-m/nofp\libc-musl.a(vsnprintf.o)
 .debug_aranges
                0x00003250       0x20 C:/Applications/Microchip/XC32/bin/bin/../../lib/gcc/pic32c/13.2.1/../../../../pic32c/lib/thumb/v6-m/nofp\libc-musl.a(sprintf.o)
 .debug_aranges
                0x00003270       0x20 C:/Applications/Microchip/XC32/bin/bin/../../lib/gcc/pic32c/13.2.1/../../../../pic32c/lib/thumb/v6-m/nofp\libc-musl.a(vsprintf.o)
 .debug_aranges
                0x00003290       0x18 C:/Applications/Microchip/XC32/bin/bin/../../lib/gcc/pic32c/13.2.1/../../../../pic32c/lib/thumb/v6-m/nofp\libc-musl.a(__environ.o)
 .debug_aranges
                0x000032a8       0x28 C:/Applications/Microchip/XC32/bin/bin/../../lib/gcc/pic32c/13.2.1/../../../../pic32c/lib/thumb/v6-m/nofp\libc-musl.a(vfprintf.o)
 .debug_aranges
                0x000032d0       0x20 C:/Applications/Microchip/XC32/bin/bin/../../lib/gcc/pic32c/13.2.1/../../../../pic32c/lib/thumb/v6-m/nofp\libc-musl.a(__pop_float.o)
 .debug_aranges
                0x000032f0       0x20 C:/Applications/Microchip/XC32/bin/bin/../../lib/gcc/pic32c/13.2.1/../../../../pic32c/lib/thumb/v6-m/nofp\libc-musl.a(__pop_int.o)
 .debug_aranges
                0x00003310       0x20 C:/Applications/Microchip/XC32/bin/bin/../../lib/gcc/pic32c/13.2.1/../../../../pic32c/lib/thumb/v6-m/nofp\libc-musl.a(__pop_ptr.o)
 .debug_aranges
                0x00003330       0x50 C:/Applications/Microchip/XC32/bin/bin/../../lib/gcc/pic32c/13.2.1/../../../../pic32c/lib/thumb/v6-m/nofp\libc-musl.a(__printf_core.o)
 .debug_aranges
                0x00003380       0x20 C:/Applications/Microchip/XC32/bin/bin/../../lib/gcc/pic32c/13.2.1/../../../../pic32c/lib/thumb/v6-m/nofp\libc-musl.a(atoi.o)
 .debug_aranges
                0x000033a0       0x28 C:/Applications/Microchip/XC32/bin/bin/../../lib/gcc/pic32c/13.2.1/../../../../pic32c/lib/thumb/v6-m/nofp\libc-musl.a(tolower.o)
 .debug_aranges
                0x000033c8       0x20 C:/Applications/Microchip/XC32/bin/bin/../../lib/gcc/pic32c/13.2.1/../../../../pic32c/lib/thumb/v6-m/nofp\libc-musl.a(__fmt_a.o)
 .debug_aranges
                0x000033e8       0x20 C:/Applications/Microchip/XC32/bin/bin/../../lib/gcc/pic32c/13.2.1/../../../../pic32c/lib/thumb/v6-m/nofp\libc-musl.a(__fmt_d.o)
 .debug_aranges
                0x00003408       0x20 C:/Applications/Microchip/XC32/bin/bin/../../lib/gcc/pic32c/13.2.1/../../../../pic32c/lib/thumb/v6-m/nofp\libc-musl.a(__fmt_fp.o)
 .debug_aranges
                0x00003428       0x20 C:/Applications/Microchip/XC32/bin/bin/../../lib/gcc/pic32c/13.2.1/../../../../pic32c/lib/thumb/v6-m/nofp\libc-musl.a(__fmt_o.o)
 .debug_aranges
                0x00003448       0x20 C:/Applications/Microchip/XC32/bin/bin/../../lib/gcc/pic32c/13.2.1/../../../../pic32c/lib/thumb/v6-m/nofp\libc-musl.a(__fmt_s.o)
 .debug_aranges
                0x00003468       0x20 C:/Applications/Microchip/XC32/bin/bin/../../lib/gcc/pic32c/13.2.1/../../../../pic32c/lib/thumb/v6-m/nofp\libc-musl.a(__fmt_u.o)
 .debug_aranges
                0x00003488       0x20 C:/Applications/Microchip/XC32/bin/bin/../../lib/gcc/pic32c/13.2.1/../../../../pic32c/lib/thumb/v6-m/nofp\libc-musl.a(__fmt_x.o)
 .debug_aranges
                0x000034a8       0x28 C:/Applications/Microchip/XC32/bin/bin/../../lib/gcc/pic32c/13.2.1/../../../../pic32c/lib/thumb/v6-m/nofp\libc-musl.a(toupper.o)
 .debug_aranges
                0x000034d0       0x20 C:/Applications/Microchip/XC32/bin/bin/../../lib/gcc/pic32c/13.2.1/../../../../pic32c/lib/thumb/v6-m/nofp\libc-musl.a(__cvt_u.o)
 .debug_aranges
                0x000034f0       0x30 C:/Applications/Microchip/XC32/bin/bin/../../lib/gcc/pic32c/13.2.1/../../../../pic32c/lib/thumb/v6-m/nofp\libpic32c.a(sbrk.o)
 .debug_aranges
                0x00003520       0x20 C:/Applications/Microchip/XC32/bin/bin/../../lib/gcc/pic32c/13.2.1/thumb/v6-m/nofp\libgcc.a(_thumb1_case_uqi.o)
 .debug_aranges
                0x00003540       0x20 C:/Applications/Microchip/XC32/bin/bin/../../lib/gcc/pic32c/13.2.1/thumb/v6-m/nofp\libgcc.a(_udivsi3.o)
 .debug_aranges
                0x00003560       0x20 C:/Applications/Microchip/XC32/bin/bin/../../lib/gcc/pic32c/13.2.1/thumb/v6-m/nofp\libgcc.a(_divsi3.o)
 .debug_aranges
                0x00003580       0x20 C:/Applications/Microchip/XC32/bin/bin/../../lib/gcc/pic32c/13.2.1/thumb/v6-m/nofp\libgcc.a(_dvmd_tls.o)
 .debug_aranges
                0x000035a0       0x20 C:/Applications/Microchip/XC32/bin/bin/../../lib/gcc/pic32c/13.2.1/thumb/v6-m/nofp\libgcc.a(_lshrdi3.o)
 .debug_aranges
                0x000035c0       0x20 C:/Applications/Microchip/XC32/bin/bin/../../lib/gcc/pic32c/13.2.1/thumb/v6-m/nofp\libgcc.a(_ashldi3.o)
 .debug_aranges
                0x000035e0       0x20 C:/Applications/Microchip/XC32/bin/bin/../../lib/gcc/pic32c/13.2.1/thumb/v6-m/nofp\libgcc.a(_aeabi_uldivmod.o)
 .debug_aranges
                0x00003600       0x20 C:/Applications/Microchip/XC32/bin/bin/../../lib/gcc/pic32c/13.2.1/thumb/v6-m/nofp\libgcc.a(_muldi3.o)
 .debug_aranges
                0x00003620       0x20 C:/Applications/Microchip/XC32/bin/bin/../../lib/gcc/pic32c/13.2.1/thumb/v6-m/nofp\libgcc.a(_udivmoddi4.o)
 .debug_aranges
                0x00003640       0x20 C:/Applications/Microchip/XC32/bin/bin/../../lib/gcc/pic32c/13.2.1/thumb/v6-m/nofp\libgcc.a(_clzdi2.o)
 .debug_aranges
                0x00003660       0x20 C:/Applications/Microchip/XC32/bin/bin/../../lib/gcc/pic32c/13.2.1/thumb/v6-m/nofp\libgcc.a(_clzsi2.o)
 .debug_aranges
                0x00003680       0x20 C:/Applications/Microchip/XC32/bin/bin/../../lib/gcc/pic32c/13.2.1/../../../../pic32c/lib/thumb/v6-m/nofp\libpic32c.a(pic32_data_init_clear.o)
 .debug_aranges
                0x000036a0       0x20 C:/Applications/Microchip/XC32/bin/bin/../../lib/gcc/pic32c/13.2.1/../../../../pic32c/lib/thumb/v6-m/nofp\libpic32c.a(pic32_data_init_copy.o)

.debug_ranges   0x00000000     0x41e0
 .debug_ranges  0x00000000      0x180 build/default/production/_ext/158385033/drv_i2c.o
 .debug_ranges  0x00000180      0x1d0 build/default/production/_ext/2070931557/drv_spi.o
 .debug_ranges  0x00000350      0x258 build/default/production/_ext/869808652/drv_usart.o
 .debug_ranges  0x000005a8       0x30 build/default/production/_ext/622324608/wdrv_winc_spi.o
 .debug_ranges  0x000005d8       0x18 build/default/production/_ext/622324608/wdrv_winc_eint.o
 .debug_ranges  0x000005f0      0x310 build/default/production/_ext/1857064221/winc_cmds.o
 .debug_ranges  0x00000900       0x18 build/default/production/_ext/1857064221/winc_cmd_req.o
 .debug_ranges  0x00000918      0x1d8 build/default/production/_ext/1857064221/winc_dev.o
 .debug_ranges  0x00000af0       0x70 build/default/production/_ext/1857064221/winc_sdio_drv.o
 .debug_ranges  0x00000b60      0x458 build/default/production/_ext/1857064221/winc_socket.o
 .debug_ranges  0x00000fb8      0x210 build/default/production/_ext/1706628858/wdrv_winc.o
 .debug_ranges  0x000011c8       0xa8 build/default/production/_ext/1706628858/wdrv_winc_assoc.o
 .debug_ranges  0x00001270      0x120 build/default/production/_ext/1706628858/wdrv_winc_bssfind.o
 .debug_ranges  0x00001390       0x88 build/default/production/_ext/1706628858/wdrv_winc_dns.o
 .debug_ranges  0x00001418       0xa0 build/default/production/_ext/1706628858/wdrv_winc_extcrypto.o
 .debug_ranges  0x000014b8      0x170 build/default/production/_ext/1706628858/wdrv_winc_mqtt.o
 .debug_ranges  0x00001628       0xc8 build/default/production/_ext/1706628858/wdrv_winc_netif.o
 .debug_ranges  0x000016f0      0x120 build/default/production/_ext/1706628858/wdrv_winc_ota.o
 .debug_ranges  0x00001810       0x60 build/default/production/_ext/1706628858/wdrv_winc_pps.o
 .debug_ranges  0x00001870      0x100 build/default/production/_ext/1706628858/wdrv_winc_nvm.o
 .debug_ranges  0x00001970       0x60 build/default/production/_ext/1706628858/wdrv_winc_prov.o
 .debug_ranges  0x000019d0       0x48 build/default/production/_ext/1706628858/wdrv_winc_socket.o
 .debug_ranges  0x00001a18       0xa8 build/default/production/_ext/1706628858/wdrv_winc_softap.o
 .debug_ranges  0x00001ac0       0x88 build/default/production/_ext/1706628858/wdrv_winc_sta.o
 .debug_ranges  0x00001b48       0x78 build/default/production/_ext/1706628858/wdrv_winc_systime.o
 .debug_ranges  0x00001bc0       0x78 build/default/production/_ext/60163342/plib_adc0.o
 .debug_ranges  0x00001c38       0x90 build/default/production/_ext/60165182/plib_can0.o
 .debug_ranges  0x00001cc8       0x10 build/default/production/_ext/1984496892/plib_clock.o
 .debug_ranges  0x00001cd8       0x20 build/default/production/_ext/60166132/plib_dac.o
 .debug_ranges  0x00001cf8       0xa0 build/default/production/_ext/1865161661/plib_dmac.o
 .debug_ranges  0x00001d98       0x30 build/default/production/_ext/60167341/plib_eic.o
 .debug_ranges  0x00001dc8       0x10 build/default/production/_ext/1986646378/plib_evsys.o
 .debug_ranges  0x00001dd8       0x58 build/default/production/_ext/1987437027/plib_freqm.o
 .debug_ranges  0x00001e30       0x50 build/default/production/_ext/1865468468/plib_nvic.o
 .debug_ranges  0x00001e80       0xa0 build/default/production/_ext/1593096446/plib_nvmctrl.o
 .debug_ranges  0x00001f20       0x20 build/default/production/_ext/829342769/plib_pm.o
 .debug_ranges  0x00001f40       0x60 build/default/production/_ext/1865521619/plib_port.o
 .debug_ranges  0x00001fa0       0x10 build/default/production/_ext/1865585090/plib_rstc.o
 .debug_ranges  0x00001fb0       0x48 build/default/production/_ext/60180175/plib_rtc_clock.o
 .debug_ranges  0x00001ff8      0x130 build/default/production/_ext/508257091/plib_sercom2_i2c_master.o
 .debug_ranges  0x00002128       0x68 build/default/production/_ext/17022449/plib_sercom3_spi_master.o
 .debug_ranges  0x00002190       0x68 build/default/production/_ext/17022449/plib_sercom4_spi_master.o
 .debug_ranges  0x000021f8       0x38 build/default/production/_ext/17022449/plib_sercom5_spi_master.o
 .debug_ranges  0x00002230      0x120 build/default/production/_ext/504274921/plib_sercom1_usart.o
 .debug_ranges  0x00002350      0x1e0 build/default/production/_ext/504274921/plib_sercom0_usart.o
 .debug_ranges  0x00002530       0x20 build/default/production/_ext/1865616679/plib_supc.o
 .debug_ranges  0x00002550       0xa0 build/default/production/_ext/1827571544/plib_systick.o
 .debug_ranges  0x000025f0       0x70 build/default/production/_ext/60181570/plib_tcc0.o
 .debug_ranges  0x00002660       0x58 build/default/production/_ext/60184501/plib_wdt.o
 .debug_ranges  0x000026b8       0xe8 build/default/production/_ext/1832805299/sys_console_uart.o
 .debug_ranges  0x000027a0       0x90 build/default/production/_ext/1832805299/sys_console.o
 .debug_ranges  0x00002830       0x18 build/default/production/_ext/14461671/sys_dma.o
 .debug_ranges  0x00002848       0x48 build/default/production/_ext/1881668453/sys_int.o
 .debug_ranges  0x00002890      0x188 build/default/production/_ext/101884895/sys_time.o
 .debug_ranges  0x00002a18       0x10 build/default/production/_ext/1171490990/tasks.o
 .debug_ranges  0x00002a28       0x10 build/default/production/_ext/1171490990/initialization.o
 .debug_ranges  0x00002a38       0x28 build/default/production/_ext/1171490990/interrupts.o
 .debug_ranges  0x00002a60       0x18 build/default/production/_ext/1171490990/exceptions.o
 .debug_ranges  0x00002a78       0x18 build/default/production/_ext/1171490990/startup_xc32.o
 .debug_ranges  0x00002a90      0x180 build/default/production/_ext/1360937237/ad9954_driver.o
 .debug_ranges  0x00002c10      0x3c8 build/default/production/_ext/1360937237/bme690_driver.o
 .debug_ranges  0x00002fd8      0x288 build/default/production/_ext/1360937237/bmp585_driver.o
 .debug_ranges  0x00003260       0xc8 build/default/production/_ext/1360937237/can0_driver.o
 .debug_ranges  0x00003328       0x38 build/default/production/_ext/1360937237/console_driver.o
 .debug_ranges  0x00003360       0x58 build/default/production/_ext/1360937237/fcm360w_driver.o
 .debug_ranges  0x000033b8      0x1f0 build/default/production/_ext/1360937237/hdc302x_driver.o
 .debug_ranges  0x000035a8       0xc8 build/default/production/_ext/1360937237/mcp9808_driver.o
 .debug_ranges  0x00003670       0x50 build/default/production/_ext/1360937237/ntc_driver.o
 .debug_ranges  0x000036c0       0x40 build/default/production/_ext/1360937237/rstc_driver.o
 .debug_ranges  0x00003700       0x70 build/default/production/_ext/1360937237/rtc_driver.o
 .debug_ranges  0x00003770      0x158 build/default/production/_ext/1360937237/sen63c_driver.o
 .debug_ranges  0x000038c8       0x88 build/default/production/_ext/1360937237/sht4x_driver.o
 .debug_ranges  0x00003950       0xb0 build/default/production/_ext/1360937237/ssd1306_driver.o
 .debug_ranges  0x00003a00      0x130 build/default/production/_ext/1360937237/stcc4_driver.o
 .debug_ranges  0x00003b30       0xb0 build/default/production/_ext/1360937237/timer_driver.o
 .debug_ranges  0x00003be0      0x128 build/default/production/_ext/1360937237/vcnl4200_driver.o
 .debug_ranges  0x00003d08       0x78 build/default/production/_ext/1360937237/ws281x_driver.o
 .debug_ranges  0x00003d80       0x58 build/default/production/_ext/1360937237/xm125_driver.o
 .debug_ranges  0x00003dd8       0x60 build/default/production/_ext/1360937237/wincs02_driver.o
 .debug_ranges  0x00003e38       0x58 build/default/production/_ext/1360937237/app.o
 .debug_ranges  0x00003e90       0x10 build/default/production/_ext/1360937237/main.o
 .debug_ranges  0x00003ea0       0x20 C:/Applications/Microchip/XC32/bin/bin/../../lib/gcc/pic32c/13.2.1/../../../../pic32c/lib/thumb/v6-m/nofp\libpic32c.a(data_init.o)
 .debug_ranges  0x00003ec0       0x10 C:/Applications/Microchip/XC32/bin/bin/../../lib/gcc/pic32c/13.2.1/../../../../pic32c/lib/thumb/v6-m/nofp\libc-size-musl.a(memcmp.o)
 .debug_ranges  0x00003ed0       0x10 C:/Applications/Microchip/XC32/bin/bin/../../lib/gcc/pic32c/13.2.1/../../../../pic32c/lib/thumb/v6-m/nofp\libc-size-musl.a(memcpy.o)
 .debug_ranges  0x00003ee0       0x10 C:/Applications/Microchip/XC32/bin/bin/../../lib/gcc/pic32c/13.2.1/../../../../pic32c/lib/thumb/v6-m/nofp\libc-size-musl.a(memset.o)
 .debug_ranges  0x00003ef0       0x10 C:/Applications/Microchip/XC32/bin/bin/../../lib/gcc/pic32c/13.2.1/../../../../pic32c/lib/thumb/v6-m/nofp\libc-size-musl.a(strlen.o)
 .debug_ranges  0x00003f00       0x10 C:/Applications/Microchip/XC32/bin/bin/../../lib/gcc/pic32c/13.2.1/../../../../pic32c/lib/thumb/v6-m/nofp\libc-size-musl.a(strstr.o)
 .debug_ranges  0x00003f10       0x10 C:/Applications/Microchip/XC32/bin/bin/../../lib/gcc/pic32c/13.2.1/../../../../pic32c/lib/thumb/v6-m/nofp\libc-size-musl.a(strchr.o)
 .debug_ranges  0x00003f20       0x10 C:/Applications/Microchip/XC32/bin/bin/../../lib/gcc/pic32c/13.2.1/../../../../pic32c/lib/thumb/v6-m/nofp\libc-size-musl.a(strchrnul.o)
 .debug_ranges  0x00003f30       0x10 C:/Applications/Microchip/XC32/bin/bin/../../lib/gcc/pic32c/13.2.1/../../../../pic32c/lib/thumb/v6-m/nofp\libc-size-musl.a(strcpy.o)
 .debug_ranges  0x00003f40       0x10 C:/Applications/Microchip/XC32/bin/bin/../../lib/gcc/pic32c/13.2.1/../../../../pic32c/lib/thumb/v6-m/nofp\libc-size-musl.a(stpcpy.o)
 .debug_ranges  0x00003f50       0x20 C:/Applications/Microchip/XC32/bin/bin/../../lib/gcc/pic32c/13.2.1/../../../../pic32c/lib/thumb/v6-m/nofp\liblmalloc-musl.a(lite_free.o)
 .debug_ranges  0x00003f70       0x28 C:/Applications/Microchip/XC32/bin/bin/../../lib/gcc/pic32c/13.2.1/../../../../pic32c/lib/thumb/v6-m/nofp\liblmalloc-musl.a(lite_malloc.o)
 .debug_ranges  0x00003f98       0x30 C:/Applications/Microchip/XC32/bin/bin/../../lib/gcc/pic32c/13.2.1/../../../../pic32c/lib/thumb/v6-m/nofp\libc-musl.a(__libc_start_main.o)
 .debug_ranges  0x00003fc8       0x10 C:/Applications/Microchip/XC32/bin/bin/../../lib/gcc/pic32c/13.2.1/../../../../pic32c/lib/thumb/v6-m/nofp\libc-musl.a(expand_heap.o)
 .debug_ranges  0x00003fd8       0x10 C:/Applications/Microchip/XC32/bin/bin/../../lib/gcc/pic32c/13.2.1/../../../../pic32c/lib/thumb/v6-m/nofp\libc-musl.a(vsnprintf.o)
 .debug_ranges  0x00003fe8       0x10 C:/Applications/Microchip/XC32/bin/bin/../../lib/gcc/pic32c/13.2.1/../../../../pic32c/lib/thumb/v6-m/nofp\libc-musl.a(sprintf.o)
 .debug_ranges  0x00003ff8       0x10 C:/Applications/Microchip/XC32/bin/bin/../../lib/gcc/pic32c/13.2.1/../../../../pic32c/lib/thumb/v6-m/nofp\libc-musl.a(vsprintf.o)
 .debug_ranges  0x00004008       0x18 C:/Applications/Microchip/XC32/bin/bin/../../lib/gcc/pic32c/13.2.1/../../../../pic32c/lib/thumb/v6-m/nofp\libc-musl.a(vfprintf.o)
 .debug_ranges  0x00004020       0x10 C:/Applications/Microchip/XC32/bin/bin/../../lib/gcc/pic32c/13.2.1/../../../../pic32c/lib/thumb/v6-m/nofp\libc-musl.a(__pop_float.o)
 .debug_ranges  0x00004030       0x10 C:/Applications/Microchip/XC32/bin/bin/../../lib/gcc/pic32c/13.2.1/../../../../pic32c/lib/thumb/v6-m/nofp\libc-musl.a(__pop_int.o)
 .debug_ranges  0x00004040       0x10 C:/Applications/Microchip/XC32/bin/bin/../../lib/gcc/pic32c/13.2.1/../../../../pic32c/lib/thumb/v6-m/nofp\libc-musl.a(__pop_ptr.o)
 .debug_ranges  0x00004050       0x58 C:/Applications/Microchip/XC32/bin/bin/../../lib/gcc/pic32c/13.2.1/../../../../pic32c/lib/thumb/v6-m/nofp\libc-musl.a(__printf_core.o)
 .debug_ranges  0x000040a8       0x10 C:/Applications/Microchip/XC32/bin/bin/../../lib/gcc/pic32c/13.2.1/../../../../pic32c/lib/thumb/v6-m/nofp\libc-musl.a(atoi.o)
 .debug_ranges  0x000040b8       0x18 C:/Applications/Microchip/XC32/bin/bin/../../lib/gcc/pic32c/13.2.1/../../../../pic32c/lib/thumb/v6-m/nofp\libc-musl.a(tolower.o)
 .debug_ranges  0x000040d0       0x10 C:/Applications/Microchip/XC32/bin/bin/../../lib/gcc/pic32c/13.2.1/../../../../pic32c/lib/thumb/v6-m/nofp\libc-musl.a(__fmt_a.o)
 .debug_ranges  0x000040e0       0x10 C:/Applications/Microchip/XC32/bin/bin/../../lib/gcc/pic32c/13.2.1/../../../../pic32c/lib/thumb/v6-m/nofp\libc-musl.a(__fmt_d.o)
 .debug_ranges  0x000040f0       0x10 C:/Applications/Microchip/XC32/bin/bin/../../lib/gcc/pic32c/13.2.1/../../../../pic32c/lib/thumb/v6-m/nofp\libc-musl.a(__fmt_fp.o)
 .debug_ranges  0x00004100       0x10 C:/Applications/Microchip/XC32/bin/bin/../../lib/gcc/pic32c/13.2.1/../../../../pic32c/lib/thumb/v6-m/nofp\libc-musl.a(__fmt_o.o)
 .debug_ranges  0x00004110       0x10 C:/Applications/Microchip/XC32/bin/bin/../../lib/gcc/pic32c/13.2.1/../../../../pic32c/lib/thumb/v6-m/nofp\libc-musl.a(__fmt_s.o)
 .debug_ranges  0x00004120       0x10 C:/Applications/Microchip/XC32/bin/bin/../../lib/gcc/pic32c/13.2.1/../../../../pic32c/lib/thumb/v6-m/nofp\libc-musl.a(__fmt_u.o)
 .debug_ranges  0x00004130       0x10 C:/Applications/Microchip/XC32/bin/bin/../../lib/gcc/pic32c/13.2.1/../../../../pic32c/lib/thumb/v6-m/nofp\libc-musl.a(__fmt_x.o)
 .debug_ranges  0x00004140       0x18 C:/Applications/Microchip/XC32/bin/bin/../../lib/gcc/pic32c/13.2.1/../../../../pic32c/lib/thumb/v6-m/nofp\libc-musl.a(toupper.o)
 .debug_ranges  0x00004158       0x10 C:/Applications/Microchip/XC32/bin/bin/../../lib/gcc/pic32c/13.2.1/../../../../pic32c/lib/thumb/v6-m/nofp\libc-musl.a(__cvt_u.o)
 .debug_ranges  0x00004168       0x20 C:/Applications/Microchip/XC32/bin/bin/../../lib/gcc/pic32c/13.2.1/../../../../pic32c/lib/thumb/v6-m/nofp\libpic32c.a(sbrk.o)
 .debug_ranges  0x00004188       0x38 C:/Applications/Microchip/XC32/bin/bin/../../lib/gcc/pic32c/13.2.1/thumb/v6-m/nofp\libgcc.a(_muldi3.o)
 .debug_ranges  0x000041c0       0x10 C:/Applications/Microchip/XC32/bin/bin/../../lib/gcc/pic32c/13.2.1/../../../../pic32c/lib/thumb/v6-m/nofp\libpic32c.a(pic32_data_init_clear.o)
 .debug_ranges  0x000041d0       0x10 C:/Applications/Microchip/XC32/bin/bin/../../lib/gcc/pic32c/13.2.1/../../../../pic32c/lib/thumb/v6-m/nofp\libpic32c.a(pic32_data_init_copy.o)

.debug_line     0x00000000    0x3247f
 .debug_line    0x00000000     0x1057 build/default/production/_ext/158385033/drv_i2c.o
 .debug_line    0x00001057     0x1640 build/default/production/_ext/2070931557/drv_spi.o
 .debug_line    0x00002697     0x1583 build/default/production/_ext/869808652/drv_usart.o
 .debug_line    0x00003c1a      0x52f build/default/production/_ext/622324608/wdrv_winc_spi.o
 .debug_line    0x00004149      0x18d build/default/production/_ext/622324608/wdrv_winc_eint.o
 .debug_line    0x000042d6     0x259b build/default/production/_ext/1857064221/winc_cmds.o
 .debug_line    0x00006871      0x2d4 build/default/production/_ext/1857064221/winc_cmd_req.o
 .debug_line    0x00006b45     0x11fd build/default/production/_ext/1857064221/winc_dev.o
 .debug_line    0x00007d42      0xc28 build/default/production/_ext/1857064221/winc_sdio_drv.o
 .debug_line    0x0000896a     0x3c0c build/default/production/_ext/1857064221/winc_socket.o
 .debug_line    0x0000c576     0x1fc4 build/default/production/_ext/1706628858/wdrv_winc.o
 .debug_line    0x0000e53a      0x870 build/default/production/_ext/1706628858/wdrv_winc_assoc.o
 .debug_line    0x0000edaa      0xdc7 build/default/production/_ext/1706628858/wdrv_winc_bssfind.o
 .debug_line    0x0000fb71      0x827 build/default/production/_ext/1706628858/wdrv_winc_dns.o
 .debug_line    0x00010398      0x676 build/default/production/_ext/1706628858/wdrv_winc_extcrypto.o
 .debug_line    0x00010a0e     0x178a build/default/production/_ext/1706628858/wdrv_winc_mqtt.o
 .debug_line    0x00012198      0x935 build/default/production/_ext/1706628858/wdrv_winc_netif.o
 .debug_line    0x00012acd      0xe48 build/default/production/_ext/1706628858/wdrv_winc_ota.o
 .debug_line    0x00013915      0x6b2 build/default/production/_ext/1706628858/wdrv_winc_pps.o
 .debug_line    0x00013fc7      0xbb5 build/default/production/_ext/1706628858/wdrv_winc_nvm.o
 .debug_line    0x00014b7c      0x6c9 build/default/production/_ext/1706628858/wdrv_winc_prov.o
 .debug_line    0x00015245      0x6f1 build/default/production/_ext/1706628858/wdrv_winc_socket.o
 .debug_line    0x00015936      0xa0e build/default/production/_ext/1706628858/wdrv_winc_softap.o
 .debug_line    0x00016344      0xa85 build/default/production/_ext/1706628858/wdrv_winc_sta.o
 .debug_line    0x00016dc9      0x5db build/default/production/_ext/1706628858/wdrv_winc_systime.o
 .debug_line    0x000173a4      0x4a4 build/default/production/_ext/60163342/plib_adc0.o
 .debug_line    0x00017848      0xace build/default/production/_ext/60165182/plib_can0.o
 .debug_line    0x00018316      0x4b0 build/default/production/_ext/1984496892/plib_clock.o
 .debug_line    0x000187c6      0x18e build/default/production/_ext/60166132/plib_dac.o
 .debug_line    0x00018954      0x85e build/default/production/_ext/1865161661/plib_dmac.o
 .debug_line    0x000191b2      0x30c build/default/production/_ext/60167341/plib_eic.o
 .debug_line    0x000194be       0x66 build/default/production/_ext/1986646378/plib_evsys.o
 .debug_line    0x00019524      0x260 build/default/production/_ext/1987437027/plib_freqm.o
 .debug_line    0x00019784      0x651 build/default/production/_ext/1865468468/plib_nvic.o
 .debug_line    0x00019dd5      0x539 build/default/production/_ext/1593096446/plib_nvmctrl.o
 .debug_line    0x0001a30e      0x17a build/default/production/_ext/829342769/plib_pm.o
 .debug_line    0x0001a488      0x3bf build/default/production/_ext/1865521619/plib_port.o
 .debug_line    0x0001a847       0xfa build/default/production/_ext/1865585090/plib_rstc.o
 .debug_line    0x0001a941      0x4d5 build/default/production/_ext/60180175/plib_rtc_clock.o
 .debug_line    0x0001ae16      0xb57 build/default/production/_ext/508257091/plib_sercom2_i2c_master.o
 .debug_line    0x0001b96d      0x88d build/default/production/_ext/17022449/plib_sercom3_spi_master.o
 .debug_line    0x0001c1fa      0x88d build/default/production/_ext/17022449/plib_sercom4_spi_master.o
 .debug_line    0x0001ca87      0x60d build/default/production/_ext/17022449/plib_sercom5_spi_master.o
 .debug_line    0x0001d094      0xb14 build/default/production/_ext/504274921/plib_sercom1_usart.o
 .debug_line    0x0001dba8      0xe4a build/default/production/_ext/504274921/plib_sercom0_usart.o
 .debug_line    0x0001e9f2      0x204 build/default/production/_ext/1865616679/plib_supc.o
 .debug_line    0x0001ebf6      0x510 build/default/production/_ext/1827571544/plib_systick.o
 .debug_line    0x0001f106      0x488 build/default/production/_ext/60181570/plib_tcc0.o
 .debug_line    0x0001f58e      0x388 build/default/production/_ext/60184501/plib_wdt.o
 .debug_line    0x0001f916      0x62b build/default/production/_ext/1832805299/sys_console_uart.o
 .debug_line    0x0001ff41      0x698 build/default/production/_ext/1832805299/sys_console.o
 .debug_line    0x000205d9      0x143 build/default/production/_ext/14461671/sys_dma.o
 .debug_line    0x0002071c      0x2d8 build/default/production/_ext/1881668453/sys_int.o
 .debug_line    0x000209f4      0xfb2 build/default/production/_ext/101884895/sys_time.o
 .debug_line    0x000219a6      0x29a build/default/production/_ext/1171490990/tasks.o
 .debug_line    0x00021c40      0xc13 build/default/production/_ext/1171490990/initialization.o
 .debug_line    0x00022853      0x141 build/default/production/_ext/1171490990/interrupts.o
 .debug_line    0x00022994       0x75 build/default/production/_ext/1171490990/exceptions.o
 .debug_line    0x00022a09      0x278 build/default/production/_ext/1171490990/startup_xc32.o
 .debug_line    0x00022c81      0xcf9 build/default/production/_ext/1360937237/ad9954_driver.o
 .debug_line    0x0002397a     0x1069 build/default/production/_ext/1360937237/bme690_driver.o
 .debug_line    0x000249e3     0x10db build/default/production/_ext/1360937237/bmp585_driver.o
 .debug_line    0x00025abe      0x6b6 build/default/production/_ext/1360937237/can0_driver.o
 .debug_line    0x00026174      0x242 build/default/production/_ext/1360937237/console_driver.o
 .debug_line    0x000263b6      0x50f build/default/production/_ext/1360937237/fcm360w_driver.o
 .debug_line    0x000268c5      0xda6 build/default/production/_ext/1360937237/hdc302x_driver.o
 .debug_line    0x0002766b      0x793 build/default/production/_ext/1360937237/mcp9808_driver.o
 .debug_line    0x00027dfe      0x2f7 build/default/production/_ext/1360937237/ntc_driver.o
 .debug_line    0x000280f5      0x454 build/default/production/_ext/1360937237/rstc_driver.o
 .debug_line    0x00028549      0x3c3 build/default/production/_ext/1360937237/rtc_driver.o
 .debug_line    0x0002890c      0x834 build/default/production/_ext/1360937237/sen63c_driver.o
 .debug_line    0x00029140      0x5b6 build/default/production/_ext/1360937237/sht4x_driver.o
 .debug_line    0x000296f6      0xbf6 build/default/production/_ext/1360937237/ssd1306_driver.o
 .debug_line    0x0002a2ec      0xab6 build/default/production/_ext/1360937237/stcc4_driver.o
 .debug_line    0x0002ada2      0x39b build/default/production/_ext/1360937237/timer_driver.o
 .debug_line    0x0002b13d      0x80a build/default/production/_ext/1360937237/vcnl4200_driver.o
 .debug_line    0x0002b947      0x681 build/default/production/_ext/1360937237/ws281x_driver.o
 .debug_line    0x0002bfc8      0x347 build/default/production/_ext/1360937237/xm125_driver.o
 .debug_line    0x0002c30f      0x651 build/default/production/_ext/1360937237/wincs02_driver.o
 .debug_line    0x0002c960      0x39f build/default/production/_ext/1360937237/app.o
 .debug_line    0x0002ccff       0x74 build/default/production/_ext/1360937237/main.o
 .debug_line    0x0002cd73      0x165 C:/Applications/Microchip/XC32/bin/bin/../../lib/gcc/pic32c/13.2.1/../../../../pic32c/lib/thumb/v6-m/nofp\libpic32c.a(data_init.o)
 .debug_line    0x0002ced8      0x108 C:/Applications/Microchip/XC32/bin/bin/../../lib/gcc/pic32c/13.2.1/../../../../pic32c/lib/thumb/v6-m/nofp\libc-size-musl.a(memcmp.o)
 .debug_line    0x0002cfe0      0x16c C:/Applications/Microchip/XC32/bin/bin/../../lib/gcc/pic32c/13.2.1/../../../../pic32c/lib/thumb/v6-m/nofp\libc-size-musl.a(memcpy.o)
 .debug_line    0x0002d14c      0x160 C:/Applications/Microchip/XC32/bin/bin/../../lib/gcc/pic32c/13.2.1/../../../../pic32c/lib/thumb/v6-m/nofp\libc-size-musl.a(memset.o)
 .debug_line    0x0002d2ac      0x16c C:/Applications/Microchip/XC32/bin/bin/../../lib/gcc/pic32c/13.2.1/../../../../pic32c/lib/thumb/v6-m/nofp\libc-size-musl.a(strlen.o)
 .debug_line    0x0002d418      0x1e1 C:/Applications/Microchip/XC32/bin/bin/../../lib/gcc/pic32c/13.2.1/../../../../pic32c/lib/thumb/v6-m/nofp\libc-size-musl.a(strstr.o)
 .debug_line    0x0002d5f9       0xb7 C:/Applications/Microchip/XC32/bin/bin/../../lib/gcc/pic32c/13.2.1/../../../../pic32c/lib/thumb/v6-m/nofp\libc-size-musl.a(strchr.o)
 .debug_line    0x0002d6b0      0x1f8 C:/Applications/Microchip/XC32/bin/bin/../../lib/gcc/pic32c/13.2.1/../../../../pic32c/lib/thumb/v6-m/nofp\libc-size-musl.a(strchrnul.o)
 .debug_line    0x0002d8a8       0xb2 C:/Applications/Microchip/XC32/bin/bin/../../lib/gcc/pic32c/13.2.1/../../../../pic32c/lib/thumb/v6-m/nofp\libc-size-musl.a(strcpy.o)
 .debug_line    0x0002d95a      0x153 C:/Applications/Microchip/XC32/bin/bin/../../lib/gcc/pic32c/13.2.1/../../../../pic32c/lib/thumb/v6-m/nofp\libc-size-musl.a(stpcpy.o)
 .debug_line    0x0002daad      0x295 C:/Applications/Microchip/XC32/bin/bin/../../lib/gcc/pic32c/13.2.1/../../../../pic32c/lib/thumb/v6-m/nofp\liblmalloc-musl.a(lite_free.o)
 .debug_line    0x0002dd42      0x1dc C:/Applications/Microchip/XC32/bin/bin/../../lib/gcc/pic32c/13.2.1/../../../../pic32c/lib/thumb/v6-m/nofp\liblmalloc-musl.a(lite_malloc.o)
 .debug_line    0x0002df1e      0x1cb C:/Applications/Microchip/XC32/bin/bin/../../lib/gcc/pic32c/13.2.1/../../../../pic32c/lib/thumb/v6-m/nofp\libc-musl.a(__libc_start_main.o)
 .debug_line    0x0002e0e9       0x9a C:/Applications/Microchip/XC32/bin/bin/../../lib/gcc/pic32c/13.2.1/../../../../pic32c/lib/thumb/v6-m/nofp\libc-musl.a(__errno_location.o)
 .debug_line    0x0002e183       0xb5 C:/Applications/Microchip/XC32/bin/bin/../../lib/gcc/pic32c/13.2.1/../../../../pic32c/lib/thumb/v6-m/nofp\libc-musl.a(libc.o)
 .debug_line    0x0002e238       0xf0 C:/Applications/Microchip/XC32/bin/bin/../../lib/gcc/pic32c/13.2.1/../../../../pic32c/lib/thumb/v6-m/nofp\libc-musl.a(expand_heap.o)
 .debug_line    0x0002e328      0x2aa C:/Applications/Microchip/XC32/bin/bin/../../lib/gcc/pic32c/13.2.1/../../../../pic32c/lib/thumb/v6-m/nofp\libc-musl.a(vsnprintf.o)
 .debug_line    0x0002e5d2      0x153 C:/Applications/Microchip/XC32/bin/bin/../../lib/gcc/pic32c/13.2.1/../../../../pic32c/lib/thumb/v6-m/nofp\libc-musl.a(sprintf.o)
 .debug_line    0x0002e725      0x148 C:/Applications/Microchip/XC32/bin/bin/../../lib/gcc/pic32c/13.2.1/../../../../pic32c/lib/thumb/v6-m/nofp\libc-musl.a(vsprintf.o)
 .debug_line    0x0002e86d       0xfb C:/Applications/Microchip/XC32/bin/bin/../../lib/gcc/pic32c/13.2.1/../../../../pic32c/lib/thumb/v6-m/nofp\libc-musl.a(__environ.o)
 .debug_line    0x0002e968      0x1e4 C:/Applications/Microchip/XC32/bin/bin/../../lib/gcc/pic32c/13.2.1/../../../../pic32c/lib/thumb/v6-m/nofp\libc-musl.a(vfprintf.o)
 .debug_line    0x0002eb4c      0x180 C:/Applications/Microchip/XC32/bin/bin/../../lib/gcc/pic32c/13.2.1/../../../../pic32c/lib/thumb/v6-m/nofp\libc-musl.a(__pop_float.o)
 .debug_line    0x0002eccc      0x247 C:/Applications/Microchip/XC32/bin/bin/../../lib/gcc/pic32c/13.2.1/../../../../pic32c/lib/thumb/v6-m/nofp\libc-musl.a(__pop_int.o)
 .debug_line    0x0002ef13      0x1c7 C:/Applications/Microchip/XC32/bin/bin/../../lib/gcc/pic32c/13.2.1/../../../../pic32c/lib/thumb/v6-m/nofp\libc-musl.a(__pop_ptr.o)
 .debug_line    0x0002f0da      0x76e C:/Applications/Microchip/XC32/bin/bin/../../lib/gcc/pic32c/13.2.1/../../../../pic32c/lib/thumb/v6-m/nofp\libc-musl.a(__printf_core.o)
 .debug_line    0x0002f848      0x186 C:/Applications/Microchip/XC32/bin/bin/../../lib/gcc/pic32c/13.2.1/../../../../pic32c/lib/thumb/v6-m/nofp\libc-musl.a(atoi.o)
 .debug_line    0x0002f9ce      0x164 C:/Applications/Microchip/XC32/bin/bin/../../lib/gcc/pic32c/13.2.1/../../../../pic32c/lib/thumb/v6-m/nofp\libc-musl.a(tolower.o)
 .debug_line    0x0002fb32      0x7ab C:/Applications/Microchip/XC32/bin/bin/../../lib/gcc/pic32c/13.2.1/../../../../pic32c/lib/thumb/v6-m/nofp\libc-musl.a(__fmt_a.o)
 .debug_line    0x000302dd      0x234 C:/Applications/Microchip/XC32/bin/bin/../../lib/gcc/pic32c/13.2.1/../../../../pic32c/lib/thumb/v6-m/nofp\libc-musl.a(__fmt_d.o)
 .debug_line    0x00030511      0x791 C:/Applications/Microchip/XC32/bin/bin/../../lib/gcc/pic32c/13.2.1/../../../../pic32c/lib/thumb/v6-m/nofp\libc-musl.a(__fmt_fp.o)
 .debug_line    0x00030ca2      0x1c1 C:/Applications/Microchip/XC32/bin/bin/../../lib/gcc/pic32c/13.2.1/../../../../pic32c/lib/thumb/v6-m/nofp\libc-musl.a(__fmt_o.o)
 .debug_line    0x00030e63      0x20e C:/Applications/Microchip/XC32/bin/bin/../../lib/gcc/pic32c/13.2.1/../../../../pic32c/lib/thumb/v6-m/nofp\libc-musl.a(__fmt_s.o)
 .debug_line    0x00031071      0x18a C:/Applications/Microchip/XC32/bin/bin/../../lib/gcc/pic32c/13.2.1/../../../../pic32c/lib/thumb/v6-m/nofp\libc-musl.a(__fmt_u.o)
 .debug_line    0x000311fb      0x32c C:/Applications/Microchip/XC32/bin/bin/../../lib/gcc/pic32c/13.2.1/../../../../pic32c/lib/thumb/v6-m/nofp\libc-musl.a(__fmt_x.o)
 .debug_line    0x00031527      0x164 C:/Applications/Microchip/XC32/bin/bin/../../lib/gcc/pic32c/13.2.1/../../../../pic32c/lib/thumb/v6-m/nofp\libc-musl.a(toupper.o)
 .debug_line    0x0003168b      0x1e7 C:/Applications/Microchip/XC32/bin/bin/../../lib/gcc/pic32c/13.2.1/../../../../pic32c/lib/thumb/v6-m/nofp\libc-musl.a(__cvt_u.o)
 .debug_line    0x00031872      0x1bc C:/Applications/Microchip/XC32/bin/bin/../../lib/gcc/pic32c/13.2.1/../../../../pic32c/lib/thumb/v6-m/nofp\libpic32c.a(sbrk.o)
 .debug_line    0x00031a2e       0x8d C:/Applications/Microchip/XC32/bin/bin/../../lib/gcc/pic32c/13.2.1/thumb/v6-m/nofp\libgcc.a(_thumb1_case_uqi.o)
 .debug_line    0x00031abb       0x9c C:/Applications/Microchip/XC32/bin/bin/../../lib/gcc/pic32c/13.2.1/thumb/v6-m/nofp\libgcc.a(_udivsi3.o)
 .debug_line    0x00031b57       0xaa C:/Applications/Microchip/XC32/bin/bin/../../lib/gcc/pic32c/13.2.1/thumb/v6-m/nofp\libgcc.a(_divsi3.o)
 .debug_line    0x00031c01       0x85 C:/Applications/Microchip/XC32/bin/bin/../../lib/gcc/pic32c/13.2.1/thumb/v6-m/nofp\libgcc.a(_dvmd_tls.o)
 .debug_line    0x00031c86       0x90 C:/Applications/Microchip/XC32/bin/bin/../../lib/gcc/pic32c/13.2.1/thumb/v6-m/nofp\libgcc.a(_lshrdi3.o)
 .debug_line    0x00031d16       0x90 C:/Applications/Microchip/XC32/bin/bin/../../lib/gcc/pic32c/13.2.1/thumb/v6-m/nofp\libgcc.a(_ashldi3.o)
 .debug_line    0x00031da6       0x90 C:/Applications/Microchip/XC32/bin/bin/../../lib/gcc/pic32c/13.2.1/thumb/v6-m/nofp\libgcc.a(_aeabi_uldivmod.o)
 .debug_line    0x00031e36      0x132 C:/Applications/Microchip/XC32/bin/bin/../../lib/gcc/pic32c/13.2.1/thumb/v6-m/nofp\libgcc.a(_muldi3.o)
 .debug_line    0x00031f68      0x19b C:/Applications/Microchip/XC32/bin/bin/../../lib/gcc/pic32c/13.2.1/thumb/v6-m/nofp\libgcc.a(_udivmoddi4.o)
 .debug_line    0x00032103       0x8f C:/Applications/Microchip/XC32/bin/bin/../../lib/gcc/pic32c/13.2.1/thumb/v6-m/nofp\libgcc.a(_clzdi2.o)
 .debug_line    0x00032192       0x99 C:/Applications/Microchip/XC32/bin/bin/../../lib/gcc/pic32c/13.2.1/thumb/v6-m/nofp\libgcc.a(_clzsi2.o)
 .debug_line    0x0003222b      0x11e C:/Applications/Microchip/XC32/bin/bin/../../lib/gcc/pic32c/13.2.1/../../../../pic32c/lib/thumb/v6-m/nofp\libpic32c.a(pic32_data_init_clear.o)
 .debug_line    0x00032349      0x136 C:/Applications/Microchip/XC32/bin/bin/../../lib/gcc/pic32c/13.2.1/../../../../pic32c/lib/thumb/v6-m/nofp\libpic32c.a(pic32_data_init_copy.o)

.debug_str      0x00000000    0x1c308
 .debug_str     0x00000000    0x1c308 build/default/production/_ext/158385033/drv_i2c.o
                               0x1217 (size before relaxing)
 .debug_str     0x0001c308     0x2546 build/default/production/_ext/2070931557/drv_spi.o
 .debug_str     0x0001c308     0x19cf build/default/production/_ext/869808652/drv_usart.o
 .debug_str     0x0001c308      0xbe6 build/default/production/_ext/622324608/wdrv_winc_spi.o
 .debug_str     0x0001c308      0x3a2 build/default/production/_ext/622324608/wdrv_winc_eint.o
 .debug_str     0x0001c308     0x10bb build/default/production/_ext/1857064221/winc_cmds.o
 .debug_str     0x0001c308      0x5bc build/default/production/_ext/1857064221/winc_cmd_req.o
 .debug_str     0x0001c308      0xf19 build/default/production/_ext/1857064221/winc_dev.o
 .debug_str     0x0001c308      0x7b5 build/default/production/_ext/1857064221/winc_sdio_drv.o
 .debug_str     0x0001c308     0x15e1 build/default/production/_ext/1857064221/winc_socket.o
 .debug_str     0x0001c308     0x4196 build/default/production/_ext/1706628858/wdrv_winc.o
 .debug_str     0x0001c308     0x2faf build/default/production/_ext/1706628858/wdrv_winc_assoc.o
 .debug_str     0x0001c308     0x328b build/default/production/_ext/1706628858/wdrv_winc_bssfind.o
 .debug_str     0x0001c308     0x2f8a build/default/production/_ext/1706628858/wdrv_winc_dns.o
 .debug_str     0x0001c308     0x2f94 build/default/production/_ext/1706628858/wdrv_winc_extcrypto.o
 .debug_str     0x0001c308     0x397a build/default/production/_ext/1706628858/wdrv_winc_mqtt.o
 .debug_str     0x0001c308     0x316d build/default/production/_ext/1706628858/wdrv_winc_netif.o
 .debug_str     0x0001c308     0x31f1 build/default/production/_ext/1706628858/wdrv_winc_ota.o
 .debug_str     0x0001c308     0x2fb4 build/default/production/_ext/1706628858/wdrv_winc_pps.o
 .debug_str     0x0001c308     0x31b2 build/default/production/_ext/1706628858/wdrv_winc_nvm.o
 .debug_str     0x0001c308     0x2f76 build/default/production/_ext/1706628858/wdrv_winc_prov.o
 .debug_str     0x0001c308     0x312c build/default/production/_ext/1706628858/wdrv_winc_socket.o
 .debug_str     0x0001c308     0x3110 build/default/production/_ext/1706628858/wdrv_winc_softap.o
 .debug_str     0x0001c308     0x316a build/default/production/_ext/1706628858/wdrv_winc_sta.o
 .debug_str     0x0001c308     0x2f34 build/default/production/_ext/1706628858/wdrv_winc_systime.o
 .debug_str     0x0001c308      0x87c build/default/production/_ext/60163342/plib_adc0.o
 .debug_str     0x0001c308      0xec2 build/default/production/_ext/60165182/plib_can0.o
 .debug_str     0x0001c308      0x66c build/default/production/_ext/1984496892/plib_clock.o
 .debug_str     0x0001c308      0x3be build/default/production/_ext/60166132/plib_dac.o
 .debug_str     0x0001c308      0x951 build/default/production/_ext/1865161661/plib_dmac.o
 .debug_str     0x0001c308      0x48d build/default/production/_ext/60167341/plib_eic.o
 .debug_str     0x0001c308      0x2d9 build/default/production/_ext/1986646378/plib_evsys.o
 .debug_str     0x0001c308      0x4b1 build/default/production/_ext/1987437027/plib_freqm.o
 .debug_str     0x0001c308      0x6b3 build/default/production/_ext/1865468468/plib_nvic.o
 .debug_str     0x0001c308      0x693 build/default/production/_ext/1593096446/plib_nvmctrl.o
 .debug_str     0x0001c308      0x341 build/default/production/_ext/829342769/plib_pm.o
 .debug_str     0x0001c308      0xa77 build/default/production/_ext/1865521619/plib_port.o
 .debug_str     0x0001c308      0x318 build/default/production/_ext/1865585090/plib_rstc.o
 .debug_str     0x0001c308      0x66c build/default/production/_ext/60180175/plib_rtc_clock.o
 .debug_str     0x0001c308      0x9dd build/default/production/_ext/508257091/plib_sercom2_i2c_master.o
 .debug_str     0x0001c308      0x844 build/default/production/_ext/17022449/plib_sercom3_spi_master.o
 .debug_str     0x0001c308      0x844 build/default/production/_ext/17022449/plib_sercom4_spi_master.o
 .debug_str     0x0001c308      0x743 build/default/production/_ext/17022449/plib_sercom5_spi_master.o
 .debug_str     0x0001c308      0xb01 build/default/production/_ext/504274921/plib_sercom1_usart.o
 .debug_str     0x0001c308      0xe2f build/default/production/_ext/504274921/plib_sercom0_usart.o
 .debug_str     0x0001c308      0x3ef build/default/production/_ext/1865616679/plib_supc.o
 .debug_str     0x0001c308      0x5f0 build/default/production/_ext/1827571544/plib_systick.o
 .debug_str     0x0001c308      0x5a4 build/default/production/_ext/60181570/plib_tcc0.o
 .debug_str     0x0001c308      0x412 build/default/production/_ext/60184501/plib_wdt.o
 .debug_str     0x0001c308      0xb22 build/default/production/_ext/1832805299/sys_console_uart.o
 .debug_str     0x0001c308      0xa76 build/default/production/_ext/1832805299/sys_console.o
 .debug_str     0x0001c308      0x688 build/default/production/_ext/14461671/sys_dma.o
 .debug_str     0x0001c308      0x661 build/default/production/_ext/1881668453/sys_int.o
 .debug_str     0x0001c308      0xe7c build/default/production/_ext/101884895/sys_time.o
 .debug_str     0x0001c308      0x4ad build/default/production/_ext/1171490990/tasks.o
 .debug_str     0x0001c308     0x3705 build/default/production/_ext/1171490990/initialization.o
 .debug_str     0x0001c308      0x877 build/default/production/_ext/1171490990/interrupts.o
 .debug_str     0x0001c308      0x2ec build/default/production/_ext/1171490990/exceptions.o
 .debug_str     0x0001c308      0x3ef build/default/production/_ext/1171490990/startup_xc32.o
 .debug_str     0x0001c308     0x10c6 build/default/production/_ext/1360937237/ad9954_driver.o
 .debug_str     0x0001c308     0x1de9 build/default/production/_ext/1360937237/bme690_driver.o
 .debug_str     0x0001c308     0x167d build/default/production/_ext/1360937237/bmp585_driver.o
 .debug_str     0x0001c308      0xd59 build/default/production/_ext/1360937237/can0_driver.o
 .debug_str     0x0001c308      0x59d build/default/production/_ext/1360937237/console_driver.o
 .debug_str     0x0001c308      0xa91 build/default/production/_ext/1360937237/fcm360w_driver.o
 .debug_str     0x0001c308     0x1129 build/default/production/_ext/1360937237/hdc302x_driver.o
 .debug_str     0x0001c308      0xed5 build/default/production/_ext/1360937237/mcp9808_driver.o
 .debug_str     0x0001c308      0x6ce build/default/production/_ext/1360937237/ntc_driver.o
 .debug_str     0x0001c308      0x617 build/default/production/_ext/1360937237/rstc_driver.o
 .debug_str     0x0001c308      0x781 build/default/production/_ext/1360937237/rtc_driver.o
 .debug_str     0x0001c308      0xffc build/default/production/_ext/1360937237/sen63c_driver.o
 .debug_str     0x0001c308      0xc34 build/default/production/_ext/1360937237/sht4x_driver.o
 .debug_str     0x0001c308     0x13d8 build/default/production/_ext/1360937237/ssd1306_driver.o
 .debug_str     0x0001c308     0x1058 build/default/production/_ext/1360937237/stcc4_driver.o
 .debug_str     0x0001c308      0x735 build/default/production/_ext/1360937237/timer_driver.o
 .debug_str     0x0001c308      0xf86 build/default/production/_ext/1360937237/vcnl4200_driver.o
 .debug_str     0x0001c308      0xa05 build/default/production/_ext/1360937237/ws281x_driver.o
 .debug_str     0x0001c308      0xa8b build/default/production/_ext/1360937237/xm125_driver.o
 .debug_str     0x0001c308     0x15c9 build/default/production/_ext/1360937237/wincs02_driver.o
 .debug_str     0x0001c308      0x7e3 build/default/production/_ext/1360937237/app.o
 .debug_str     0x0001c308      0x2cc build/default/production/_ext/1360937237/main.o
 .debug_str     0x0001c308      0x2ef C:/Applications/Microchip/XC32/bin/bin/../../lib/gcc/pic32c/13.2.1/../../../../pic32c/lib/thumb/v6-m/nofp\libpic32c.a(data_init.o)
 .debug_str     0x0001c308      0x239 C:/Applications/Microchip/XC32/bin/bin/../../lib/gcc/pic32c/13.2.1/../../../../pic32c/lib/thumb/v6-m/nofp\libc-size-musl.a(memcmp.o)
 .debug_str     0x0001c308      0x238 C:/Applications/Microchip/XC32/bin/bin/../../lib/gcc/pic32c/13.2.1/../../../../pic32c/lib/thumb/v6-m/nofp\libc-size-musl.a(memcpy.o)
 .debug_str     0x0001c308      0x23b C:/Applications/Microchip/XC32/bin/bin/../../lib/gcc/pic32c/13.2.1/../../../../pic32c/lib/thumb/v6-m/nofp\libc-size-musl.a(memset.o)
 .debug_str     0x0001c308      0x241 C:/Applications/Microchip/XC32/bin/bin/../../lib/gcc/pic32c/13.2.1/../../../../pic32c/lib/thumb/v6-m/nofp\libc-size-musl.a(strlen.o)
 .debug_str     0x0001c308      0x224 C:/Applications/Microchip/XC32/bin/bin/../../lib/gcc/pic32c/13.2.1/../../../../pic32c/lib/thumb/v6-m/nofp\libc-size-musl.a(strstr.o)
 .debug_str     0x0001c308      0x235 C:/Applications/Microchip/XC32/bin/bin/../../lib/gcc/pic32c/13.2.1/../../../../pic32c/lib/thumb/v6-m/nofp\libc-size-musl.a(strchr.o)
 .debug_str     0x0001c308      0x2a9 C:/Applications/Microchip/XC32/bin/bin/../../lib/gcc/pic32c/13.2.1/../../../../pic32c/lib/thumb/v6-m/nofp\libc-size-musl.a(strchrnul.o)
 .debug_str     0x0001c308      0x237 C:/Applications/Microchip/XC32/bin/bin/../../lib/gcc/pic32c/13.2.1/../../../../pic32c/lib/thumb/v6-m/nofp\libc-size-musl.a(strcpy.o)
 .debug_str     0x0001c308      0x24b C:/Applications/Microchip/XC32/bin/bin/../../lib/gcc/pic32c/13.2.1/../../../../pic32c/lib/thumb/v6-m/nofp\libc-size-musl.a(stpcpy.o)
 .debug_str     0x0001c308      0x314 C:/Applications/Microchip/XC32/bin/bin/../../lib/gcc/pic32c/13.2.1/../../../../pic32c/lib/thumb/v6-m/nofp\liblmalloc-musl.a(lite_free.o)
 .debug_str     0x0001c308      0x312 C:/Applications/Microchip/XC32/bin/bin/../../lib/gcc/pic32c/13.2.1/../../../../pic32c/lib/thumb/v6-m/nofp\liblmalloc-musl.a(lite_malloc.o)
 .debug_str     0x0001c308      0x3dd C:/Applications/Microchip/XC32/bin/bin/../../lib/gcc/pic32c/13.2.1/../../../../pic32c/lib/thumb/v6-m/nofp\libc-musl.a(__libc_start_main.o)
 .debug_str     0x0001c308      0x23c C:/Applications/Microchip/XC32/bin/bin/../../lib/gcc/pic32c/13.2.1/../../../../pic32c/lib/thumb/v6-m/nofp\libc-musl.a(__errno_location.o)
 .debug_str     0x0001c308      0x348 C:/Applications/Microchip/XC32/bin/bin/../../lib/gcc/pic32c/13.2.1/../../../../pic32c/lib/thumb/v6-m/nofp\libc-musl.a(libc.o)
 .debug_str     0x0001c308      0x2b8 C:/Applications/Microchip/XC32/bin/bin/../../lib/gcc/pic32c/13.2.1/../../../../pic32c/lib/thumb/v6-m/nofp\libc-musl.a(expand_heap.o)
 .debug_str     0x0001c308      0x3a3 C:/Applications/Microchip/XC32/bin/bin/../../lib/gcc/pic32c/13.2.1/../../../../pic32c/lib/thumb/v6-m/nofp\libc-musl.a(vsnprintf.o)
 .debug_str     0x0001c308      0x262 C:/Applications/Microchip/XC32/bin/bin/../../lib/gcc/pic32c/13.2.1/../../../../pic32c/lib/thumb/v6-m/nofp\libc-musl.a(sprintf.o)
 .debug_str     0x0001c308      0x26c C:/Applications/Microchip/XC32/bin/bin/../../lib/gcc/pic32c/13.2.1/../../../../pic32c/lib/thumb/v6-m/nofp\libc-musl.a(vsprintf.o)
 .debug_str     0x0001c308      0x248 C:/Applications/Microchip/XC32/bin/bin/../../lib/gcc/pic32c/13.2.1/../../../../pic32c/lib/thumb/v6-m/nofp\libc-musl.a(__environ.o)
 .debug_str     0x0001c308      0x392 C:/Applications/Microchip/XC32/bin/bin/../../lib/gcc/pic32c/13.2.1/../../../../pic32c/lib/thumb/v6-m/nofp\libc-musl.a(vfprintf.o)
 .debug_str     0x0001c308      0x2d3 C:/Applications/Microchip/XC32/bin/bin/../../lib/gcc/pic32c/13.2.1/../../../../pic32c/lib/thumb/v6-m/nofp\libc-musl.a(__pop_float.o)
 .debug_str     0x0001c308      0x2de C:/Applications/Microchip/XC32/bin/bin/../../lib/gcc/pic32c/13.2.1/../../../../pic32c/lib/thumb/v6-m/nofp\libc-musl.a(__pop_int.o)
 .debug_str     0x0001c308      0x2e0 C:/Applications/Microchip/XC32/bin/bin/../../lib/gcc/pic32c/13.2.1/../../../../pic32c/lib/thumb/v6-m/nofp\libc-musl.a(__pop_ptr.o)
 .debug_str     0x0001c308      0x3fa C:/Applications/Microchip/XC32/bin/bin/../../lib/gcc/pic32c/13.2.1/../../../../pic32c/lib/thumb/v6-m/nofp\libc-musl.a(__printf_core.o)
 .debug_str     0x0001c308      0x22f C:/Applications/Microchip/XC32/bin/bin/../../lib/gcc/pic32c/13.2.1/../../../../pic32c/lib/thumb/v6-m/nofp\libc-musl.a(atoi.o)
 .debug_str     0x0001c308      0x273 C:/Applications/Microchip/XC32/bin/bin/../../lib/gcc/pic32c/13.2.1/../../../../pic32c/lib/thumb/v6-m/nofp\libc-musl.a(tolower.o)
 .debug_str     0x0001c308      0x3c2 C:/Applications/Microchip/XC32/bin/bin/../../lib/gcc/pic32c/13.2.1/../../../../pic32c/lib/thumb/v6-m/nofp\libc-musl.a(__fmt_a.o)
 .debug_str     0x0001c308      0x308 C:/Applications/Microchip/XC32/bin/bin/../../lib/gcc/pic32c/13.2.1/../../../../pic32c/lib/thumb/v6-m/nofp\libc-musl.a(__fmt_d.o)
 .debug_str     0x0001c308      0x3f4 C:/Applications/Microchip/XC32/bin/bin/../../lib/gcc/pic32c/13.2.1/../../../../pic32c/lib/thumb/v6-m/nofp\libc-musl.a(__fmt_fp.o)
 .debug_str     0x0001c308      0x308 C:/Applications/Microchip/XC32/bin/bin/../../lib/gcc/pic32c/13.2.1/../../../../pic32c/lib/thumb/v6-m/nofp\libc-musl.a(__fmt_o.o)
 .debug_str     0x0001c308      0x30c C:/Applications/Microchip/XC32/bin/bin/../../lib/gcc/pic32c/13.2.1/../../../../pic32c/lib/thumb/v6-m/nofp\libc-musl.a(__fmt_s.o)
 .debug_str     0x0001c308      0x308 C:/Applications/Microchip/XC32/bin/bin/../../lib/gcc/pic32c/13.2.1/../../../../pic32c/lib/thumb/v6-m/nofp\libc-musl.a(__fmt_u.o)
 .debug_str     0x0001c308      0x308 C:/Applications/Microchip/XC32/bin/bin/../../lib/gcc/pic32c/13.2.1/../../../../pic32c/lib/thumb/v6-m/nofp\libc-musl.a(__fmt_x.o)
 .debug_str     0x0001c308      0x273 C:/Applications/Microchip/XC32/bin/bin/../../lib/gcc/pic32c/13.2.1/../../../../pic32c/lib/thumb/v6-m/nofp\libc-musl.a(toupper.o)
 .debug_str     0x0001c308      0x2d5 C:/Applications/Microchip/XC32/bin/bin/../../lib/gcc/pic32c/13.2.1/../../../../pic32c/lib/thumb/v6-m/nofp\libc-musl.a(__cvt_u.o)
 .debug_str     0x0001c308      0x2bc C:/Applications/Microchip/XC32/bin/bin/../../lib/gcc/pic32c/13.2.1/../../../../pic32c/lib/thumb/v6-m/nofp\libpic32c.a(sbrk.o)
 .debug_str     0x0001c308       0xe3 C:/Applications/Microchip/XC32/bin/bin/../../lib/gcc/pic32c/13.2.1/thumb/v6-m/nofp\libgcc.a(_thumb1_case_uqi.o)
 .debug_str     0x0001c308       0xf6 C:/Applications/Microchip/XC32/bin/bin/../../lib/gcc/pic32c/13.2.1/thumb/v6-m/nofp\libgcc.a(_udivsi3.o)
 .debug_str     0x0001c308       0xf3 C:/Applications/Microchip/XC32/bin/bin/../../lib/gcc/pic32c/13.2.1/thumb/v6-m/nofp\libgcc.a(_divsi3.o)
 .debug_str     0x0001c308       0xe9 C:/Applications/Microchip/XC32/bin/bin/../../lib/gcc/pic32c/13.2.1/thumb/v6-m/nofp\libgcc.a(_dvmd_tls.o)
 .debug_str     0x0001c308       0xe4 C:/Applications/Microchip/XC32/bin/bin/../../lib/gcc/pic32c/13.2.1/thumb/v6-m/nofp\libgcc.a(_lshrdi3.o)
 .debug_str     0x0001c308       0xe4 C:/Applications/Microchip/XC32/bin/bin/../../lib/gcc/pic32c/13.2.1/thumb/v6-m/nofp\libgcc.a(_ashldi3.o)
 .debug_str     0x0001c308       0xde C:/Applications/Microchip/XC32/bin/bin/../../lib/gcc/pic32c/13.2.1/thumb/v6-m/nofp\libgcc.a(_aeabi_uldivmod.o)
 .debug_str     0x0001c308      0x6fa C:/Applications/Microchip/XC32/bin/bin/../../lib/gcc/pic32c/13.2.1/thumb/v6-m/nofp\libgcc.a(_muldi3.o)
 .debug_str     0x0001c308      0x6ea C:/Applications/Microchip/XC32/bin/bin/../../lib/gcc/pic32c/13.2.1/thumb/v6-m/nofp\libgcc.a(_udivmoddi4.o)
 .debug_str     0x0001c308       0xcd C:/Applications/Microchip/XC32/bin/bin/../../lib/gcc/pic32c/13.2.1/thumb/v6-m/nofp\libgcc.a(_clzdi2.o)
 .debug_str     0x0001c308       0xd6 C:/Applications/Microchip/XC32/bin/bin/../../lib/gcc/pic32c/13.2.1/thumb/v6-m/nofp\libgcc.a(_clzsi2.o)
 .debug_str     0x0001c308      0x280 C:/Applications/Microchip/XC32/bin/bin/../../lib/gcc/pic32c/13.2.1/../../../../pic32c/lib/thumb/v6-m/nofp\libpic32c.a(pic32_data_init_clear.o)
 .debug_str     0x0001c308      0x287 C:/Applications/Microchip/XC32/bin/bin/../../lib/gcc/pic32c/13.2.1/../../../../pic32c/lib/thumb/v6-m/nofp\libpic32c.a(pic32_data_init_copy.o)

.debug_frame    0x00000000     0x82b0
 .debug_frame   0x00000000      0x25c build/default/production/_ext/158385033/drv_i2c.o
 .debug_frame   0x0000025c      0x240 build/default/production/_ext/2070931557/drv_spi.o
 .debug_frame   0x0000049c      0x34c build/default/production/_ext/869808652/drv_usart.o
 .debug_frame   0x000007e8       0x94 build/default/production/_ext/622324608/wdrv_winc_spi.o
 .debug_frame   0x0000087c       0x40 build/default/production/_ext/622324608/wdrv_winc_eint.o
 .debug_frame   0x000008bc      0x9ec build/default/production/_ext/1857064221/winc_cmds.o
 .debug_frame   0x000012a8       0x58 build/default/production/_ext/1857064221/winc_cmd_req.o
 .debug_frame   0x00001300      0x1e8 build/default/production/_ext/1857064221/winc_dev.o
 .debug_frame   0x000014e8      0x12c build/default/production/_ext/1857064221/winc_sdio_drv.o
 .debug_frame   0x00001614      0x580 build/default/production/_ext/1857064221/winc_socket.o
 .debug_frame   0x00001b94      0x3a8 build/default/production/_ext/1706628858/wdrv_winc.o
 .debug_frame   0x00001f3c       0xdc build/default/production/_ext/1706628858/wdrv_winc_assoc.o
 .debug_frame   0x00002018      0x148 build/default/production/_ext/1706628858/wdrv_winc_bssfind.o
 .debug_frame   0x00002160       0xb0 build/default/production/_ext/1706628858/wdrv_winc_dns.o
 .debug_frame   0x00002210       0x70 build/default/production/_ext/1706628858/wdrv_winc_extcrypto.o
 .debug_frame   0x00002280      0x2ec build/default/production/_ext/1706628858/wdrv_winc_mqtt.o
 .debug_frame   0x0000256c      0x104 build/default/production/_ext/1706628858/wdrv_winc_netif.o
 .debug_frame   0x00002670      0x108 build/default/production/_ext/1706628858/wdrv_winc_ota.o
 .debug_frame   0x00002778       0x8c build/default/production/_ext/1706628858/wdrv_winc_pps.o
 .debug_frame   0x00002804      0x160 build/default/production/_ext/1706628858/wdrv_winc_nvm.o
 .debug_frame   0x00002964       0x8c build/default/production/_ext/1706628858/wdrv_winc_prov.o
 .debug_frame   0x000029f0       0x8c build/default/production/_ext/1706628858/wdrv_winc_socket.o
 .debug_frame   0x00002a7c       0xac build/default/production/_ext/1706628858/wdrv_winc_softap.o
 .debug_frame   0x00002b28       0xc4 build/default/production/_ext/1706628858/wdrv_winc_sta.o
 .debug_frame   0x00002bec       0x7c build/default/production/_ext/1706628858/wdrv_winc_systime.o
 .debug_frame   0x00002c68       0xf8 build/default/production/_ext/60163342/plib_adc0.o
 .debug_frame   0x00002d60      0x188 build/default/production/_ext/60165182/plib_can0.o
 .debug_frame   0x00002ee8       0x20 build/default/production/_ext/1984496892/plib_clock.o
 .debug_frame   0x00002f08       0x40 build/default/production/_ext/60166132/plib_dac.o
 .debug_frame   0x00002f48      0x190 build/default/production/_ext/1865161661/plib_dmac.o
 .debug_frame   0x000030d8       0x7c build/default/production/_ext/60167341/plib_eic.o
 .debug_frame   0x00003154       0x20 build/default/production/_ext/1986646378/plib_evsys.o
 .debug_frame   0x00003174       0x90 build/default/production/_ext/1987437027/plib_freqm.o
 .debug_frame   0x00003204       0x90 build/default/production/_ext/1865468468/plib_nvic.o
 .debug_frame   0x00003294      0x174 build/default/production/_ext/1593096446/plib_nvmctrl.o
 .debug_frame   0x00003408       0x40 build/default/production/_ext/829342769/plib_pm.o
 .debug_frame   0x00003448       0xe0 build/default/production/_ext/1865521619/plib_port.o
 .debug_frame   0x00003528       0x20 build/default/production/_ext/1865585090/plib_rstc.o
 .debug_frame   0x00003548       0xa0 build/default/production/_ext/60180175/plib_rtc_clock.o
 .debug_frame   0x000035e8      0x11c build/default/production/_ext/508257091/plib_sercom2_i2c_master.o
 .debug_frame   0x00003704       0xd4 build/default/production/_ext/17022449/plib_sercom3_spi_master.o
 .debug_frame   0x000037d8       0xd4 build/default/production/_ext/17022449/plib_sercom4_spi_master.o
 .debug_frame   0x000038ac       0xa4 build/default/production/_ext/17022449/plib_sercom5_spi_master.o
 .debug_frame   0x00003950      0x1f4 build/default/production/_ext/504274921/plib_sercom1_usart.o
 .debug_frame   0x00003b44      0x268 build/default/production/_ext/504274921/plib_sercom0_usart.o
 .debug_frame   0x00003dac       0x50 build/default/production/_ext/1865616679/plib_supc.o
 .debug_frame   0x00003dfc      0x178 build/default/production/_ext/1827571544/plib_systick.o
 .debug_frame   0x00003f74       0xe0 build/default/production/_ext/60181570/plib_tcc0.o
 .debug_frame   0x00004054       0xb0 build/default/production/_ext/60184501/plib_wdt.o
 .debug_frame   0x00004104       0xe0 build/default/production/_ext/1832805299/sys_console_uart.o
 .debug_frame   0x000041e4      0x158 build/default/production/_ext/1832805299/sys_console.o
 .debug_frame   0x0000433c       0x48 build/default/production/_ext/14461671/sys_dma.o
 .debug_frame   0x00004384       0x84 build/default/production/_ext/1881668453/sys_int.o
 .debug_frame   0x00004408      0x334 build/default/production/_ext/101884895/sys_time.o
 .debug_frame   0x0000473c       0x28 build/default/production/_ext/1171490990/tasks.o
 .debug_frame   0x00004764       0x28 build/default/production/_ext/1171490990/initialization.o
 .debug_frame   0x0000478c       0x68 build/default/production/_ext/1171490990/interrupts.o
 .debug_frame   0x000047f4       0x30 build/default/production/_ext/1171490990/exceptions.o
 .debug_frame   0x00004824       0x40 build/default/production/_ext/1171490990/startup_xc32.o
 .debug_frame   0x00004864      0x430 build/default/production/_ext/1360937237/ad9954_driver.o
 .debug_frame   0x00004c94      0x8e4 build/default/production/_ext/1360937237/bme690_driver.o
 .debug_frame   0x00005578      0x740 build/default/production/_ext/1360937237/bmp585_driver.o
 .debug_frame   0x00005cb8      0x120 build/default/production/_ext/1360937237/can0_driver.o
 .debug_frame   0x00005dd8       0x78 build/default/production/_ext/1360937237/console_driver.o
 .debug_frame   0x00005e50       0xd0 build/default/production/_ext/1360937237/fcm360w_driver.o
 .debug_frame   0x00005f20      0x544 build/default/production/_ext/1360937237/hdc302x_driver.o
 .debug_frame   0x00006464      0x21c build/default/production/_ext/1360937237/mcp9808_driver.o
 .debug_frame   0x00006680       0xc0 build/default/production/_ext/1360937237/ntc_driver.o
 .debug_frame   0x00006740       0x90 build/default/production/_ext/1360937237/rstc_driver.o
 .debug_frame   0x000067d0      0x118 build/default/production/_ext/1360937237/rtc_driver.o
 .debug_frame   0x000068e8      0x364 build/default/production/_ext/1360937237/sen63c_driver.o
 .debug_frame   0x00006c4c      0x16c build/default/production/_ext/1360937237/sht4x_driver.o
 .debug_frame   0x00006db8      0x168 build/default/production/_ext/1360937237/ssd1306_driver.o
 .debug_frame   0x00006f20      0x330 build/default/production/_ext/1360937237/stcc4_driver.o
 .debug_frame   0x00007250      0x1a8 build/default/production/_ext/1360937237/timer_driver.o
 .debug_frame   0x000073f8      0x320 build/default/production/_ext/1360937237/vcnl4200_driver.o
 .debug_frame   0x00007718      0x130 build/default/production/_ext/1360937237/ws281x_driver.o
 .debug_frame   0x00007848       0xc0 build/default/production/_ext/1360937237/xm125_driver.o
 .debug_frame   0x00007908       0xd0 build/default/production/_ext/1360937237/wincs02_driver.o
 .debug_frame   0x000079d8       0xb8 build/default/production/_ext/1360937237/app.o
 .debug_frame   0x00007a90       0x28 build/default/production/_ext/1360937237/main.o
 .debug_frame   0x00007ab8       0x48 C:/Applications/Microchip/XC32/bin/bin/../../lib/gcc/pic32c/13.2.1/../../../../pic32c/lib/thumb/v6-m/nofp\libpic32c.a(data_init.o)
 .debug_frame   0x00007b00       0x28 C:/Applications/Microchip/XC32/bin/bin/../../lib/gcc/pic32c/13.2.1/../../../../pic32c/lib/thumb/v6-m/nofp\libc-size-musl.a(memcmp.o)
 .debug_frame   0x00007b28       0x28 C:/Applications/Microchip/XC32/bin/bin/../../lib/gcc/pic32c/13.2.1/../../../../pic32c/lib/thumb/v6-m/nofp\libc-size-musl.a(memcpy.o)
 .debug_frame   0x00007b50       0x20 C:/Applications/Microchip/XC32/bin/bin/../../lib/gcc/pic32c/13.2.1/../../../../pic32c/lib/thumb/v6-m/nofp\libc-size-musl.a(memset.o)
 .debug_frame   0x00007b70       0x20 C:/Applications/Microchip/XC32/bin/bin/../../lib/gcc/pic32c/13.2.1/../../../../pic32c/lib/thumb/v6-m/nofp\libc-size-musl.a(strlen.o)
 .debug_frame   0x00007b90       0x2c C:/Applications/Microchip/XC32/bin/bin/../../lib/gcc/pic32c/13.2.1/../../../../pic32c/lib/thumb/v6-m/nofp\libc-size-musl.a(strstr.o)
 .debug_frame   0x00007bbc       0x28 C:/Applications/Microchip/XC32/bin/bin/../../lib/gcc/pic32c/13.2.1/../../../../pic32c/lib/thumb/v6-m/nofp\libc-size-musl.a(strchr.o)
 .debug_frame   0x00007be4       0x2c C:/Applications/Microchip/XC32/bin/bin/../../lib/gcc/pic32c/13.2.1/../../../../pic32c/lib/thumb/v6-m/nofp\libc-size-musl.a(strchrnul.o)
 .debug_frame   0x00007c10       0x28 C:/Applications/Microchip/XC32/bin/bin/../../lib/gcc/pic32c/13.2.1/../../../../pic32c/lib/thumb/v6-m/nofp\libc-size-musl.a(strcpy.o)
 .debug_frame   0x00007c38       0x20 C:/Applications/Microchip/XC32/bin/bin/../../lib/gcc/pic32c/13.2.1/../../../../pic32c/lib/thumb/v6-m/nofp\libc-size-musl.a(stpcpy.o)
 .debug_frame   0x00007c58       0x68 C:/Applications/Microchip/XC32/bin/bin/../../lib/gcc/pic32c/13.2.1/../../../../pic32c/lib/thumb/v6-m/nofp\liblmalloc-musl.a(lite_free.o)
 .debug_frame   0x00007cc0       0x30 C:/Applications/Microchip/XC32/bin/bin/../../lib/gcc/pic32c/13.2.1/../../../../pic32c/lib/thumb/v6-m/nofp\liblmalloc-musl.a(lite_malloc.o)
 .debug_frame   0x00007cf0       0x38 C:/Applications/Microchip/XC32/bin/bin/../../lib/gcc/pic32c/13.2.1/../../../../pic32c/lib/thumb/v6-m/nofp\libc-musl.a(__libc_start_main.o)
 .debug_frame   0x00007d28       0x28 C:/Applications/Microchip/XC32/bin/bin/../../lib/gcc/pic32c/13.2.1/../../../../pic32c/lib/thumb/v6-m/nofp\libc-musl.a(expand_heap.o)
 .debug_frame   0x00007d50       0x34 C:/Applications/Microchip/XC32/bin/bin/../../lib/gcc/pic32c/13.2.1/../../../../pic32c/lib/thumb/v6-m/nofp\libc-musl.a(vsnprintf.o)
 .debug_frame   0x00007d84       0x2c C:/Applications/Microchip/XC32/bin/bin/../../lib/gcc/pic32c/13.2.1/../../../../pic32c/lib/thumb/v6-m/nofp\libc-musl.a(sprintf.o)
 .debug_frame   0x00007db0       0x28 C:/Applications/Microchip/XC32/bin/bin/../../lib/gcc/pic32c/13.2.1/../../../../pic32c/lib/thumb/v6-m/nofp\libc-musl.a(vsprintf.o)
 .debug_frame   0x00007dd8       0x44 C:/Applications/Microchip/XC32/bin/bin/../../lib/gcc/pic32c/13.2.1/../../../../pic32c/lib/thumb/v6-m/nofp\libc-musl.a(vfprintf.o)
 .debug_frame   0x00007e1c       0x28 C:/Applications/Microchip/XC32/bin/bin/../../lib/gcc/pic32c/13.2.1/../../../../pic32c/lib/thumb/v6-m/nofp\libc-musl.a(__pop_float.o)
 .debug_frame   0x00007e44       0x28 C:/Applications/Microchip/XC32/bin/bin/../../lib/gcc/pic32c/13.2.1/../../../../pic32c/lib/thumb/v6-m/nofp\libc-musl.a(__pop_int.o)
 .debug_frame   0x00007e6c       0x28 C:/Applications/Microchip/XC32/bin/bin/../../lib/gcc/pic32c/13.2.1/../../../../pic32c/lib/thumb/v6-m/nofp\libc-musl.a(__pop_ptr.o)
 .debug_frame   0x00007e94       0xbc C:/Applications/Microchip/XC32/bin/bin/../../lib/gcc/pic32c/13.2.1/../../../../pic32c/lib/thumb/v6-m/nofp\libc-musl.a(__printf_core.o)
 .debug_frame   0x00007f50       0x28 C:/Applications/Microchip/XC32/bin/bin/../../lib/gcc/pic32c/13.2.1/../../../../pic32c/lib/thumb/v6-m/nofp\libc-musl.a(atoi.o)
 .debug_frame   0x00007f78       0x38 C:/Applications/Microchip/XC32/bin/bin/../../lib/gcc/pic32c/13.2.1/../../../../pic32c/lib/thumb/v6-m/nofp\libc-musl.a(tolower.o)
 .debug_frame   0x00007fb0       0x30 C:/Applications/Microchip/XC32/bin/bin/../../lib/gcc/pic32c/13.2.1/../../../../pic32c/lib/thumb/v6-m/nofp\libc-musl.a(__fmt_a.o)
 .debug_frame   0x00007fe0       0x30 C:/Applications/Microchip/XC32/bin/bin/../../lib/gcc/pic32c/13.2.1/../../../../pic32c/lib/thumb/v6-m/nofp\libc-musl.a(__fmt_d.o)
 .debug_frame   0x00008010       0x34 C:/Applications/Microchip/XC32/bin/bin/../../lib/gcc/pic32c/13.2.1/../../../../pic32c/lib/thumb/v6-m/nofp\libc-musl.a(__fmt_fp.o)
 .debug_frame   0x00008044       0x30 C:/Applications/Microchip/XC32/bin/bin/../../lib/gcc/pic32c/13.2.1/../../../../pic32c/lib/thumb/v6-m/nofp\libc-musl.a(__fmt_o.o)
 .debug_frame   0x00008074       0x30 C:/Applications/Microchip/XC32/bin/bin/../../lib/gcc/pic32c/13.2.1/../../../../pic32c/lib/thumb/v6-m/nofp\libc-musl.a(__fmt_s.o)
 .debug_frame   0x000080a4       0x30 C:/Applications/Microchip/XC32/bin/bin/../../lib/gcc/pic32c/13.2.1/../../../../pic32c/lib/thumb/v6-m/nofp\libc-musl.a(__fmt_u.o)
 .debug_frame   0x000080d4       0x30 C:/Applications/Microchip/XC32/bin/bin/../../lib/gcc/pic32c/13.2.1/../../../../pic32c/lib/thumb/v6-m/nofp\libc-musl.a(__fmt_x.o)
 .debug_frame   0x00008104       0x38 C:/Applications/Microchip/XC32/bin/bin/../../lib/gcc/pic32c/13.2.1/../../../../pic32c/lib/thumb/v6-m/nofp\libc-musl.a(toupper.o)
 .debug_frame   0x0000813c       0x34 C:/Applications/Microchip/XC32/bin/bin/../../lib/gcc/pic32c/13.2.1/../../../../pic32c/lib/thumb/v6-m/nofp\libc-musl.a(__cvt_u.o)
 .debug_frame   0x00008170       0x54 C:/Applications/Microchip/XC32/bin/bin/../../lib/gcc/pic32c/13.2.1/../../../../pic32c/lib/thumb/v6-m/nofp\libpic32c.a(sbrk.o)
 .debug_frame   0x000081c4       0x20 C:/Applications/Microchip/XC32/bin/bin/../../lib/gcc/pic32c/13.2.1/thumb/v6-m/nofp\libgcc.a(_udivsi3.o)
 .debug_frame   0x000081e4       0x20 C:/Applications/Microchip/XC32/bin/bin/../../lib/gcc/pic32c/13.2.1/thumb/v6-m/nofp\libgcc.a(_divsi3.o)
 .debug_frame   0x00008204       0x34 C:/Applications/Microchip/XC32/bin/bin/../../lib/gcc/pic32c/13.2.1/thumb/v6-m/nofp\libgcc.a(_muldi3.o)
 .debug_frame   0x00008238       0x30 C:/Applications/Microchip/XC32/bin/bin/../../lib/gcc/pic32c/13.2.1/thumb/v6-m/nofp\libgcc.a(_udivmoddi4.o)
 .debug_frame   0x00008268       0x20 C:/Applications/Microchip/XC32/bin/bin/../../lib/gcc/pic32c/13.2.1/../../../../pic32c/lib/thumb/v6-m/nofp\libpic32c.a(pic32_data_init_clear.o)
 .debug_frame   0x00008288       0x28 C:/Applications/Microchip/XC32/bin/bin/../../lib/gcc/pic32c/13.2.1/../../../../pic32c/lib/thumb/v6-m/nofp\libpic32c.a(pic32_data_init_copy.o)

.note.GNU-stack
                0x00000000        0x0
 .note.GNU-stack
                0x00000000        0x0 C:/Applications/Microchip/XC32/bin/bin/../../lib/gcc/pic32c/13.2.1/../../../../pic32c/lib/thumb/v6-m/nofp\libc-size-musl.a(memcmp.o)
 .note.GNU-stack
                0x00000000        0x0 C:/Applications/Microchip/XC32/bin/bin/../../lib/gcc/pic32c/13.2.1/../../../../pic32c/lib/thumb/v6-m/nofp\libc-size-musl.a(memcpy.o)
 .note.GNU-stack
                0x00000000        0x0 C:/Applications/Microchip/XC32/bin/bin/../../lib/gcc/pic32c/13.2.1/../../../../pic32c/lib/thumb/v6-m/nofp\libc-size-musl.a(memset.o)
 .note.GNU-stack
                0x00000000        0x0 C:/Applications/Microchip/XC32/bin/bin/../../lib/gcc/pic32c/13.2.1/../../../../pic32c/lib/thumb/v6-m/nofp\libc-size-musl.a(strlen.o)
 .note.GNU-stack
                0x00000000        0x0 C:/Applications/Microchip/XC32/bin/bin/../../lib/gcc/pic32c/13.2.1/../../../../pic32c/lib/thumb/v6-m/nofp\libc-size-musl.a(strstr.o)
 .note.GNU-stack
                0x00000000        0x0 C:/Applications/Microchip/XC32/bin/bin/../../lib/gcc/pic32c/13.2.1/../../../../pic32c/lib/thumb/v6-m/nofp\libc-size-musl.a(strchr.o)
 .note.GNU-stack
                0x00000000        0x0 C:/Applications/Microchip/XC32/bin/bin/../../lib/gcc/pic32c/13.2.1/../../../../pic32c/lib/thumb/v6-m/nofp\libc-size-musl.a(strchrnul.o)
 .note.GNU-stack
                0x00000000        0x0 C:/Applications/Microchip/XC32/bin/bin/../../lib/gcc/pic32c/13.2.1/../../../../pic32c/lib/thumb/v6-m/nofp\libc-size-musl.a(strcpy.o)
 .note.GNU-stack
                0x00000000        0x0 C:/Applications/Microchip/XC32/bin/bin/../../lib/gcc/pic32c/13.2.1/../../../../pic32c/lib/thumb/v6-m/nofp\libc-size-musl.a(stpcpy.o)
 .note.GNU-stack
                0x00000000        0x0 C:/Applications/Microchip/XC32/bin/bin/../../lib/gcc/pic32c/13.2.1/../../../../pic32c/lib/thumb/v6-m/nofp\liblmalloc-musl.a(lite_free.o)
 .note.GNU-stack
                0x00000000        0x0 C:/Applications/Microchip/XC32/bin/bin/../../lib/gcc/pic32c/13.2.1/../../../../pic32c/lib/thumb/v6-m/nofp\liblmalloc-musl.a(lite_malloc.o)
 .note.GNU-stack
                0x00000000        0x0 C:/Applications/Microchip/XC32/bin/bin/../../lib/gcc/pic32c/13.2.1/../../../../pic32c/lib/thumb/v6-m/nofp\libc-musl.a(__libc_start_main.o)
 .note.GNU-stack
                0x00000000        0x0 C:/Applications/Microchip/XC32/bin/bin/../../lib/gcc/pic32c/13.2.1/../../../../pic32c/lib/thumb/v6-m/nofp\libc-musl.a(__errno_location.o)
 .note.GNU-stack
                0x00000000        0x0 C:/Applications/Microchip/XC32/bin/bin/../../lib/gcc/pic32c/13.2.1/../../../../pic32c/lib/thumb/v6-m/nofp\libc-musl.a(libc.o)
 .note.GNU-stack
                0x00000000        0x0 C:/Applications/Microchip/XC32/bin/bin/../../lib/gcc/pic32c/13.2.1/../../../../pic32c/lib/thumb/v6-m/nofp\libc-musl.a(expand_heap.o)
 .note.GNU-stack
                0x00000000        0x0 C:/Applications/Microchip/XC32/bin/bin/../../lib/gcc/pic32c/13.2.1/../../../../pic32c/lib/thumb/v6-m/nofp\libc-musl.a(vsnprintf.o)
 .note.GNU-stack
                0x00000000        0x0 C:/Applications/Microchip/XC32/bin/bin/../../lib/gcc/pic32c/13.2.1/../../../../pic32c/lib/thumb/v6-m/nofp\libc-musl.a(sprintf.o)
 .note.GNU-stack
                0x00000000        0x0 C:/Applications/Microchip/XC32/bin/bin/../../lib/gcc/pic32c/13.2.1/../../../../pic32c/lib/thumb/v6-m/nofp\libc-musl.a(vsprintf.o)
 .note.GNU-stack
                0x00000000        0x0 C:/Applications/Microchip/XC32/bin/bin/../../lib/gcc/pic32c/13.2.1/../../../../pic32c/lib/thumb/v6-m/nofp\libc-musl.a(__environ.o)
 .note.GNU-stack
                0x00000000        0x0 C:/Applications/Microchip/XC32/bin/bin/../../lib/gcc/pic32c/13.2.1/../../../../pic32c/lib/thumb/v6-m/nofp\libc-musl.a(vfprintf.o)
 .note.GNU-stack
                0x00000000        0x0 C:/Applications/Microchip/XC32/bin/bin/../../lib/gcc/pic32c/13.2.1/../../../../pic32c/lib/thumb/v6-m/nofp\libc-musl.a(__pop_float.o)
 .note.GNU-stack
                0x00000000        0x0 C:/Applications/Microchip/XC32/bin/bin/../../lib/gcc/pic32c/13.2.1/../../../../pic32c/lib/thumb/v6-m/nofp\libc-musl.a(__pop_int.o)
 .note.GNU-stack
                0x00000000        0x0 C:/Applications/Microchip/XC32/bin/bin/../../lib/gcc/pic32c/13.2.1/../../../../pic32c/lib/thumb/v6-m/nofp\libc-musl.a(__pop_ptr.o)
 .note.GNU-stack
                0x00000000        0x0 C:/Applications/Microchip/XC32/bin/bin/../../lib/gcc/pic32c/13.2.1/../../../../pic32c/lib/thumb/v6-m/nofp\libc-musl.a(__printf_core.o)
 .note.GNU-stack
                0x00000000        0x0 C:/Applications/Microchip/XC32/bin/bin/../../lib/gcc/pic32c/13.2.1/../../../../pic32c/lib/thumb/v6-m/nofp\libc-musl.a(atoi.o)
 .note.GNU-stack
                0x00000000        0x0 C:/Applications/Microchip/XC32/bin/bin/../../lib/gcc/pic32c/13.2.1/../../../../pic32c/lib/thumb/v6-m/nofp\libc-musl.a(tolower.o)
 .note.GNU-stack
                0x00000000        0x0 C:/Applications/Microchip/XC32/bin/bin/../../lib/gcc/pic32c/13.2.1/../../../../pic32c/lib/thumb/v6-m/nofp\libc-musl.a(__fmt_a.o)
 .note.GNU-stack
                0x00000000        0x0 C:/Applications/Microchip/XC32/bin/bin/../../lib/gcc/pic32c/13.2.1/../../../../pic32c/lib/thumb/v6-m/nofp\libc-musl.a(__fmt_d.o)
 .note.GNU-stack
                0x00000000        0x0 C:/Applications/Microchip/XC32/bin/bin/../../lib/gcc/pic32c/13.2.1/../../../../pic32c/lib/thumb/v6-m/nofp\libc-musl.a(__fmt_fp.o)
 .note.GNU-stack
                0x00000000        0x0 C:/Applications/Microchip/XC32/bin/bin/../../lib/gcc/pic32c/13.2.1/../../../../pic32c/lib/thumb/v6-m/nofp\libc-musl.a(__fmt_o.o)
 .note.GNU-stack
                0x00000000        0x0 C:/Applications/Microchip/XC32/bin/bin/../../lib/gcc/pic32c/13.2.1/../../../../pic32c/lib/thumb/v6-m/nofp\libc-musl.a(__fmt_s.o)
 .note.GNU-stack
                0x00000000        0x0 C:/Applications/Microchip/XC32/bin/bin/../../lib/gcc/pic32c/13.2.1/../../../../pic32c/lib/thumb/v6-m/nofp\libc-musl.a(__fmt_u.o)
 .note.GNU-stack
                0x00000000        0x0 C:/Applications/Microchip/XC32/bin/bin/../../lib/gcc/pic32c/13.2.1/../../../../pic32c/lib/thumb/v6-m/nofp\libc-musl.a(__fmt_x.o)
 .note.GNU-stack
                0x00000000        0x0 C:/Applications/Microchip/XC32/bin/bin/../../lib/gcc/pic32c/13.2.1/../../../../pic32c/lib/thumb/v6-m/nofp\libc-musl.a(toupper.o)
 .note.GNU-stack
                0x00000000        0x0 C:/Applications/Microchip/XC32/bin/bin/../../lib/gcc/pic32c/13.2.1/../../../../pic32c/lib/thumb/v6-m/nofp\libc-musl.a(__cvt_u.o)

.vfp11_veneer%z1

.v4_bx%z2

.iplt%z3

.rel.iplt%z4

.igot.plt%z5

.rodata.CONSOLE_DRIVER_Tasks.str1.4%1

.rodata.FCM360W_DRIVER_Write_Command.str1.4%2

.rodata.FCM360W_DRIVER_Get_Module_Response_Status.str1.4%3

.rodata.FCM360W_DRIVER_Tasks.str1.4%4

.rodata.HDC302X_DRIVER_Print_Data.str1.4%5

.rodata.RSTC_DRIVER_Print_Data.str1.4%6

.rodata.RTC_DRIVER_Print_Data.str1.4%7

.rodata.SSD1306_DRIVER_Tasks.str1.4%8

.rodata.str1.1%9

.rodata.str1.1%10

.rodata.str1.1%11

.bss.can0_driverData%12
                0x20000000     0x5b40
 .bss.can0_driverData
                0x20000000     0x5b40 build/default/production/_ext/1360937237/can0_driver.o
                0x20000000                can0_driverData

.bss.consolePrintBuffer%13
                0x20005b40     0x2000
 .bss.consolePrintBuffer
                0x20005b40     0x2000 build/default/production/_ext/1832805299/sys_console.o

.bss.wincs02_driverData%14
                0x20007b40     0x1014
 .bss.wincs02_driverData
                0x20007b40     0x1014 build/default/production/_ext/1360937237/wincs02_driver.o
                0x20007b40                wincs02_driverData

.bss.SERCOM0_USART_WriteBuffer%15
                0x20008b54     0x1000
 .bss.SERCOM0_USART_WriteBuffer
                0x20008b54     0x1000 build/default/production/_ext/504274921/plib_sercom0_usart.o

.bss.SERCOM0_USART_ReadBuffer%16
                0x20009b54     0x1000
 .bss.SERCOM0_USART_ReadBuffer
                0x20009b54     0x1000 build/default/production/_ext/504274921/plib_sercom0_usart.o

.bss.scanResultCache%17
                0x2000ab54      0x867
 .bss.scanResultCache
                0x2000ab54      0x867 build/default/production/_ext/1706628858/wdrv_winc_bssfind.o

.bss.ws281x_driverData%18
                0x2000b3bc      0x84c
 .bss.ws281x_driverData
                0x2000b3bc      0x84c build/default/production/_ext/1360937237/ws281x_driver.o
                0x2000b3bc                ws281x_driverData

.bss.wincSockets%19
                0x2000bc08      0x528
 .bss.wincSockets
                0x2000bc08      0x528 build/default/production/_ext/1857064221/winc_socket.o

.bss.wincCtrlDescriptor%20
                0x2000c130      0x364
 .bss.wincCtrlDescriptor
                0x2000c130      0x364 build/default/production/_ext/1706628858/wdrv_winc.o

.bss.fcm360w_driverData%21
                0x2000c494      0x214
 .bss.fcm360w_driverData
                0x2000c494      0x214 build/default/production/_ext/1360937237/fcm360w_driver.o
                0x2000c494                fcm360w_driverData

.bss.eicCallbackObject%22
                0x2000c6a8       0xc0
 .bss.eicCallbackObject
                0x2000c6a8       0xc0 build/default/production/_ext/60167341/plib_eic.o

.bss.timers%23  0x2000c768       0xa0
 .bss.timers    0x2000c768       0xa0 build/default/production/_ext/101884895/sys_time.o

.bss.rtc_driverData%24
                0x2000c808       0x90
 .bss.rtc_driverData
                0x2000c808       0x90 build/default/production/_ext/1360937237/rtc_driver.o
                0x2000c808                rtc_driverData

.bss.wincDevCtrlCtx%25
                0x2000c898       0x8c
 .bss.wincDevCtrlCtx
                0x2000c898       0x8c build/default/production/_ext/1857064221/winc_dev.o

.bss.gDrvSPIObj%26
                0x2000c924       0x74
 .bss.gDrvSPIObj
                0x2000c924       0x74 build/default/production/_ext/2070931557/drv_spi.o

.bss.dmacChannelObj%27
                0x2000c998       0x70
 .bss.dmacChannelObj
                0x2000c998       0x70 build/default/production/_ext/1865161661/plib_dmac.o

.bss.descriptor_section%28
                0x2000ca08       0x70
 .bss.descriptor_section
                0x2000ca08       0x70 build/default/production/_ext/1865161661/plib_dmac.o

.bss.write_back_section%29
                0x2000ca78       0x70
 .bss.write_back_section
                0x2000ca78       0x70 build/default/production/_ext/1865161661/plib_dmac.o

.bss.gDrvUSARTObj%30
                0x2000cae8       0x60
 .bss.gDrvUSARTObj
                0x2000cae8       0x60 build/default/production/_ext/869808652/drv_usart.o

.bss.ad9954_driverData%31
                0x2000cb48       0x50
 .bss.ad9954_driverData
                0x2000cb48       0x50 build/default/production/_ext/1360937237/ad9954_driver.o
                0x2000cb48                ad9954_driverData

.bss.sen63c_driverData%32
                0x2000cb98       0x50
 .bss.sen63c_driverData
                0x2000cb98       0x50 build/default/production/_ext/1360937237/sen63c_driver.o
                0x2000cb98                sen63c_driverData

.bss.stcc4_driverData%33
                0x2000cbe8       0x50
 .bss.stcc4_driverData
                0x2000cbe8       0x50 build/default/production/_ext/1360937237/stcc4_driver.o
                0x2000cbe8                stcc4_driverData

.bss%34         0x2000cc38       0x50
 .bss           0x2000cc38       0x50 C:/Applications/Microchip/XC32/bin/bin/../../lib/gcc/pic32c/13.2.1/../../../../pic32c/lib/thumb/v6-m/nofp\libc-musl.a(libc.o)
                0x2000cc38                __progname_full
                0x2000cc38                program_invocation_name
                0x2000cc3c                program_invocation_short_name
                0x2000cc3c                __progname
                0x2000cc40                __sysinfo
                0x2000cc44                __hwcap
                0x2000cc48                __libc

.bss.sercom0USARTObj%35
                0x2000cc88       0x40
 .bss.sercom0USARTObj
                0x2000cc88       0x40 build/default/production/_ext/504274921/plib_sercom0_usart.o

.bss.can0DataTx%36
                0x2000ccc8       0x40
 .bss.can0DataTx
                0x2000ccc8       0x40 build/default/production/_ext/1360937237/can0_driver.o
                0x2000ccc8                can0DataTx

.bss.gDrvI2CObj%37
                0x2000cd08       0x3c
 .bss.gDrvI2CObj
                0x2000cd08       0x3c build/default/production/_ext/158385033/drv_i2c.o

.bss.sercom1USARTObj%38
                0x2000cd44       0x30
 .bss.sercom1USARTObj
                0x2000cd44       0x30 build/default/production/_ext/504274921/plib_sercom1_usart.o

.bss.gSystemCounterObj%39
                0x2000cd78       0x30
 .bss.gSystemCounterObj
                0x2000cd78       0x30 build/default/production/_ext/101884895/sys_time.o

.bss.bmp585_sensorData%40
                0x2000cda8       0x30
 .bss.bmp585_sensorData
                0x2000cda8       0x30 build/default/production/_ext/1360937237/bmp585_driver.o
                0x2000cda8                bmp585_sensorData

.bss.stcc4_sensorData%41
                0x2000cdd8       0x30
 .bss.stcc4_sensorData
                0x2000cdd8       0x30 build/default/production/_ext/1360937237/stcc4_driver.o
                0x2000cdd8                stcc4_sensorData

.bss.sercom2I2CObj%42
                0x2000ce08       0x2c
 .bss.sercom2I2CObj
                0x2000ce08       0x2c build/default/production/_ext/508257091/plib_sercom2_i2c_master.o

.bss.sercom3SPIObj%43
                0x2000ce34       0x2c
 .bss.sercom3SPIObj
                0x2000ce34       0x2c build/default/production/_ext/17022449/plib_sercom3_spi_master.o

.bss.sercom4SPIObj%44
                0x2000ce60       0x2c
 .bss.sercom4SPIObj
                0x2000ce60       0x2c build/default/production/_ext/17022449/plib_sercom4_spi_master.o

.bss.drvI2C0TransferObj%45
                0x2000ce8c       0x2c
 .bss.drvI2C0TransferObj
                0x2000ce8c       0x2c build/default/production/_ext/1171490990/initialization.o

.bss.drvSPI0ClientObjPool%46
                0x2000ceb8       0x28
 .bss.drvSPI0ClientObjPool
                0x2000ceb8       0x28 build/default/production/_ext/1171490990/initialization.o

.bss.mcp9808_driverData%47
                0x2000cee0       0x28
 .bss.mcp9808_driverData
                0x2000cee0       0x28 build/default/production/_ext/1360937237/mcp9808_driver.o
                0x2000cee0                mcp9808_driverData

.bss.drvUSART0BufferObjPool%48
                0x2000cf08       0x24
 .bss.drvUSART0BufferObjPool
                0x2000cf08       0x24 build/default/production/_ext/1171490990/initialization.o

.bss.drvSPI0TransferObjPool%49
                0x2000cf2c       0x24
 .bss.drvSPI0TransferObjPool
                0x2000cf2c       0x24 build/default/production/_ext/1171490990/initialization.o

.bss.bmp585_driverData%50
                0x2000cf50       0x24
 .bss.bmp585_driverData
                0x2000cf50       0x24 build/default/production/_ext/1360937237/bmp585_driver.o
                0x2000cf50                bmp585_driverData

.bss.hdc302x_sensorData%51
                0x2000cf74       0x24
 .bss.hdc302x_sensorData
                0x2000cf74       0x24 build/default/production/_ext/1360937237/hdc302x_driver.o
                0x2000cf74                hdc302x_sensorData

.bss.hdc302x_driverData%52
                0x2000cf98       0x24
 .bss.hdc302x_driverData
                0x2000cf98       0x24 build/default/production/_ext/1360937237/hdc302x_driver.o
                0x2000cf98                hdc302x_driverData

.bss.sht4x_driverData%53
                0x2000cfbc       0x24
 .bss.sht4x_driverData
                0x2000cfbc       0x24 build/default/production/_ext/1360937237/sht4x_driver.o
                0x2000cfbc                sht4x_driverData

.bss.bme690_driverData%54
                0x2000cfe0       0x20
 .bss.bme690_driverData
                0x2000cfe0       0x20 build/default/production/_ext/1360937237/bme690_driver.o
                0x2000cfe0                bme690_driverData

.bss.ssd1306_driverData%55
                0x2000d000       0x20
 .bss.ssd1306_driverData
                0x2000d000       0x20 build/default/production/_ext/1360937237/ssd1306_driver.o
                0x2000d000                ssd1306_driverData

.bss.vcnl4200_driverData%56
                0x2000d020       0x20
 .bss.vcnl4200_driverData
                0x2000d020       0x20 build/default/production/_ext/1360937237/vcnl4200_driver.o
                0x2000d020                vcnl4200_driverData

.bss.xm125_driverData%57
                0x2000d040       0x20
 .bss.xm125_driverData
                0x2000d040       0x20 build/default/production/_ext/1360937237/xm125_driver.o
                0x2000d040                xm125_driverData

.bss%58         0x2000d060       0x1c
 .bss           0x2000d060       0x1c C:/Applications/Microchip/XC32/bin/bin/../../lib/gcc/pic32c/13.2.1/thumb/v6-m/nofp/crtbegin.o

.bss.spiDcpt%59
                0x2000d07c       0x1c
 .bss.spiDcpt   0x2000d07c       0x1c build/default/production/_ext/622324608/wdrv_winc_spi.o

.bss.can0Obj%60
                0x2000d098       0x1c
 .bss.can0Obj   0x2000d098       0x1c build/default/production/_ext/60165182/plib_can0.o

.bss.wincDescriptor%61
                0x2000d0b4       0x18
 .bss.wincDescriptor
                0x2000d0b4       0x18 build/default/production/_ext/1706628858/wdrv_winc.o

.bss.sysObj%62  0x2000d0cc       0x18
 .bss.sysObj    0x2000d0cc       0x18 build/default/production/_ext/1171490990/initialization.o
                0x2000d0cc                sysObj

.bss.drvI2C0ClientObjPool%63
                0x2000d0e4       0x18
 .bss.drvI2C0ClientObjPool
                0x2000d0e4       0x18 build/default/production/_ext/1171490990/initialization.o

.bss.sht4x_sensorData%64
                0x2000d0fc       0x14
 .bss.sht4x_sensorData
                0x2000d0fc       0x14 build/default/production/_ext/1360937237/sht4x_driver.o
                0x2000d0fc                sht4x_sensorData

.bss.timer_driverData%65
                0x2000d110       0x14
 .bss.timer_driverData
                0x2000d110       0x14 build/default/production/_ext/1360937237/timer_driver.o
                0x2000d110                timer_driverData

.bss.initData%66
                0x2000d124       0x10
 .bss.initData  0x2000d124       0x10 build/default/production/_ext/1857064221/winc_socket.o

.bss.drvUSART0ClientObjPool%67
                0x2000d134       0x10
 .bss.drvUSART0ClientObjPool
                0x2000d134       0x10 build/default/production/_ext/1171490990/initialization.o

.bss.mcp9808_sensorData%68
                0x2000d144       0x10
 .bss.mcp9808_sensorData
                0x2000d144       0x10 build/default/production/_ext/1360937237/mcp9808_driver.o
                0x2000d144                mcp9808_sensorData

.bss.rtcObj%69  0x2000d154        0xc
 .bss.rtcObj    0x2000d154        0xc build/default/production/_ext/60180175/plib_rtc_clock.o

.bss.systick%70
                0x2000d160        0xc
 .bss.systick   0x2000d160        0xc build/default/production/_ext/1827571544/plib_systick.o

.bss.consoleDeviceInstance%71
                0x2000d16c        0xc
 .bss.consoleDeviceInstance
                0x2000d16c        0xc build/default/production/_ext/1832805299/sys_console.o

.bss.console_driverData%72
                0x2000d178        0xc
 .bss.console_driverData
                0x2000d178        0xc build/default/production/_ext/1360937237/console_driver.o
                0x2000d178                console_driverData

.bss%73         0x2000d184        0xc
 .bss           0x2000d184        0xc C:/Applications/Microchip/XC32/bin/bin/../../lib/gcc/pic32c/13.2.1/../../../../pic32c/lib/thumb/v6-m/nofp\libpic32c.a(sbrk.o)
                0x2000d188                _maxbrk
                0x2000d18c                _minbrk

.bss.ADC0_CallbackObject%74
                0x2000d190        0x8
 .bss.ADC0_CallbackObject
                0x2000d190        0x8 build/default/production/_ext/60163342/plib_adc0.o

.bss.freqmObj%75
                0x2000d198        0x8
 .bss.freqmObj  0x2000d198        0x8 build/default/production/_ext/1987437027/plib_freqm.o

.bss.supcCallbackObject%76
                0x2000d1a0        0x8
 .bss.supcCallbackObject
                0x2000d1a0        0x8 build/default/production/_ext/1865616679/plib_supc.o

.bss.gConsoleUartData%77
                0x2000d1a8        0x8
 .bss.gConsoleUartData
                0x2000d1a8        0x8 build/default/production/_ext/1832805299/sys_console_uart.o

.bss.ntc_sensorData%78
                0x2000d1b0        0x8
 .bss.ntc_sensorData
                0x2000d1b0        0x8 build/default/production/_ext/1360937237/ntc_driver.o
                0x2000d1b0                ntc_sensorData

.bss.appData%79
                0x2000d1b8        0x5
 .bss.appData   0x2000d1b8        0x5 build/default/production/_ext/1360937237/app.o
                0x2000d1b8                appData

.bss.txDummyData%80
                0x2000cd74        0x4
 .bss.txDummyData
                0x2000cd74        0x4 build/default/production/_ext/2070931557/drv_spi.o

.bss.dummyDataRx%81
                0x2000d1c0        0x4
 .bss.dummyDataRx
                0x2000d1c0        0x4 build/default/production/_ext/622324608/wdrv_winc_spi.o

.bss.dummyDataTx%82
                0x2000d1c4        0x4
 .bss.dummyDataTx
                0x2000d1c4        0x4 build/default/production/_ext/622324608/wdrv_winc_spi.o

.bss.pfSDIOSendReceive%83
                0x2000d1c8        0x4
 .bss.pfSDIOSendReceive
                0x2000d1c8        0x4 build/default/production/_ext/1857064221/winc_sdio_drv.o

.bss.pGlobalSlabAllocCtx%84
                0x2000d1cc        0x4
 .bss.pGlobalSlabAllocCtx
                0x2000d1cc        0x4 build/default/production/_ext/1857064221/winc_socket.o

.bss.pCurrentDnsRequest%85
                0x2000d1d0        0x4
 .bss.pCurrentDnsRequest
                0x2000d1d0        0x4 build/default/production/_ext/1857064221/winc_socket.o

.bss.socketEventCallbackContext%86
                0x2000d1d4        0x4
 .bss.socketEventCallbackContext
                0x2000d1d4        0x4 build/default/production/_ext/1857064221/winc_socket.o

.bss.pfSocketEventCallback%87
                0x2000d1d8        0x4
 .bss.pfSocketEventCallback
                0x2000d1d8        0x4 build/default/production/_ext/1857064221/winc_socket.o

.bss.wincDevHandle%88
                0x2000d1dc        0x4
 .bss.wincDevHandle
                0x2000d1dc        0x4 build/default/production/_ext/1857064221/winc_socket.o

.bss.pfWINCDebugPrintCb%89
                0x2000d1e0        0x4
 .bss.pfWINCDebugPrintCb
                0x2000d1e0        0x4 build/default/production/_ext/1706628858/wdrv_winc.o
                0x2000d1e0                pfWINCDebugPrintCb

.bss.ntc_driverData%90
                0x2000d1e4        0x4
 .bss.ntc_driverData
                0x2000d1e4        0x4 build/default/production/_ext/1360937237/ntc_driver.o
                0x2000d1e4                ntc_driverData

.bss.rstc_driverData%91
                0x2000d1e8        0x4
 .bss.rstc_driverData
                0x2000d1e8        0x4 build/default/production/_ext/1360937237/rstc_driver.o
                0x2000d1e8                rstc_driverData

.bss%92         0x2000d1ec        0x4
 .bss           0x2000d1ec        0x4 C:/Applications/Microchip/XC32/bin/bin/../../lib/gcc/pic32c/13.2.1/../../../../pic32c/lib/thumb/v6-m/nofp\libpic32c.a(data_init.o)

.bss%93         0x2000d1f0        0x4
 .bss           0x2000d1f0        0x4 C:/Applications/Microchip/XC32/bin/bin/../../lib/gcc/pic32c/13.2.1/../../../../pic32c/lib/thumb/v6-m/nofp\liblmalloc-musl.a(lite_free.o)
                0x2000d1f0                __freelist

.bss%94         0x2000d1f4        0x4
 .bss           0x2000d1f4        0x4 C:/Applications/Microchip/XC32/bin/bin/../../lib/gcc/pic32c/13.2.1/../../../../pic32c/lib/thumb/v6-m/nofp\libc-musl.a(__errno_location.o)
                0x2000d1f4                __errno_val

.bss%95         0x2000d1f8        0x4
 .bss           0x2000d1f8        0x4 C:/Applications/Microchip/XC32/bin/bin/../../lib/gcc/pic32c/13.2.1/../../../../pic32c/lib/thumb/v6-m/nofp\libc-musl.a(__environ.o)
                0x2000d1f8                __environ
                0x2000d1f8                environ
                0x2000d1f8                ___environ
                0x2000d1f8                _environ

.bss.isLastByteTransferInProgress.0%96
                0x2000b3bb        0x1
 .bss.isLastByteTransferInProgress.0
                0x2000b3bb        0x1 build/default/production/_ext/17022449/plib_sercom3_spi_master.o

.bss.isLastByteTransferInProgress.0%97
                0x2000d1bd        0x1
 .bss.isLastByteTransferInProgress.0
                0x2000d1bd        0x1 build/default/production/_ext/17022449/plib_sercom4_spi_master.o

.bss.consolePrintBufferMutex%98
                0x2000d1be        0x1
 .bss.consolePrintBufferMutex
                0x2000d1be        0x1 build/default/production/_ext/1832805299/sys_console.o

.bss.isConsoleMutexCreated%99
                0x2000d1bf        0x1
 .bss.isConsoleMutexCreated
                0x2000d1bf        0x1 build/default/production/_ext/1832805299/sys_console.o

.data.ASCII%100
                0x2000d1fc      0x1e0
 .data.ASCII    0x2000d1fc      0x1e0 build/default/production/_ext/1360937237/ssd1306_driver.o
                0x2000d1fc                ASCII

.data%101       0x2000d3dc        0x4
 .data          0x2000d3dc        0x4 C:/Applications/Microchip/XC32/bin/bin/../../lib/gcc/pic32c/13.2.1/../../../../pic32c/lib/thumb/v6-m/nofp\liblmalloc-musl.a(lite_malloc.o)

.data.gSysTimeTokenCount%102
                0x2000d3e0        0x2
 .data.gSysTimeTokenCount
                0x2000d3e0        0x2 build/default/production/_ext/101884895/sys_time.o

.eh_frame%z6    0x00000000        0x0
 .eh_frame      0x00000000        0x0 C:/Applications/Microchip/XC32/bin/bin/../../lib/gcc/pic32c/13.2.1/thumb/v6-m/nofp/crtbegin.o

.text.SSD1306_DRIVER_Tasks%103
                0x000000e8      0x818
 .text.SSD1306_DRIVER_Tasks
                0x000000e8      0x818 build/default/production/_ext/1360937237/ssd1306_driver.o
                0x000000e8                SSD1306_DRIVER_Tasks

.dinit%104      0x00000900      0x5b0
 .dinit         0x00000900      0x5b0 data_init

.text.__fmt_fp%105
                0x00000eb0      0x4f8
 .text.__fmt_fp
                0x00000eb0      0x4f8 C:/Applications/Microchip/XC32/bin/bin/../../lib/gcc/pic32c/13.2.1/../../../../pic32c/lib/thumb/v6-m/nofp\libc-musl.a(__fmt_fp.o)
                0x00000eb0                __fmt_f_needed
                0x00000eb0                __fmt_fp

.text.sockDevProcessAEC%106
                0x000013a8      0x4a8
 .text.sockDevProcessAEC
                0x000013a8      0x4a8 build/default/production/_ext/1857064221/winc_socket.o

.text.__fmt_a%107
                0x00001850      0x4a0
 .text.__fmt_a  0x00001850      0x4a0 C:/Applications/Microchip/XC32/bin/bin/../../lib/gcc/pic32c/13.2.1/../../../../pic32c/lib/thumb/v6-m/nofp\libc-musl.a(__fmt_a.o)
                0x00001850                __fmt_a_needed
                0x00001850                __fmt_a

.text.WDRV_WINC_MQTTProcessAEC%108
                0x00001cf0      0x40c
 .text.WDRV_WINC_MQTTProcessAEC
                0x00001cf0      0x40c build/default/production/_ext/1706628858/wdrv_winc_mqtt.o
                0x00001cf0                WDRV_WINC_MQTTProcessAEC

.text.WINC_DevUpdateEvent%109
                0x000020fc      0x3ee
 .text.WINC_DevUpdateEvent
                0x000020fc      0x3ee build/default/production/_ext/1857064221/winc_dev.o
                0x000020fc                WINC_DevUpdateEvent

.text.sockCmdRspCallbackHandler%110
                0x000024ec      0x3e8
 .text.sockCmdRspCallbackHandler
                0x000024ec      0x3e8 build/default/production/_ext/1857064221/winc_socket.o

.text.WDRV_WINC_Tasks%111
                0x000028d4      0x3a8
 .text.WDRV_WINC_Tasks
                0x000028d4      0x3a8 build/default/production/_ext/1706628858/wdrv_winc.o
                0x000028d4                WDRV_WINC_Tasks

.text.wincCmdRspCallbackHandler%112
                0x00002c7c      0x390
 .text.wincCmdRspCallbackHandler
                0x00002c7c      0x390 build/default/production/_ext/1706628858/wdrv_winc.o

.text.__printf_core%113
                0x0000300c      0x320
 .text.__printf_core
                0x0000300c      0x320 C:/Applications/Microchip/XC32/bin/bin/../../lib/gcc/pic32c/13.2.1/../../../../pic32c/lib/thumb/v6-m/nofp\libc-musl.a(__printf_core.o)
                0x0000300c                __printf_core

.text.BMP585_DRIVER_Tasks%114
                0x0000332c      0x2d4
 .text.BMP585_DRIVER_Tasks
                0x0000332c      0x2d4 build/default/production/_ext/1360937237/bmp585_driver.o
                0x0000332c                BMP585_DRIVER_Tasks

.text.lDRV_I2C_WriteReadTransferAdd%115
                0x00003600      0x264
 .text.lDRV_I2C_WriteReadTransferAdd
                0x00003600      0x264 build/default/production/_ext/158385033/drv_i2c.o

.text.WINC_SDIOCmd53Write%116
                0x00003864      0x25c
 .text.WINC_SDIOCmd53Write
                0x00003864      0x25c build/default/production/_ext/1857064221/winc_sdio_drv.o
                0x00003864                WINC_SDIOCmd53Write

.text.WINC_SDIOCmd53Read%117
                0x00003ac0      0x230
 .text.WINC_SDIOCmd53Read
                0x00003ac0      0x230 build/default/production/_ext/1857064221/winc_sdio_drv.o
                0x00003ac0                WINC_SDIOCmd53Read

.text.AD9954_DRIVER_Tasks%118
                0x00003cf0      0x1fc
 .text.AD9954_DRIVER_Tasks
                0x00003cf0      0x1fc build/default/production/_ext/1360937237/ad9954_driver.o
                0x00003cf0                AD9954_DRIVER_Tasks

.text.WS281X_DRIVER_Set_Data%119
                0x00003eec      0x1ec
 .text.WS281X_DRIVER_Set_Data
                0x00003eec      0x1ec build/default/production/_ext/1360937237/ws281x_driver.o
                0x00003eec                WS281X_DRIVER_Set_Data

.text.WDRV_WINC_WSTAProcessAEC%120
                0x000040d8      0x1e0
 .text.WDRV_WINC_WSTAProcessAEC
                0x000040d8      0x1e0 build/default/production/_ext/1706628858/wdrv_winc_sta.o
                0x000040d8                WDRV_WINC_WSTAProcessAEC

.text.DRV_SPI_WriteReadTransferAdd%121
                0x000042b8      0x1dc
 .text.DRV_SPI_WriteReadTransferAdd
                0x000042b8      0x1dc build/default/production/_ext/2070931557/drv_spi.o
                0x000042b8                DRV_SPI_WriteReadTransferAdd

.text.CAN0_DRIVER_Tasks%122
                0x00004494      0x1d0
 .text.CAN0_DRIVER_Tasks
                0x00004494      0x1d0 build/default/production/_ext/1360937237/can0_driver.o
                0x00004494                CAN0_DRIVER_Tasks

.text.MCP9808_DRIVER_Tasks%123
                0x00004664      0x1d0
 .text.MCP9808_DRIVER_Tasks
                0x00004664      0x1d0 build/default/production/_ext/1360937237/mcp9808_driver.o
                0x00004664                MCP9808_DRIVER_Tasks

.text.__aeabi_dadd%124
                0x00004834      0x1c8
 .text.__aeabi_dadd
                0x00004834      0x1c8 C:/Applications/Microchip/XC32/bin/bin/../../lib/gcc/pic32c/13.2.1/../../../../pic32c/lib/thumb/v6-m/nofp\libm-fast-emfloat.a(__aeabi_dadd.o)
                0x00004834                __aeabi_dadd
                0x0000483a                .L__aeabi_dadd_fast_entry

.text.sockWrite%125
                0x000049fc      0x1c4
 .text.sockWrite
                0x000049fc      0x1c4 build/default/production/_ext/1857064221/winc_socket.o

.text.SERCOM2_I2C_InterruptHandler%126
                0x00004bc0      0x1c0
 .text.SERCOM2_I2C_InterruptHandler
                0x00004bc0      0x1c0 build/default/production/_ext/508257091/plib_sercom2_i2c_master.o
                0x00004bc0                SERCOM2_I2C_InterruptHandler

.text.STCC4_DRIVER_Tasks%127
                0x00004d80      0x1b8
 .text.STCC4_DRIVER_Tasks
                0x00004d80      0x1b8 build/default/production/_ext/1360937237/stcc4_driver.o
                0x00004d80                STCC4_DRIVER_Tasks

.text.sockBufferRead%128
                0x00004f38      0x1ae
 .text.sockBufferRead
                0x00004f38      0x1ae build/default/production/_ext/1857064221/winc_socket.o

.text.lDRV_SPI_StartDMATransfer%129
                0x000050e8      0x19c
 .text.lDRV_SPI_StartDMATransfer
                0x000050e8      0x19c build/default/production/_ext/2070931557/drv_spi.o

.text.WINC_SDIODeviceInit%130
                0x00005284      0x198
 .text.WINC_SDIODeviceInit
                0x00005284      0x198 build/default/production/_ext/1857064221/winc_sdio_drv.o
                0x00005284                WINC_SDIODeviceInit

.text.__aeabi_dmul_aux%131
                0x0000541c      0x18a
 .text.__aeabi_dmul_aux
                0x0000541c      0x18a C:/Applications/Microchip/XC32/bin/bin/../../lib/gcc/pic32c/13.2.1/../../../../pic32c/lib/thumb/v6-m/nofp\libm-fast-emfloat.a(__aeabi_dmul_aux.o)
                0x0000541c                __aeabi_dmul_aux
                0x00005454                __aeabi_dmul

.text.CLOCK_Initialize%132
                0x000055a8      0x184
 .text.CLOCK_Initialize
                0x000055a8      0x184 build/default/production/_ext/1984496892/plib_clock.o
                0x000055a8                CLOCK_Initialize

.text.FCM360W_DRIVER_Tasks%133
                0x0000572c      0x180
 .text.FCM360W_DRIVER_Tasks
                0x0000572c      0x180 build/default/production/_ext/1360937237/fcm360w_driver.o
                0x0000572c                FCM360W_DRIVER_Tasks

.text.sockBufferWrite%134
                0x000058ac      0x17e
 .text.sockBufferWrite
                0x000058ac      0x17e build/default/production/_ext/1857064221/winc_socket.o

.text.WDRV_WINC_WAPProcessAEC%135
                0x00005a2c      0x17c
 .text.WDRV_WINC_WAPProcessAEC
                0x00005a2c      0x17c build/default/production/_ext/1706628858/wdrv_winc_softap.o
                0x00005a2c                WDRV_WINC_WAPProcessAEC

.text.SERCOM3_SPI_WriteRead%136
                0x00005ba8      0x178
 .text.SERCOM3_SPI_WriteRead
                0x00005ba8      0x178 build/default/production/_ext/17022449/plib_sercom3_spi_master.o
                0x00005ba8                SERCOM3_SPI_WriteRead

.text.lDRV_USART_BufferAdd%137
                0x00005d20      0x168
 .text.lDRV_USART_BufferAdd
                0x00005d20      0x168 build/default/production/_ext/869808652/drv_usart.o

.text.SHT4X_DRIVER_Tasks%138
                0x00005e88      0x160
 .text.SHT4X_DRIVER_Tasks
                0x00005e88      0x160 build/default/production/_ext/1360937237/sht4x_driver.o
                0x00005e88                SHT4X_DRIVER_Tasks

.text.lDRV_SPI_RX_DMA_CallbackHandler%139
                0x00005fe8      0x15c
 .text.lDRV_SPI_RX_DMA_CallbackHandler
                0x00005fe8      0x15c build/default/production/_ext/2070931557/drv_spi.o

.text.SERCOM3_SPI_InterruptHandler%140
                0x00006144      0x154
 .text.SERCOM3_SPI_InterruptHandler
                0x00006144      0x154 build/default/production/_ext/17022449/plib_sercom3_spi_master.o
                0x00006144                SERCOM3_SPI_InterruptHandler

.text.SERCOM4_SPI_InterruptHandler%141
                0x00006298      0x154
 .text.SERCOM4_SPI_InterruptHandler
                0x00006298      0x154 build/default/production/_ext/17022449/plib_sercom4_spi_master.o
                0x00006298                SERCOM4_SPI_InterruptHandler

.text.SERCOM1_USART_SerialSetup%142
                0x000063ec      0x154
 .text.SERCOM1_USART_SerialSetup
                0x000063ec      0x154 build/default/production/_ext/504274921/plib_sercom1_usart.o
                0x000063ec                SERCOM1_USART_SerialSetup

.text.WINC_DevTransmitCmdReq%143
                0x00006540      0x13c
 .text.WINC_DevTransmitCmdReq
                0x00006540      0x13c build/default/production/_ext/1857064221/winc_dev.o
                0x00006540                WINC_DevTransmitCmdReq

.text.dnsDevProcessAEC%144
                0x0000667c      0x13c
 .text.dnsDevProcessAEC
                0x0000667c      0x13c build/default/production/_ext/1857064221/winc_socket.o

.text.__aeabi_fadd%145
                0x000067b8      0x13a
 .text.__aeabi_fadd
                0x000067b8      0x13a C:/Applications/Microchip/XC32/bin/bin/../../lib/gcc/pic32c/13.2.1/../../../../pic32c/lib/thumb/v6-m/nofp\libm-fast-emfloat.a(__aeabi_fadd.o)
                0x000067b8                __aeabi_fadd
                0x000067bc                .L__aeabi_fadd_fast_entry

.text.__fmt_x%146
                0x000068f2      0x12e
 .text.__fmt_x  0x000068f2      0x12e C:/Applications/Microchip/XC32/bin/bin/../../lib/gcc/pic32c/13.2.1/../../../../pic32c/lib/thumb/v6-m/nofp\libc-musl.a(__fmt_x.o)
                0x000068f2                __fmt_x_needed
                0x000068f2                __fmt_x

.text.WDRV_WINC_WSCNProcessAEC%147
                0x00006a20      0x12c
 .text.WDRV_WINC_WSCNProcessAEC
                0x00006a20      0x12c build/default/production/_ext/1706628858/wdrv_winc_bssfind.o
                0x00006a20                WDRV_WINC_WSCNProcessAEC

.text.APP_Tasks%148
                0x00006b4c      0x120
 .text.APP_Tasks
                0x00006b4c      0x120 build/default/production/_ext/1360937237/app.o
                0x00006b4c                APP_Tasks

.text.WDRV_WINC_Initialize%149
                0x00006c6c      0x11c
 .text.WDRV_WINC_Initialize
                0x00006c6c      0x11c build/default/production/_ext/1706628858/wdrv_winc.o
                0x00006c6c                WDRV_WINC_Initialize

.text.WDRV_WINC_EXTCRYPTOProcessAEC%150
                0x00006d88      0x116
 .text.WDRV_WINC_EXTCRYPTOProcessAEC
                0x00006d88      0x116 build/default/production/_ext/1706628858/wdrv_winc_extcrypto.o
                0x00006d88                WDRV_WINC_EXTCRYPTOProcessAEC

.text.SYS_Initialize%151
                0x00006ea0      0x114
 .text.SYS_Initialize
                0x00006ea0      0x114 build/default/production/_ext/1171490990/initialization.o
                0x00006ea0                SYS_Initialize

.text.devCompleteCmdStatusRsp%152
                0x00006fb4      0x112
 .text.devCompleteCmdStatusRsp
                0x00006fb4      0x112 build/default/production/_ext/1857064221/winc_dev.o
                0x00006fb4                devCompleteCmdStatusRsp

.text.DMAC_Initialize%153
                0x000070c8      0x10c
 .text.DMAC_Initialize
                0x000070c8      0x10c build/default/production/_ext/1865161661/plib_dmac.o
                0x000070c8                DMAC_Initialize

.text.SERCOM2_I2C_TransferSetup%154
                0x000071d4      0x10c
 .text.SERCOM2_I2C_TransferSetup
                0x000071d4      0x10c build/default/production/_ext/508257091/plib_sercom2_i2c_master.o
                0x000071d4                SERCOM2_I2C_TransferSetup

.text.RSTC_DRIVER_Tasks%155
                0x000072e0      0x108
 .text.RSTC_DRIVER_Tasks
                0x000072e0      0x108 build/default/production/_ext/1360937237/rstc_driver.o
                0x000072e0                RSTC_DRIVER_Tasks

.text.WINC_CmdReadParamElem%156
                0x000073e8      0x104
 .text.WINC_CmdReadParamElem
                0x000073e8      0x104 build/default/production/_ext/1857064221/winc_cmds.o
                0x000073e8                WINC_CmdReadParamElem

.text.SERCOM0_USART_Write%157
                0x000074ec      0x104
 .text.SERCOM0_USART_Write
                0x000074ec      0x104 build/default/production/_ext/504274921/plib_sercom0_usart.o
                0x000074ec                SERCOM0_USART_Write

.text.WINC_SockInit%158
                0x000075f0      0x100
 .text.WINC_SockInit
                0x000075f0      0x100 build/default/production/_ext/1857064221/winc_socket.o
                0x000075f0                WINC_SockInit

.text.DRV_SPI_Open%159
                0x000076f0       0xf8
 .text.DRV_SPI_Open
                0x000076f0       0xf8 build/default/production/_ext/2070931557/drv_spi.o
                0x000076f0                DRV_SPI_Open

.text.WDRV_WINC_DNSProcessAEC%160
                0x000077e8       0xf8
 .text.WDRV_WINC_DNSProcessAEC
                0x000077e8       0xf8 build/default/production/_ext/1706628858/wdrv_winc_dns.o
                0x000077e8                WDRV_WINC_DNSProcessAEC

.text.DRV_I2C_Open%161
                0x000078e0       0xf4
 .text.DRV_I2C_Open
                0x000078e0       0xf4 build/default/production/_ext/158385033/drv_i2c.o
                0x000078e0                DRV_I2C_Open

.text.lDRV_USART_BufferQueueTask%162
                0x000079d4       0xf4
 .text.lDRV_USART_BufferQueueTask
                0x000079d4       0xf4 build/default/production/_ext/869808652/drv_usart.o

.text.SERCOM0_USART_ISR_TX_Handler%163
                0x00007ac8       0xf0
 .text.SERCOM0_USART_ISR_TX_Handler
                0x00007ac8       0xf0 build/default/production/_ext/504274921/plib_sercom0_usart.o

.rodata.SSD1306_DRIVER_Tasks%164
                0x00007bb8       0xec
 .rodata.SSD1306_DRIVER_Tasks
                0x00007bb8       0xec build/default/production/_ext/1360937237/ssd1306_driver.o

.text.DRV_USART_Open%165
                0x00007ca4       0xe8
 .text.DRV_USART_Open
                0x00007ca4       0xe8 build/default/production/_ext/869808652/drv_usart.o
                0x00007ca4                DRV_USART_Open

.text.NVIC_Initialize%166
                0x00007d8c       0xe8
 .text.NVIC_Initialize
                0x00007d8c       0xe8 build/default/production/_ext/1865468468/plib_nvic.o
                0x00007d8c                NVIC_Initialize

.text.sockRead%167
                0x00007e74       0xe4
 .text.sockRead
                0x00007e74       0xe4 build/default/production/_ext/1857064221/winc_socket.o

.text.SERCOM0_USART_ISR_RX_Handler%168
                0x00007f58       0xe4
 .text.SERCOM0_USART_ISR_RX_Handler
                0x00007f58       0xe4 build/default/production/_ext/504274921/plib_sercom0_usart.o

.text%169       0x0000803c       0xde
 .text          0x0000803c       0xde C:/Applications/Microchip/XC32/bin/bin/../../lib/gcc/pic32c/13.2.1/thumb/v6-m/nofp\libgcc.a(_udivmoddi4.o)
                0x0000803c                __udivmoddi4

.text.lDRV_SPI_PlibCallbackHandler%170
                0x0000811c       0xdc
 .text.lDRV_SPI_PlibCallbackHandler
                0x0000811c       0xdc build/default/production/_ext/2070931557/drv_spi.o

.text.CAN0_MessageReceiveFifo%171
                0x000081f8       0xdc
 .text.CAN0_MessageReceiveFifo
                0x000081f8       0xdc build/default/production/_ext/60165182/plib_can0.o
                0x000081f8                CAN0_MessageReceiveFifo

.text.WINC_DevHandleEvent%172
                0x000082d4       0xd8
 .text.WINC_DevHandleEvent
                0x000082d4       0xd8 build/default/production/_ext/1857064221/winc_dev.o
                0x000082d4                WINC_DevHandleEvent

.text.WS281X_DRIVER_Set_Data_Bits%173
                0x000083ac       0xd8
 .text.WS281X_DRIVER_Set_Data_Bits
                0x000083ac       0xd8 build/default/production/_ext/1360937237/ws281x_driver.o
                0x000083ac                WS281X_DRIVER_Set_Data_Bits

.text.__pop_int%174
                0x00008484       0xd6
 .text.__pop_int
                0x00008484       0xd6 C:/Applications/Microchip/XC32/bin/bin/../../lib/gcc/pic32c/13.2.1/../../../../pic32c/lib/thumb/v6-m/nofp\libc-musl.a(__pop_int.o)
                0x00008484                __pop_int_needed
                0x00008484                __pop_int

.text.WINC_CmdSOCKWRTO%175
                0x0000855c       0xd4
 .text.WINC_CmdSOCKWRTO
                0x0000855c       0xd4 build/default/production/_ext/1857064221/winc_cmds.o
                0x0000855c                WINC_CmdSOCKWRTO

.text.WDRV_WINC_OTAProcessAEC%176
                0x00008630       0xd4
 .text.WDRV_WINC_OTAProcessAEC
                0x00008630       0xd4 build/default/production/_ext/1706628858/wdrv_winc_ota.o
                0x00008630                WDRV_WINC_OTAProcessAEC

.text.WDRV_WINC_ICMPProcessAEC%177
                0x00008704       0xd4
 .text.WDRV_WINC_ICMPProcessAEC
                0x00008704       0xd4 build/default/production/_ext/1706628858/wdrv_winc_socket.o
                0x00008704                WDRV_WINC_ICMPProcessAEC

.text.lDRV_SPI_UpdateTransferSetupAndAssertCS%178
                0x000087d8       0xd0
 .text.lDRV_SPI_UpdateTransferSetupAndAssertCS
                0x000087d8       0xd0 build/default/production/_ext/2070931557/drv_spi.o

.text.DRV_SPI_Close%179
                0x000088a8       0xd0
 .text.DRV_SPI_Close
                0x000088a8       0xd0 build/default/production/_ext/2070931557/drv_spi.o
                0x000088a8                DRV_SPI_Close

.text.WDRV_WINC_SPISendReceive%180
                0x00008978       0xd0
 .text.WDRV_WINC_SPISendReceive
                0x00008978       0xd0 build/default/production/_ext/622324608/wdrv_winc_spi.o
                0x00008978                WDRV_WINC_SPISendReceive

.text.cmdParamBuilder%181
                0x00008a48       0xd0
 .text.cmdParamBuilder
                0x00008a48       0xd0 build/default/production/_ext/1857064221/winc_cmds.o

.rodata.WDRV_WINC_MQTTProcessAEC%182
                0x00008b18       0xd0
 .rodata.WDRV_WINC_MQTTProcessAEC
                0x00008b18       0xd0 build/default/production/_ext/1706628858/wdrv_winc_mqtt.o

.text.SYS_TIME_PLIBCallback%183
                0x00008be8       0xd0
 .text.SYS_TIME_PLIBCallback
                0x00008be8       0xd0 build/default/production/_ext/101884895/sys_time.o

.text.Reset_Handler%184
                0x00008cb8       0xd0
 .text.Reset_Handler
                0x00008cb8       0xd0 build/default/production/_ext/1171490990/startup_xc32.o
                0x00008cb8                Reset_Handler

.rodata.CAN0_DRIVER_Print_Data.str1.4%185
                0x00008d88       0xcf
 .rodata.CAN0_DRIVER_Print_Data.str1.4
                0x00008d88       0xcf build/default/production/_ext/1360937237/can0_driver.o
                                 0x33 (size before relaxing)

.text.DRV_USART_Initialize%186
                0x00008e58       0xcc
 .text.DRV_USART_Initialize
                0x00008e58       0xcc build/default/production/_ext/869808652/drv_usart.o
                0x00008e58                DRV_USART_Initialize

.text.lDRV_USART_ResourceLock%187
                0x00008f24       0xca
 .text.lDRV_USART_ResourceLock
                0x00008f24       0xca build/default/production/_ext/869808652/drv_usart.o

.text.slabAlloc%188
                0x00008ff0       0xc8
 .text.slabAlloc
                0x00008ff0       0xc8 build/default/production/_ext/1857064221/winc_socket.o

.text.WDRV_WINC_BSSFindNext%189
                0x000090b8       0xc8
 .text.WDRV_WINC_BSSFindNext
                0x000090b8       0xc8 build/default/production/_ext/1706628858/wdrv_winc_bssfind.o
                0x000090b8                WDRV_WINC_BSSFindNext

.text.lDRV_SPI_ResourceLock%190
                0x00009180       0xc6
 .text.lDRV_SPI_ResourceLock
                0x00009180       0xc6 build/default/production/_ext/2070931557/drv_spi.o

.text.lDRV_I2C_NextTransferInitiate%191
                0x00009248       0xc4
 .text.lDRV_I2C_NextTransferInitiate
                0x00009248       0xc4 build/default/production/_ext/158385033/drv_i2c.o

.text.DMAC_ChannelTransfer%192
                0x0000930c       0xc4
 .text.DMAC_ChannelTransfer
                0x0000930c       0xc4 build/default/production/_ext/1865161661/plib_dmac.o
                0x0000930c                DMAC_ChannelTransfer

.text.__aeabi_ddiv%193
                0x000093d0       0xc4
 .text.__aeabi_ddiv
                0x000093d0       0xc4 C:/Applications/Microchip/XC32/bin/bin/../../lib/gcc/pic32c/13.2.1/../../../../pic32c/lib/thumb/v6-m/nofp\libm-fast-emfloat.a(__aeabi_ddiv.o)
                0x000093d0                __aeabi_ddiv

.text.lDRV_USART_ResourceUnlock%194
                0x00009494       0xbe
 .text.lDRV_USART_ResourceUnlock
                0x00009494       0xbe build/default/production/_ext/869808652/drv_usart.o

.text.wincResetDeviceState%195
                0x00009554       0xbc
 .text.wincResetDeviceState
                0x00009554       0xbc build/default/production/_ext/1706628858/wdrv_winc.o

.text.floor%196
                0x00009610       0xbc
 .text.floor    0x00009610       0xbc C:/Applications/Microchip/XC32/bin/bin/../../lib/gcc/pic32c/13.2.1/../../../../pic32c/lib/thumb/v6-m/nofp\libm-fast-emfloat.a(floor.o)
                0x00009610                floor

.text.WDRV_WINC_AssocProcessAEC%197
                0x000096cc       0xb8
 .text.WDRV_WINC_AssocProcessAEC
                0x000096cc       0xb8 build/default/production/_ext/1706628858/wdrv_winc_assoc.o
                0x000096cc                WDRV_WINC_AssocProcessAEC

.text.__aeabi_fmul%198
                0x00009784       0xb6
 .text.__aeabi_fmul
                0x00009784       0xb6 C:/Applications/Microchip/XC32/bin/bin/../../lib/gcc/pic32c/13.2.1/../../../../pic32c/lib/thumb/v6-m/nofp\libm-fast-emfloat.a(__aeabi_fmul.o)
                0x00009784                __aeabi_fmul

.text.lDRV_SPI_ResourceUnlock%199
                0x0000983a       0xb4
 .text.lDRV_SPI_ResourceUnlock
                0x0000983a       0xb4 build/default/production/_ext/2070931557/drv_spi.o

.text.WDRV_WINC_ProvProcessAEC%200
                0x000098f0       0xb4
 .text.WDRV_WINC_ProvProcessAEC
                0x000098f0       0xb4 build/default/production/_ext/1706628858/wdrv_winc_prov.o
                0x000098f0                WDRV_WINC_ProvProcessAEC

.text.__fmt_d%201
                0x000099a4       0xb4
 .text.__fmt_d  0x000099a4       0xb4 C:/Applications/Microchip/XC32/bin/bin/../../lib/gcc/pic32c/13.2.1/../../../../pic32c/lib/thumb/v6-m/nofp\libc-musl.a(__fmt_d.o)
                0x000099a4                __fmt_d
                0x000099a4                __fmt_d_needed

.text.DRV_SPI_Initialize%202
                0x00009a58       0xb0
 .text.DRV_SPI_Initialize
                0x00009a58       0xb0 build/default/production/_ext/2070931557/drv_spi.o
                0x00009a58                DRV_SPI_Initialize

.text.WINC_CmdSOCKWR%203
                0x00009b08       0xb0
 .text.WINC_CmdSOCKWR
                0x00009b08       0xb0 build/default/production/_ext/1857064221/winc_cmds.o
                0x00009b08                WINC_CmdSOCKWR

.text.devProcessPendingCmdReqQueue%204
                0x00009bb8       0xb0
 .text.devProcessPendingCmdReqQueue
                0x00009bb8       0xb0 build/default/production/_ext/1857064221/winc_dev.o

.text.WDRV_WINC_NVMProcessAEC%205
                0x00009c68       0xb0
 .text.WDRV_WINC_NVMProcessAEC
                0x00009c68       0xb0 build/default/production/_ext/1706628858/wdrv_winc_nvm.o
                0x00009c68                WDRV_WINC_NVMProcessAEC

.text.SYS_TIME_TimerObjectCreate%206
                0x00009d18       0xb0
 .text.SYS_TIME_TimerObjectCreate
                0x00009d18       0xb0 build/default/production/_ext/101884895/sys_time.o

.text%207       0x00009dc8       0xa8
 .text          0x00009dc8       0xa8 C:/Applications/Microchip/XC32/bin/bin/../../lib/gcc/pic32c/13.2.1/thumb/v6-m/nofp\libgcc.a(_divsi3.o)
                0x00009dc8                __divsi3
                0x00009dc8                __aeabi_idiv
                0x00009e5c                __aeabi_idivmod

.text.EIC_Initialize%208
                0x00009e70       0xa4
 .text.EIC_Initialize
                0x00009e70       0xa4 build/default/production/_ext/60167341/plib_eic.o
                0x00009e70                EIC_Initialize

.text.SERCOM3_SPI_TransferSetup%209
                0x00009f14       0xa0
 .text.SERCOM3_SPI_TransferSetup
                0x00009f14       0xa0 build/default/production/_ext/17022449/plib_sercom3_spi_master.o
                0x00009f14                SERCOM3_SPI_TransferSetup

.text.CAN0_MessageRAMConfigSet%210
                0x00009fb4       0x9c
 .text.CAN0_MessageRAMConfigSet
                0x00009fb4       0x9c build/default/production/_ext/60165182/plib_can0.o
                0x00009fb4                CAN0_MessageRAMConfigSet

.text.SYS_TIME_AddToList%211
                0x0000a050       0x9c
 .text.SYS_TIME_AddToList
                0x0000a050       0x9c build/default/production/_ext/101884895/sys_time.o

.text.WINC_SDIOCmd52%212
                0x0000a0ec       0x98
 .text.WINC_SDIOCmd52
                0x0000a0ec       0x98 build/default/production/_ext/1857064221/winc_sdio_drv.o
                0x0000a0ec                WINC_SDIOCmd52

.text.PORT_Initialize%213
                0x0000a184       0x98
 .text.PORT_Initialize
                0x0000a184       0x98 build/default/production/_ext/1865521619/plib_port.o
                0x0000a184                PORT_Initialize

.text.SERCOM0_USART_Read%214
                0x0000a21c       0x94
 .text.SERCOM0_USART_Read
                0x0000a21c       0x94 build/default/production/_ext/504274921/plib_sercom0_usart.o
                0x0000a21c                SERCOM0_USART_Read

.text.__aeabi_fdiv%215
                0x0000a2b0       0x94
 .text.__aeabi_fdiv
                0x0000a2b0       0x94 C:/Applications/Microchip/XC32/bin/bin/../../lib/gcc/pic32c/13.2.1/../../../../pic32c/lib/thumb/v6-m/nofp\libm-fast-emfloat.a(__aeabi_fdiv.o)
                0x0000a2b0                __aeabi_fdiv

.text.wincNotifyDisconn%216
                0x0000a344       0x92
 .text.wincNotifyDisconn
                0x0000a344       0x92 build/default/production/_ext/1706628858/wdrv_winc.o

.text.sockAsyncModeConf%217
                0x0000a3d8       0x8c
 .text.sockAsyncModeConf
                0x0000a3d8       0x8c build/default/production/_ext/1857064221/winc_socket.o

.text%218       0x0000a464       0x8c
 .text          0x0000a464       0x8c C:/Applications/Microchip/XC32/bin/bin/../../lib/gcc/pic32c/13.2.1/thumb/v6-m/nofp\libgcc.a(_udivsi3.o)
                0x0000a464                __aeabi_uidiv
                0x0000a464                __udivsi3
                0x0000a4dc                __aeabi_uidivmod

.text.lDRV_I2C_ResourceLock%219
                0x0000a4f0       0x8a
 .text.lDRV_I2C_ResourceLock
                0x0000a4f0       0x8a build/default/production/_ext/158385033/drv_i2c.o

.text.SERCOM0_USART_Initialize%220
                0x0000a57c       0x88
 .text.SERCOM0_USART_Initialize
                0x0000a57c       0x88 build/default/production/_ext/504274921/plib_sercom0_usart.o
                0x0000a57c                SERCOM0_USART_Initialize

.text.DRV_USART_Close%221
                0x0000a604       0x84
 .text.DRV_USART_Close
                0x0000a604       0x84 build/default/production/_ext/869808652/drv_usart.o
                0x0000a604                DRV_USART_Close

.text.WINC_SDIOCmd5%222
                0x0000a688       0x84
 .text.WINC_SDIOCmd5
                0x0000a688       0x84 build/default/production/_ext/1857064221/winc_sdio_drv.o
                0x0000a688                WINC_SDIOCmd5

.text.TIMER_DRIVER_Initialize%223
                0x0000a70c       0x84
 .text.TIMER_DRIVER_Initialize
                0x0000a70c       0x84 build/default/production/_ext/1360937237/timer_driver.o
                0x0000a70c                TIMER_DRIVER_Initialize

.text.WDRV_WINC_AssocFindSTAInfo%224
                0x0000a790       0x82
 .text.WDRV_WINC_AssocFindSTAInfo
                0x0000a790       0x82 build/default/production/_ext/1706628858/wdrv_winc_assoc.o
                0x0000a790                WDRV_WINC_AssocFindSTAInfo

.text.WDRV_WINC_BSSFindGetInfo%225
                0x0000a814       0x80
 .text.WDRV_WINC_BSSFindGetInfo
                0x0000a814       0x80 build/default/production/_ext/1706628858/wdrv_winc_bssfind.o
                0x0000a814                WDRV_WINC_BSSFindGetInfo

.text.CAN0_MessageTransmitFifo%226
                0x0000a894       0x80
 .text.CAN0_MessageTransmitFifo
                0x0000a894       0x80 build/default/production/_ext/60165182/plib_can0.o
                0x0000a894                CAN0_MessageTransmitFifo

.text.SERCOM1_USART_ISR_TX_Handler%227
                0x0000a914       0x80
 .text.SERCOM1_USART_ISR_TX_Handler
                0x0000a914       0x80 build/default/production/_ext/504274921/plib_sercom1_usart.o

.text.NTC_DRIVER_Tasks%228
                0x0000a994       0x80
 .text.NTC_DRIVER_Tasks
                0x0000a994       0x80 build/default/production/_ext/1360937237/ntc_driver.o
                0x0000a994                NTC_DRIVER_Tasks

.text.lDRV_I2C_ResourceUnlock%229
                0x0000aa14       0x7c
 .text.lDRV_I2C_ResourceUnlock
                0x0000aa14       0x7c build/default/production/_ext/158385033/drv_i2c.o

.text.CAN0_Initialize%230
                0x0000aa90       0x7c
 .text.CAN0_Initialize
                0x0000aa90       0x7c build/default/production/_ext/60165182/plib_can0.o
                0x0000aa90                CAN0_Initialize

.text.DMAC_InterruptHandler%231
                0x0000ab0c       0x7c
 .text.DMAC_InterruptHandler
                0x0000ab0c       0x7c build/default/production/_ext/1865161661/plib_dmac.o
                0x0000ab0c                DMAC_InterruptHandler

.text.__simple_search_fl%232
                0x0000ab88       0x7c
 .text.__simple_search_fl
                0x0000ab88       0x7c C:/Applications/Microchip/XC32/bin/bin/../../lib/gcc/pic32c/13.2.1/../../../../pic32c/lib/thumb/v6-m/nofp\liblmalloc-musl.a(lite_free.o)
                0x0000ab88                __simple_search_fl

.text.cmdCompleteCommandReq%233
                0x0000ac04       0x7a
 .text.cmdCompleteCommandReq
                0x0000ac04       0x7a build/default/production/_ext/1857064221/winc_cmds.o

.text.DRV_I2C_Close%234
                0x0000ac80       0x78
 .text.DRV_I2C_Close
                0x0000ac80       0x78 build/default/production/_ext/158385033/drv_i2c.o
                0x0000ac80                DRV_I2C_Close

.text.__pad%235
                0x0000acf8       0x78
 .text.__pad    0x0000acf8       0x78 C:/Applications/Microchip/XC32/bin/bin/../../lib/gcc/pic32c/13.2.1/../../../../pic32c/lib/thumb/v6-m/nofp\libc-musl.a(__printf_core.o)
                0x0000acf8                __pad

.text.__pop_ptr%236
                0x0000ad70       0x76
 .text.__pop_ptr
                0x0000ad70       0x76 C:/Applications/Microchip/XC32/bin/bin/../../lib/gcc/pic32c/13.2.1/../../../../pic32c/lib/thumb/v6-m/nofp\libc-musl.a(__pop_ptr.o)
                0x0000ad70                __pop_ptr
                0x0000ad70                __pop_ptr_needed

.text.__cvt_u%237
                0x0000ade6       0x76
 .text.__cvt_u  0x0000ade6       0x76 C:/Applications/Microchip/XC32/bin/bin/../../lib/gcc/pic32c/13.2.1/../../../../pic32c/lib/thumb/v6-m/nofp\libc-musl.a(__cvt_u.o)
                0x0000ade6                __cvt_u

.text.WINC_CmdSOCKC%238
                0x0000ae5c       0x74
 .text.WINC_CmdSOCKC
                0x0000ae5c       0x74 build/default/production/_ext/1857064221/winc_cmds.o
                0x0000ae5c                WINC_CmdSOCKC

.text.SERCOM1_USART_Write%239
                0x0000aed0       0x74
 .text.SERCOM1_USART_Write
                0x0000aed0       0x74 build/default/production/_ext/504274921/plib_sercom1_usart.o
                0x0000aed0                SERCOM1_USART_Write

.text.SYS_CONSOLE_Print%240
                0x0000af44       0x74
 .text.SYS_CONSOLE_Print
                0x0000af44       0x74 build/default/production/_ext/1832805299/sys_console.o
                0x0000af44                SYS_CONSOLE_Print

.text.BME690_DRIVER_Tasks%241
                0x0000afb8       0x74
 .text.BME690_DRIVER_Tasks
                0x0000afb8       0x74 build/default/production/_ext/1360937237/bme690_driver.o
                0x0000afb8                BME690_DRIVER_Tasks

.text.HDC302X_DRIVER_Tasks%242
                0x0000b02c       0x74
 .text.HDC302X_DRIVER_Tasks
                0x0000b02c       0x74 build/default/production/_ext/1360937237/hdc302x_driver.o
                0x0000b02c                HDC302X_DRIVER_Tasks

.text.SEN63C_DRIVER_Tasks%243
                0x0000b0a0       0x74
 .text.SEN63C_DRIVER_Tasks
                0x0000b0a0       0x74 build/default/production/_ext/1360937237/sen63c_driver.o
                0x0000b0a0                SEN63C_DRIVER_Tasks

.text.VCNL4200_DRIVER_Tasks%244
                0x0000b114       0x74
 .text.VCNL4200_DRIVER_Tasks
                0x0000b114       0x74 build/default/production/_ext/1360937237/vcnl4200_driver.o
                0x0000b114                VCNL4200_DRIVER_Tasks

.text.WS281X_DRIVER_Tasks%245
                0x0000b188       0x74
 .text.WS281X_DRIVER_Tasks
                0x0000b188       0x74 build/default/production/_ext/1360937237/ws281x_driver.o
                0x0000b188                WS281X_DRIVER_Tasks

.text.XM125_DRIVER_Tasks%246
                0x0000b1fc       0x74
 .text.XM125_DRIVER_Tasks
                0x0000b1fc       0x74 build/default/production/_ext/1360937237/xm125_driver.o
                0x0000b1fc                XM125_DRIVER_Tasks

.text.WINC_CmdSOCKRD%247
                0x0000b270       0x70
 .text.WINC_CmdSOCKRD
                0x0000b270       0x70 build/default/production/_ext/1857064221/winc_cmds.o
                0x0000b270                WINC_CmdSOCKRD

.text.WDRV_WINC_InfoDeviceRefresh%248
                0x0000b2e0       0x70
 .text.WDRV_WINC_InfoDeviceRefresh
                0x0000b2e0       0x70 build/default/production/_ext/1706628858/wdrv_winc.o
                0x0000b2e0                WDRV_WINC_InfoDeviceRefresh

.text.SERCOM1_USART_ISR_RX_Handler%249
                0x0000b350       0x70
 .text.SERCOM1_USART_ISR_RX_Handler
                0x0000b350       0x70 build/default/production/_ext/504274921/plib_sercom1_usart.o

.text.__fmt_o%250
                0x0000b3c0       0x6e
 .text.__fmt_o  0x0000b3c0       0x6e C:/Applications/Microchip/XC32/bin/bin/../../lib/gcc/pic32c/13.2.1/../../../../pic32c/lib/thumb/v6-m/nofp\libc-musl.a(__fmt_o.o)
                0x0000b3c0                __fmt_o
                0x0000b3c0                __fmt_o_needed

.text.DRV_I2C_Initialize%251
                0x0000b430       0x6c
 .text.DRV_I2C_Initialize
                0x0000b430       0x6c build/default/production/_ext/158385033/drv_i2c.o
                0x0000b430                DRV_I2C_Initialize

.text.SYS_TIME_Initialize%252
                0x0000b49c       0x6c
 .text.SYS_TIME_Initialize
                0x0000b49c       0x6c build/default/production/_ext/101884895/sys_time.o
                0x0000b49c                SYS_TIME_Initialize

.text.CAN0_DRIVER_Get_Received_Data%253
                0x0000b508       0x6c
 .text.CAN0_DRIVER_Get_Received_Data
                0x0000b508       0x6c build/default/production/_ext/1360937237/can0_driver.o
                0x0000b508                CAN0_DRIVER_Get_Received_Data

.rodata.BMP585_DRIVER_Tasks%254
                0x0000b574       0x68
 .rodata.BMP585_DRIVER_Tasks
                0x0000b574       0x68 build/default/production/_ext/1360937237/bmp585_driver.o

.text.lDRV_USART_ReadSubmit%255
                0x0000b5dc       0x66
 .text.lDRV_USART_ReadSubmit
                0x0000b5dc       0x66 build/default/production/_ext/869808652/drv_usart.o

.text.cmdBuildCommandReq%256
                0x0000b642       0x66
 .text.cmdBuildCommandReq
                0x0000b642       0x66 build/default/production/_ext/1857064221/winc_cmds.o

.text.WINC_CmdReqInit%257
                0x0000b6a8       0x66
 .text.WINC_CmdReqInit
                0x0000b6a8       0x66 build/default/production/_ext/1857064221/winc_cmd_req.o
                0x0000b6a8                WINC_CmdReqInit

.text.vsnprintf%258
                0x0000b710       0x64
 .text.vsnprintf
                0x0000b710       0x64 C:/Applications/Microchip/XC32/bin/bin/../../lib/gcc/pic32c/13.2.1/../../../../pic32c/lib/thumb/v6-m/nofp\libc-musl.a(vsnprintf.o)
                0x0000b710                vsnprintf

.text.__aeabi_d2f%259
                0x0000b774       0x62
 .text.__aeabi_d2f
                0x0000b774       0x62 C:/Applications/Microchip/XC32/bin/bin/../../lib/gcc/pic32c/13.2.1/../../../../pic32c/lib/thumb/v6-m/nofp\libm-fast-emfloat.a(__aeabi_d2f.o)
                0x0000b774                __aeabi_d2f

.text.lDRV_USART_WriteSubmit%260
                0x0000b7d6       0x60
 .text.lDRV_USART_WriteSubmit
                0x0000b7d6       0x60 build/default/production/_ext/869808652/drv_usart.o

.text.EIC_InterruptHandler%261
                0x0000b838       0x60
 .text.EIC_InterruptHandler
                0x0000b838       0x60 build/default/production/_ext/60167341/plib_eic.o
                0x0000b838                EIC_InterruptHandler

.text.RTC_RTCCTimeGet%262
                0x0000b898       0x60
 .text.RTC_RTCCTimeGet
                0x0000b898       0x60 build/default/production/_ext/60180175/plib_rtc_clock.o
                0x0000b898                RTC_RTCCTimeGet

.text.SERCOM2_I2C_Initialize%263
                0x0000b8f8       0x60
 .text.SERCOM2_I2C_Initialize
                0x0000b8f8       0x60 build/default/production/_ext/508257091/plib_sercom2_i2c_master.o
                0x0000b8f8                SERCOM2_I2C_Initialize

.text.__strchrnul%264
                0x0000b958       0x60
 .text.__strchrnul
                0x0000b958       0x60 C:/Applications/Microchip/XC32/bin/bin/../../lib/gcc/pic32c/13.2.1/../../../../pic32c/lib/thumb/v6-m/nofp\libc-size-musl.a(strchrnul.o)
                0x0000b958                strchrnul
                0x0000b958                __strchrnul

.text.SUPC_Initialize%265
                0x0000b9b8       0x5c
 .text.SUPC_Initialize
                0x0000b9b8       0x5c build/default/production/_ext/1865616679/plib_supc.o
                0x0000b9b8                SUPC_Initialize

.text.SYS_CONSOLE_Initialize%266
                0x0000ba14       0x5c
 .text.SYS_CONSOLE_Initialize
                0x0000ba14       0x5c build/default/production/_ext/1832805299/sys_console.o
                0x0000ba14                SYS_CONSOLE_Initialize

.text.SYS_Tasks%267
                0x0000ba70       0x5c
 .text.SYS_Tasks
                0x0000ba70       0x5c build/default/production/_ext/1171490990/tasks.o
                0x0000ba70                SYS_Tasks

.text.CAN0_DRIVER_Set_Message_Content%268
                0x0000bacc       0x5c
 .text.CAN0_DRIVER_Set_Message_Content
                0x0000bacc       0x5c build/default/production/_ext/1360937237/can0_driver.o
                0x0000bacc                CAN0_DRIVER_Set_Message_Content

.text.CONSOLE_DRIVER_Tasks%269
                0x0000bb28       0x5c
 .text.CONSOLE_DRIVER_Tasks
                0x0000bb28       0x5c build/default/production/_ext/1360937237/console_driver.o
                0x0000bb28                CONSOLE_DRIVER_Tasks

.text.__simple_malloc%270
                0x0000bb84       0x5c
 .text.__simple_malloc
                0x0000bb84       0x5c C:/Applications/Microchip/XC32/bin/bin/../../lib/gcc/pic32c/13.2.1/../../../../pic32c/lib/thumb/v6-m/nofp\liblmalloc-musl.a(lite_malloc.o)
                0x0000bb84                __malloc0
                0x0000bb84                __simple_malloc
                0x0000bb84                malloc

.text.__libc_start_init%271
                0x0000bbe0       0x5c
 .text.__libc_start_init
                0x0000bbe0       0x5c C:/Applications/Microchip/XC32/bin/bin/../../lib/gcc/pic32c/13.2.1/../../../../pic32c/lib/thumb/v6-m/nofp\libc-musl.a(__libc_start_main.o)
                0x0000bbe0                __libc_init_array

.text.WDRV_WINC_NETIFProcessAEC%272
                0x0000bc3c       0x5a
 .text.WDRV_WINC_NETIFProcessAEC
                0x0000bc3c       0x5a build/default/production/_ext/1706628858/wdrv_winc_netif.o
                0x0000bc3c                WDRV_WINC_NETIFProcessAEC

.text.lDRV_I2C_PLibCallbackHandler%273
                0x0000bc98       0x58
 .text.lDRV_I2C_PLibCallbackHandler
                0x0000bc98       0x58 build/default/production/_ext/158385033/drv_i2c.o

.text.DRV_I2C_TransferStatusGet%274
                0x0000bcf0       0x58
 .text.DRV_I2C_TransferStatusGet
                0x0000bcf0       0x58 build/default/production/_ext/158385033/drv_i2c.o
                0x0000bcf0                DRV_I2C_TransferStatusGet

.text.WDRV_WINC_SPIOpen%275
                0x0000bd48       0x58
 .text.WDRV_WINC_SPIOpen
                0x0000bd48       0x58 build/default/production/_ext/622324608/wdrv_winc_spi.o
                0x0000bd48                WDRV_WINC_SPIOpen

.text.SERCOM1_USART_InterruptHandler%276
                0x0000bda0       0x58
 .text.SERCOM1_USART_InterruptHandler
                0x0000bda0       0x58 build/default/production/_ext/504274921/plib_sercom1_usart.o
                0x0000bda0                SERCOM1_USART_InterruptHandler

.text.SERCOM0_USART_InterruptHandler%277
                0x0000bdf8       0x58
 .text.SERCOM0_USART_InterruptHandler
                0x0000bdf8       0x58 build/default/production/_ext/504274921/plib_sercom0_usart.o
                0x0000bdf8                SERCOM0_USART_InterruptHandler

.text.SYS_TIME_CallbackRegisterMS%278
                0x0000be50       0x58
 .text.SYS_TIME_CallbackRegisterMS
                0x0000be50       0x58 build/default/production/_ext/101884895/sys_time.o
                0x0000be50                SYS_TIME_CallbackRegisterMS

.text.RTC_DRIVER_Tasks%279
                0x0000bea8       0x58
 .text.RTC_DRIVER_Tasks
                0x0000bea8       0x58 build/default/production/_ext/1360937237/rtc_driver.o
                0x0000bea8                RTC_DRIVER_Tasks

.text.devUnpackResponseElements%280
                0x0000bf00       0x56
 .text.devUnpackResponseElements
                0x0000bf00       0x56 build/default/production/_ext/1857064221/winc_dev.o

.text.__fmt_u%281
                0x0000bf56       0x56
 .text.__fmt_u  0x0000bf56       0x56 C:/Applications/Microchip/XC32/bin/bin/../../lib/gcc/pic32c/13.2.1/../../../../pic32c/lib/thumb/v6-m/nofp\libc-musl.a(__fmt_u.o)
                0x0000bf56                __fmt_u_needed
                0x0000bf56                __fmt_u

.text.lDRV_SPI_TX_DMA_CallbackHandler%282
                0x0000bfac       0x54
 .text.lDRV_SPI_TX_DMA_CallbackHandler
                0x0000bfac       0x54 build/default/production/_ext/2070931557/drv_spi.o

.text.WINC_SDIOCmd59%283
                0x0000c000       0x54
 .text.WINC_SDIOCmd59
                0x0000c000       0x54 build/default/production/_ext/1857064221/winc_sdio_drv.o
                0x0000c000                WINC_SDIOCmd59

.text.WDRV_WINC_PPSProcessAEC%284
                0x0000c054       0x54
 .text.WDRV_WINC_PPSProcessAEC
                0x0000c054       0x54 build/default/production/_ext/1706628858/wdrv_winc_pps.o
                0x0000c054                WDRV_WINC_PPSProcessAEC

.text.ADC0_Initialize%285
                0x0000c0a8       0x54
 .text.ADC0_Initialize
                0x0000c0a8       0x54 build/default/production/_ext/60163342/plib_adc0.o
                0x0000c0a8                ADC0_Initialize

.text.SERCOM2_I2C_InitiateTransfer%286
                0x0000c0fc       0x54
 .text.SERCOM2_I2C_InitiateTransfer
                0x0000c0fc       0x54 build/default/production/_ext/508257091/plib_sercom2_i2c_master.o

.text.SERCOM1_USART_Initialize%287
                0x0000c150       0x54
 .text.SERCOM1_USART_Initialize
                0x0000c150       0x54 build/default/production/_ext/504274921/plib_sercom1_usart.o
                0x0000c150                SERCOM1_USART_Initialize

.text.SYS_TIME_DelayMS%288
                0x0000c1a4       0x54
 .text.SYS_TIME_DelayMS
                0x0000c1a4       0x54 build/default/production/_ext/101884895/sys_time.o
                0x0000c1a4                SYS_TIME_DelayMS

.text.MCP9808_DRIVER_Calculation_Temperature%289
                0x0000c1f8       0x54
 .text.MCP9808_DRIVER_Calculation_Temperature
                0x0000c1f8       0x54 build/default/production/_ext/1360937237/mcp9808_driver.o
                0x0000c1f8                MCP9808_DRIVER_Calculation_Temperature

.text.STCC4_DRIVER_Store_Product_ID%290
                0x0000c24c       0x54
 .text.STCC4_DRIVER_Store_Product_ID
                0x0000c24c       0x54 build/default/production/_ext/1360937237/stcc4_driver.o
                0x0000c24c                STCC4_DRIVER_Store_Product_ID

.text.lDRV_I2C_DriverHandleValidate%291
                0x0000c2a0       0x50
 .text.lDRV_I2C_DriverHandleValidate
                0x0000c2a0       0x50 build/default/production/_ext/158385033/drv_i2c.o

.text.lDRV_SPI_DriverHandleValidate%292
                0x0000c2f0       0x50
 .text.lDRV_SPI_DriverHandleValidate
                0x0000c2f0       0x50 build/default/production/_ext/2070931557/drv_spi.o

.text.DRV_USART_BufferStatusGet%293
                0x0000c340       0x50
 .text.DRV_USART_BufferStatusGet
                0x0000c340       0x50 build/default/production/_ext/869808652/drv_usart.o
                0x0000c340                DRV_USART_BufferStatusGet

.text.cmd93c2c531%294
                0x0000c390       0x50
 .text.cmd93c2c531
                0x0000c390       0x50 build/default/production/_ext/1857064221/winc_cmds.o

.rodata.cmd52InitSeq1%295
                0x0000c3e0       0x50
 .rodata.cmd52InitSeq1
                0x0000c3e0       0x50 build/default/production/_ext/1857064221/winc_sdio_drv.o

.text.SERCOM0_USART_ISR_ERR_Handler%296
                0x0000c430       0x50
 .text.SERCOM0_USART_ISR_ERR_Handler
                0x0000c430       0x50 build/default/production/_ext/504274921/plib_sercom0_usart.o

.rodata.MCP9808_DRIVER_Tasks%297
                0x0000c480       0x50
 .rodata.MCP9808_DRIVER_Tasks
                0x0000c480       0x50 build/default/production/_ext/1360937237/mcp9808_driver.o

.text.__fmt_s%298
                0x0000c4d0       0x50
 .text.__fmt_s  0x0000c4d0       0x50 C:/Applications/Microchip/XC32/bin/bin/../../lib/gcc/pic32c/13.2.1/../../../../pic32c/lib/thumb/v6-m/nofp\libc-musl.a(__fmt_s.o)
                0x0000c4d0                __fmt_s
                0x0000c4d0                __fmt_0_needed
                0x0000c4d0                __fmt_s_needed

.text._sbrk%299
                0x0000c520       0x50
 .text._sbrk    0x0000c520       0x50 C:/Applications/Microchip/XC32/bin/bin/../../lib/gcc/pic32c/13.2.1/../../../../pic32c/lib/thumb/v6-m/nofp\libpic32c.a(sbrk.o)
                0x0000c520                _sbrk

.text.WINC_CmdARB%300
                0x0000c570       0x4e
 .text.WINC_CmdARB
                0x0000c570       0x4e build/default/production/_ext/1857064221/winc_cmds.o
                0x0000c570                WINC_CmdARB

.text.WDRV_WINC_TIMEProcessAEC%301
                0x0000c5be       0x4e
 .text.WDRV_WINC_TIMEProcessAEC
                0x0000c5be       0x4e build/default/production/_ext/1706628858/wdrv_winc_systime.o
                0x0000c5be                WDRV_WINC_TIMEProcessAEC

.text.lDRV_USART_DriverHandleValidate%302
                0x0000c60c       0x4c
 .text.lDRV_USART_DriverHandleValidate
                0x0000c60c       0x4c build/default/production/_ext/869808652/drv_usart.o

.text.slabFree%303
                0x0000c658       0x4c
 .text.slabFree
                0x0000c658       0x4c build/default/production/_ext/1857064221/winc_socket.o

.text.WDRV_WINC_DevTransmitCmdReq%304
                0x0000c6a4       0x4c
 .text.WDRV_WINC_DevTransmitCmdReq
                0x0000c6a4       0x4c build/default/production/_ext/1706628858/wdrv_winc.o
                0x0000c6a4                WDRV_WINC_DevTransmitCmdReq

.text.SYS_TIME_RemoveFromList%305
                0x0000c6f0       0x4c
 .text.SYS_TIME_RemoveFromList
                0x0000c6f0       0x4c build/default/production/_ext/101884895/sys_time.o

.text.SYS_TIME_TimerStart%306
                0x0000c73c       0x4a
 .text.SYS_TIME_TimerStart
                0x0000c73c       0x4a build/default/production/_ext/101884895/sys_time.o
                0x0000c73c                SYS_TIME_TimerStart

.text%307       0x0000c788       0x48
 .text          0x0000c788       0x48 C:/Applications/Microchip/XC32/bin/bin/../../lib/gcc/pic32c/13.2.1/thumb/v6-m/nofp/crtbegin.o

.text.devFlushPendingCmdReqQueue%308
                0x0000c7d0       0x48
 .text.devFlushPendingCmdReqQueue
                0x0000c7d0       0x48 build/default/production/_ext/1857064221/winc_dev.o

.text.WINC_DevUnpackElements%309
                0x0000c818       0x48
 .text.WINC_DevUnpackElements
                0x0000c818       0x48 build/default/production/_ext/1857064221/winc_dev.o
                0x0000c818                WINC_DevUnpackElements

.text.WINC_SDIOCmd0%310
                0x0000c860       0x48
 .text.WINC_SDIOCmd0
                0x0000c860       0x48 build/default/production/_ext/1857064221/winc_sdio_drv.o
                0x0000c860                WINC_SDIOCmd0

.text.TCC0_PWMInitialize%311
                0x0000c8a8       0x48
 .text.TCC0_PWMInitialize
                0x0000c8a8       0x48 build/default/production/_ext/60181570/plib_tcc0.o
                0x0000c8a8                TCC0_PWMInitialize

.text.HDC302X_DRIVER_Print_Data%312
                0x0000c8f0       0x48
 .text.HDC302X_DRIVER_Print_Data
                0x0000c8f0       0x48 build/default/production/_ext/1360937237/hdc302x_driver.o
                0x0000c8f0                HDC302X_DRIVER_Print_Data

.text.SHT4X_DRIVER_Calculation_Temperature%313
                0x0000c938       0x48
 .text.SHT4X_DRIVER_Calculation_Temperature
                0x0000c938       0x48 build/default/production/_ext/1360937237/sht4x_driver.o
                0x0000c938                SHT4X_DRIVER_Calculation_Temperature

.text.STCC4_DRIVER_Calculation_Temperature%314
                0x0000c980       0x48
 .text.STCC4_DRIVER_Calculation_Temperature
                0x0000c980       0x48 build/default/production/_ext/1360937237/stcc4_driver.o
                0x0000c980                STCC4_DRIVER_Calculation_Temperature

.text.lDRV_I2C_ClientCallback%315
                0x0000c9c8       0x46
 .text.lDRV_I2C_ClientCallback
                0x0000c9c8       0x46 build/default/production/_ext/158385033/drv_i2c.o

.text.DRV_SPI_TransferStatusGet%316
                0x0000ca10       0x44
 .text.DRV_SPI_TransferStatusGet
                0x0000ca10       0x44 build/default/production/_ext/2070931557/drv_spi.o
                0x0000ca10                DRV_SPI_TransferStatusGet

.text.lDRV_USART_RemoveClientTransfersFromList%317
                0x0000ca54       0x44
 .text.lDRV_USART_RemoveClientTransfersFromList
                0x0000ca54       0x44 build/default/production/_ext/869808652/drv_usart.o

.text.dnsFreeRequest%318
                0x0000ca98       0x44
 .text.dnsFreeRequest
                0x0000ca98       0x44 build/default/production/_ext/1857064221/winc_socket.o

.text.wincProcessAEC%319
                0x0000cadc       0x44
 .text.wincProcessAEC
                0x0000cadc       0x44 build/default/production/_ext/1706628858/wdrv_winc.o

.text.RTC_Initialize%320
                0x0000cb20       0x44
 .text.RTC_Initialize
                0x0000cb20       0x44 build/default/production/_ext/60180175/plib_rtc_clock.o
                0x0000cb20                RTC_Initialize

.text.SERCOM2_I2C_TransferAbort%321
                0x0000cb64       0x44
 .text.SERCOM2_I2C_TransferAbort
                0x0000cb64       0x44 build/default/production/_ext/508257091/plib_sercom2_i2c_master.o
                0x0000cb64                SERCOM2_I2C_TransferAbort

.text.SERCOM1_USART_Read%322
                0x0000cba8       0x44
 .text.SERCOM1_USART_Read
                0x0000cba8       0x44 build/default/production/_ext/504274921/plib_sercom1_usart.o
                0x0000cba8                SERCOM1_USART_Read

.text.SYSTICK_DelayMs%323
                0x0000cbec       0x44
 .text.SYSTICK_DelayMs
                0x0000cbec       0x44 build/default/production/_ext/1827571544/plib_systick.o
                0x0000cbec                SYSTICK_DelayMs

.rodata.STCC4_DRIVER_Tasks%324
                0x0000cc30       0x44
 .rodata.STCC4_DRIVER_Tasks
                0x0000cc30       0x44 build/default/production/_ext/1360937237/stcc4_driver.o

.text.atoi%325  0x0000cc74       0x44
 .text.atoi     0x0000cc74       0x44 C:/Applications/Microchip/XC32/bin/bin/../../lib/gcc/pic32c/13.2.1/../../../../pic32c/lib/thumb/v6-m/nofp\libc-musl.a(atoi.o)
                0x0000cc74                atoi

.text.__aeabi_dcmple%326
                0x0000ccb8       0x44
 .text.__aeabi_dcmple
                0x0000ccb8       0x44 C:/Applications/Microchip/XC32/bin/bin/../../lib/gcc/pic32c/13.2.1/../../../../pic32c/lib/thumb/v6-m/nofp\libm-fast-emfloat.a(__aeabi_dcmple.o)
                0x0000ccb8                __aeabi_dcmple

.text.__aeabi_f2d%327
                0x0000ccfc       0x44
 .text.__aeabi_f2d
                0x0000ccfc       0x44 C:/Applications/Microchip/XC32/bin/bin/../../lib/gcc/pic32c/13.2.1/../../../../pic32c/lib/thumb/v6-m/nofp\libm-fast-emfloat.a(__aeabi_f2d.o)
                0x0000ccfc                __aeabi_f2d

.text%328       0x0000cd40       0x44
 .text          0x0000cd40       0x44 C:/Applications/Microchip/XC32/bin/bin/../../lib/gcc/pic32c/13.2.1/thumb/v6-m/nofp\libgcc.a(_muldi3.o)
                0x0000cd40                __muldi3
                0x0000cd40                __aeabi_lmul

.text.cmd977efca2%329
                0x0000cd84       0x42
 .text.cmd977efca2
                0x0000cd84       0x42 build/default/production/_ext/1857064221/winc_cmds.o

.text.WINC_CmdDFUADR%330
                0x0000cdc6       0x42
 .text.WINC_CmdDFUADR
                0x0000cdc6       0x42 build/default/production/_ext/1857064221/winc_cmds.o
                0x0000cdc6                WINC_CmdDFUADR

.text.WDRV_WINC_CmdReqInit%331
                0x0000ce08       0x42
 .text.WDRV_WINC_CmdReqInit
                0x0000ce08       0x42 build/default/production/_ext/1706628858/wdrv_winc.o
                0x0000ce08                WDRV_WINC_CmdReqInit

.text.SERCOM1_USART_ISR_ERR_Handler%332
                0x0000ce4c       0x40
 .text.SERCOM1_USART_ISR_ERR_Handler
                0x0000ce4c       0x40 build/default/production/_ext/504274921/plib_sercom1_usart.o

.text.SYS_TIME_TimerDestroy%333
                0x0000ce8c       0x40
 .text.SYS_TIME_TimerDestroy
                0x0000ce8c       0x40 build/default/production/_ext/101884895/sys_time.o
                0x0000ce8c                SYS_TIME_TimerDestroy

.text.SYS_TIME_TimerStop%334
                0x0000cecc       0x40
 .text.SYS_TIME_TimerStop
                0x0000cecc       0x40 build/default/production/_ext/101884895/sys_time.o
                0x0000cecc                SYS_TIME_TimerStop

.text.__simple_free%335
                0x0000cf0c       0x40
 .text.__simple_free
                0x0000cf0c       0x40 C:/Applications/Microchip/XC32/bin/bin/../../lib/gcc/pic32c/13.2.1/../../../../pic32c/lib/thumb/v6-m/nofp\liblmalloc-musl.a(lite_free.o)
                0x0000cf0c                __simple_free
                0x0000cf0c                free
                0x0000cf0c                __free0

.text%336       0x0000cf4c       0x40
 .text          0x0000cf4c       0x40 C:/Applications/Microchip/XC32/bin/bin/../../lib/gcc/pic32c/13.2.1/thumb/v6-m/nofp\libgcc.a(_aeabi_uldivmod.o)
                0x0000cf4c                __aeabi_uldivmod

.text.__aeabi_dcmpgt%337
                0x0000cf8c       0x3e
 .text.__aeabi_dcmpgt
                0x0000cf8c       0x3e C:/Applications/Microchip/XC32/bin/bin/../../lib/gcc/pic32c/13.2.1/../../../../pic32c/lib/thumb/v6-m/nofp\libm-fast-emfloat.a(__aeabi_dcmpgt.o)
                0x0000cf8c                __aeabi_dcmpgt

.text.__aeabi_dcmplt%338
                0x0000cfca       0x3e
 .text.__aeabi_dcmplt
                0x0000cfca       0x3e C:/Applications/Microchip/XC32/bin/bin/../../lib/gcc/pic32c/13.2.1/../../../../pic32c/lib/thumb/v6-m/nofp\libm-fast-emfloat.a(__aeabi_dcmplt.o)
                0x0000cfca                __aeabi_dcmplt

.text.__aeabi_f2iz%339
                0x0000d008       0x3e
 .text.__aeabi_f2iz
                0x0000d008       0x3e C:/Applications/Microchip/XC32/bin/bin/../../lib/gcc/pic32c/13.2.1/../../../../pic32c/lib/thumb/v6-m/nofp\libm-fast-emfloat.a(__aeabi_f2iz.o)
                0x0000d008                __aeabi_f2iz

.text.WDRV_WINC_SPIInitialize%340
                0x0000d048       0x3c
 .text.WDRV_WINC_SPIInitialize
                0x0000d048       0x3c build/default/production/_ext/622324608/wdrv_winc_spi.o
                0x0000d048                WDRV_WINC_SPIInitialize

.text.WINC_DevInit%341
                0x0000d084       0x3c
 .text.WINC_DevInit
                0x0000d084       0x3c build/default/production/_ext/1857064221/winc_dev.o
                0x0000d084                WINC_DevInit

.text.sockDestroySocket%342
                0x0000d0c0       0x3c
 .text.sockDestroySocket
                0x0000d0c0       0x3c build/default/production/_ext/1857064221/winc_socket.o

.text.DMAC_ChannelSettingsSet%343
                0x0000d0fc       0x3c
 .text.DMAC_ChannelSettingsSet
                0x0000d0fc       0x3c build/default/production/_ext/1865161661/plib_dmac.o
                0x0000d0fc                DMAC_ChannelSettingsSet

.text.SERCOM2_I2C_Read%344
                0x0000d138       0x3c
 .text.SERCOM2_I2C_Read
                0x0000d138       0x3c build/default/production/_ext/508257091/plib_sercom2_i2c_master.o
                0x0000d138                SERCOM2_I2C_Read

.text.SERCOM2_I2C_WriteRead%345
                0x0000d174       0x3c
 .text.SERCOM2_I2C_WriteRead
                0x0000d174       0x3c build/default/production/_ext/508257091/plib_sercom2_i2c_master.o
                0x0000d174                SERCOM2_I2C_WriteRead

.text.SERCOM3_SPI_Initialize%346
                0x0000d1b0       0x3c
 .text.SERCOM3_SPI_Initialize
                0x0000d1b0       0x3c build/default/production/_ext/17022449/plib_sercom3_spi_master.o
                0x0000d1b0                SERCOM3_SPI_Initialize

.text.SYS_INT_SourceDisable%347
                0x0000d1ec       0x3c
 .text.SYS_INT_SourceDisable
                0x0000d1ec       0x3c build/default/production/_ext/1881668453/sys_int.o
                0x0000d1ec                SYS_INT_SourceDisable

.text.SYS_TIME_GetTimerObject%348
                0x0000d228       0x3c
 .text.SYS_TIME_GetTimerObject
                0x0000d228       0x3c build/default/production/_ext/101884895/sys_time.o

.rodata.drvUsart0InitData%349
                0x0000d264       0x3c
 .rodata.drvUsart0InitData
                0x0000d264       0x3c build/default/production/_ext/1171490990/initialization.o

.rodata.AD9954_DRIVER_Tasks%350
                0x0000d2a0       0x3c
 .rodata.AD9954_DRIVER_Tasks
                0x0000d2a0       0x3c build/default/production/_ext/1360937237/ad9954_driver.o

.text.FCM360W_DRIVER_Get_Module_Response_Status%351
                0x0000d2dc       0x3c
 .text.FCM360W_DRIVER_Get_Module_Response_Status
                0x0000d2dc       0x3c build/default/production/_ext/1360937237/fcm360w_driver.o
                0x0000d2dc                FCM360W_DRIVER_Get_Module_Response_Status

.text.strstr%352
                0x0000d318       0x3c
 .text.strstr   0x0000d318       0x3c C:/Applications/Microchip/XC32/bin/bin/../../lib/gcc/pic32c/13.2.1/../../../../pic32c/lib/thumb/v6-m/nofp\libc-size-musl.a(strstr.o)
                0x0000d318                strstr

.text%353       0x0000d354       0x3c
 .text          0x0000d354       0x3c C:/Applications/Microchip/XC32/bin/bin/../../lib/gcc/pic32c/13.2.1/thumb/v6-m/nofp\libgcc.a(_clzsi2.o)
                0x0000d354                __clzsi2

.text.lDRV_I2C_RemoveClientTransfersFromList%354
                0x0000d390       0x3a
 .text.lDRV_I2C_RemoveClientTransfersFromList
                0x0000d390       0x3a build/default/production/_ext/158385033/drv_i2c.o

.text.cmdMultiValueBuilder%355
                0x0000d3ca       0x3a
 .text.cmdMultiValueBuilder
                0x0000d3ca       0x3a build/default/production/_ext/1857064221/winc_cmds.o

.text.WINC_DevBusStateSet%356
                0x0000d404       0x3a
 .text.WINC_DevBusStateSet
                0x0000d404       0x3a build/default/production/_ext/1857064221/winc_dev.o
                0x0000d404                WINC_DevBusStateSet

.text.sockFindFreeSocket%357
                0x0000d440       0x38
 .text.sockFindFreeSocket
                0x0000d440       0x38 build/default/production/_ext/1857064221/winc_socket.o

.rodata.wincAecCallbackTable%358
                0x0000d478       0x38
 .rodata.wincAecCallbackTable
                0x0000d478       0x38 build/default/production/_ext/1706628858/wdrv_winc.o

.text.SERCOM2_I2C_Write%359
                0x0000d4b0       0x38
 .text.SERCOM2_I2C_Write
                0x0000d4b0       0x38 build/default/production/_ext/508257091/plib_sercom2_i2c_master.o
                0x0000d4b0                SERCOM2_I2C_Write

.text.SERCOM4_SPI_Initialize%360
                0x0000d4e8       0x38
 .text.SERCOM4_SPI_Initialize
                0x0000d4e8       0x38 build/default/production/_ext/17022449/plib_sercom4_spi_master.o
                0x0000d4e8                SERCOM4_SPI_Initialize

.text.Console_UART_Read%361
                0x0000d520       0x38
 .text.Console_UART_Read
                0x0000d520       0x38 build/default/production/_ext/1832805299/sys_console_uart.o
                0x0000d520                Console_UART_Read

.text.Console_UART_Write%362
                0x0000d558       0x38
 .text.Console_UART_Write
                0x0000d558       0x38 build/default/production/_ext/1832805299/sys_console_uart.o
                0x0000d558                Console_UART_Write

.text.SYS_TIME_ResourceLock%363
                0x0000d590       0x38
 .text.SYS_TIME_ResourceLock
                0x0000d590       0x38 build/default/production/_ext/101884895/sys_time.o

.text.AD9954_DRIVER_Set_NLSCW_Register%364
                0x0000d5c8       0x38
 .text.AD9954_DRIVER_Set_NLSCW_Register
                0x0000d5c8       0x38 build/default/production/_ext/1360937237/ad9954_driver.o
                0x0000d5c8                AD9954_DRIVER_Set_NLSCW_Register

.text.RTC_DRIVER_Print_Data%365
                0x0000d600       0x38
 .text.RTC_DRIVER_Print_Data
                0x0000d600       0x38 build/default/production/_ext/1360937237/rtc_driver.o
                0x0000d600                RTC_DRIVER_Print_Data

.rodata.SHT4X_DRIVER_Tasks%366
                0x0000d638       0x38
 .rodata.SHT4X_DRIVER_Tasks
                0x0000d638       0x38 build/default/production/_ext/1360937237/sht4x_driver.o

.text.STCC4_DRIVER_Get_Measure_Values%367
                0x0000d670       0x38
 .text.STCC4_DRIVER_Get_Measure_Values
                0x0000d670       0x38 build/default/production/_ext/1360937237/stcc4_driver.o
                0x0000d670                STCC4_DRIVER_Get_Measure_Values

.text.STCC4_DRIVER_Store_Measured_Values%368
                0x0000d6a8       0x38
 .text.STCC4_DRIVER_Store_Measured_Values
                0x0000d6a8       0x38 build/default/production/_ext/1360937237/stcc4_driver.o
                0x0000d6a8                STCC4_DRIVER_Store_Measured_Values

.text.STCC4_DRIVER_Get_Product_ID%369
                0x0000d6e0       0x38
 .text.STCC4_DRIVER_Get_Product_ID
                0x0000d6e0       0x38 build/default/production/_ext/1360937237/stcc4_driver.o
                0x0000d6e0                STCC4_DRIVER_Get_Product_ID

.text.__pic32c_data_initialization%370
                0x0000d718       0x38
 .text.__pic32c_data_initialization
                0x0000d718       0x38 C:/Applications/Microchip/XC32/bin/bin/../../lib/gcc/pic32c/13.2.1/../../../../pic32c/lib/thumb/v6-m/nofp\libpic32c.a(data_init.o)
                0x0000d718                __pic32c_data_initialization

.text.__pop_float%371
                0x0000d750       0x36
 .text.__pop_float
                0x0000d750       0x36 C:/Applications/Microchip/XC32/bin/bin/../../lib/gcc/pic32c/13.2.1/../../../../pic32c/lib/thumb/v6-m/nofp\libc-musl.a(__pop_float.o)
                0x0000d750                __pop_float_needed
                0x0000d750                __pop_float

.text.SYS_CONSOLE_Message%372
                0x0000d788       0x34
 .text.SYS_CONSOLE_Message
                0x0000d788       0x34 build/default/production/_ext/1832805299/sys_console.o
                0x0000d788                SYS_CONSOLE_Message

.rodata.drvSPI0InitData%373
                0x0000d7bc       0x34
 .rodata.drvSPI0InitData
                0x0000d7bc       0x34 build/default/production/_ext/1171490990/initialization.o

.rodata.CAN0_DRIVER_Tasks%374
                0x0000d7f0       0x34
 .rodata.CAN0_DRIVER_Tasks
                0x0000d7f0       0x34 build/default/production/_ext/1360937237/can0_driver.o

.text.FCM360W_DRIVER_Write_Command%375
                0x0000d824       0x34
 .text.FCM360W_DRIVER_Write_Command
                0x0000d824       0x34 build/default/production/_ext/1360937237/fcm360w_driver.o
                0x0000d824                FCM360W_DRIVER_Write_Command

.rodata.FCM360W_DRIVER_Tasks%376
                0x0000d858       0x34
 .rodata.FCM360W_DRIVER_Tasks
                0x0000d858       0x34 build/default/production/_ext/1360937237/fcm360w_driver.o

.text.__fmt_state%377
                0x0000d88c       0x34
 .text.__fmt_state
                0x0000d88c       0x34 C:/Applications/Microchip/XC32/bin/bin/../../lib/gcc/pic32c/13.2.1/../../../../pic32c/lib/thumb/v6-m/nofp\libc-musl.a(__printf_core.o)
                0x0000d88c                __fmt_state

.text.__aeabi_d2iz%378
                0x0000d8c0       0x34
 .text.__aeabi_d2iz
                0x0000d8c0       0x34 C:/Applications/Microchip/XC32/bin/bin/../../lib/gcc/pic32c/13.2.1/../../../../pic32c/lib/thumb/v6-m/nofp\libm-fast-emfloat.a(__aeabi_d2iz.o)
                0x0000d8c0                __aeabi_d2iz

.text._sbrk_init%379
                0x0000d8f4       0x34
 .text._sbrk_init
                0x0000d8f4       0x34 C:/Applications/Microchip/XC32/bin/bin/../../lib/gcc/pic32c/13.2.1/../../../../pic32c/lib/thumb/v6-m/nofp\libpic32c.a(sbrk.o)

.text.WINC_DevAECCallbackRegister%380
                0x0000d928       0x32
 .text.WINC_DevAECCallbackRegister
                0x0000d928       0x32 build/default/production/_ext/1857064221/winc_dev.o
                0x0000d928                WINC_DevAECCallbackRegister

.rodata.sockDevProcessAEC%381
                0x0000d95c       0x30
 .rodata.sockDevProcessAEC
                0x0000d95c       0x30 build/default/production/_ext/1857064221/winc_socket.o

.text.RTC_InterruptHandler%382
                0x0000d98c       0x30
 .text.RTC_InterruptHandler
                0x0000d98c       0x30 build/default/production/_ext/60180175/plib_rtc_clock.o
                0x0000d98c                RTC_InterruptHandler

.text.Console_UART_WriteCountGet%383
                0x0000d9bc       0x30
 .text.Console_UART_WriteCountGet
                0x0000d9bc       0x30 build/default/production/_ext/1832805299/sys_console_uart.o
                0x0000d9bc                Console_UART_WriteCountGet

.text.Console_UART_WriteFreeBufferCountGet%384
                0x0000d9ec       0x30
 .text.Console_UART_WriteFreeBufferCountGet
                0x0000d9ec       0x30 build/default/production/_ext/1832805299/sys_console_uart.o
                0x0000d9ec                Console_UART_WriteFreeBufferCountGet

.text.Console_UART_ReadFreeBufferCountGet%385
                0x0000da1c       0x30
 .text.Console_UART_ReadFreeBufferCountGet
                0x0000da1c       0x30 build/default/production/_ext/1832805299/sys_console_uart.o
                0x0000da1c                Console_UART_ReadFreeBufferCountGet

.text.Console_UART_ReadCountGet%386
                0x0000da4c       0x30
 .text.Console_UART_ReadCountGet
                0x0000da4c       0x30 build/default/production/_ext/1832805299/sys_console_uart.o
                0x0000da4c                Console_UART_ReadCountGet

.text.AD9954_DRIVER_Set_CFR1_Register%387
                0x0000da7c       0x30
 .text.AD9954_DRIVER_Set_CFR1_Register
                0x0000da7c       0x30 build/default/production/_ext/1360937237/ad9954_driver.o
                0x0000da7c                AD9954_DRIVER_Set_CFR1_Register

.text.AD9954_DRIVER_Set_FTW0_Register%388
                0x0000daac       0x30
 .text.AD9954_DRIVER_Set_FTW0_Register
                0x0000daac       0x30 build/default/production/_ext/1360937237/ad9954_driver.o
                0x0000daac                AD9954_DRIVER_Set_FTW0_Register

.text.AD9954_DRIVER_Set_FTW1_Register%389
                0x0000dadc       0x30
 .text.AD9954_DRIVER_Set_FTW1_Register
                0x0000dadc       0x30 build/default/production/_ext/1360937237/ad9954_driver.o
                0x0000dadc                AD9954_DRIVER_Set_FTW1_Register

.text.BMP585_DRIVER_Get_Revision_ID%390
                0x0000db0c       0x30
 .text.BMP585_DRIVER_Get_Revision_ID
                0x0000db0c       0x30 build/default/production/_ext/1360937237/bmp585_driver.o
                0x0000db0c                BMP585_DRIVER_Get_Revision_ID

.text.BMP585_DRIVER_Get_Measured_Values%391
                0x0000db3c       0x30
 .text.BMP585_DRIVER_Get_Measured_Values
                0x0000db3c       0x30 build/default/production/_ext/1360937237/bmp585_driver.o
                0x0000db3c                BMP585_DRIVER_Get_Measured_Values

.text.BMP585_DRIVER_Get_INT_Status%392
                0x0000db6c       0x30
 .text.BMP585_DRIVER_Get_INT_Status
                0x0000db6c       0x30 build/default/production/_ext/1360937237/bmp585_driver.o
                0x0000db6c                BMP585_DRIVER_Get_INT_Status

.text.MCP9808_DRIVER_Get_Measure_Values%393
                0x0000db9c       0x30
 .text.MCP9808_DRIVER_Get_Measure_Values
                0x0000db9c       0x30 build/default/production/_ext/1360937237/mcp9808_driver.o
                0x0000db9c                MCP9808_DRIVER_Get_Measure_Values

.text.MCP9808_DRIVER_Get_Manufacturer_ID%394
                0x0000dbcc       0x30
 .text.MCP9808_DRIVER_Get_Manufacturer_ID
                0x0000dbcc       0x30 build/default/production/_ext/1360937237/mcp9808_driver.o
                0x0000dbcc                MCP9808_DRIVER_Get_Manufacturer_ID

.text.MCP9808_DRIVER_Get_Device_ID%395
                0x0000dbfc       0x30
 .text.MCP9808_DRIVER_Get_Device_ID
                0x0000dbfc       0x30 build/default/production/_ext/1360937237/mcp9808_driver.o
                0x0000dbfc                MCP9808_DRIVER_Get_Device_ID

.text.SHT4X_DRIVER_Calculation_Humidity%396
                0x0000dc2c       0x30
 .text.SHT4X_DRIVER_Calculation_Humidity
                0x0000dc2c       0x30 build/default/production/_ext/1360937237/sht4x_driver.o
                0x0000dc2c                SHT4X_DRIVER_Calculation_Humidity

.text.SSD1306_DRIVER_Send_Command%397
                0x0000dc5c       0x30
 .text.SSD1306_DRIVER_Send_Command
                0x0000dc5c       0x30 build/default/production/_ext/1360937237/ssd1306_driver.o
                0x0000dc5c                SSD1306_DRIVER_Send_Command

.text.SSD1306_DRIVER_Send_Data%398
                0x0000dc8c       0x30
 .text.SSD1306_DRIVER_Send_Data
                0x0000dc8c       0x30 build/default/production/_ext/1360937237/ssd1306_driver.o
                0x0000dc8c                SSD1306_DRIVER_Send_Data

.text.STCC4_DRIVER_Calculation_Humidity%399
                0x0000dcbc       0x30
 .text.STCC4_DRIVER_Calculation_Humidity
                0x0000dcbc       0x30 build/default/production/_ext/1360937237/stcc4_driver.o
                0x0000dcbc                STCC4_DRIVER_Calculation_Humidity

.text.nvmReportStatus%400
                0x0000dcec       0x2e
 .text.nvmReportStatus
                0x0000dcec       0x2e build/default/production/_ext/1706628858/wdrv_winc_nvm.o

.text.__aeabi_dcmpeq%401
                0x0000dd1a       0x2e
 .text.__aeabi_dcmpeq
                0x0000dd1a       0x2e C:/Applications/Microchip/XC32/bin/bin/../../lib/gcc/pic32c/13.2.1/../../../../pic32c/lib/thumb/v6-m/nofp\libm-fast-emfloat.a(__aeabi_dcmpeq.o)
                0x0000dd1a                __aeabi_dcmpeq

.text.__aeabi_d2uiz%402
                0x0000dd48       0x2e
 .text.__aeabi_d2uiz
                0x0000dd48       0x2e C:/Applications/Microchip/XC32/bin/bin/../../lib/gcc/pic32c/13.2.1/../../../../pic32c/lib/thumb/v6-m/nofp\libm-fast-emfloat.a(__aeabi_d2uiz.o)
                0x0000dd48                __aeabi_d2uiz
                0x0000dd4c                .L__aeabi_d2uiz_fast_entry

.rodata.WDRV_WINC_OTAProcessAEC%403
                0x0000dd78       0x2c
 .rodata.WDRV_WINC_OTAProcessAEC
                0x0000dd78       0x2c build/default/production/_ext/1706628858/wdrv_winc_ota.o

.text.CAN0_ErrorGet%404
                0x0000dda4       0x2c
 .text.CAN0_ErrorGet
                0x0000dda4       0x2c build/default/production/_ext/60165182/plib_can0.o
                0x0000dda4                CAN0_ErrorGet

.text.EIC_CallbackRegister%405
                0x0000ddd0       0x2c
 .text.EIC_CallbackRegister
                0x0000ddd0       0x2c build/default/production/_ext/60167341/plib_eic.o
                0x0000ddd0                EIC_CallbackRegister

.text.SERCOM5_SPI_Initialize%406
                0x0000ddfc       0x2c
 .text.SERCOM5_SPI_Initialize
                0x0000ddfc       0x2c build/default/production/_ext/17022449/plib_sercom5_spi_master.o
                0x0000ddfc                SERCOM5_SPI_Initialize

.text.SERCOM1_USART_ErrorClear%407
                0x0000de28       0x2c
 .text.SERCOM1_USART_ErrorClear
                0x0000de28       0x2c build/default/production/_ext/504274921/plib_sercom1_usart.o

.text.SUPC_InterruptHandler%408
                0x0000de54       0x2c
 .text.SUPC_InterruptHandler
                0x0000de54       0x2c build/default/production/_ext/1865616679/plib_supc.o
                0x0000de54                SUPC_InterruptHandler

.text.SYSTICK_TimerInterruptEnable%409
                0x0000de80       0x2c
 .text.SYSTICK_TimerInterruptEnable
                0x0000de80       0x2c build/default/production/_ext/1827571544/plib_systick.o
                0x0000de80                SYSTICK_TimerInterruptEnable

.rodata.sysConsoleUARTDevDesc%410
                0x0000deac       0x2c
 .rodata.sysConsoleUARTDevDesc
                0x0000deac       0x2c build/default/production/_ext/1832805299/sys_console_uart.o
                0x0000deac                sysConsoleUARTDevDesc

.rodata.drvUsart0PlibAPI%411
                0x0000ded8       0x2c
 .rodata.drvUsart0PlibAPI
                0x0000ded8       0x2c build/default/production/_ext/1171490990/initialization.o

.text.BMP585_DRIVER_Get_Chip_ID%412
                0x0000df04       0x2c
 .text.BMP585_DRIVER_Get_Chip_ID
                0x0000df04       0x2c build/default/production/_ext/1360937237/bmp585_driver.o
                0x0000df04                BMP585_DRIVER_Get_Chip_ID

.text.MCP9808_DRIVER_Set_Result_Resolution%413
                0x0000df30       0x2c
 .text.MCP9808_DRIVER_Set_Result_Resolution
                0x0000df30       0x2c build/default/production/_ext/1360937237/mcp9808_driver.o
                0x0000df30                MCP9808_DRIVER_Set_Result_Resolution

.text.SSD1306_DRIVER_Write_Character%414
                0x0000df5c       0x2c
 .text.SSD1306_DRIVER_Write_Character
                0x0000df5c       0x2c build/default/production/_ext/1360937237/ssd1306_driver.o
                0x0000df5c                SSD1306_DRIVER_Write_Character

.text.STCC4_DRIVER_Single_Shot_Measurement%415
                0x0000df88       0x2c
 .text.STCC4_DRIVER_Single_Shot_Measurement
                0x0000df88       0x2c build/default/production/_ext/1360937237/stcc4_driver.o
                0x0000df88                STCC4_DRIVER_Single_Shot_Measurement

.rodata.APP_Tasks%416
                0x0000dfb4       0x2c
 .rodata.APP_Tasks
                0x0000dfb4       0x2c build/default/production/_ext/1360937237/app.o

.text.lDRV_USART_RX_DMA_CallbackHandler%417
                0x0000dfe0       0x2a
 .text.lDRV_USART_RX_DMA_CallbackHandler
                0x0000dfe0       0x2a build/default/production/_ext/869808652/drv_usart.o

.text.lDRV_USART_TX_DMA_CallbackHandler%418
                0x0000e00a       0x2a
 .text.lDRV_USART_TX_DMA_CallbackHandler
                0x0000e00a       0x2a build/default/production/_ext/869808652/drv_usart.o

.text.SYS_TIME_TimerPeriodHasExpired%419
                0x0000e034       0x2a
 .text.SYS_TIME_TimerPeriodHasExpired
                0x0000e034       0x2a build/default/production/_ext/101884895/sys_time.o
                0x0000e034                SYS_TIME_TimerPeriodHasExpired

.text.__string_out%420
                0x0000e05e       0x2a
 .text.__string_out
                0x0000e05e       0x2a C:/Applications/Microchip/XC32/bin/bin/../../lib/gcc/pic32c/13.2.1/../../../../pic32c/lib/thumb/v6-m/nofp\libc-musl.a(__printf_core.o)
                0x0000e05e                __out

.text.lDRV_USART_RX_PLIB_CallbackHandler%421
                0x0000e088       0x28
 .text.lDRV_USART_RX_PLIB_CallbackHandler
                0x0000e088       0x28 build/default/production/_ext/869808652/drv_usart.o

.text.WDRV_WINC_SPIDeinitialize%422
                0x0000e0b0       0x28
 .text.WDRV_WINC_SPIDeinitialize
                0x0000e0b0       0x28 build/default/production/_ext/622324608/wdrv_winc_spi.o
                0x0000e0b0                WDRV_WINC_SPIDeinitialize

.text.sockEventCallback%423
                0x0000e0d8       0x28
 .text.sockEventCallback
                0x0000e0d8       0x28 build/default/production/_ext/1857064221/winc_socket.o

.rodata.sockCmdRspCallbackHandler%424
                0x0000e100       0x28
 .rodata.sockCmdRspCallbackHandler
                0x0000e100       0x28 build/default/production/_ext/1857064221/winc_socket.o

.text.ADC0_InterruptHandler%425
                0x0000e128       0x28
 .text.ADC0_InterruptHandler
                0x0000e128       0x28 build/default/production/_ext/60163342/plib_adc0.o
                0x0000e128                ADC0_InterruptHandler

.text.SERCOM1_USART_ReadAbort%426
                0x0000e150       0x28
 .text.SERCOM1_USART_ReadAbort
                0x0000e150       0x28 build/default/production/_ext/504274921/plib_sercom1_usart.o
                0x0000e150                SERCOM1_USART_ReadAbort

.text.SysTick_Handler%427
                0x0000e178       0x28
 .text.SysTick_Handler
                0x0000e178       0x28 build/default/production/_ext/1827571544/plib_systick.o
                0x0000e178                SysTick_Handler

.rodata.drvSPI0remapDataBits%428
                0x0000e1a0       0x28
 .rodata.drvSPI0remapDataBits
                0x0000e1a0       0x28 build/default/production/_ext/1171490990/initialization.o

.text.BMP585_DRIVER_Set_INT_Source%429
                0x0000e1c8       0x28
 .text.BMP585_DRIVER_Set_INT_Source
                0x0000e1c8       0x28 build/default/production/_ext/1360937237/bmp585_driver.o
                0x0000e1c8                BMP585_DRIVER_Set_INT_Source

.text.BMP585_DRIVER_Store_Measured_Values%430
                0x0000e1f0       0x28
 .text.BMP585_DRIVER_Store_Measured_Values
                0x0000e1f0       0x28 build/default/production/_ext/1360937237/bmp585_driver.o
                0x0000e1f0                BMP585_DRIVER_Store_Measured_Values

.text.BMP585_DRIVER_Set_OSR_Config%431
                0x0000e218       0x28
 .text.BMP585_DRIVER_Set_OSR_Config
                0x0000e218       0x28 build/default/production/_ext/1360937237/bmp585_driver.o
                0x0000e218                BMP585_DRIVER_Set_OSR_Config

.text.BMP585_DRIVER_Set_ODR_Config%432
                0x0000e240       0x28
 .text.BMP585_DRIVER_Set_ODR_Config
                0x0000e240       0x28 build/default/production/_ext/1360937237/bmp585_driver.o
                0x0000e240                BMP585_DRIVER_Set_ODR_Config

.text.BMP585_DRIVER_Calculate_Temperature%433
                0x0000e268       0x28
 .text.BMP585_DRIVER_Calculate_Temperature
                0x0000e268       0x28 build/default/production/_ext/1360937237/bmp585_driver.o
                0x0000e268                BMP585_DRIVER_Calculate_Temperature

.text.BMP585_DRIVER_Calculate_Pressure%434
                0x0000e290       0x28
 .text.BMP585_DRIVER_Calculate_Pressure
                0x0000e290       0x28 build/default/production/_ext/1360937237/bmp585_driver.o
                0x0000e290                BMP585_DRIVER_Calculate_Pressure

.text.CAN0_DRIVER_Print_Data%435
                0x0000e2b8       0x28
 .text.CAN0_DRIVER_Print_Data
                0x0000e2b8       0x28 build/default/production/_ext/1360937237/can0_driver.o
                0x0000e2b8                CAN0_DRIVER_Print_Data

.text.MCP9808_DRIVER_Set_I2C_Address%436
                0x0000e2e0       0x28
 .text.MCP9808_DRIVER_Set_I2C_Address
                0x0000e2e0       0x28 build/default/production/_ext/1360937237/mcp9808_driver.o
                0x0000e2e0                MCP9808_DRIVER_Set_I2C_Address

.text.cmdFractValueBuilder%437
                0x0000e308       0x26
 .text.cmdFractValueBuilder
                0x0000e308       0x26 build/default/production/_ext/1857064221/winc_cmds.o

.text.WDRV_WINC_ISR%438
                0x0000e32e       0x26
 .text.WDRV_WINC_ISR
                0x0000e32e       0x26 build/default/production/_ext/1706628858/wdrv_winc.o
                0x0000e32e                WDRV_WINC_ISR

.text.__aeabi_i2f%439
                0x0000e354       0x26
 .text.__aeabi_i2f
                0x0000e354       0x26 C:/Applications/Microchip/XC32/bin/bin/../../lib/gcc/pic32c/13.2.1/../../../../pic32c/lib/thumb/v6-m/nofp\libm-fast-emfloat.a(__aeabi_i2f.o)
                0x0000e354                __aeabi_i2f

.text.lDRV_USART_RemoveTransferObjFromList%440
                0x0000e37a       0x24
 .text.lDRV_USART_RemoveTransferObjFromList
                0x0000e37a       0x24 build/default/production/_ext/869808652/drv_usart.o

.text.FREQM_InterruptHandler%441
                0x0000e3a0       0x24
 .text.FREQM_InterruptHandler
                0x0000e3a0       0x24 build/default/production/_ext/1987437027/plib_freqm.o
                0x0000e3a0                FREQM_InterruptHandler

.text.SYSTICK_TimerInitialize%442
                0x0000e3c4       0x24
 .text.SYSTICK_TimerInitialize
                0x0000e3c4       0x24 build/default/production/_ext/1827571544/plib_systick.o
                0x0000e3c4                SYSTICK_TimerInitialize

.text.SYS_DMA_AddressingModeSetup%443
                0x0000e3e8       0x24
 .text.SYS_DMA_AddressingModeSetup
                0x0000e3e8       0x24 build/default/production/_ext/14461671/sys_dma.o
                0x0000e3e8                SYS_DMA_AddressingModeSetup

.text.SYS_TIME_ResourceUnlock%444
                0x0000e40c       0x24
 .text.SYS_TIME_ResourceUnlock
                0x0000e40c       0x24 build/default/production/_ext/101884895/sys_time.o

.text.BME690_DRIVER_Initialize%445
                0x0000e430       0x24
 .text.BME690_DRIVER_Initialize
                0x0000e430       0x24 build/default/production/_ext/1360937237/bme690_driver.o
                0x0000e430                BME690_DRIVER_Initialize

.text.BMP585_DRIVER_Initialize%446
                0x0000e454       0x24
 .text.BMP585_DRIVER_Initialize
                0x0000e454       0x24 build/default/production/_ext/1360937237/bmp585_driver.o
                0x0000e454                BMP585_DRIVER_Initialize

.text.HDC302X_DRIVER_Initialize%447
                0x0000e478       0x24
 .text.HDC302X_DRIVER_Initialize
                0x0000e478       0x24 build/default/production/_ext/1360937237/hdc302x_driver.o
                0x0000e478                HDC302X_DRIVER_Initialize

.text.MCP9808_DRIVER_Initialize%448
                0x0000e49c       0x24
 .text.MCP9808_DRIVER_Initialize
                0x0000e49c       0x24 build/default/production/_ext/1360937237/mcp9808_driver.o
                0x0000e49c                MCP9808_DRIVER_Initialize

.text.SHT4X_DRIVER_Start_Measurement%449
                0x0000e4c0       0x24
 .text.SHT4X_DRIVER_Start_Measurement
                0x0000e4c0       0x24 build/default/production/_ext/1360937237/sht4x_driver.o
                0x0000e4c0                SHT4X_DRIVER_Start_Measurement

.text.SHT4X_DRIVER_Store_Measured_Values%450
                0x0000e4e4       0x24
 .text.SHT4X_DRIVER_Store_Measured_Values
                0x0000e4e4       0x24 build/default/production/_ext/1360937237/sht4x_driver.o
                0x0000e4e4                SHT4X_DRIVER_Store_Measured_Values

.text.VCNL4200_DRIVER_Initialize%451
                0x0000e508       0x24
 .text.VCNL4200_DRIVER_Initialize
                0x0000e508       0x24 build/default/production/_ext/1360937237/vcnl4200_driver.o
                0x0000e508                VCNL4200_DRIVER_Initialize

.text.XM125_DRIVER_Initialize%452
                0x0000e52c       0x24
 .text.XM125_DRIVER_Initialize
                0x0000e52c       0x24 build/default/production/_ext/1360937237/xm125_driver.o
                0x0000e52c                XM125_DRIVER_Initialize

.text.__aeabi_f2uiz%453
                0x0000e550       0x24
 .text.__aeabi_f2uiz
                0x0000e550       0x24 C:/Applications/Microchip/XC32/bin/bin/../../lib/gcc/pic32c/13.2.1/../../../../pic32c/lib/thumb/v6-m/nofp\libm-fast-emfloat.a(__aeabi_f2uiz.o)
                0x0000e550                __aeabi_f2uiz

.text.CAN0_RxFifoFillLevelGet%454
                0x0000e574       0x20
 .text.CAN0_RxFifoFillLevelGet
                0x0000e574       0x20 build/default/production/_ext/60165182/plib_can0.o
                0x0000e574                CAN0_RxFifoFillLevelGet

.text.WDT_Enable%455
                0x0000e594       0x20
 .text.WDT_Enable
                0x0000e594       0x20 build/default/production/_ext/60184501/plib_wdt.o
                0x0000e594                WDT_Enable

.text.WDT_Disable%456
                0x0000e5b4       0x20
 .text.WDT_Disable
                0x0000e5b4       0x20 build/default/production/_ext/60184501/plib_wdt.o
                0x0000e5b4                WDT_Disable

.text.SYS_DMA_DataWidthSetup%457
                0x0000e5d4       0x20
 .text.SYS_DMA_DataWidthSetup
                0x0000e5d4       0x20 build/default/production/_ext/14461671/sys_dma.o
                0x0000e5d4                SYS_DMA_DataWidthSetup

.text.NTC_DRIVER_Initialize%458
                0x0000e5f4       0x20
 .text.NTC_DRIVER_Initialize
                0x0000e5f4       0x20 build/default/production/_ext/1360937237/ntc_driver.o
                0x0000e5f4                NTC_DRIVER_Initialize

.rodata.RSTC_DRIVER_Tasks%459
                0x0000e614       0x20
 .rodata.RSTC_DRIVER_Tasks
                0x0000e614       0x20 build/default/production/_ext/1360937237/rstc_driver.o

.text.SHT4X_DRIVER_Get_Measured_Values%460
                0x0000e634       0x20
 .text.SHT4X_DRIVER_Get_Measured_Values
                0x0000e634       0x20 build/default/production/_ext/1360937237/sht4x_driver.o
                0x0000e634                SHT4X_DRIVER_Get_Measured_Values

.text.WS281X_DRIVER_Set_Strip_Data%461
                0x0000e654       0x20
 .text.WS281X_DRIVER_Set_Strip_Data
                0x0000e654       0x20 build/default/production/_ext/1360937237/ws281x_driver.o
                0x0000e654                WS281X_DRIVER_Set_Strip_Data

.text._get_heap_left_space%462
                0x0000e674       0x20
 .text._get_heap_left_space
                0x0000e674       0x20 C:/Applications/Microchip/XC32/bin/bin/../../lib/gcc/pic32c/13.2.1/../../../../pic32c/lib/thumb/v6-m/nofp\libpic32c.a(sbrk.o)
                0x0000e674                _get_heap_left_space

.rodata.str1.1%463
                0x0000e694       0x1f
 .rodata.str1.1
                0x0000e694       0x1f C:/Applications/Microchip/XC32/bin/bin/../../lib/gcc/pic32c/13.2.1/../../../../pic32c/lib/thumb/v6-m/nofp\libc-musl.a(__printf_core.o)
                                  0x8 (size before relaxing)

.text.memcmp%464
                0x0000e6b4       0x1e
 .text.memcmp   0x0000e6b4       0x1e C:/Applications/Microchip/XC32/bin/bin/../../lib/gcc/pic32c/13.2.1/../../../../pic32c/lib/thumb/v6-m/nofp\libc-size-musl.a(memcmp.o)
                0x0000e6b4                memcmp

.text.__aeabi_ui2f%465
                0x0000e6d2       0x1e
 .text.__aeabi_ui2f
                0x0000e6d2       0x1e C:/Applications/Microchip/XC32/bin/bin/../../lib/gcc/pic32c/13.2.1/../../../../pic32c/lib/thumb/v6-m/nofp\libm-fast-emfloat.a(__aeabi_ui2f.o)
                0x0000e6d2                __aeabi_ui2f

.text.__dinit_copy%466
                0x0000e6f0       0x1e
 .text.__dinit_copy
                0x0000e6f0       0x1e C:/Applications/Microchip/XC32/bin/bin/../../lib/gcc/pic32c/13.2.1/../../../../pic32c/lib/thumb/v6-m/nofp\libpic32c.a(pic32_data_init_copy.o)
                0x0000e6f0                __dinit_copy_needed
                0x0000e6f0                __dinit_copy

.text.DRV_I2C_ReadTransferAdd%467
                0x0000e70e       0x1c
 .text.DRV_I2C_ReadTransferAdd
                0x0000e70e       0x1c build/default/production/_ext/158385033/drv_i2c.o
                0x0000e70e                DRV_I2C_ReadTransferAdd

.text.DRV_I2C_WriteReadTransferAdd%468
                0x0000e72a       0x1c
 .text.DRV_I2C_WriteReadTransferAdd
                0x0000e72a       0x1c build/default/production/_ext/158385033/drv_i2c.o
                0x0000e72a                DRV_I2C_WriteReadTransferAdd

.text.lDRV_USART_GetDriverObj%469
                0x0000e748       0x1c
 .text.lDRV_USART_GetDriverObj
                0x0000e748       0x1c build/default/production/_ext/869808652/drv_usart.o

.text.WDRV_WINC_INTInitialize%470
                0x0000e764       0x1c
 .text.WDRV_WINC_INTInitialize
                0x0000e764       0x1c build/default/production/_ext/622324608/wdrv_winc_eint.o
                0x0000e764                WDRV_WINC_INTInitialize

.text.WINC_CmdCFG%471
                0x0000e780       0x1c
 .text.WINC_CmdCFG
                0x0000e780       0x1c build/default/production/_ext/1857064221/winc_cmds.o
                0x0000e780                WINC_CmdCFG

.text.WINC_CmdNVMC%472
                0x0000e79c       0x1c
 .text.WINC_CmdNVMC
                0x0000e79c       0x1c build/default/production/_ext/1857064221/winc_cmds.o
                0x0000e79c                WINC_CmdNVMC

.rodata.WINC_SDIODeviceInit%473
                0x0000e7b8       0x1c
 .rodata.WINC_SDIODeviceInit
                0x0000e7b8       0x1c build/default/production/_ext/1857064221/winc_sdio_drv.o

.text.ADC0_Enable%474
                0x0000e7d4       0x1c
 .text.ADC0_Enable
                0x0000e7d4       0x1c build/default/production/_ext/60163342/plib_adc0.o
                0x0000e7d4                ADC0_Enable

.text.ADC0_ConversionStart%475
                0x0000e7f0       0x1c
 .text.ADC0_ConversionStart
                0x0000e7f0       0x1c build/default/production/_ext/60163342/plib_adc0.o
                0x0000e7f0                ADC0_ConversionStart

.text.DAC_Initialize%476
                0x0000e80c       0x1c
 .text.DAC_Initialize
                0x0000e80c       0x1c build/default/production/_ext/60166132/plib_dac.o
                0x0000e80c                DAC_Initialize

.text.FREQM_Initialize%477
                0x0000e828       0x1c
 .text.FREQM_Initialize
                0x0000e828       0x1c build/default/production/_ext/1987437027/plib_freqm.o
                0x0000e828                FREQM_Initialize

.text.SERCOM0_USART_WritePendingBytesGet%478
                0x0000e844       0x1c
 .text.SERCOM0_USART_WritePendingBytesGet
                0x0000e844       0x1c build/default/production/_ext/504274921/plib_sercom0_usart.o

.text.SERCOM0_USART_ReadCountGet%479
                0x0000e860       0x1c
 .text.SERCOM0_USART_ReadCountGet
                0x0000e860       0x1c build/default/production/_ext/504274921/plib_sercom0_usart.o
                0x0000e860                SERCOM0_USART_ReadCountGet

.text.SYS_INT_SourceRestore%480
                0x0000e87c       0x1c
 .text.SYS_INT_SourceRestore
                0x0000e87c       0x1c build/default/production/_ext/1881668453/sys_int.o
                0x0000e87c                SYS_INT_SourceRestore

.rodata.sysTimePlibAPI%481
                0x0000e898       0x1c
 .rodata.sysTimePlibAPI
                0x0000e898       0x1c build/default/production/_ext/1171490990/initialization.o

.rodata.drvUSART0InterruptSources%482
                0x0000e8b4       0x1c
 .rodata.drvUSART0InterruptSources
                0x0000e8b4       0x1c build/default/production/_ext/1171490990/initialization.o

.rodata.drvI2C0InitData%483
                0x0000e8d0       0x1c
 .rodata.drvI2C0InitData
                0x0000e8d0       0x1c build/default/production/_ext/1171490990/initialization.o

.rodata.drvI2C0PLibAPI%484
                0x0000e8ec       0x1c
 .rodata.drvI2C0PLibAPI
                0x0000e8ec       0x1c build/default/production/_ext/1171490990/initialization.o

.text.CAN0_DRIVER_Initialize%485
                0x0000e908       0x1c
 .text.CAN0_DRIVER_Initialize
                0x0000e908       0x1c build/default/production/_ext/1360937237/can0_driver.o
                0x0000e908                CAN0_DRIVER_Initialize

.text.NTC_DRIVER_Calculation_Temperature%486
                0x0000e924       0x1c
 .text.NTC_DRIVER_Calculation_Temperature
                0x0000e924       0x1c build/default/production/_ext/1360937237/ntc_driver.o
                0x0000e924                NTC_DRIVER_Calculation_Temperature

.rodata.NTC_DRIVER_Tasks%487
                0x0000e940       0x1c
 .rodata.NTC_DRIVER_Tasks
                0x0000e940       0x1c build/default/production/_ext/1360937237/ntc_driver.o

.text.RTC_DRIVER_Initialize%488
                0x0000e95c       0x1c
 .text.RTC_DRIVER_Initialize
                0x0000e95c       0x1c build/default/production/_ext/1360937237/rtc_driver.o
                0x0000e95c                RTC_DRIVER_Initialize

.text.SSD1306_DRIVER_Write_String%489
                0x0000e978       0x1c
 .text.SSD1306_DRIVER_Write_String
                0x0000e978       0x1c build/default/production/_ext/1360937237/ssd1306_driver.o
                0x0000e978                SSD1306_DRIVER_Write_String

.text.WS281X_DRIVER_DMAC_CH5_Callback%490
                0x0000e994       0x1c
 .text.WS281X_DRIVER_DMAC_CH5_Callback
                0x0000e994       0x1c build/default/production/_ext/1360937237/ws281x_driver.o
                0x0000e994                WS281X_DRIVER_DMAC_CH5_Callback

.text.WS281X_DRIVER_Send_Data%491
                0x0000e9b0       0x1c
 .text.WS281X_DRIVER_Send_Data
                0x0000e9b0       0x1c build/default/production/_ext/1360937237/ws281x_driver.o
                0x0000e9b0                WS281X_DRIVER_Send_Data

.text.WS281X_DRIVER_Initialize%492
                0x0000e9cc       0x1c
 .text.WS281X_DRIVER_Initialize
                0x0000e9cc       0x1c build/default/production/_ext/1360937237/ws281x_driver.o
                0x0000e9cc                WS281X_DRIVER_Initialize

.text.__init_search_fl%493
                0x0000e9e8       0x1c
 .text.__init_search_fl
                0x0000e9e8       0x1c C:/Applications/Microchip/XC32/bin/bin/../../lib/gcc/pic32c/13.2.1/../../../../pic32c/lib/thumb/v6-m/nofp\liblmalloc-musl.a(lite_free.o)
                0x0000e9e8                __init_search_fl

.text.DRV_I2C_WriteTransferAdd%494
                0x0000ea04       0x1a
 .text.DRV_I2C_WriteTransferAdd
                0x0000ea04       0x1a build/default/production/_ext/158385033/drv_i2c.o
                0x0000ea04                DRV_I2C_WriteTransferAdd

.text.cmdIsInt%495
                0x0000ea20       0x18
 .text.cmdIsInt
                0x0000ea20       0x18 build/default/production/_ext/1857064221/winc_cmds.o

.text.PM_StandbyModeEnter%496
                0x0000ea38       0x18
 .text.PM_StandbyModeEnter
                0x0000ea38       0x18 build/default/production/_ext/829342769/plib_pm.o
                0x0000ea38                PM_StandbyModeEnter

.text.Console_UART_Initialize%497
                0x0000ea50       0x18
 .text.Console_UART_Initialize
                0x0000ea50       0x18 build/default/production/_ext/1832805299/sys_console_uart.o
                0x0000ea50                Console_UART_Initialize

.text.SYS_TIME_DelayIsComplete%498
                0x0000ea68       0x18
 .text.SYS_TIME_DelayIsComplete
                0x0000ea68       0x18 build/default/production/_ext/101884895/sys_time.o
                0x0000ea68                SYS_TIME_DelayIsComplete

.rodata.sysConsole0UARTPlibAPI%499
                0x0000ea80       0x18
 .rodata.sysConsole0UARTPlibAPI
                0x0000ea80       0x18 build/default/production/_ext/1171490990/initialization.o

.rodata.drvUsart0remapParity%500
                0x0000ea98       0x18
 .rodata.drvUsart0remapParity
                0x0000ea98       0x18 build/default/production/_ext/1171490990/initialization.o

.rodata.drvSPI0InterruptSources%501
                0x0000eab0       0x18
 .rodata.drvSPI0InterruptSources
                0x0000eab0       0x18 build/default/production/_ext/1171490990/initialization.o

.text.FCM360W_DRIVER_Read_Command%502
                0x0000eac8       0x18
 .text.FCM360W_DRIVER_Read_Command
                0x0000eac8       0x18 build/default/production/_ext/1360937237/fcm360w_driver.o
                0x0000eac8                FCM360W_DRIVER_Read_Command

.text.HDC302X_DRIVER_Set_I2C_Address%503
                0x0000eae0       0x18
 .text.HDC302X_DRIVER_Set_I2C_Address
                0x0000eae0       0x18 build/default/production/_ext/1360937237/hdc302x_driver.o
                0x0000eae0                HDC302X_DRIVER_Set_I2C_Address

.text.MCP9808_DRIVER_Store_Measured_Values%504
                0x0000eaf8       0x18
 .text.MCP9808_DRIVER_Store_Measured_Values
                0x0000eaf8       0x18 build/default/production/_ext/1360937237/mcp9808_driver.o
                0x0000eaf8                MCP9808_DRIVER_Store_Measured_Values

.text.MCP9808_DRIVER_Store_Manufacturer_ID%505
                0x0000eb10       0x18
 .text.MCP9808_DRIVER_Store_Manufacturer_ID
                0x0000eb10       0x18 build/default/production/_ext/1360937237/mcp9808_driver.o
                0x0000eb10                MCP9808_DRIVER_Store_Manufacturer_ID

.text.MCP9808_DRIVER_Store_Device_ID%506
                0x0000eb28       0x18
 .text.MCP9808_DRIVER_Store_Device_ID
                0x0000eb28       0x18 build/default/production/_ext/1360937237/mcp9808_driver.o
                0x0000eb28                MCP9808_DRIVER_Store_Device_ID

.text.RSTC_DRIVER_Print_Data%507
                0x0000eb40       0x18
 .text.RSTC_DRIVER_Print_Data
                0x0000eb40       0x18 build/default/production/_ext/1360937237/rstc_driver.o
                0x0000eb40                RSTC_DRIVER_Print_Data

.rodata.WS281X_DRIVER_Tasks%508
                0x0000eb58       0x18
 .rodata.WS281X_DRIVER_Tasks
                0x0000eb58       0x18 build/default/production/_ext/1360937237/ws281x_driver.o

.text.strlen%509
                0x0000eb70       0x18
 .text.strlen   0x0000eb70       0x18 C:/Applications/Microchip/XC32/bin/bin/../../lib/gcc/pic32c/13.2.1/../../../../pic32c/lib/thumb/v6-m/nofp\libc-size-musl.a(strlen.o)
                0x0000eb70                strlen

.text.vfprintf%510
                0x0000eb88       0x18
 .text.vfprintf
                0x0000eb88       0x18 C:/Applications/Microchip/XC32/bin/bin/../../lib/gcc/pic32c/13.2.1/../../../../pic32c/lib/thumb/v6-m/nofp\libc-musl.a(vfprintf.o)
                0x0000eb88                vfprintf

.text%511       0x0000eba0       0x18
 .text          0x0000eba0       0x18 C:/Applications/Microchip/XC32/bin/bin/../../lib/gcc/pic32c/13.2.1/thumb/v6-m/nofp\libgcc.a(_lshrdi3.o)
                0x0000eba0                __lshrdi3
                0x0000eba0                __aeabi_llsr

.text%512       0x0000ebb8       0x18
 .text          0x0000ebb8       0x18 C:/Applications/Microchip/XC32/bin/bin/../../lib/gcc/pic32c/13.2.1/thumb/v6-m/nofp\libgcc.a(_ashldi3.o)
                0x0000ebb8                __aeabi_llsl
                0x0000ebb8                __ashldi3

.text%513       0x0000ebd0       0x18
 .text          0x0000ebd0       0x18 C:/Applications/Microchip/XC32/bin/bin/../../lib/gcc/pic32c/13.2.1/thumb/v6-m/nofp\libgcc.a(_clzdi2.o)
                0x0000ebd0                __clzdi2

.text.cmdCheckFractType%514
                0x0000ebe8       0x16
 .text.cmdCheckFractType
                0x0000ebe8       0x16 build/default/production/_ext/1857064221/winc_cmds.o

.text.__expand_heap%515
                0x0000ebfe       0x16
 .text.__expand_heap
                0x0000ebfe       0x16 C:/Applications/Microchip/XC32/bin/bin/../../lib/gcc/pic32c/13.2.1/../../../../pic32c/lib/thumb/v6-m/nofp\libc-musl.a(expand_heap.o)
                0x0000ebfe                __expand_heap

.text.sprintf%516
                0x0000ec14       0x16
 .text.sprintf  0x0000ec14       0x16 C:/Applications/Microchip/XC32/bin/bin/../../lib/gcc/pic32c/13.2.1/../../../../pic32c/lib/thumb/v6-m/nofp\libc-musl.a(sprintf.o)
                0x0000ec14                sprintf

.rodata%517     0x0000ec2a       0x16
 .rodata        0x0000ec2a       0x16 C:/Applications/Microchip/XC32/bin/bin/../../lib/gcc/pic32c/13.2.1/../../../../pic32c/lib/thumb/v6-m/nofp\libc-musl.a(__printf_core.o)

.text.lDRV_I2C_RemoveTransferObjFromList%518
                0x0000ec40       0x14
 .text.lDRV_I2C_RemoveTransferObjFromList
                0x0000ec40       0x14 build/default/production/_ext/158385033/drv_i2c.o

.text.lDRV_SPI_RemoveTransferObjFromList%519
                0x0000ec54       0x14
 .text.lDRV_SPI_RemoveTransferObjFromList
                0x0000ec54       0x14 build/default/production/_ext/2070931557/drv_spi.o

.rodata.WDRV_WINC_WSTAProcessAEC%520
                0x0000ec68       0x14
 .rodata.WDRV_WINC_WSTAProcessAEC
                0x0000ec68       0x14 build/default/production/_ext/1706628858/wdrv_winc_sta.o

.text.CAN0_ErrorCountGet%521
                0x0000ec7c       0x14
 .text.CAN0_ErrorCountGet
                0x0000ec7c       0x14 build/default/production/_ext/60165182/plib_can0.o
                0x0000ec7c                CAN0_ErrorCountGet

.text.CAN0_InterruptGet%522
                0x0000ec90       0x14
 .text.CAN0_InterruptGet
                0x0000ec90       0x14 build/default/production/_ext/60165182/plib_can0.o
                0x0000ec90                CAN0_InterruptGet

.text.NVIC_INT_Restore%523
                0x0000eca4       0x14
 .text.NVIC_INT_Restore
                0x0000eca4       0x14 build/default/production/_ext/1865468468/plib_nvic.o
                0x0000eca4                NVIC_INT_Restore

.text.SERCOM3_SPI_IsTransmitterBusy%524
                0x0000ecb8       0x14
 .text.SERCOM3_SPI_IsTransmitterBusy
                0x0000ecb8       0x14 build/default/production/_ext/17022449/plib_sercom3_spi_master.o
                0x0000ecb8                SERCOM3_SPI_IsTransmitterBusy

.text.SERCOM0_USART_ReadFreeBufferCountGet%525
                0x0000eccc       0x14
 .text.SERCOM0_USART_ReadFreeBufferCountGet
                0x0000eccc       0x14 build/default/production/_ext/504274921/plib_sercom0_usart.o
                0x0000eccc                SERCOM0_USART_ReadFreeBufferCountGet

.text.SERCOM0_USART_WriteFreeBufferCountGet%526
                0x0000ece0       0x14
 .text.SERCOM0_USART_WriteFreeBufferCountGet
                0x0000ece0       0x14 build/default/production/_ext/504274921/plib_sercom0_usart.o
                0x0000ece0                SERCOM0_USART_WriteFreeBufferCountGet

.text.SYSTICK_TimerStart%527
                0x0000ecf4       0x14
 .text.SYSTICK_TimerStart
                0x0000ecf4       0x14 build/default/production/_ext/1827571544/plib_systick.o
                0x0000ecf4                SYSTICK_TimerStart

.text.SYSTICK_TimerInterruptDisable%528
                0x0000ed08       0x14
 .text.SYSTICK_TimerInterruptDisable
                0x0000ed08       0x14 build/default/production/_ext/1827571544/plib_systick.o
                0x0000ed08                SYSTICK_TimerInterruptDisable

.text.WDT_Clear%529
                0x0000ed1c       0x14
 .text.WDT_Clear
                0x0000ed1c       0x14 build/default/production/_ext/60184501/plib_wdt.o
                0x0000ed1c                WDT_Clear

.text.Console_UART_Status%530
                0x0000ed30       0x14
 .text.Console_UART_Status
                0x0000ed30       0x14 build/default/production/_ext/1832805299/sys_console_uart.o
                0x0000ed30                Console_UART_Status

.rodata.drvUsart0remapDataWidth%531
                0x0000ed44       0x14
 .rodata.drvUsart0remapDataWidth
                0x0000ed44       0x14 build/default/production/_ext/1171490990/initialization.o

.rodata.drvI2C0InterruptSources%532
                0x0000ed58       0x14
 .rodata.drvI2C0InterruptSources
                0x0000ed58       0x14 build/default/production/_ext/1171490990/initialization.o

.text.AD9954_DRIVER_Initialize%533
                0x0000ed6c       0x14
 .text.AD9954_DRIVER_Initialize
                0x0000ed6c       0x14 build/default/production/_ext/1360937237/ad9954_driver.o
                0x0000ed6c                AD9954_DRIVER_Initialize

.rodata.BME690_DRIVER_Tasks%534
                0x0000ed80       0x14
 .rodata.BME690_DRIVER_Tasks
                0x0000ed80       0x14 build/default/production/_ext/1360937237/bme690_driver.o

.text.BMP585_DRIVER_Store_Chip_ID%535
                0x0000ed94       0x14
 .text.BMP585_DRIVER_Store_Chip_ID
                0x0000ed94       0x14 build/default/production/_ext/1360937237/bmp585_driver.o
                0x0000ed94                BMP585_DRIVER_Store_Chip_ID

.text.BMP585_DRIVER_Store_Revision_ID%536
                0x0000eda8       0x14
 .text.BMP585_DRIVER_Store_Revision_ID
                0x0000eda8       0x14 build/default/production/_ext/1360937237/bmp585_driver.o
                0x0000eda8                BMP585_DRIVER_Store_Revision_ID

.text.BMP585_DRIVER_Store_INT_Status%537
                0x0000edbc       0x14
 .text.BMP585_DRIVER_Store_INT_Status
                0x0000edbc       0x14 build/default/production/_ext/1360937237/bmp585_driver.o
                0x0000edbc                BMP585_DRIVER_Store_INT_Status

.text.FCM360W_DRIVER_Initialize%538
                0x0000edd0       0x14
 .text.FCM360W_DRIVER_Initialize
                0x0000edd0       0x14 build/default/production/_ext/1360937237/fcm360w_driver.o
                0x0000edd0                FCM360W_DRIVER_Initialize

.rodata.HDC302X_DRIVER_Tasks%539
                0x0000ede4       0x14
 .rodata.HDC302X_DRIVER_Tasks
                0x0000ede4       0x14 build/default/production/_ext/1360937237/hdc302x_driver.o

.text.RTC_DRIVER_Alarm_Callback%540
                0x0000edf8       0x14
 .text.RTC_DRIVER_Alarm_Callback
                0x0000edf8       0x14 build/default/production/_ext/1360937237/rtc_driver.o
                0x0000edf8                RTC_DRIVER_Alarm_Callback

.rodata.RTC_DRIVER_Tasks%541
                0x0000ee0c       0x14
 .rodata.RTC_DRIVER_Tasks
                0x0000ee0c       0x14 build/default/production/_ext/1360937237/rtc_driver.o

.text.SEN63C_DRIVER_Initialize%542
                0x0000ee20       0x14
 .text.SEN63C_DRIVER_Initialize
                0x0000ee20       0x14 build/default/production/_ext/1360937237/sen63c_driver.o
                0x0000ee20                SEN63C_DRIVER_Initialize

.rodata.SEN63C_DRIVER_Tasks%543
                0x0000ee34       0x14
 .rodata.SEN63C_DRIVER_Tasks
                0x0000ee34       0x14 build/default/production/_ext/1360937237/sen63c_driver.o

.text.SHT4X_DRIVER_Set_I2C_Address%544
                0x0000ee48       0x14
 .text.SHT4X_DRIVER_Set_I2C_Address
                0x0000ee48       0x14 build/default/production/_ext/1360937237/sht4x_driver.o
                0x0000ee48                SHT4X_DRIVER_Set_I2C_Address

.text.SHT4X_DRIVER_Initialize%545
                0x0000ee5c       0x14
 .text.SHT4X_DRIVER_Initialize
                0x0000ee5c       0x14 build/default/production/_ext/1360937237/sht4x_driver.o
                0x0000ee5c                SHT4X_DRIVER_Initialize

.text.SSD1306_DRIVER_Initialize%546
                0x0000ee70       0x14
 .text.SSD1306_DRIVER_Initialize
                0x0000ee70       0x14 build/default/production/_ext/1360937237/ssd1306_driver.o
                0x0000ee70                SSD1306_DRIVER_Initialize

.text.STCC4_DRIVER_Initialize%547
                0x0000ee84       0x14
 .text.STCC4_DRIVER_Initialize
                0x0000ee84       0x14 build/default/production/_ext/1360937237/stcc4_driver.o
                0x0000ee84                STCC4_DRIVER_Initialize

.rodata.VCNL4200_DRIVER_Tasks%548
                0x0000ee98       0x14
 .rodata.VCNL4200_DRIVER_Tasks
                0x0000ee98       0x14 build/default/production/_ext/1360937237/vcnl4200_driver.o

.text.WS281X_DRIVER_Set_Strip_Color%549
                0x0000eeac       0x14
 .text.WS281X_DRIVER_Set_Strip_Color
                0x0000eeac       0x14 build/default/production/_ext/1360937237/ws281x_driver.o
                0x0000eeac                WS281X_DRIVER_Set_Strip_Color

.rodata.XM125_DRIVER_Tasks%550
                0x0000eec0       0x14
 .rodata.XM125_DRIVER_Tasks
                0x0000eec0       0x14 build/default/production/_ext/1360937237/xm125_driver.o

.rodata%551     0x0000eed4       0x14
 .rodata        0x0000eed4       0x14 C:/Applications/Microchip/XC32/bin/bin/../../lib/gcc/pic32c/13.2.1/../../../../pic32c/lib/thumb/v6-m/nofp\libpic32c.a(data_init.o)

.text.memcpy%552
                0x0000eee8       0x14
 .text.memcpy   0x0000eee8       0x14 C:/Applications/Microchip/XC32/bin/bin/../../lib/gcc/pic32c/13.2.1/../../../../pic32c/lib/thumb/v6-m/nofp\libc-size-musl.a(memcpy.o)
                0x0000eee8                memcpy

.text.memset%553
                0x0000eefc       0x14
 .text.memset   0x0000eefc       0x14 C:/Applications/Microchip/XC32/bin/bin/../../lib/gcc/pic32c/13.2.1/../../../../pic32c/lib/thumb/v6-m/nofp\libc-size-musl.a(memset.o)
                0x0000eefc                memset

.text.strchr%554
                0x0000ef10       0x14
 .text.strchr   0x0000ef10       0x14 C:/Applications/Microchip/XC32/bin/bin/../../lib/gcc/pic32c/13.2.1/../../../../pic32c/lib/thumb/v6-m/nofp\libc-size-musl.a(strchr.o)
                0x0000ef10                strchr

.text.stpcpy%555
                0x0000ef24       0x14
 .text.stpcpy   0x0000ef24       0x14 C:/Applications/Microchip/XC32/bin/bin/../../lib/gcc/pic32c/13.2.1/../../../../pic32c/lib/thumb/v6-m/nofp\libc-size-musl.a(stpcpy.o)
                0x0000ef24                __stpcpy
                0x0000ef24                stpcpy

.text.vsprintf%556
                0x0000ef38       0x14
 .text.vsprintf
                0x0000ef38       0x14 C:/Applications/Microchip/XC32/bin/bin/../../lib/gcc/pic32c/13.2.1/../../../../pic32c/lib/thumb/v6-m/nofp\libc-musl.a(vsprintf.o)
                0x0000ef38                vsprintf

.text%557       0x0000ef4c       0x14
 .text          0x0000ef4c       0x14 C:/Applications/Microchip/XC32/bin/bin/../../lib/gcc/pic32c/13.2.1/thumb/v6-m/nofp\libgcc.a(_thumb1_case_uqi.o)
                0x0000ef4c                __gnu_thumb1_case_uqi

.text.DRV_SPI_WriteTransferAdd%558
                0x0000ef60       0x12
 .text.DRV_SPI_WriteTransferAdd
                0x0000ef60       0x12 build/default/production/_ext/2070931557/drv_spi.o
                0x0000ef60                DRV_SPI_WriteTransferAdd

.text.wincEventCheck%559
                0x0000ef72       0x12
 .text.wincEventCheck
                0x0000ef72       0x12 build/default/production/_ext/1706628858/wdrv_winc.o

.text.NVIC_INT_Disable%560
                0x0000ef84       0x12
 .text.NVIC_INT_Disable
                0x0000ef84       0x12 build/default/production/_ext/1865468468/plib_nvic.o
                0x0000ef84                NVIC_INT_Disable

.text.__dinit_clear%561
                0x0000ef96       0x12
 .text.__dinit_clear
                0x0000ef96       0x12 C:/Applications/Microchip/XC32/bin/bin/../../lib/gcc/pic32c/13.2.1/../../../../pic32c/lib/thumb/v6-m/nofp\libpic32c.a(pic32_data_init_clear.o)
                0x0000ef96                __dinit_clear
                0x0000ef96                __dinit_clear_needed

.text.DRV_USART_WriteBufferAdd%562
                0x0000efa8       0x10
 .text.DRV_USART_WriteBufferAdd
                0x0000efa8       0x10 build/default/production/_ext/869808652/drv_usart.o
                0x0000efa8                DRV_USART_WriteBufferAdd

.text.DRV_USART_ReadBufferAdd%563
                0x0000efb8       0x10
 .text.DRV_USART_ReadBufferAdd
                0x0000efb8       0x10 build/default/production/_ext/869808652/drv_usart.o
                0x0000efb8                DRV_USART_ReadBufferAdd

.text.WINC_CmdDI%564
                0x0000efc8       0x10
 .text.WINC_CmdDI
                0x0000efc8       0x10 build/default/production/_ext/1857064221/winc_cmds.o
                0x0000efc8                WINC_CmdDI

.text.wincSystemEvent%565
                0x0000efd8       0x10
 .text.wincSystemEvent
                0x0000efd8       0x10 build/default/production/_ext/1706628858/wdrv_winc.o

.text.DMAC_ChannelCallbackRegister%566
                0x0000efe8       0x10
 .text.DMAC_ChannelCallbackRegister
                0x0000efe8       0x10 build/default/production/_ext/1865161661/plib_dmac.o
                0x0000efe8                DMAC_ChannelCallbackRegister

.text.DMAC_ChannelSettingsGet%567
                0x0000eff8       0x10
 .text.DMAC_ChannelSettingsGet
                0x0000eff8       0x10 build/default/production/_ext/1865161661/plib_dmac.o
                0x0000eff8                DMAC_ChannelSettingsGet

.text.EIC_InterruptEnable%568
                0x0000f008       0x10
 .text.EIC_InterruptEnable
                0x0000f008       0x10 build/default/production/_ext/60167341/plib_eic.o
                0x0000f008                EIC_InterruptEnable

.text.EIC_InterruptDisable%569
                0x0000f018       0x10
 .text.EIC_InterruptDisable
                0x0000f018       0x10 build/default/production/_ext/60167341/plib_eic.o
                0x0000f018                EIC_InterruptDisable

.text.PM_Initialize%570
                0x0000f028       0x10
 .text.PM_Initialize
                0x0000f028       0x10 build/default/production/_ext/829342769/plib_pm.o
                0x0000f028                PM_Initialize

.text.SERCOM2_I2C_ErrorGet%571
                0x0000f038       0x10
 .text.SERCOM2_I2C_ErrorGet
                0x0000f038       0x10 build/default/production/_ext/508257091/plib_sercom2_i2c_master.o
                0x0000f038                SERCOM2_I2C_ErrorGet

.text.SERCOM1_USART_ErrorGet%572
                0x0000f048       0x10
 .text.SERCOM1_USART_ErrorGet
                0x0000f048       0x10 build/default/production/_ext/504274921/plib_sercom1_usart.o
                0x0000f048                SERCOM1_USART_ErrorGet

.text.SERCOM1_USART_ReadIsBusy%573
                0x0000f058       0x10
 .text.SERCOM1_USART_ReadIsBusy
                0x0000f058       0x10 build/default/production/_ext/504274921/plib_sercom1_usart.o
                0x0000f058                SERCOM1_USART_ReadIsBusy

.text.SYSTICK_TimerStop%574
                0x0000f068       0x10
 .text.SYSTICK_TimerStop
                0x0000f068       0x10 build/default/production/_ext/1827571544/plib_systick.o
                0x0000f068                SYSTICK_TimerStop

.rodata.drvSPI0PlibAPI%575
                0x0000f078       0x10
 .rodata.drvSPI0PlibAPI
                0x0000f078       0x10 build/default/production/_ext/1171490990/initialization.o

.rodata.wdrvWincSpiInitData%576
                0x0000f088       0x10
 .rodata.wdrvWincSpiInitData
                0x0000f088       0x10 build/default/production/_ext/1171490990/initialization.o

.text.BMP585_DRIVER_Set_I2C_Address%577
                0x0000f098       0x10
 .text.BMP585_DRIVER_Set_I2C_Address
                0x0000f098       0x10 build/default/production/_ext/1360937237/bmp585_driver.o
                0x0000f098                BMP585_DRIVER_Set_I2C_Address

.text.NTC_DRIVER_Callback%578
                0x0000f0a8       0x10
 .text.NTC_DRIVER_Callback
                0x0000f0a8       0x10 build/default/production/_ext/1360937237/ntc_driver.o
                0x0000f0a8                NTC_DRIVER_Callback

.text.RTC_DRIVER_Get_Alarm_Status%579
                0x0000f0b8       0x10
 .text.RTC_DRIVER_Get_Alarm_Status
                0x0000f0b8       0x10 build/default/production/_ext/1360937237/rtc_driver.o
                0x0000f0b8                RTC_DRIVER_Get_Alarm_Status

.text.RTC_DRIVER_Get_System_Time%580
                0x0000f0c8       0x10
 .text.RTC_DRIVER_Get_System_Time
                0x0000f0c8       0x10 build/default/production/_ext/1360937237/rtc_driver.o
                0x0000f0c8                RTC_DRIVER_Get_System_Time

.text.SSD1306_DRIVER_Set_I2C_Address%581
                0x0000f0d8       0x10
 .text.SSD1306_DRIVER_Set_I2C_Address
                0x0000f0d8       0x10 build/default/production/_ext/1360937237/ssd1306_driver.o
                0x0000f0d8                SSD1306_DRIVER_Set_I2C_Address

.text.STCC4_DRIVER_Set_I2C_Address%582
                0x0000f0e8       0x10
 .text.STCC4_DRIVER_Set_I2C_Address
                0x0000f0e8       0x10 build/default/production/_ext/1360937237/stcc4_driver.o
                0x0000f0e8                STCC4_DRIVER_Set_I2C_Address

.text.TIMER_DRIVER_Stop_Start_Up_TMR%583
                0x0000f0f8       0x10
 .text.TIMER_DRIVER_Stop_Start_Up_TMR
                0x0000f0f8       0x10 build/default/production/_ext/1360937237/timer_driver.o
                0x0000f0f8                TIMER_DRIVER_Stop_Start_Up_TMR

.text.TIMER_DRIVER_Start_Main_TMR%584
                0x0000f108       0x10
 .text.TIMER_DRIVER_Start_Main_TMR
                0x0000f108       0x10 build/default/production/_ext/1360937237/timer_driver.o
                0x0000f108                TIMER_DRIVER_Start_Main_TMR

.text.TIMER_DRIVER_Stop_Main_TMR%585
                0x0000f118       0x10
 .text.TIMER_DRIVER_Stop_Main_TMR
                0x0000f118       0x10 build/default/production/_ext/1360937237/timer_driver.o
                0x0000f118                TIMER_DRIVER_Stop_Main_TMR

.text.TIMER_DRIVER_Start_Bus_TMR%586
                0x0000f128       0x10
 .text.TIMER_DRIVER_Start_Bus_TMR
                0x0000f128       0x10 build/default/production/_ext/1360937237/timer_driver.o
                0x0000f128                TIMER_DRIVER_Start_Bus_TMR

.text.TIMER_DRIVER_Stop_Bus_TMR%587
                0x0000f138       0x10
 .text.TIMER_DRIVER_Stop_Bus_TMR
                0x0000f138       0x10 build/default/production/_ext/1360937237/timer_driver.o
                0x0000f138                TIMER_DRIVER_Stop_Bus_TMR

.text.TIMER_DRIVER_Start_Wait_TMR%588
                0x0000f148       0x10
 .text.TIMER_DRIVER_Start_Wait_TMR
                0x0000f148       0x10 build/default/production/_ext/1360937237/timer_driver.o
                0x0000f148                TIMER_DRIVER_Start_Wait_TMR

.text.TIMER_DRIVER_Stop_Wait_TMR%589
                0x0000f158       0x10
 .text.TIMER_DRIVER_Stop_Wait_TMR
                0x0000f158       0x10 build/default/production/_ext/1360937237/timer_driver.o
                0x0000f158                TIMER_DRIVER_Stop_Wait_TMR

.text.WINCS02_DRIVER_Initialize%590
                0x0000f168       0x10
 .text.WINCS02_DRIVER_Initialize
                0x0000f168       0x10 build/default/production/_ext/1360937237/wincs02_driver.o
                0x0000f168                WINCS02_DRIVER_Initialize

.text.fma%591   0x0000f178       0x10
 .text.fma      0x0000f178       0x10 C:/Applications/Microchip/XC32/bin/bin/../../lib/gcc/pic32c/13.2.1/../../../../pic32c/lib/thumb/v6-m/nofp\libm-fast-emfloat.a(fma.o)
                0x0000f178                fma

.text.__aeabi_fsub%592
                0x0000f188       0x10
 .text.__aeabi_fsub
                0x0000f188       0x10 C:/Applications/Microchip/XC32/bin/bin/../../lib/gcc/pic32c/13.2.1/../../../../pic32c/lib/thumb/v6-m/nofp\libm-fast-emfloat.a(__aeabi_fsub.o)
                0x0000f188                __aeabi_fsub

.text.__aeabi_dsub%593
                0x0000f198       0x10
 .text.__aeabi_dsub
                0x0000f198       0x10 C:/Applications/Microchip/XC32/bin/bin/../../lib/gcc/pic32c/13.2.1/../../../../pic32c/lib/thumb/v6-m/nofp\libm-fast-emfloat.a(__aeabi_dsub.o)
                0x0000f198                __aeabi_dsub

.text.lDRV_USART_TX_PLIB_CallbackHandler%594
                0x0000f1a8        0xe
 .text.lDRV_USART_TX_PLIB_CallbackHandler
                0x0000f1a8        0xe build/default/production/_ext/869808652/drv_usart.o

.text.SYSTICK_TimerInterruptRestore%595
                0x0000f1b6        0xe
 .text.SYSTICK_TimerInterruptRestore
                0x0000f1b6        0xe build/default/production/_ext/1827571544/plib_systick.o
                0x0000f1b6                SYSTICK_TimerInterruptRestore

.text.main%596  0x0000f1c4        0xe
 .text.main     0x0000f1c4        0xe build/default/production/_ext/1360937237/main.o
                0x0000f1c4                main

.text.tolower%597
                0x0000f1d2        0xe
 .text.tolower  0x0000f1d2        0xe C:/Applications/Microchip/XC32/bin/bin/../../lib/gcc/pic32c/13.2.1/../../../../pic32c/lib/thumb/v6-m/nofp\libc-musl.a(tolower.o)
                0x0000f1d2                tolower

.text.toupper%598
                0x0000f1e0        0xe
 .text.toupper  0x0000f1e0        0xe C:/Applications/Microchip/XC32/bin/bin/../../lib/gcc/pic32c/13.2.1/../../../../pic32c/lib/thumb/v6-m/nofp\libc-musl.a(toupper.o)
                0x0000f1e0                toupper

.text.lDRV_SPI_PlibCallbackHandler%599
                0x0000f1ee        0xc
 .text.lDRV_SPI_PlibCallbackHandler
                0x0000f1ee        0xc build/default/production/_ext/622324608/wdrv_winc_spi.o

.text.ADC0_ConversionResultGet%600
                0x0000f1fc        0xc
 .text.ADC0_ConversionResultGet
                0x0000f1fc        0xc build/default/production/_ext/60163342/plib_adc0.o
                0x0000f1fc                ADC0_ConversionResultGet

.text.ADC0_CallbackRegister%601
                0x0000f208        0xc
 .text.ADC0_CallbackRegister
                0x0000f208        0xc build/default/production/_ext/60163342/plib_adc0.o
                0x0000f208                ADC0_CallbackRegister

.text.CAN0_InterruptClear%602
                0x0000f214        0xc
 .text.CAN0_InterruptClear
                0x0000f214        0xc build/default/production/_ext/60165182/plib_can0.o
                0x0000f214                CAN0_InterruptClear

.text.NVMCTRL_Initialize%603
                0x0000f220        0xc
 .text.NVMCTRL_Initialize
                0x0000f220        0xc build/default/production/_ext/1593096446/plib_nvmctrl.o
                0x0000f220                NVMCTRL_Initialize

.text.RSTC_ResetCauseGet%604
                0x0000f22c        0xc
 .text.RSTC_ResetCauseGet
                0x0000f22c        0xc build/default/production/_ext/1865585090/plib_rstc.o
                0x0000f22c                RSTC_ResetCauseGet

.text.RTC_RTCCCallbackRegister%605
                0x0000f238        0xc
 .text.RTC_RTCCCallbackRegister
                0x0000f238        0xc build/default/production/_ext/60180175/plib_rtc_clock.o
                0x0000f238                RTC_RTCCCallbackRegister

.text.SERCOM2_I2C_CallbackRegister%606
                0x0000f244        0xc
 .text.SERCOM2_I2C_CallbackRegister
                0x0000f244        0xc build/default/production/_ext/508257091/plib_sercom2_i2c_master.o
                0x0000f244                SERCOM2_I2C_CallbackRegister

.text.SERCOM3_SPI_CallbackRegister%607
                0x0000f250        0xc
 .text.SERCOM3_SPI_CallbackRegister
                0x0000f250        0xc build/default/production/_ext/17022449/plib_sercom3_spi_master.o
                0x0000f250                SERCOM3_SPI_CallbackRegister

.text.SERCOM1_USART_WriteIsBusy%608
                0x0000f25c        0xc
 .text.SERCOM1_USART_WriteIsBusy
                0x0000f25c        0xc build/default/production/_ext/504274921/plib_sercom1_usart.o
                0x0000f25c                SERCOM1_USART_WriteIsBusy

.text.SERCOM1_USART_WriteCountGet%609
                0x0000f268        0xc
 .text.SERCOM1_USART_WriteCountGet
                0x0000f268        0xc build/default/production/_ext/504274921/plib_sercom1_usart.o
                0x0000f268                SERCOM1_USART_WriteCountGet

.text.SERCOM1_USART_WriteCallbackRegister%610
                0x0000f274        0xc
 .text.SERCOM1_USART_WriteCallbackRegister
                0x0000f274        0xc build/default/production/_ext/504274921/plib_sercom1_usart.o
                0x0000f274                SERCOM1_USART_WriteCallbackRegister

.text.SERCOM1_USART_ReadCountGet%611
                0x0000f280        0xc
 .text.SERCOM1_USART_ReadCountGet
                0x0000f280        0xc build/default/production/_ext/504274921/plib_sercom1_usart.o
                0x0000f280                SERCOM1_USART_ReadCountGet

.text.SERCOM1_USART_ReadCallbackRegister%612
                0x0000f28c        0xc
 .text.SERCOM1_USART_ReadCallbackRegister
                0x0000f28c        0xc build/default/production/_ext/504274921/plib_sercom1_usart.o
                0x0000f28c                SERCOM1_USART_ReadCallbackRegister

.text.SYSTICK_TimerPeriodSet%613
                0x0000f298        0xc
 .text.SYSTICK_TimerPeriodSet
                0x0000f298        0xc build/default/production/_ext/1827571544/plib_systick.o
                0x0000f298                SYSTICK_TimerPeriodSet

.text.SYSTICK_TimerCallbackSet%614
                0x0000f2a4        0xc
 .text.SYSTICK_TimerCallbackSet
                0x0000f2a4        0xc build/default/production/_ext/1827571544/plib_systick.o
                0x0000f2a4                SYSTICK_TimerCallbackSet

.rodata.sysConsole0Init%615
                0x0000f2b0        0xc
 .rodata.sysConsole0Init
                0x0000f2b0        0xc build/default/production/_ext/1171490990/initialization.o

.rodata.drvUsart0remapError%616
                0x0000f2bc        0xc
 .rodata.drvUsart0remapError
                0x0000f2bc        0xc build/default/production/_ext/1171490990/initialization.o

.rodata.drvUsart0remapStopBits%617
                0x0000f2c8        0xc
 .rodata.drvUsart0remapStopBits
                0x0000f2c8        0xc build/default/production/_ext/1171490990/initialization.o

.text.BME690_DRIVER_Alert%618
                0x0000f2d4        0xc
 .text.BME690_DRIVER_Alert
                0x0000f2d4        0xc build/default/production/_ext/1360937237/bme690_driver.o
                0x0000f2d4                BME690_DRIVER_Alert

.text.BMP585_DRIVER_Alert%619
                0x0000f2e0        0xc
 .text.BMP585_DRIVER_Alert
                0x0000f2e0        0xc build/default/production/_ext/1360937237/bmp585_driver.o
                0x0000f2e0                BMP585_DRIVER_Alert

.text.CAN0_DRIVER_Set_Task_Start_Status%620
                0x0000f2ec        0xc
 .text.CAN0_DRIVER_Set_Task_Start_Status
                0x0000f2ec        0xc build/default/production/_ext/1360937237/can0_driver.o
                0x0000f2ec                CAN0_DRIVER_Set_Task_Start_Status

.text.CAN0_DRIVER_Get_Task_Completed_Status%621
                0x0000f2f8        0xc
 .text.CAN0_DRIVER_Get_Task_Completed_Status
                0x0000f2f8        0xc build/default/production/_ext/1360937237/can0_driver.o
                0x0000f2f8                CAN0_DRIVER_Get_Task_Completed_Status

.text.CAN0_DRIVER_Set_Task_Completed_Status%622
                0x0000f304        0xc
 .text.CAN0_DRIVER_Set_Task_Completed_Status
                0x0000f304        0xc build/default/production/_ext/1360937237/can0_driver.o
                0x0000f304                CAN0_DRIVER_Set_Task_Completed_Status

.text.CONSOLE_DRIVER_Set_Task_Start_Status%623
                0x0000f310        0xc
 .text.CONSOLE_DRIVER_Set_Task_Start_Status
                0x0000f310        0xc build/default/production/_ext/1360937237/console_driver.o
                0x0000f310                CONSOLE_DRIVER_Set_Task_Start_Status

.text.CONSOLE_DRIVER_Get_Task_Completed_Status%624
                0x0000f31c        0xc
 .text.CONSOLE_DRIVER_Get_Task_Completed_Status
                0x0000f31c        0xc build/default/production/_ext/1360937237/console_driver.o
                0x0000f31c                CONSOLE_DRIVER_Get_Task_Completed_Status

.text.CONSOLE_DRIVER_Set_Task_Completed_Status%625
                0x0000f328        0xc
 .text.CONSOLE_DRIVER_Set_Task_Completed_Status
                0x0000f328        0xc build/default/production/_ext/1360937237/console_driver.o
                0x0000f328                CONSOLE_DRIVER_Set_Task_Completed_Status

.text.CONSOLE_DRIVER_Initialize%626
                0x0000f334        0xc
 .text.CONSOLE_DRIVER_Initialize
                0x0000f334        0xc build/default/production/_ext/1360937237/console_driver.o
                0x0000f334                CONSOLE_DRIVER_Initialize

.text.HDC302X_DRIVER_Alert%627
                0x0000f340        0xc
 .text.HDC302X_DRIVER_Alert
                0x0000f340        0xc build/default/production/_ext/1360937237/hdc302x_driver.o
                0x0000f340                HDC302X_DRIVER_Alert

.text.HDC302X_DRIVER_Set_Task_Start_Status%628
                0x0000f34c        0xc
 .text.HDC302X_DRIVER_Set_Task_Start_Status
                0x0000f34c        0xc build/default/production/_ext/1360937237/hdc302x_driver.o
                0x0000f34c                HDC302X_DRIVER_Set_Task_Start_Status

.text.HDC302X_DRIVER_Get_Task_Completed_Status%629
                0x0000f358        0xc
 .text.HDC302X_DRIVER_Get_Task_Completed_Status
                0x0000f358        0xc build/default/production/_ext/1360937237/hdc302x_driver.o
                0x0000f358                HDC302X_DRIVER_Get_Task_Completed_Status

.text.HDC302X_DRIVER_Set_Task_Completed_Status%630
                0x0000f364        0xc
 .text.HDC302X_DRIVER_Set_Task_Completed_Status
                0x0000f364        0xc build/default/production/_ext/1360937237/hdc302x_driver.o
                0x0000f364                HDC302X_DRIVER_Set_Task_Completed_Status

.text.MCP9808_DRIVER_Alert%631
                0x0000f370        0xc
 .text.MCP9808_DRIVER_Alert
                0x0000f370        0xc build/default/production/_ext/1360937237/mcp9808_driver.o
                0x0000f370                MCP9808_DRIVER_Alert

.text.RSTC_DRIVER_Initialize%632
                0x0000f37c        0xc
 .text.RSTC_DRIVER_Initialize
                0x0000f37c        0xc build/default/production/_ext/1360937237/rstc_driver.o
                0x0000f37c                RSTC_DRIVER_Initialize

.text.RTC_DRIVER_Set_Alarm_Status%633
                0x0000f388        0xc
 .text.RTC_DRIVER_Set_Alarm_Status
                0x0000f388        0xc build/default/production/_ext/1360937237/rtc_driver.o
                0x0000f388                RTC_DRIVER_Set_Alarm_Status

.text.Start_Up_TMR_Callback%634
                0x0000f394        0xc
 .text.Start_Up_TMR_Callback
                0x0000f394        0xc build/default/production/_ext/1360937237/timer_driver.o
                0x0000f394                Start_Up_TMR_Callback

.text.Main_TMR_Callback%635
                0x0000f3a0        0xc
 .text.Main_TMR_Callback
                0x0000f3a0        0xc build/default/production/_ext/1360937237/timer_driver.o
                0x0000f3a0                Main_TMR_Callback

.text.Bus_TMR_Callback%636
                0x0000f3ac        0xc
 .text.Bus_TMR_Callback
                0x0000f3ac        0xc build/default/production/_ext/1360937237/timer_driver.o
                0x0000f3ac                Bus_TMR_Callback

.text.Wait_TMR_Callback%637
                0x0000f3b8        0xc
 .text.Wait_TMR_Callback
                0x0000f3b8        0xc build/default/production/_ext/1360937237/timer_driver.o
                0x0000f3b8                Wait_TMR_Callback

.text.TIMER_DRIVER_Get_Bus_TMR_Status%638
                0x0000f3c4        0xc
 .text.TIMER_DRIVER_Get_Bus_TMR_Status
                0x0000f3c4        0xc build/default/production/_ext/1360937237/timer_driver.o
                0x0000f3c4                TIMER_DRIVER_Get_Bus_TMR_Status

.text.TIMER_DRIVER_Set_Bus_TMR_Status%639
                0x0000f3d0        0xc
 .text.TIMER_DRIVER_Set_Bus_TMR_Status
                0x0000f3d0        0xc build/default/production/_ext/1360937237/timer_driver.o
                0x0000f3d0                TIMER_DRIVER_Set_Bus_TMR_Status

.text.TIMER_DRIVER_Get_Wait_TMR_Status%640
                0x0000f3dc        0xc
 .text.TIMER_DRIVER_Get_Wait_TMR_Status
                0x0000f3dc        0xc build/default/production/_ext/1360937237/timer_driver.o
                0x0000f3dc                TIMER_DRIVER_Get_Wait_TMR_Status

.text.TIMER_DRIVER_Set_Wait_TMR_Status%641
                0x0000f3e8        0xc
 .text.TIMER_DRIVER_Set_Wait_TMR_Status
                0x0000f3e8        0xc build/default/production/_ext/1360937237/timer_driver.o
                0x0000f3e8                TIMER_DRIVER_Set_Wait_TMR_Status

.text.VCNL4200_DRIVER_Alert%642
                0x0000f3f4        0xc
 .text.VCNL4200_DRIVER_Alert
                0x0000f3f4        0xc build/default/production/_ext/1360937237/vcnl4200_driver.o
                0x0000f3f4                VCNL4200_DRIVER_Alert

.text.XM125_DRIVER_Alert%643
                0x0000f400        0xc
 .text.XM125_DRIVER_Alert
                0x0000f400        0xc build/default/production/_ext/1360937237/xm125_driver.o
                0x0000f400                XM125_DRIVER_Alert

.text.APP_Initialize%644
                0x0000f40c        0xc
 .text.APP_Initialize
                0x0000f40c        0xc build/default/production/_ext/1360937237/app.o
                0x0000f40c                APP_Initialize

.text.strcpy%645
                0x0000f418        0xc
 .text.strcpy   0x0000f418        0xc C:/Applications/Microchip/XC32/bin/bin/../../lib/gcc/pic32c/13.2.1/../../../../pic32c/lib/thumb/v6-m/nofp\libc-size-musl.a(strcpy.o)
                0x0000f418                strcpy

.text.WDRV_WINC_INTDeinitialize%646
                0x0000f424        0xa
 .text.WDRV_WINC_INTDeinitialize
                0x0000f424        0xa build/default/production/_ext/622324608/wdrv_winc_eint.o
                0x0000f424                WDRV_WINC_INTDeinitialize

.rodata.secTypeAuthTypeMap%647
                0x0000f430        0xa
 .rodata.secTypeAuthTypeMap
                0x0000f430        0xa build/default/production/_ext/1706628858/wdrv_winc_bssfind.o

.text.OSAL_Malloc%648
                0x0000f43a        0x8
 .text.OSAL_Malloc
                0x0000f43a        0x8 build/default/production/_ext/1706628858/wdrv_winc.o

.text.OSAL_Free%649
                0x0000f442        0x8
 .text.OSAL_Free
                0x0000f442        0x8 build/default/production/_ext/1706628858/wdrv_winc.o

.text.SERCOM0_USART_WriteCountGet%650
                0x0000f44a        0x8
 .text.SERCOM0_USART_WriteCountGet
                0x0000f44a        0x8 build/default/production/_ext/504274921/plib_sercom0_usart.o
                0x0000f44a                SERCOM0_USART_WriteCountGet

.text.SYSTICK_TimerFrequencyGet%651
                0x0000f454        0x8
 .text.SYSTICK_TimerFrequencyGet
                0x0000f454        0x8 build/default/production/_ext/1827571544/plib_systick.o
                0x0000f454                SYSTICK_TimerFrequencyGet

.text.SYS_INT_Disable%652
                0x0000f45c        0x8
 .text.SYS_INT_Disable
                0x0000f45c        0x8 build/default/production/_ext/1881668453/sys_int.o
                0x0000f45c                SYS_INT_Disable

.text.SYS_INT_Restore%653
                0x0000f464        0x8
 .text.SYS_INT_Restore
                0x0000f464        0x8 build/default/production/_ext/1881668453/sys_int.o
                0x0000f464                SYS_INT_Restore

.rodata.sysTimeInitData%654
                0x0000f46c        0x8
 .rodata.sysTimeInitData
                0x0000f46c        0x8 build/default/production/_ext/1171490990/initialization.o

.rodata.drvSPI0remapClockPhase%655
                0x0000f474        0x8
 .rodata.drvSPI0remapClockPhase
                0x0000f474        0x8 build/default/production/_ext/1171490990/initialization.o

.rodata.drvSPI0remapClockPolarity%656
                0x0000f47c        0x8
 .rodata.drvSPI0remapClockPolarity
                0x0000f47c        0x8 build/default/production/_ext/1171490990/initialization.o

.rodata.wdrvWincInitData%657
                0x0000f484        0x8
 .rodata.wdrvWincInitData
                0x0000f484        0x8 build/default/production/_ext/1171490990/initialization.o

.text.SERCOM1_7_Handler%658
                0x0000f48c        0x8
 .text.SERCOM1_7_Handler
                0x0000f48c        0x8 build/default/production/_ext/1171490990/interrupts.o

.text.SERCOM0_6_Handler%659
                0x0000f494        0x8
 .text.SERCOM0_6_Handler
                0x0000f494        0x8 build/default/production/_ext/1171490990/interrupts.o

.text.SYSTEM_Handler%660
                0x0000f49c        0x8
 .text.SYSTEM_Handler
                0x0000f49c        0x8 build/default/production/_ext/1171490990/interrupts.o

.text.sdioCRC7%661
                0x0000f4a4        0x4
 .text.sdioCRC7
                0x0000f4a4        0x4 build/default/production/_ext/1857064221/winc_sdio_drv.o

.text.PORT_GroupSet%662
                0x0000f4a8        0x4
 .text.PORT_GroupSet
                0x0000f4a8        0x4 build/default/production/_ext/1865521619/plib_port.o
                0x0000f4a8                PORT_GroupSet

.text.PORT_GroupClear%663
                0x0000f4ac        0x4
 .text.PORT_GroupClear
                0x0000f4ac        0x4 build/default/production/_ext/1865521619/plib_port.o
                0x0000f4ac                PORT_GroupClear

.text.Console_UART_Flush%664
                0x0000f4b0        0x4
 .text.Console_UART_Flush
                0x0000f4b0        0x4 build/default/production/_ext/1832805299/sys_console_uart.o
                0x0000f4b0                Console_UART_Flush

.rodata.sysConsole0UARTInitData%665
                0x0000f4b4        0x4
 .rodata.sysConsole0UARTInitData
                0x0000f4b4        0x4 build/default/production/_ext/1171490990/initialization.o

.text.__dummy_decompress%666
                0x0000f4b8        0x4
 .text.__dummy_decompress
                0x0000f4b8        0x4 C:/Applications/Microchip/XC32/bin/bin/../../lib/gcc/pic32c/13.2.1/../../../../pic32c/lib/thumb/v6-m/nofp\libpic32c.a(data_init.o)
                0x0000f4b8                __dinit_decompress
                0x0000f4b8                __dinit_copy_val_data
                0x0000f4b8                __dinit_copy_emb

.text%667       0x0000f4bc        0x4
 .text          0x0000f4bc        0x4 C:/Applications/Microchip/XC32/bin/bin/../../lib/gcc/pic32c/13.2.1/thumb/v6-m/nofp\libgcc.a(_dvmd_tls.o)
                0x0000f4bc                __aeabi_idiv0
                0x0000f4bc                __aeabi_ldiv0

.text.EVSYS_Initialize%668
                0x000024ea        0x2
 .text.EVSYS_Initialize
                0x000024ea        0x2 build/default/production/_ext/1986646378/plib_evsys.o
                0x000024ea                EVSYS_Initialize

.text.Console_UART_Tasks%669
                0x000050e6        0x2
 .text.Console_UART_Tasks
                0x000050e6        0x2 build/default/production/_ext/1832805299/sys_console_uart.o
                0x000050e6                Console_UART_Tasks

.text.Dummy_Handler%670
                0x000055a6        0x2
 .text.Dummy_Handler
                0x000055a6        0x2 build/default/production/_ext/1171490990/interrupts.o
                0x000055a6                SVCall_Handler
                0x000055a6                AC_Handler
                0x000055a6                PendSV_Handler
                0x000055a6                TCC1_Handler
                0x000055a6                TC2_7_Handler
                0x000055a6                TCC0_Handler
                0x000055a6                TC1_6_Handler
                0x000055a6                ADC1_Handler
                0x000055a6                WDT_Handler
                0x000055a6                CAN0_Handler
                0x000055a6                TC4_Handler
                0x000055a6                TC3_Handler
                0x000055a6                Dummy_Handler
                0x000055a6                TC0_5_Handler
                0x000055a6                SERCOM5_Handler
                0x000055a6                MCRAMC_Handler
                0x000055a6                CAN1_Handler
                0x000055a6                PDEC_Handler
                0x000055a6                TCC2_Handler
                0x000055a6                EVSYS_Handler
                0x000055a6                NVMCTRL_Handler
                0x000055a6                DAC_Handler
                0x000055a6                PTC_Handler
                0x000055a6                ICM_Handler

.text.NonMaskableInt_Handler%671
                0x00005a2a        0x2
 .text.NonMaskableInt_Handler
                0x00005a2a        0x2 build/default/production/_ext/1171490990/exceptions.o
                0x00005a2a                NonMaskableInt_Handler

.text.HardFault_Handler%672
                0x00006e9e        0x2
 .text.HardFault_Handler
                0x00006e9e        0x2 build/default/production/_ext/1171490990/exceptions.o
                0x00006e9e                HardFault_Handler

.text.Dummy_App_Func%673
                0x000070c6        0x2
 .text.Dummy_App_Func
                0x000070c6        0x2 build/default/production/_ext/1171490990/startup_xc32.o
                0x000070c6                _on_reset
                0x000070c6                _on_bootstrap
                0x000070c6                __xc32_on_reset
                0x000070c6                Dummy_App_Func
                0x000070c6                __xc32_on_bootstrap

.text.__dummy_init_tls%674
                0x0000811a        0x2
 .text.__dummy_init_tls
                0x0000811a        0x2 C:/Applications/Microchip/XC32/bin/bin/../../lib/gcc/pic32c/13.2.1/../../../../pic32c/lib/thumb/v6-m/nofp\libpic32c.a(data_init.o)
                0x0000811a                xc32_init_tls

.text.__dummy%675
                0x0000855a        0x2
 .text.__dummy  0x0000855a        0x2 C:/Applications/Microchip/XC32/bin/bin/../../lib/gcc/pic32c/13.2.1/../../../../pic32c/lib/thumb/v6-m/nofp\libc-musl.a(__libc_start_main.o)
                0x0000855a                __init_stdio
                0x0000855a                __init_host
