Archive member included to satisfy reference by file (symbol)

c:/applications/microchip/xc32/bin/bin/../../lib/gcc/pic32c/8.3.1/../../../../pic32c/lib/thumb/v8-m.main+fp/hard\libpic32c.a(data_init.o)
                              build/default/production/_ext/1171490990/startup_xc32.o (__pic32c_data_initialization)
c:/applications/microchip/xc32/bin/bin/../../lib/gcc/pic32c/8.3.1/../../../../pic32c/lib/thumb/v8-m.main+fp/hard\libc-size-musl.a(memset.o)
                              build/default/production/_ext/60165182/plib_can0.o (memset)
c:/applications/microchip/xc32/bin/bin/../../lib/gcc/pic32c/8.3.1/../../../../pic32c/lib/thumb/v8-m.main+fp/hard\libc-size-musl.a(strlen.o)
                              build/default/production/_ext/1832805299/sys_console.o (strlen)
c:/applications/microchip/xc32/bin/bin/../../lib/gcc/pic32c/8.3.1/../../../../pic32c/lib/thumb/v8-m.main+fp/hard\libm-fast-emfloat.a(__aeabi_ul2f.o)
                              build/default/production/_ext/101884895/sys_time.o (__aeabi_ul2f)
c:/applications/microchip/xc32/bin/bin/../../lib/gcc/pic32c/8.3.1/../../../../pic32c/lib/thumb/v8-m.main+fp/hard\libm-fast-emfloat.a(__aeabi_f2d.o)
                              build/default/production/_ext/1360937237/hdc302x_driver.o (__aeabi_f2d)
c:/applications/microchip/xc32/bin/bin/../../lib/gcc/pic32c/8.3.1/../../../../pic32c/lib/thumb/v8-m.main+fp/hard\libc-musl.a(__libc_start_main.o)
                              build/default/production/_ext/1171490990/startup_xc32.o (__libc_init_array)
c:/applications/microchip/xc32/bin/bin/../../lib/gcc/pic32c/8.3.1/../../../../pic32c/lib/thumb/v8-m.main+fp/hard\libc-musl.a(libc.o)
                              c:/applications/microchip/xc32/bin/bin/../../lib/gcc/pic32c/8.3.1/../../../../pic32c/lib/thumb/v8-m.main+fp/hard\libc-musl.a(__libc_start_main.o) (__progname_full)
c:/applications/microchip/xc32/bin/bin/../../lib/gcc/pic32c/8.3.1/../../../../pic32c/lib/thumb/v8-m.main+fp/hard\libc-musl.a(vsnprintf.o)
                              build/default/production/_ext/1832805299/sys_console.o (vsnprintf)
c:/applications/microchip/xc32/bin/bin/../../lib/gcc/pic32c/8.3.1/../../../../pic32c/lib/thumb/v8-m.main+fp/hard\libc-musl.a(__environ.o)
                              c:/applications/microchip/xc32/bin/bin/../../lib/gcc/pic32c/8.3.1/../../../../pic32c/lib/thumb/v8-m.main+fp/hard\libc-musl.a(__libc_start_main.o) (__environ)
c:/applications/microchip/xc32/bin/bin/../../lib/gcc/pic32c/8.3.1/../../../../pic32c/lib/thumb/v8-m.main+fp/hard\libc-musl.a(__errno_location.o)
                              c:/applications/microchip/xc32/bin/bin/../../lib/gcc/pic32c/8.3.1/../../../../pic32c/lib/thumb/v8-m.main+fp/hard\libc-musl.a(vsnprintf.o) (__errno_val)
c:/applications/microchip/xc32/bin/bin/../../lib/gcc/pic32c/8.3.1/../../../../pic32c/lib/thumb/v8-m.main+fp/hard\libc-musl.a(vfprintf.o)
                              c:/applications/microchip/xc32/bin/bin/../../lib/gcc/pic32c/8.3.1/../../../../pic32c/lib/thumb/v8-m.main+fp/hard\libc-musl.a(vsnprintf.o) (vfprintf)
c:/applications/microchip/xc32/bin/bin/../../lib/gcc/pic32c/8.3.1/../../../../pic32c/lib/thumb/v8-m.main+fp/hard\libc-musl.a(__io_fmt_needed.o)
                              c:/applications/microchip/xc32/bin/bin/../../lib/gcc/pic32c/8.3.1/../../../../pic32c/lib/thumb/v8-m.main+fp/hard\libc-musl.a(vfprintf.o) (__io_fmt_needed)
c:/applications/microchip/xc32/bin/bin/../../lib/gcc/pic32c/8.3.1/../../../../pic32c/lib/thumb/v8-m.main+fp/hard\libc-musl.a(__pop_float.o)
                              c:/applications/microchip/xc32/bin/bin/../../lib/gcc/pic32c/8.3.1/../../../../pic32c/lib/thumb/v8-m.main+fp/hard\libc-musl.a(__io_fmt_needed.o) (__pop_float_needed)
c:/applications/microchip/xc32/bin/bin/../../lib/gcc/pic32c/8.3.1/../../../../pic32c/lib/thumb/v8-m.main+fp/hard\libc-musl.a(__pop_int.o)
                              c:/applications/microchip/xc32/bin/bin/../../lib/gcc/pic32c/8.3.1/../../../../pic32c/lib/thumb/v8-m.main+fp/hard\libc-musl.a(__io_fmt_needed.o) (__pop_int_needed)
c:/applications/microchip/xc32/bin/bin/../../lib/gcc/pic32c/8.3.1/../../../../pic32c/lib/thumb/v8-m.main+fp/hard\libc-musl.a(__pop_ptr.o)
                              c:/applications/microchip/xc32/bin/bin/../../lib/gcc/pic32c/8.3.1/../../../../pic32c/lib/thumb/v8-m.main+fp/hard\libc-musl.a(__io_fmt_needed.o) (__pop_ptr_needed)
c:/applications/microchip/xc32/bin/bin/../../lib/gcc/pic32c/8.3.1/../../../../pic32c/lib/thumb/v8-m.main+fp/hard\libc-musl.a(__printf_core.o)
                              c:/applications/microchip/xc32/bin/bin/../../lib/gcc/pic32c/8.3.1/../../../../pic32c/lib/thumb/v8-m.main+fp/hard\libc-musl.a(vfprintf.o) (__printf_core)
c:/applications/microchip/xc32/bin/bin/../../lib/gcc/pic32c/8.3.1/../../../../pic32c/lib/thumb/v8-m.main+fp/hard\libc-musl.a(atoi.o)
                              c:/applications/microchip/xc32/bin/bin/../../lib/gcc/pic32c/8.3.1/../../../../pic32c/lib/thumb/v8-m.main+fp/hard\libc-musl.a(__printf_core.o) (atoi)
c:/applications/microchip/xc32/bin/bin/../../lib/gcc/pic32c/8.3.1/../../../../pic32c/lib/thumb/v8-m.main+fp/hard\libc-musl.a(tolower.o)
                              c:/applications/microchip/xc32/bin/bin/../../lib/gcc/pic32c/8.3.1/../../../../pic32c/lib/thumb/v8-m.main+fp/hard\libc-musl.a(__printf_core.o) (tolower)
c:/applications/microchip/xc32/bin/bin/../../lib/gcc/pic32c/8.3.1/../../../../pic32c/lib/thumb/v8-m.main+fp/hard\libc-musl.a(__fmt_a.o)
                              c:/applications/microchip/xc32/bin/bin/../../lib/gcc/pic32c/8.3.1/../../../../pic32c/lib/thumb/v8-m.main+fp/hard\libc-musl.a(__io_fmt_needed.o) (__fmt_a_needed)
c:/applications/microchip/xc32/bin/bin/../../lib/gcc/pic32c/8.3.1/../../../../pic32c/lib/thumb/v8-m.main+fp/hard\libc-musl.a(__fmt_d.o)
                              c:/applications/microchip/xc32/bin/bin/../../lib/gcc/pic32c/8.3.1/../../../../pic32c/lib/thumb/v8-m.main+fp/hard\libc-musl.a(__io_fmt_needed.o) (__fmt_d_needed)
c:/applications/microchip/xc32/bin/bin/../../lib/gcc/pic32c/8.3.1/../../../../pic32c/lib/thumb/v8-m.main+fp/hard\libc-musl.a(__fmt_fp.o)
                              c:/applications/microchip/xc32/bin/bin/../../lib/gcc/pic32c/8.3.1/../../../../pic32c/lib/thumb/v8-m.main+fp/hard\libc-musl.a(__io_fmt_needed.o) (__fmt_f_needed)
c:/applications/microchip/xc32/bin/bin/../../lib/gcc/pic32c/8.3.1/../../../../pic32c/lib/thumb/v8-m.main+fp/hard\libc-musl.a(__fmt_o.o)
                              c:/applications/microchip/xc32/bin/bin/../../lib/gcc/pic32c/8.3.1/../../../../pic32c/lib/thumb/v8-m.main+fp/hard\libc-musl.a(__io_fmt_needed.o) (__fmt_o_needed)
c:/applications/microchip/xc32/bin/bin/../../lib/gcc/pic32c/8.3.1/../../../../pic32c/lib/thumb/v8-m.main+fp/hard\libc-musl.a(__fmt_s.o)
                              c:/applications/microchip/xc32/bin/bin/../../lib/gcc/pic32c/8.3.1/../../../../pic32c/lib/thumb/v8-m.main+fp/hard\libc-musl.a(__io_fmt_needed.o) (__fmt_s_needed)
c:/applications/microchip/xc32/bin/bin/../../lib/gcc/pic32c/8.3.1/../../../../pic32c/lib/thumb/v8-m.main+fp/hard\libc-musl.a(__fmt_u.o)
                              c:/applications/microchip/xc32/bin/bin/../../lib/gcc/pic32c/8.3.1/../../../../pic32c/lib/thumb/v8-m.main+fp/hard\libc-musl.a(__io_fmt_needed.o) (__fmt_u_needed)
c:/applications/microchip/xc32/bin/bin/../../lib/gcc/pic32c/8.3.1/../../../../pic32c/lib/thumb/v8-m.main+fp/hard\libc-musl.a(__fmt_x.o)
                              c:/applications/microchip/xc32/bin/bin/../../lib/gcc/pic32c/8.3.1/../../../../pic32c/lib/thumb/v8-m.main+fp/hard\libc-musl.a(__io_fmt_needed.o) (__fmt_x_needed)
c:/applications/microchip/xc32/bin/bin/../../lib/gcc/pic32c/8.3.1/../../../../pic32c/lib/thumb/v8-m.main+fp/hard\libc-musl.a(toupper.o)
                              c:/applications/microchip/xc32/bin/bin/../../lib/gcc/pic32c/8.3.1/../../../../pic32c/lib/thumb/v8-m.main+fp/hard\libc-musl.a(__fmt_a.o) (toupper)
c:/applications/microchip/xc32/bin/bin/../../lib/gcc/pic32c/8.3.1/../../../../pic32c/lib/thumb/v8-m.main+fp/hard\libc-musl.a(__cvt_u.o)
                              c:/applications/microchip/xc32/bin/bin/../../lib/gcc/pic32c/8.3.1/../../../../pic32c/lib/thumb/v8-m.main+fp/hard\libc-musl.a(__fmt_d.o) (__cvt_u)
c:/applications/microchip/xc32/bin/bin/../../lib/gcc/pic32c/8.3.1/../../../../pic32c/lib/thumb/v8-m.main+fp/hard\libm-fast-emfloat.a(fma.o)
                              c:/applications/microchip/xc32/bin/bin/../../lib/gcc/pic32c/8.3.1/../../../../pic32c/lib/thumb/v8-m.main+fp/hard\libc-musl.a(__fmt_fp.o) (fma)
c:/applications/microchip/xc32/bin/bin/../../lib/gcc/pic32c/8.3.1/../../../../pic32c/lib/thumb/v8-m.main+fp/hard\libm-fast-emfloat.a(floor.o)
                              c:/applications/microchip/xc32/bin/bin/../../lib/gcc/pic32c/8.3.1/../../../../pic32c/lib/thumb/v8-m.main+fp/hard\libc-musl.a(__fmt_a.o) (floor)
c:/applications/microchip/xc32/bin/bin/../../lib/gcc/pic32c/8.3.1/../../../../pic32c/lib/thumb/v8-m.main+fp/hard\libm-fast-emfloat.a(__aeabi_dadd.o)
                              c:/applications/microchip/xc32/bin/bin/../../lib/gcc/pic32c/8.3.1/../../../../pic32c/lib/thumb/v8-m.main+fp/hard\libc-musl.a(__fmt_a.o) (__aeabi_dadd)
c:/applications/microchip/xc32/bin/bin/../../lib/gcc/pic32c/8.3.1/../../../../pic32c/lib/thumb/v8-m.main+fp/hard\libm-fast-emfloat.a(__aeabi_dsub.o)
                              c:/applications/microchip/xc32/bin/bin/../../lib/gcc/pic32c/8.3.1/../../../../pic32c/lib/thumb/v8-m.main+fp/hard\libc-musl.a(__fmt_a.o) (__aeabi_dsub)
c:/applications/microchip/xc32/bin/bin/../../lib/gcc/pic32c/8.3.1/../../../../pic32c/lib/thumb/v8-m.main+fp/hard\libm-fast-emfloat.a(__aeabi_dmul.o)
                              c:/applications/microchip/xc32/bin/bin/../../lib/gcc/pic32c/8.3.1/../../../../pic32c/lib/thumb/v8-m.main+fp/hard\libc-musl.a(__fmt_a.o) (__aeabi_dmul)
c:/applications/microchip/xc32/bin/bin/../../lib/gcc/pic32c/8.3.1/../../../../pic32c/lib/thumb/v8-m.main+fp/hard\libm-fast-emfloat.a(__aeabi_ddiv.o)
                              c:/applications/microchip/xc32/bin/bin/../../lib/gcc/pic32c/8.3.1/../../../../pic32c/lib/thumb/v8-m.main+fp/hard\libc-musl.a(__fmt_a.o) (__aeabi_ddiv)
c:/applications/microchip/xc32/bin/bin/../../lib/gcc/pic32c/8.3.1/../../../../pic32c/lib/thumb/v8-m.main+fp/hard\libm-fast-emfloat.a(__aeabi_dcmple.o)
                              c:/applications/microchip/xc32/bin/bin/../../lib/gcc/pic32c/8.3.1/../../../../pic32c/lib/thumb/v8-m.main+fp/hard\libc-musl.a(__fmt_fp.o) (__aeabi_dcmple)
c:/applications/microchip/xc32/bin/bin/../../lib/gcc/pic32c/8.3.1/../../../../pic32c/lib/thumb/v8-m.main+fp/hard\libm-fast-emfloat.a(__aeabi_dcmpeq.o)
                              c:/applications/microchip/xc32/bin/bin/../../lib/gcc/pic32c/8.3.1/../../../../pic32c/lib/thumb/v8-m.main+fp/hard\libc-musl.a(__fmt_a.o) (__aeabi_dcmpeq)
c:/applications/microchip/xc32/bin/bin/../../lib/gcc/pic32c/8.3.1/../../../../pic32c/lib/thumb/v8-m.main+fp/hard\libm-fast-emfloat.a(__aeabi_dcmpgt.o)
                              c:/applications/microchip/xc32/bin/bin/../../lib/gcc/pic32c/8.3.1/../../../../pic32c/lib/thumb/v8-m.main+fp/hard\libc-musl.a(__fmt_fp.o) (__aeabi_dcmpgt)
c:/applications/microchip/xc32/bin/bin/../../lib/gcc/pic32c/8.3.1/../../../../pic32c/lib/thumb/v8-m.main+fp/hard\libm-fast-emfloat.a(__aeabi_dcmplt.o)
                              c:/applications/microchip/xc32/bin/bin/../../lib/gcc/pic32c/8.3.1/../../../../pic32c/lib/thumb/v8-m.main+fp/hard\libc-musl.a(__fmt_a.o) (__aeabi_dcmplt)
c:/applications/microchip/xc32/bin/bin/../../lib/gcc/pic32c/8.3.1/../../../../pic32c/lib/thumb/v8-m.main+fp/hard\libm-fast-emfloat.a(__aeabi_d2iz.o)
                              c:/applications/microchip/xc32/bin/bin/../../lib/gcc/pic32c/8.3.1/../../../../pic32c/lib/thumb/v8-m.main+fp/hard\libc-musl.a(__fmt_a.o) (__aeabi_d2iz)
c:/applications/microchip/xc32/bin/bin/../../lib/gcc/pic32c/8.3.1/thumb/v8-m.main+fp/hard\libgcc.a(_aeabi_uldivmod.o)
                              c:/applications/microchip/xc32/bin/bin/../../lib/gcc/pic32c/8.3.1/../../../../pic32c/lib/thumb/v8-m.main+fp/hard\libc-musl.a(__cvt_u.o) (__aeabi_uldivmod)
c:/applications/microchip/xc32/bin/bin/../../lib/gcc/pic32c/8.3.1/thumb/v8-m.main+fp/hard\libgcc.a(_udivmoddi4.o)
                              c:/applications/microchip/xc32/bin/bin/../../lib/gcc/pic32c/8.3.1/thumb/v8-m.main+fp/hard\libgcc.a(_aeabi_uldivmod.o) (__udivmoddi4)
c:/applications/microchip/xc32/bin/bin/../../lib/gcc/pic32c/8.3.1/thumb/v8-m.main+fp/hard\libgcc.a(_dvmd_tls.o)
                              c:/applications/microchip/xc32/bin/bin/../../lib/gcc/pic32c/8.3.1/thumb/v8-m.main+fp/hard\libgcc.a(_aeabi_uldivmod.o) (__aeabi_ldiv0)
c:/applications/microchip/xc32/bin/bin/../../lib/gcc/pic32c/8.3.1/../../../../pic32c/lib/thumb/v8-m.main+fp/hard\libc-size-musl.a(memcpy.o)
                              c:/applications/microchip/xc32/bin/bin/../../lib/gcc/pic32c/8.3.1/../../../../pic32c/lib/thumb/v8-m.main+fp/hard\libc-musl.a(__printf_core.o) (memcpy)
c:/applications/microchip/xc32/bin/bin/../../lib/gcc/pic32c/8.3.1/../../../../pic32c/lib/thumb/v8-m.main+fp/hard\libc-size-musl.a(strcpy.o)
                              c:/applications/microchip/xc32/bin/bin/../../lib/gcc/pic32c/8.3.1/../../../../pic32c/lib/thumb/v8-m.main+fp/hard\libc-musl.a(__fmt_a.o) (strcpy)
c:/applications/microchip/xc32/bin/bin/../../lib/gcc/pic32c/8.3.1/../../../../pic32c/lib/thumb/v8-m.main+fp/hard\libc-size-musl.a(stpcpy.o)
                              c:/applications/microchip/xc32/bin/bin/../../lib/gcc/pic32c/8.3.1/../../../../pic32c/lib/thumb/v8-m.main+fp/hard\libc-size-musl.a(strcpy.o) (__stpcpy)
c:/applications/microchip/xc32/bin/bin/../../lib/gcc/pic32c/8.3.1/../../../../pic32c/lib/thumb/v8-m.main+fp/hard\libpic32c.a(pic32_data_init_clear.o)
                              (__dinit_clear_needed)
c:/applications/microchip/xc32/bin/bin/../../lib/gcc/pic32c/8.3.1/../../../../pic32c/lib/thumb/v8-m.main+fp/hard\libpic32c.a(pic32_data_init_copy.o)
                              (__dinit_copy_needed)

Microchip PIC32 Memory-Usage Report

ROM Program-Memory Usage
section                    address  length [bytes]      (dec)  Description
-------                 ----------  -------------------------  -----------
.text                    0xc000000           0x20          32  App's exec code 
.dinit                   0xc000020          0x1f0         496   
.text.SERCOM0_I2C_Inter  0xc000210          0x1bc         444   
.text.SERCOM1_SPI_Write  0xc0003cc          0x17c         380   
.text.SERCOM1_SPI_Inter  0xc000548          0x158         344   
.text.SERCOM2_USART_Ser  0xc0006a0          0x150         336   
.text.CLOCK_Initialize   0xc0007f0          0x14c         332   
.text.NVIC_Initialize    0xc00093c          0x120         288   
.text.SERCOM0_I2C_Trans  0xc000a5c          0x100         256   
.text.lDRV_SPI_PlibCall  0xc000b5c           0xe8         232   
.text.lDRV_USART_Buffer  0xc000c44           0xdc         220   
.text.SERCOM3_USART_Wri  0xc000d20           0xd8         216   
.text.lDRV_SPI_UpdateTr  0xc000df8           0xc8         200   
.text.SYS_Initialize     0xc000ec0           0xc4         196   
.text.SYS_TIME_PLIBCall  0xc000f84           0xc0         192   
.text.SERCOM3_USART_ISR  0xc001044           0xb8         184   
.text.lDRV_I2C_NextTran  0xc0010fc           0xb0         176   
.text.SYS_TIME_TimerObj  0xc0011ac           0xb0         176   
.text.SERCOM1_SPI_Trans  0xc00125c           0xa8         168   
.text.SERCOM3_USART_ISR  0xc001304           0xa8         168   
.text.DRV_USART_Initial  0xc0013ac           0x88         136   
.text.Reset_Handler      0xc001434           0x88         136   
.text.DRV_SPI_Initializ  0xc0014bc           0x84         132   
.text.SERCOM3_USART_Rea  0xc001540           0x84         132   
.text.SYS_TIME_AddToLis  0xc0015c4           0x84         132   
.text.SERCOM3_USART_Ini  0xc001648           0x80         128   
.text.TIMER_DRIVER_Init  0xc0016c8           0x80         128   
.text.SERCOM2_USART_ISR  0xc001748           0x78         120   
.text.SERCOM2_USART_Wri  0xc0017c0           0x74         116   
.text.SYS_TIME_Initiali  0xc001834           0x6c         108   
.text.DRV_I2C_Initializ  0xc0018a0           0x68         104   
.text.SERCOM2_USART_ISR  0xc001908           0x68         104   
.text.SERCOM0_I2C_Initi  0xc001970           0x60          96   
.text.__libc_start_init  0xc0019d0           0x5c          92   
.text.CAN0_Initialize    0xc001a2c           0x58          88   
.text.SERCOM3_USART_Int  0xc001a84           0x58          88   
.text.SERCOM2_USART_Int  0xc001adc           0x58          88   
.text.lDRV_I2C_PLibCall  0xc001b34           0x54          84   
.text.SERCOM2_USART_Ini  0xc001b88           0x54          84   
.text.SYS_CONSOLE_Initi  0xc001bdc           0x54          84   
.text.SYS_TIME_RemoveFr  0xc001c30           0x50          80   
.text.SERCOM0_I2C_Initi  0xc001c80           0x4c          76   
.text.SERCOM3_USART_ISR  0xc001ccc           0x4c          76   
.text.lDRV_I2C_ClientCa  0xc001d18           0x48          72   
.text.RTC_Initialize     0xc001d60           0x48          72   
.text.SERCOM0_I2C_Trans  0xc001da8           0x44          68   
.text.SYS_INT_SourceDis  0xc001dec           0x44          68   
.text.SYS_TIME_MSToCoun  0xc001e30           0x44          68   
.text.SYS_TIME_TimerSta  0xc001e74           0x44          68   
.text.SYS_TIME_Callback  0xc001eb8           0x42          66   
.text.EVSYS_Initialize   0xc001efa            0x2           2   
.text                    0xc001efc           0x40          64  App's exec code 
.text.SERCOM2_USART_Rea  0xc001f3c           0x40          64   
.text.TCC0_TimerInitial  0xc001f7c           0x40          64   
.text.PDEC_QDECInitiali  0xc001fbc           0x3c          60   
.text.SERCOM1_SPI_Initi  0xc001ff8           0x3c          60   
.text.SYS_TIME_GetTimer  0xc002034           0x3c          60   
.text.SYS_TIME_TimerDes  0xc002070           0x3c          60   
.text.SYS_TIME_TimerSto  0xc0020ac           0x3c          60   
.text.SERCOM0_I2C_Read   0xc0020e8           0x38          56   
.text.SERCOM2_USART_ISR  0xc002120           0x38          56   
.text.SYS_TIME_Resource  0xc002158           0x38          56   
.text.__pic32c_data_ini  0xc002190           0x38          56   
.text.EIC_Initialize     0xc0021c8           0x34          52   
.text.SERCOM0_I2C_Write  0xc0021fc           0x34          52   
.text.SERCOM0_I2C_Write  0xc002230           0x34          52   
.text.Console_UART_Read  0xc002264           0x34          52   
.text.Console_UART_Writ  0xc002298           0x34          52   
.text.SERCOM2_USART_Err  0xc0022cc           0x30          48   
.text.Console_UART_Writ  0xc0022fc           0x30          48   
.text.Console_UART_Writ  0xc00232c           0x30          48   
.text.Console_UART_Read  0xc00235c           0x30          48   
.text.Console_UART_Read  0xc00238c           0x30          48   
.text.RTC_InterruptHand  0xc0023bc           0x2c          44   
.rodata.sysConsoleUARTD  0xc0023e8           0x2c          44   
.rodata.drvUsart0InitDa  0xc002414           0x2c          44   
.rodata.drvUsart0PlibAP  0xc002440           0x2c          44   
.text.lDRV_USART_RX_PLI  0xc00246c           0x2a          42   
.text.TRNG_Initialize    0xc002496            0x2           2   
.text.AC_Initialize      0xc002498           0x28          40   
.text.SERCOM2_USART_Rea  0xc0024c0           0x28          40   
.text.TCC0_OTHER_Interr  0xc0024e8           0x28          40   
.rodata.drvSPI0remapDat  0xc002510           0x28          40   
.text.SYSTICK_TimerInit  0xc002538           0x24          36   
.text.SysTick_Handler    0xc00255c           0x24          36   
.text.SYS_TIME_Resource  0xc002580           0x24          36   
.rodata.drvSPI0InitData  0xc0025a4           0x24          36   
.text.lDRV_USART_Remove  0xc0025c8           0x20          32   
.text.SUPC_Initialize    0xc0025e8           0x20          32   
.text.SYS_INT_SourceRes  0xc002608           0x20          32   
.text.__dinit_copy       0xc002628           0x1e          30   
.text.lDRV_USART_ReadSu  0xc002646           0x1c          28   
.text.lDRV_USART_WriteS  0xc002662           0x1c          28   
.text.Console_UART_Task  0xc00267e            0x2           2   
.text.CCL_Initialize     0xc002680           0x1c          28   
.rodata.drvI2C0InitData  0xc00269c           0x1c          28   
.rodata.drvI2C0PLibAPI   0xc0026b8           0x1c          28   
.text.FREQM_Initialize   0xc0026d4           0x18          24   
.text.SERCOM3_USART_Wri  0xc0026ec           0x18          24   
.text.SERCOM3_USART_Rea  0xc002704           0x18          24   
.text.TCC0_TimerStart    0xc00271c           0x18          24   
.text.TCC0_TimerStop     0xc002734           0x18          24   
.rodata.drvUsart0remapP  0xc00274c           0x18          24   
.rodata.sysConsole0UART  0xc002764           0x18          24   
.text.SERCOM1_SPI_IsTra  0xc00277c           0x14          20   
.text.SERCOM3_USART_Rea  0xc002790           0x14          20   
.text.SERCOM3_USART_Wri  0xc0027a4           0x14          20   
.text.TCC0_Timer32bitPe  0xc0027b8           0x14          20   
.text.Console_UART_Init  0xc0027cc           0x14          20   
.rodata.drvI2C0Interrup  0xc0027e0           0x14          20   
.rodata.drvUSART0Interr  0xc0027f4           0x14          20   
.rodata.drvUsart0remapD  0xc002808           0x14          20   
.rodata.sysTimePlibAPI   0xc00281c           0x14          20   
.text.HDC302X_DRIVER_In  0xc002830           0x14          20   
.text.SHT4X_DRIVER_Init  0xc002844           0x14          20   
.text.BME690_DRIVER_Ini  0xc002858           0x14          20   
.rodata                  0xc00286c           0x14          20  Read-only const 
.text.memset             0xc002880           0x14          20   
.text.lDRV_I2C_RemoveTr  0xc002894           0x12          18   
.text.NVIC_INT_Disable   0xc0028a6           0x12          18   
.text.NVIC_INT_Restore   0xc0028b8           0x12          18   
.text.__dinit_clear      0xc0028ca           0x12          18   
.text.PM_Initialize      0xc0028dc           0x10          16   
.text.SERCOM2_USART_Err  0xc0028ec           0x10          16   
.text.Console_UART_Stat  0xc0028fc           0x10          16   
.rodata.drvSPI0Interrup  0xc00290c           0x10          16   
.rodata.drvSPI0PlibAPI   0xc00291c           0x10          16   
.text.TIMER_DRIVER_Stop  0xc00292c           0x10          16   
.text.TIMER_DRIVER_Stop  0xc00293c           0x10          16   
.text.TIMER_DRIVER_Stop  0xc00294c           0x10          16   
.text.TIMER_DRIVER_Stop  0xc00295c           0x10          16   
.text.lDRV_USART_TX_PLI  0xc00296c            0xe          14   
.text.main               0xc00297a            0xe          14   
.text.SERCOM0_I2C_Callb  0xc002988            0xc          12   
.text.SERCOM0_I2C_Error  0xc002994            0xc          12   
.text.SERCOM1_SPI_Callb  0xc0029a0            0xc          12   
.text.SERCOM2_USART_Wri  0xc0029ac            0xc          12   
.text.SERCOM2_USART_Wri  0xc0029b8            0xc          12   
.text.SERCOM2_USART_Wri  0xc0029c4            0xc          12   
.text.SERCOM2_USART_Rea  0xc0029d0            0xc          12   
.text.SERCOM2_USART_Rea  0xc0029dc            0xc          12   
.text.SERCOM2_USART_Rea  0xc0029e8            0xc          12   
.text.TCC0_TimerCallbac  0xc0029f4            0xc          12   
.rodata.drvUsart0remapE  0xc002a00            0xc          12   
.rodata.drvUsart0remapS  0xc002a0c            0xc          12   
.rodata.sysConsole0Init  0xc002a18            0xc          12   
.text.CONSOLE_DRIVER_In  0xc002a24            0xc          12   
.text.RTC_DRIVER_Initia  0xc002a30            0xc          12   
.text.TMR0_Callback      0xc002a3c            0xc          12   
.text.TMR1_Callback      0xc002a48            0xc          12   
.text.TMR2_Callback      0xc002a54            0xc          12   
.text.TMR3_Callback      0xc002a60            0xc          12   
.text.CAN0_DRIVER_Initi  0xc002a6c            0xc          12   
.text.RSTC_DRIVER_Initi  0xc002a78            0xc          12   
.text.SERCOM3_USART_Wri  0xc002a84            0x8           8   
.text.TCC0_TimerFrequen  0xc002a8c            0x8           8   
.rodata.drvSPI0remapClo  0xc002a94            0x8           8   
.rodata.drvSPI0remapClo  0xc002a9c            0x8           8   
.rodata.sysTimeInitData  0xc002aa4            0x8           8   
.text.PORT_GroupSet      0xc002aac            0x4           4   
.text.PORT_GroupClear    0xc002ab0            0x4           4   
.text.Console_UART_Flus  0xc002ab4            0x4           4   
.rodata.sysConsole0UART  0xc002ab8            0x4           4   
.text.__dummy_decompres  0xc002abc            0x4           4   
.text.Dummy_App_Func     0xc002ac0            0x2           2   
.text.NonMaskableInt_Ha  0xc002ac2            0x2           2   
.text.HardFault_Handler  0xc002ac4            0x2           2   
.text.SYS_Tasks          0xc002ac6            0x2           2   
.text.Dummy_Handler      0xc002ac8            0x2           2   
.text.MCP9808_DRIVER_In  0xc002aca            0x2           2   
.text.LC709204F_DRIVER_  0xc002acc            0x2           2   
.text.__dummy_init_tls   0xc002ace            0x2           2   
.text.__dummy            0xc002ad0            0x2           2   
      Total ROM used  :      0x2ad2       10962  0.5% of 0x200000
        --------------------------------------------------------------------------
         Total Program Memory used  :      0x2ad2       10962  0.5% of 0x200000
        --------------------------------------------------------------------------


RAM Data-Memory Usage
section                    address  length [bytes]      (dec)  Description
-------                 ----------  -------------------------  -----------
.bss.SERCOM3_USART_Read 0x20000000         0xffff       65535   
.bss.isLastByteTransfer 0x2000ffff            0x1           1   
.bss.SERCOM3_USART_Writ 0x20010000         0xffff       65535   
.bss.consolePrintBuffer 0x2001ffff            0x1           1   
.bss.drvI2C0TransferObj 0x20020000          0xb00        2816   
.bss.timers             0x20020b00          0x640        1600   
.bss.drvI2C0ClientObjPo 0x20021140           0xf0         240   
.bss.drvUSART0BufferObj 0x20021230           0xb4         180   
.bss.drvSPI0TransferObj 0x200212e4           0x90         144   
.bss.gDrvSPIObj         0x20021374           0x54          84   
.bss                    0x200213c8           0x50          80  Uninitialized data 
.bss.gDrvUSARTObj       0x20021418           0x4c          76   
.bss.sercom3USARTObj    0x20021464           0x40          64   
.bss.gDrvI2CObj         0x200214a4           0x3c          60   
.bss.sercom2USARTObj    0x200214e0           0x30          48   
.bss.gSystemCounterObj  0x20021510           0x30          48   
.bss.sercom0I2CObj      0x20021540           0x2c          44   
.bss.sercom1SPIObj      0x2002156c           0x2c          44   
.bss.drvSPI0ClientObjPo 0x20021598           0x28          40   
.bss.hdc302x_driverData 0x200215c0           0x28          40   
.bss.sht4x_driverData   0x200215e8           0x28          40   
.bss                    0x20021610           0x1c          28  Uninitialized data 
.bss.can0Obj            0x2002162c           0x1c          28   
.bss.bme690_driverData  0x20021648           0x1c          28   
.bss.sysObj             0x20021664           0x14          20   
.bss.timer_driverData   0x20021678           0x14          20   
.bss.drvUSART0ClientObj 0x2002168c           0x10          16   
.bss.rtcObj             0x2002169c            0xc          12   
.bss.systick            0x200216a8            0xc          12   
.bss.consoleDeviceInsta 0x200216b4            0xc          12   
.bss.TCC0_CallbackObjec 0x200216c0            0x8           8   
.bss.gConsoleUartData   0x200216c8            0x8           8   
.bss                    0x200216d0            0x4           4  Uninitialized data 
.bss                    0x200216d4            0x4           4  Uninitialized data 
.bss.rstc_driverData    0x200216d8            0x1           1   
.bss.isConsoleMutexCrea 0x200216d9            0x1           1   
.data.gSysTimeTokenCoun 0x200216da            0x2           2   
.bss.can0_driverData    0x200216dc            0x1           1   
.bss.rtc_driverData     0x200216e0            0x1           1   
.bss.console_driverData 0x200216e4            0x1           1   
         Total RAM used  :     0x216df      136927  26.1% of 0x80000
        --------------------------------------------------------------------------
            Total Data Memory used  :     0x216df      136927  26.1% of 0x80000
        --------------------------------------------------------------------------


Dynamic Data-Memory Reservation
section                    address  length [bytes]      (dec)  Description
-------                 ----------  -------------------------  -----------
heap                    0x200216e8          0x200         512  Reserved for heap 
stack                   0x20021900        0x5e6f0      386800  Reserved for stack 

        --------------------------------------------------------------------------

Microchip PIC32 Memory-Usage Report By Module

        text        data         bss         dec         hex    basename                     filename
--------------------------------------------------------------------------------
        1088           0      131134      132222       2047e    plib_sercom3_usart.o     build/default/production/_ext/504274921/plib_sercom3_usart.o
        1360           0        3456        4816        12d0    initialization.o         build/default/production/_ext/1171490990/initialization.o
        1162           2        1648        2812         afc    sys_time.o               build/default/production/_ext/101884895/sys_time.o
        1144           0          48        1192         4a8    plib_sercom2_usart.o     build/default/production/_ext/504274921/plib_sercom2_usart.o
        1124           0          44        1168         490    plib_sercom0_i2c_master.obuild/default/production/_ext/508257091/plib_sercom0_i2c_master.o
         984           0          45        1029         405    plib_sercom1_spi_master.obuild/default/production/_ext/17022449/plib_sercom1_spi_master.o
         698           0           0         698         2ba    interrupts.o             build/default/production/_ext/1171490990/interrupts.o
         564           0          84         648         288    drv_spi.o                build/default/production/_ext/2070931557/drv_spi.o
         500           0          76         576         240    drv_usart.o              build/default/production/_ext/869808652/drv_usart.o
         454           0          60         514         202    drv_i2c.o                build/default/production/_ext/158385033/drv_i2c.o
         496           0           0         496         1f0    data_init                data_init
         382           0           8         390         186    sys_console_uart.o       build/default/production/_ext/1832805299/sys_console_uart.o
         332           0           0         332         14c    plib_clock.o             build/default/production/_ext/1984496892/plib_clock.o
         324           0           0         324         144    plib_nvic.o              build/default/production/_ext/1865468468/plib_nvic.o
         240           0          20         260         104    timer_driver.o           build/default/production/_ext/1360937237/timer_driver.o
         192           0           8         200          c8    plib_tcc0.o              build/default/production/_ext/60181570/plib_tcc0.o
         138           0           0         138          8a    startup_xc32.o           build/default/production/_ext/1171490990/startup_xc32.o
         116           0          12         128          80    plib_rtc_timer.o         build/default/production/_ext/60180175/plib_rtc_timer.o
          88           0          28         116          74    plib_can0.o              build/default/production/_ext/60165182/plib_can0.o
          72           0          28         100          64    crtbegin.o               c:/applications/microchip/xc32/bin/bin/../../lib/gcc/pic32c/8.3.1/thumb/v8-m.main+fp/hard/crtbegin.o
         100           0           0         100          64    sys_int.o                build/default/production/_ext/1881668453/sys_int.o
          84           0          14          98          62    sys_console.o            build/default/production/_ext/1832805299/sys_console.o
          94           0           0          94          5e    __libc_start_main.o      libc-musl.a
          82           0           4          86          56    data_init.o              libpic32c.a
          72           0          12          84          54    plib_systick.o           build/default/production/_ext/1827571544/plib_systick.o
           0           0          80          80          50    libc.o                   libc-musl.a
          20           0          40          60          3c    sht4x_driver.o           build/default/production/_ext/1360937237/sht4x_driver.o
          60           0           0          60          3c    plib_pdec.o              build/default/production/_ext/1865510628/plib_pdec.o
          20           0          40          60          3c    hdc302x_driver.o         build/default/production/_ext/1360937237/hdc302x_driver.o
          52           0           0          52          34    plib_eic.o               build/default/production/_ext/60167341/plib_eic.o
          20           0          28          48          30    bme690_driver.o          build/default/production/_ext/1360937237/bme690_driver.o
          40           0           0          40          28    plib_ac.o                build/default/production/_ext/829343244/plib_ac.o
          32           0           0          32          20    plib_supc.o              build/default/production/_ext/1865616679/plib_supc.o
          30           0           0          30          1e    pic32_data_init_copy.o   libpic32c.a
          28           0           0          28          1c    plib_ccl.o               build/default/production/_ext/60165242/plib_ccl.o
          24           0           0          24          18    plib_freqm.o             build/default/production/_ext/1987437027/plib_freqm.o
          20           0           0          20          14    memset.o                 libc-size-musl.a
          18           0           0          18          12    pic32_data_init_clear.o  libpic32c.a
          16           0           0          16          10    plib_pm.o                build/default/production/_ext/829342769/plib_pm.o
          16           0           0          16          10    crtn.o                   c:/applications/microchip/xc32/bin/bin/../../lib/gcc/pic32c/8.3.1/thumb/v8-m.main+fp/hard/crtn.o
          14           0           0          14           e    main.o                   build/default/production/_ext/1360937237/main.o
          12           0           1          13           d    can0_driver.o            build/default/production/_ext/1360937237/can0_driver.o
          12           0           1          13           d    rtc_driver.o             build/default/production/_ext/1360937237/rtc_driver.o
          12           0           1          13           d    rstc_driver.o            build/default/production/_ext/1360937237/rstc_driver.o
          12           0           1          13           d    console_driver.o         build/default/production/_ext/1360937237/console_driver.o
           8           0           0           8           8    crti.o                   c:/applications/microchip/xc32/bin/bin/../../lib/gcc/pic32c/8.3.1/thumb/v8-m.main+fp/hard/crti.o
           8           0           0           8           8    plib_port.o              build/default/production/_ext/1865521619/plib_port.o
           0           0           4           4           4    __environ.o              libc-musl.a
           4           0           0           4           4    exceptions.o             build/default/production/_ext/1171490990/exceptions.o
           2           0           0           2           2    lc709204f_driver.o       build/default/production/_ext/1360937237/lc709204f_driver.o
           2           0           0           2           2    plib_trng.o              build/default/production/_ext/1865643529/plib_trng.o
           2           0           0           2           2    plib_evsys.o             build/default/production/_ext/1986646378/plib_evsys.o
           2           0           0           2           2    tasks.o                  build/default/production/_ext/1171490990/tasks.o
           2           0           0           2           2    mcp9808_driver.o         build/default/production/_ext/1360937237/mcp9808_driver.o
--------------------------------------------------------------------------------
       12378           2      136925      149305       24739    dist/default/production/PIC32CK_DRIVER.X.production.elf


Discarded input sections

 .text          0x0000000000000000        0x0 c:/applications/microchip/xc32/bin/bin/../../lib/gcc/pic32c/8.3.1/thumb/v8-m.main+fp/hard/crti.o
 .data          0x0000000000000000        0x0 c:/applications/microchip/xc32/bin/bin/../../lib/gcc/pic32c/8.3.1/thumb/v8-m.main+fp/hard/crti.o
 .bss           0x0000000000000000        0x0 c:/applications/microchip/xc32/bin/bin/../../lib/gcc/pic32c/8.3.1/thumb/v8-m.main+fp/hard/crti.o
 .xc_stack_usage.hdr
                0x0000000000000000        0xe c:/applications/microchip/xc32/bin/bin/../../lib/gcc/pic32c/8.3.1/thumb/v8-m.main+fp/hard/crti.o
 .xc_stack_usage
                0x0000000000000000       0x26 c:/applications/microchip/xc32/bin/bin/../../lib/gcc/pic32c/8.3.1/thumb/v8-m.main+fp/hard/crti.o
 .data          0x0000000000000000        0x4 c:/applications/microchip/xc32/bin/bin/../../lib/gcc/pic32c/8.3.1/thumb/v8-m.main+fp/hard/crtbegin.o
 .xc_stack_usage
                0x0000000000000000       0x3c c:/applications/microchip/xc32/bin/bin/../../lib/gcc/pic32c/8.3.1/thumb/v8-m.main+fp/hard/crtbegin.o
 .xc_stack_usage.hdr
                0x0000000000000000        0xe c:/applications/microchip/xc32/bin/bin/../../lib/gcc/pic32c/8.3.1/thumb/v8-m.main+fp/hard/crtbegin.o
 .text          0x0000000000000000        0x0 build/default/production/_ext/158385033/drv_i2c.o
 .data          0x0000000000000000        0x0 build/default/production/_ext/158385033/drv_i2c.o
 .bss           0x0000000000000000        0x0 build/default/production/_ext/158385033/drv_i2c.o
 .text.lDRV_I2C_DriverHandleValidate
                0x0000000000000000       0x4c build/default/production/_ext/158385033/drv_i2c.o
 .text.lDRV_I2C_RemoveClientTransfersFromList
                0x0000000000000000       0x32 build/default/production/_ext/158385033/drv_i2c.o
 .text.lDRV_I2C_ResourceLock
                0x0000000000000000       0x90 build/default/production/_ext/158385033/drv_i2c.o
 .text.lDRV_I2C_ResourceUnlock
                0x0000000000000000       0x80 build/default/production/_ext/158385033/drv_i2c.o
 .text.lDRV_I2C_WriteReadTransferAdd
                0x0000000000000000      0x214 build/default/production/_ext/158385033/drv_i2c.o
 .text.DRV_I2C_Status
                0x0000000000000000       0x14 build/default/production/_ext/158385033/drv_i2c.o
 .text.DRV_I2C_Open
                0x0000000000000000      0x100 build/default/production/_ext/158385033/drv_i2c.o
 .text.DRV_I2C_Close
                0x0000000000000000       0x64 build/default/production/_ext/158385033/drv_i2c.o
 .text.DRV_I2C_TransferEventHandlerSet
                0x0000000000000000       0x34 build/default/production/_ext/158385033/drv_i2c.o
 .text.DRV_I2C_TransferSetup
                0x0000000000000000       0x1c build/default/production/_ext/158385033/drv_i2c.o
 .text.DRV_I2C_ErrorGet
                0x0000000000000000       0x58 build/default/production/_ext/158385033/drv_i2c.o
 .text.DRV_I2C_ReadTransferAdd
                0x0000000000000000       0x1c build/default/production/_ext/158385033/drv_i2c.o
 .text.DRV_I2C_WriteTransferAdd
                0x0000000000000000       0x1a build/default/production/_ext/158385033/drv_i2c.o
 .text.DRV_I2C_WriteReadTransferAdd
                0x0000000000000000       0x1c build/default/production/_ext/158385033/drv_i2c.o
 .text.DRV_I2C_QueuePurge
                0x0000000000000000       0x64 build/default/production/_ext/158385033/drv_i2c.o
 .text.DRV_I2C_TransferStatusGet
                0x0000000000000000       0x54 build/default/production/_ext/158385033/drv_i2c.o
 .text          0x0000000000000000        0x0 build/default/production/_ext/2070931557/drv_spi.o
 .data          0x0000000000000000        0x0 build/default/production/_ext/2070931557/drv_spi.o
 .bss           0x0000000000000000        0x0 build/default/production/_ext/2070931557/drv_spi.o
 .text.lDRV_SPI_DriverHandleValidate
                0x0000000000000000       0x4c build/default/production/_ext/2070931557/drv_spi.o
 .text.lDRV_SPI_ResourceLock
                0x0000000000000000       0x84 build/default/production/_ext/2070931557/drv_spi.o
 .text.lDRV_SPI_ResourceUnlock
                0x0000000000000000       0x70 build/default/production/_ext/2070931557/drv_spi.o
 .text.DRV_SPI_Status
                0x0000000000000000       0x14 build/default/production/_ext/2070931557/drv_spi.o
 .text.DRV_SPI_Open
                0x0000000000000000      0x104 build/default/production/_ext/2070931557/drv_spi.o
 .text.DRV_SPI_Close
                0x0000000000000000       0xbc build/default/production/_ext/2070931557/drv_spi.o
 .text.DRV_SPI_TransferEventHandlerSet
                0x0000000000000000       0x34 build/default/production/_ext/2070931557/drv_spi.o
 .text.DRV_SPI_TransferSetup
                0x0000000000000000       0x2a build/default/production/_ext/2070931557/drv_spi.o
 .text.DRV_SPI_WriteReadTransferAdd
                0x0000000000000000      0x184 build/default/production/_ext/2070931557/drv_spi.o
 .text.DRV_SPI_WriteTransferAdd
                0x0000000000000000       0x14 build/default/production/_ext/2070931557/drv_spi.o
 .text.DRV_SPI_ReadTransferAdd
                0x0000000000000000       0x18 build/default/production/_ext/2070931557/drv_spi.o
 .text.DRV_SPI_TransferStatusGet
                0x0000000000000000       0x3c build/default/production/_ext/2070931557/drv_spi.o
 .text.DRV_SPI_Lock
                0x0000000000000000       0xc0 build/default/production/_ext/2070931557/drv_spi.o
 .text          0x0000000000000000        0x0 build/default/production/_ext/869808652/drv_usart.o
 .data          0x0000000000000000        0x0 build/default/production/_ext/869808652/drv_usart.o
 .bss           0x0000000000000000        0x0 build/default/production/_ext/869808652/drv_usart.o
 .text.lDRV_USART_DriverHandleValidate
                0x0000000000000000       0x48 build/default/production/_ext/869808652/drv_usart.o
 .text.lDRV_USART_GetDriverObj
                0x0000000000000000       0x1c build/default/production/_ext/869808652/drv_usart.o
 .text.lDRV_USART_GetTransferObj
                0x0000000000000000       0x2e build/default/production/_ext/869808652/drv_usart.o
 .text.lDRV_USART_RemoveClientTransfersFromList
                0x0000000000000000       0x38 build/default/production/_ext/869808652/drv_usart.o
 .text.lDRV_USART_ReadAbort
                0x0000000000000000       0x2a build/default/production/_ext/869808652/drv_usart.o
 .text.lDRV_USART_ResourceLock
                0x0000000000000000       0x90 build/default/production/_ext/869808652/drv_usart.o
 .text.lDRV_USART_ResourceUnlock
                0x0000000000000000       0x82 build/default/production/_ext/869808652/drv_usart.o
 .text.lDRV_USART_QueuePurge
                0x0000000000000000       0x48 build/default/production/_ext/869808652/drv_usart.o
 .text.lDRV_USART_BufferAdd
                0x0000000000000000      0x144 build/default/production/_ext/869808652/drv_usart.o
 .text.DRV_USART_Status
                0x0000000000000000       0x14 build/default/production/_ext/869808652/drv_usart.o
 .text.DRV_USART_Open
                0x0000000000000000       0xf8 build/default/production/_ext/869808652/drv_usart.o
 .text.DRV_USART_Close
                0x0000000000000000       0x6c build/default/production/_ext/869808652/drv_usart.o
 .text.DRV_USART_ErrorGet
                0x0000000000000000       0x36 build/default/production/_ext/869808652/drv_usart.o
 .text.DRV_USART_SerialSetup
                0x0000000000000000       0xb8 build/default/production/_ext/869808652/drv_usart.o
 .text.DRV_USART_BufferEventHandlerSet
                0x0000000000000000       0x34 build/default/production/_ext/869808652/drv_usart.o
 .text.DRV_USART_WriteBufferAdd
                0x0000000000000000       0x10 build/default/production/_ext/869808652/drv_usart.o
 .text.DRV_USART_ReadBufferAdd
                0x0000000000000000       0x10 build/default/production/_ext/869808652/drv_usart.o
 .text.DRV_USART_BufferCompletedBytesGet
                0x0000000000000000       0x64 build/default/production/_ext/869808652/drv_usart.o
 .text.DRV_USART_BufferStatusGet
                0x0000000000000000       0x4e build/default/production/_ext/869808652/drv_usart.o
 .text.DRV_USART_WriteQueuePurge
                0x0000000000000000        0xa build/default/production/_ext/869808652/drv_usart.o
 .text.DRV_USART_ReadQueuePurge
                0x0000000000000000        0xa build/default/production/_ext/869808652/drv_usart.o
 .text.DRV_USART_ReadAbort
                0x0000000000000000       0x40 build/default/production/_ext/869808652/drv_usart.o
 .text          0x0000000000000000        0x0 build/default/production/_ext/829343244/plib_ac.o
 .data          0x0000000000000000        0x0 build/default/production/_ext/829343244/plib_ac.o
 .bss           0x0000000000000000        0x0 build/default/production/_ext/829343244/plib_ac.o
 .text.AC_Start
                0x0000000000000000       0x14 build/default/production/_ext/829343244/plib_ac.o
 .text.AC_SetDACOutput
                0x0000000000000000       0x7c build/default/production/_ext/829343244/plib_ac.o
 .text.AC_SwapInputs
                0x0000000000000000       0x38 build/default/production/_ext/829343244/plib_ac.o
 .text.AC_ChannelSelect
                0x0000000000000000       0x48 build/default/production/_ext/829343244/plib_ac.o
 .text.AC_StatusGet
                0x0000000000000000       0x28 build/default/production/_ext/829343244/plib_ac.o
 .text.AC_CallbackRegister
                0x0000000000000000        0xc build/default/production/_ext/829343244/plib_ac.o
 .bss.acObj     0x0000000000000000        0xc build/default/production/_ext/829343244/plib_ac.o
 .text          0x0000000000000000        0x0 build/default/production/_ext/60165182/plib_can0.o
 .data          0x0000000000000000        0x0 build/default/production/_ext/60165182/plib_can0.o
 .bss           0x0000000000000000        0x0 build/default/production/_ext/60165182/plib_can0.o
 .text.CAN0_MessageTransmitFifo
                0x0000000000000000       0x50 build/default/production/_ext/60165182/plib_can0.o
 .text.CAN0_TxFifoFreeLevelGet
                0x0000000000000000       0x10 build/default/production/_ext/60165182/plib_can0.o
 .text.CAN0_TxBufferIsBusy
                0x0000000000000000       0x14 build/default/production/_ext/60165182/plib_can0.o
 .text.CAN0_TxEventFifoRead
                0x0000000000000000       0x60 build/default/production/_ext/60165182/plib_can0.o
 .text.CAN0_TxEventFifoFillLevelGet
                0x0000000000000000       0x10 build/default/production/_ext/60165182/plib_can0.o
 .text.CAN0_MessageReceiveFifo
                0x0000000000000000       0xd8 build/default/production/_ext/60165182/plib_can0.o
 .text.CAN0_RxFifoFillLevelGet
                0x0000000000000000       0x20 build/default/production/_ext/60165182/plib_can0.o
 .text.CAN0_ErrorGet
                0x0000000000000000       0x30 build/default/production/_ext/60165182/plib_can0.o
 .text.CAN0_ErrorCountGet
                0x0000000000000000       0x14 build/default/production/_ext/60165182/plib_can0.o
 .text.CAN0_InterruptGet
                0x0000000000000000       0x14 build/default/production/_ext/60165182/plib_can0.o
 .text.CAN0_InterruptClear
                0x0000000000000000        0xc build/default/production/_ext/60165182/plib_can0.o
 .text.CAN0_MessageRAMConfigSet
                0x0000000000000000       0x90 build/default/production/_ext/60165182/plib_can0.o
 .text.CAN0_SleepModeEnter
                0x0000000000000000       0x18 build/default/production/_ext/60165182/plib_can0.o
 .text.CAN0_SleepModeExit
                0x0000000000000000       0x2c build/default/production/_ext/60165182/plib_can0.o
 .text.CAN0_BitTimingCalculationGet
                0x0000000000000000       0xa0 build/default/production/_ext/60165182/plib_can0.o
 .text.CAN0_BitTimingSet
                0x0000000000000000       0x90 build/default/production/_ext/60165182/plib_can0.o
 .text          0x0000000000000000        0x0 build/default/production/_ext/60165242/plib_ccl.o
 .data          0x0000000000000000        0x0 build/default/production/_ext/60165242/plib_ccl.o
 .bss           0x0000000000000000        0x0 build/default/production/_ext/60165242/plib_ccl.o
 .text          0x0000000000000000        0x0 build/default/production/_ext/1984496892/plib_clock.o
 .data          0x0000000000000000        0x0 build/default/production/_ext/1984496892/plib_clock.o
 .bss           0x0000000000000000        0x0 build/default/production/_ext/1984496892/plib_clock.o
 .text          0x0000000000000000        0x0 build/default/production/_ext/1865131932/plib_cmcc.o
 .data          0x0000000000000000        0x0 build/default/production/_ext/1865131932/plib_cmcc.o
 .bss           0x0000000000000000        0x0 build/default/production/_ext/1865131932/plib_cmcc.o
 .text.CMCC_Disable
                0x0000000000000000       0x18 build/default/production/_ext/1865131932/plib_cmcc.o
 .text.CMCC_EnableICache
                0x0000000000000000       0x28 build/default/production/_ext/1865131932/plib_cmcc.o
 .text.CMCC_DisableICache
                0x0000000000000000       0x28 build/default/production/_ext/1865131932/plib_cmcc.o
 .text.CMCC_EnableDCache
                0x0000000000000000       0x28 build/default/production/_ext/1865131932/plib_cmcc.o
 .text.CMCC_DisableDCache
                0x0000000000000000       0x28 build/default/production/_ext/1865131932/plib_cmcc.o
 .text.CMCC_InvalidateAll
                0x0000000000000000       0x20 build/default/production/_ext/1865131932/plib_cmcc.o
 .debug_info    0x0000000000000000      0x213 build/default/production/_ext/1865131932/plib_cmcc.o
 .debug_abbrev  0x0000000000000000       0xa4 build/default/production/_ext/1865131932/plib_cmcc.o
 .debug_aranges
                0x0000000000000000       0x48 build/default/production/_ext/1865131932/plib_cmcc.o
 .debug_ranges  0x0000000000000000       0x38 build/default/production/_ext/1865131932/plib_cmcc.o
 .debug_line    0x0000000000000000      0x206 build/default/production/_ext/1865131932/plib_cmcc.o
 .debug_str     0x0000000000000000      0x3c4 build/default/production/_ext/1865131932/plib_cmcc.o
 .comment       0x0000000000000000       0x2c build/default/production/_ext/1865131932/plib_cmcc.o
 .debug_frame   0x0000000000000000       0x70 build/default/production/_ext/1865131932/plib_cmcc.o
 .ARM.attributes
                0x0000000000000000       0x3a build/default/production/_ext/1865131932/plib_cmcc.o
 .text          0x0000000000000000        0x0 build/default/production/_ext/60167341/plib_eic.o
 .data          0x0000000000000000        0x0 build/default/production/_ext/60167341/plib_eic.o
 .bss           0x0000000000000000        0x0 build/default/production/_ext/60167341/plib_eic.o
 .text          0x0000000000000000        0x0 build/default/production/_ext/1986646378/plib_evsys.o
 .data          0x0000000000000000        0x0 build/default/production/_ext/1986646378/plib_evsys.o
 .bss           0x0000000000000000        0x0 build/default/production/_ext/1986646378/plib_evsys.o
 .text          0x0000000000000000        0x0 build/default/production/_ext/1987437027/plib_freqm.o
 .data          0x0000000000000000        0x0 build/default/production/_ext/1987437027/plib_freqm.o
 .bss           0x0000000000000000        0x0 build/default/production/_ext/1987437027/plib_freqm.o
 .text.FREQM_MeasurementStart
                0x0000000000000000       0x1c build/default/production/_ext/1987437027/plib_freqm.o
 .text.FREQM_IsBusy
                0x0000000000000000       0x10 build/default/production/_ext/1987437027/plib_freqm.o
 .text.FREQM_ErrorGet
                0x0000000000000000       0x10 build/default/production/_ext/1987437027/plib_freqm.o
 .text.FREQM_FrequencyGet
                0x0000000000000000       0x14 build/default/production/_ext/1987437027/plib_freqm.o
 .text          0x0000000000000000        0x0 build/default/production/_ext/1865468468/plib_nvic.o
 .data          0x0000000000000000        0x0 build/default/production/_ext/1865468468/plib_nvic.o
 .bss           0x0000000000000000        0x0 build/default/production/_ext/1865468468/plib_nvic.o
 .text.NVIC_INT_Enable
                0x0000000000000000        0x8 build/default/production/_ext/1865468468/plib_nvic.o
 .text.NVIC_INT_SourceDisable
                0x0000000000000000       0x44 build/default/production/_ext/1865468468/plib_nvic.o
 .text.NVIC_INT_SourceRestore
                0x0000000000000000       0x20 build/default/production/_ext/1865468468/plib_nvic.o
 .text          0x0000000000000000        0x0 build/default/production/_ext/1865510628/plib_pdec.o
 .data          0x0000000000000000        0x0 build/default/production/_ext/1865510628/plib_pdec.o
 .bss           0x0000000000000000        0x0 build/default/production/_ext/1865510628/plib_pdec.o
 .text.PDEC_QDECStart
                0x0000000000000000       0x1c build/default/production/_ext/1865510628/plib_pdec.o
 .text.PDEC_QDECStop
                0x0000000000000000       0x1c build/default/production/_ext/1865510628/plib_pdec.o
 .text.PDEC_QDECPositionGet
                0x0000000000000000       0x28 build/default/production/_ext/1865510628/plib_pdec.o
 .text.PDEC_QDECRevolutionsGet
                0x0000000000000000       0x28 build/default/production/_ext/1865510628/plib_pdec.o
 .text.PDEC_QDECAngleGet
                0x0000000000000000       0x28 build/default/production/_ext/1865510628/plib_pdec.o
 .text.PDEC_QDECStatusGet
                0x0000000000000000       0x10 build/default/production/_ext/1865510628/plib_pdec.o
 .text          0x0000000000000000        0x0 build/default/production/_ext/829342769/plib_pm.o
 .data          0x0000000000000000        0x0 build/default/production/_ext/829342769/plib_pm.o
 .bss           0x0000000000000000        0x0 build/default/production/_ext/829342769/plib_pm.o
 .text.PM_IdleModeEnter
                0x0000000000000000       0x10 build/default/production/_ext/829342769/plib_pm.o
 .text.PM_StandbyModeEnter
                0x0000000000000000       0x18 build/default/production/_ext/829342769/plib_pm.o
 .text.PM_HibernateModeEnter
                0x0000000000000000       0x18 build/default/production/_ext/829342769/plib_pm.o
 .text.PM_BackupModeEnter
                0x0000000000000000       0x18 build/default/production/_ext/829342769/plib_pm.o
 .text.PM_OffModeEnter
                0x0000000000000000       0x10 build/default/production/_ext/829342769/plib_pm.o
 .text.PM_IO_RetentionSet
                0x0000000000000000       0x10 build/default/production/_ext/829342769/plib_pm.o
 .text.PM_IO_RetentionClear
                0x0000000000000000       0x10 build/default/production/_ext/829342769/plib_pm.o
 .text          0x0000000000000000        0x0 build/default/production/_ext/1865521619/plib_port.o
 .data          0x0000000000000000        0x0 build/default/production/_ext/1865521619/plib_port.o
 .bss           0x0000000000000000        0x0 build/default/production/_ext/1865521619/plib_port.o
 .text.PORT_GroupRead
                0x0000000000000000        0x4 build/default/production/_ext/1865521619/plib_port.o
 .text.PORT_GroupWrite
                0x0000000000000000        0xc build/default/production/_ext/1865521619/plib_port.o
 .text.PORT_GroupLatchRead
                0x0000000000000000        0x4 build/default/production/_ext/1865521619/plib_port.o
 .text.PORT_GroupToggle
                0x0000000000000000        0x4 build/default/production/_ext/1865521619/plib_port.o
 .text.PORT_GroupInputEnable
                0x0000000000000000       0x30 build/default/production/_ext/1865521619/plib_port.o
 .text.PORT_GroupOutputEnable
                0x0000000000000000        0x4 build/default/production/_ext/1865521619/plib_port.o
 .text.PORT_PinPeripheralFunctionConfig
                0x0000000000000000       0x46 build/default/production/_ext/1865521619/plib_port.o
 .text.PORT_PinGPIOConfig
                0x0000000000000000       0x1c build/default/production/_ext/1865521619/plib_port.o
 .text          0x0000000000000000        0x0 build/default/production/_ext/1865585090/plib_rstc.o
 .data          0x0000000000000000        0x0 build/default/production/_ext/1865585090/plib_rstc.o
 .bss           0x0000000000000000        0x0 build/default/production/_ext/1865585090/plib_rstc.o
 .text.RSTC_ResetCauseGet
                0x0000000000000000        0xc build/default/production/_ext/1865585090/plib_rstc.o
 .text.RSTC_BackupExitCauseGet
                0x0000000000000000        0xc build/default/production/_ext/1865585090/plib_rstc.o
 .debug_info    0x0000000000000000      0x17c build/default/production/_ext/1865585090/plib_rstc.o
 .debug_abbrev  0x0000000000000000       0xa6 build/default/production/_ext/1865585090/plib_rstc.o
 .debug_aranges
                0x0000000000000000       0x28 build/default/production/_ext/1865585090/plib_rstc.o
 .debug_ranges  0x0000000000000000       0x18 build/default/production/_ext/1865585090/plib_rstc.o
 .debug_line    0x0000000000000000      0x117 build/default/production/_ext/1865585090/plib_rstc.o
 .debug_str     0x0000000000000000      0x376 build/default/production/_ext/1865585090/plib_rstc.o
 .comment       0x0000000000000000       0x2c build/default/production/_ext/1865585090/plib_rstc.o
 .debug_frame   0x0000000000000000       0x30 build/default/production/_ext/1865585090/plib_rstc.o
 .ARM.attributes
                0x0000000000000000       0x3a build/default/production/_ext/1865585090/plib_rstc.o
 .text          0x0000000000000000        0x0 build/default/production/_ext/60180175/plib_rtc_timer.o
 .data          0x0000000000000000        0x0 build/default/production/_ext/60180175/plib_rtc_timer.o
 .bss           0x0000000000000000        0x0 build/default/production/_ext/60180175/plib_rtc_timer.o
 .text.RTC_Timer32CountSyncEnable
                0x0000000000000000       0x18 build/default/production/_ext/60180175/plib_rtc_timer.o
 .text.RTC_Timer32CountSyncDisable
                0x0000000000000000       0x18 build/default/production/_ext/60180175/plib_rtc_timer.o
 .text.RTC_Timer32Start
                0x0000000000000000       0x18 build/default/production/_ext/60180175/plib_rtc_timer.o
 .text.RTC_Timer32Stop
                0x0000000000000000       0x1c build/default/production/_ext/60180175/plib_rtc_timer.o
 .text.RTC_Timer32CounterSet
                0x0000000000000000       0x14 build/default/production/_ext/60180175/plib_rtc_timer.o
 .text.RTC_Timer32Compare0Set
                0x0000000000000000       0x14 build/default/production/_ext/60180175/plib_rtc_timer.o
 .text.RTC_Timer32Compare1Set
                0x0000000000000000       0x14 build/default/production/_ext/60180175/plib_rtc_timer.o
 .text.RTC_Timer32CounterGet
                0x0000000000000000       0x30 build/default/production/_ext/60180175/plib_rtc_timer.o
 .text.RTC_Timer32PeriodGet
                0x0000000000000000        0x6 build/default/production/_ext/60180175/plib_rtc_timer.o
 .text.RTC_Timer32FrequencyGet
                0x0000000000000000        0x6 build/default/production/_ext/60180175/plib_rtc_timer.o
 .text.RTC_Timer32InterruptEnable
                0x0000000000000000        0xc build/default/production/_ext/60180175/plib_rtc_timer.o
 .text.RTC_Timer32InterruptDisable
                0x0000000000000000        0xc build/default/production/_ext/60180175/plib_rtc_timer.o
 .text.RTC_TamperSourceGet
                0x0000000000000000        0xc build/default/production/_ext/60180175/plib_rtc_timer.o
 .text.RTC_Timer32TimeStampGet
                0x0000000000000000        0xc build/default/production/_ext/60180175/plib_rtc_timer.o
 .text.RTC_Timer32CallbackRegister
                0x0000000000000000        0xc build/default/production/_ext/60180175/plib_rtc_timer.o
 .text          0x0000000000000000        0x0 build/default/production/_ext/508257091/plib_sercom0_i2c_master.o
 .data          0x0000000000000000        0x0 build/default/production/_ext/508257091/plib_sercom0_i2c_master.o
 .bss           0x0000000000000000        0x0 build/default/production/_ext/508257091/plib_sercom0_i2c_master.o
 .text.SERCOM0_I2C_BusScan
                0x0000000000000000       0x90 build/default/production/_ext/508257091/plib_sercom0_i2c_master.o
 .text.SERCOM0_I2C_IsBusy
                0x0000000000000000       0x28 build/default/production/_ext/508257091/plib_sercom0_i2c_master.o
 .text          0x0000000000000000        0x0 build/default/production/_ext/17022449/plib_sercom1_spi_master.o
 .data          0x0000000000000000        0x0 build/default/production/_ext/17022449/plib_sercom1_spi_master.o
 .bss           0x0000000000000000        0x0 build/default/production/_ext/17022449/plib_sercom1_spi_master.o
 .text.SERCOM1_SPI_IsBusy
                0x0000000000000000       0x2c build/default/production/_ext/17022449/plib_sercom1_spi_master.o
 .text.SERCOM1_SPI_Write
                0x0000000000000000        0xc build/default/production/_ext/17022449/plib_sercom1_spi_master.o
 .text.SERCOM1_SPI_Read
                0x0000000000000000       0x10 build/default/production/_ext/17022449/plib_sercom1_spi_master.o
 .text          0x0000000000000000        0x0 build/default/production/_ext/504274921/plib_sercom3_usart.o
 .data          0x0000000000000000        0x0 build/default/production/_ext/504274921/plib_sercom3_usart.o
 .bss           0x0000000000000000        0x0 build/default/production/_ext/504274921/plib_sercom3_usart.o
 .text.SERCOM3_USART_FrequencyGet
                0x0000000000000000        0x8 build/default/production/_ext/504274921/plib_sercom3_usart.o
 .text.SERCOM3_USART_SerialSetup
                0x0000000000000000      0x158 build/default/production/_ext/504274921/plib_sercom3_usart.o
 .text.SERCOM3_USART_Enable
                0x0000000000000000       0x20 build/default/production/_ext/504274921/plib_sercom3_usart.o
 .text.SERCOM3_USART_Disable
                0x0000000000000000       0x20 build/default/production/_ext/504274921/plib_sercom3_usart.o
 .text.SERCOM3_USART_ErrorGet
                0x0000000000000000       0x10 build/default/production/_ext/504274921/plib_sercom3_usart.o
 .text.SERCOM3_USART_ReadBufferSizeGet
                0x0000000000000000        0xc build/default/production/_ext/504274921/plib_sercom3_usart.o
 .text.SERCOM3_USART_ReadNotificationEnable
                0x0000000000000000       0x18 build/default/production/_ext/504274921/plib_sercom3_usart.o
 .text.SERCOM3_USART_ReadThresholdSet
                0x0000000000000000        0xc build/default/production/_ext/504274921/plib_sercom3_usart.o
 .text.SERCOM3_USART_ReadCallbackRegister
                0x0000000000000000        0xc build/default/production/_ext/504274921/plib_sercom3_usart.o
 .text.SERCOM3_USART_TransmitComplete
                0x0000000000000000       0x10 build/default/production/_ext/504274921/plib_sercom3_usart.o
 .text.SERCOM3_USART_WriteBufferSizeGet
                0x0000000000000000        0xc build/default/production/_ext/504274921/plib_sercom3_usart.o
 .text.SERCOM3_USART_WriteNotificationEnable
                0x0000000000000000       0x10 build/default/production/_ext/504274921/plib_sercom3_usart.o
 .text.SERCOM3_USART_WriteThresholdSet
                0x0000000000000000        0xc build/default/production/_ext/504274921/plib_sercom3_usart.o
 .text.SERCOM3_USART_WriteCallbackRegister
                0x0000000000000000        0xc build/default/production/_ext/504274921/plib_sercom3_usart.o
 .text          0x0000000000000000        0x0 build/default/production/_ext/504274921/plib_sercom2_usart.o
 .data          0x0000000000000000        0x0 build/default/production/_ext/504274921/plib_sercom2_usart.o
 .bss           0x0000000000000000        0x0 build/default/production/_ext/504274921/plib_sercom2_usart.o
 .text.SERCOM2_USART_FrequencyGet
                0x0000000000000000        0x8 build/default/production/_ext/504274921/plib_sercom2_usart.o
 .text.SERCOM2_USART_Enable
                0x0000000000000000       0x20 build/default/production/_ext/504274921/plib_sercom2_usart.o
 .text.SERCOM2_USART_Disable
                0x0000000000000000       0x20 build/default/production/_ext/504274921/plib_sercom2_usart.o
 .text.SERCOM2_USART_TransmitterEnable
                0x0000000000000000       0x18 build/default/production/_ext/504274921/plib_sercom2_usart.o
 .text.SERCOM2_USART_TransmitterDisable
                0x0000000000000000       0x18 build/default/production/_ext/504274921/plib_sercom2_usart.o
 .text.SERCOM2_USART_TransmitComplete
                0x0000000000000000       0x10 build/default/production/_ext/504274921/plib_sercom2_usart.o
 .text.SERCOM2_USART_ReceiverEnable
                0x0000000000000000       0x18 build/default/production/_ext/504274921/plib_sercom2_usart.o
 .text.SERCOM2_USART_ReceiverDisable
                0x0000000000000000       0x18 build/default/production/_ext/504274921/plib_sercom2_usart.o
 .text          0x0000000000000000        0x0 build/default/production/_ext/1865616679/plib_supc.o
 .data          0x0000000000000000        0x0 build/default/production/_ext/1865616679/plib_supc.o
 .bss           0x0000000000000000        0x0 build/default/production/_ext/1865616679/plib_supc.o
 .text.SUPC_SetOutputPin
                0x0000000000000000       0x20 build/default/production/_ext/1865616679/plib_supc.o
 .text.SUPC_ClearOutputPin
                0x0000000000000000       0x20 build/default/production/_ext/1865616679/plib_supc.o
 .text          0x0000000000000000        0x0 build/default/production/_ext/1827571544/plib_systick.o
 .data          0x0000000000000000        0x0 build/default/production/_ext/1827571544/plib_systick.o
 .bss           0x0000000000000000        0x0 build/default/production/_ext/1827571544/plib_systick.o
 .text.SYSTICK_TimerRestart
                0x0000000000000000       0x1c build/default/production/_ext/1827571544/plib_systick.o
 .text.SYSTICK_TimerStart
                0x0000000000000000       0x14 build/default/production/_ext/1827571544/plib_systick.o
 .text.SYSTICK_TimerStop
                0x0000000000000000       0x10 build/default/production/_ext/1827571544/plib_systick.o
 .text.SYSTICK_TimerPeriodSet
                0x0000000000000000        0xc build/default/production/_ext/1827571544/plib_systick.o
 .text.SYSTICK_TimerPeriodGet
                0x0000000000000000        0xc build/default/production/_ext/1827571544/plib_systick.o
 .text.SYSTICK_TimerCounterGet
                0x0000000000000000        0xc build/default/production/_ext/1827571544/plib_systick.o
 .text.SYSTICK_TimerFrequencyGet
                0x0000000000000000        0x8 build/default/production/_ext/1827571544/plib_systick.o
 .text.SYSTICK_DelayMs
                0x0000000000000000       0x40 build/default/production/_ext/1827571544/plib_systick.o
 .text.SYSTICK_DelayUs
                0x0000000000000000       0x40 build/default/production/_ext/1827571544/plib_systick.o
 .text.SYSTICK_GetTickCounter
                0x0000000000000000        0xc build/default/production/_ext/1827571544/plib_systick.o
 .text.SYSTICK_StartTimeOut
                0x0000000000000000       0x24 build/default/production/_ext/1827571544/plib_systick.o
 .text.SYSTICK_ResetTimeOut
                0x0000000000000000        0xc build/default/production/_ext/1827571544/plib_systick.o
 .text.SYSTICK_IsTimeoutReached
                0x0000000000000000       0x18 build/default/production/_ext/1827571544/plib_systick.o
 .text.SYSTICK_TimerCallbackSet
                0x0000000000000000        0xc build/default/production/_ext/1827571544/plib_systick.o
 .text          0x0000000000000000        0x0 build/default/production/_ext/60181570/plib_tcc0.o
 .data          0x0000000000000000        0x0 build/default/production/_ext/60181570/plib_tcc0.o
 .bss           0x0000000000000000        0x0 build/default/production/_ext/60181570/plib_tcc0.o
 .text.TCC0_TimerCommandSet
                0x0000000000000000       0x18 build/default/production/_ext/60181570/plib_tcc0.o
 .text.TCC0_Timer32bitPeriodGet
                0x0000000000000000        0xc build/default/production/_ext/60181570/plib_tcc0.o
 .text.TCC0_Timer32bitCounterGet
                0x0000000000000000       0x28 build/default/production/_ext/60181570/plib_tcc0.o
 .text.TCC0_Timer32bitCounterSet
                0x0000000000000000       0x14 build/default/production/_ext/60181570/plib_tcc0.o
 .text.TCC0_Timer32bitCompareSet
                0x0000000000000000       0x14 build/default/production/_ext/60181570/plib_tcc0.o
 .text          0x0000000000000000        0x0 build/default/production/_ext/1865643529/plib_trng.o
 .data          0x0000000000000000        0x0 build/default/production/_ext/1865643529/plib_trng.o
 .bss           0x0000000000000000        0x0 build/default/production/_ext/1865643529/plib_trng.o
 .text.TRNG_ReadData
                0x0000000000000000       0x24 build/default/production/_ext/1865643529/plib_trng.o
 .text          0x0000000000000000        0x0 build/default/production/_ext/163028504/xc32_monitor.o
 .data          0x0000000000000000        0x0 build/default/production/_ext/163028504/xc32_monitor.o
 .bss           0x0000000000000000        0x0 build/default/production/_ext/163028504/xc32_monitor.o
 .text.read     0x0000000000000000        0x6 build/default/production/_ext/163028504/xc32_monitor.o
 .text.write    0x0000000000000000        0x6 build/default/production/_ext/163028504/xc32_monitor.o
 .debug_info    0x0000000000000000       0xf5 build/default/production/_ext/163028504/xc32_monitor.o
 .debug_abbrev  0x0000000000000000       0xb2 build/default/production/_ext/163028504/xc32_monitor.o
 .debug_loc     0x0000000000000000       0x4a build/default/production/_ext/163028504/xc32_monitor.o
 .debug_aranges
                0x0000000000000000       0x28 build/default/production/_ext/163028504/xc32_monitor.o
 .debug_ranges  0x0000000000000000       0x18 build/default/production/_ext/163028504/xc32_monitor.o
 .debug_line    0x0000000000000000       0xc3 build/default/production/_ext/163028504/xc32_monitor.o
 .debug_str     0x0000000000000000      0x27b build/default/production/_ext/163028504/xc32_monitor.o
 .comment       0x0000000000000000       0x2c build/default/production/_ext/163028504/xc32_monitor.o
 .debug_frame   0x0000000000000000       0x30 build/default/production/_ext/163028504/xc32_monitor.o
 .ARM.attributes
                0x0000000000000000       0x3a build/default/production/_ext/163028504/xc32_monitor.o
 .text          0x0000000000000000        0x0 build/default/production/_ext/1014039709/sys_cache.o
 .data          0x0000000000000000        0x0 build/default/production/_ext/1014039709/sys_cache.o
 .bss           0x0000000000000000        0x0 build/default/production/_ext/1014039709/sys_cache.o
 .text.SYS_CACHE_EnableCaches
                0x0000000000000000       0x14 build/default/production/_ext/1014039709/sys_cache.o
 .text.SYS_CACHE_DisableCaches
                0x0000000000000000       0x14 build/default/production/_ext/1014039709/sys_cache.o
 .text.SYS_CACHE_EnableICache
                0x0000000000000000        0xc build/default/production/_ext/1014039709/sys_cache.o
 .text.SYS_CACHE_DisableICache
                0x0000000000000000        0xc build/default/production/_ext/1014039709/sys_cache.o
 .text.SYS_CACHE_InvalidateICache
                0x0000000000000000        0xc build/default/production/_ext/1014039709/sys_cache.o
 .text.SYS_CACHE_EnableDCache
                0x0000000000000000        0xc build/default/production/_ext/1014039709/sys_cache.o
 .text.SYS_CACHE_DisableDCache
                0x0000000000000000        0xc build/default/production/_ext/1014039709/sys_cache.o
 .text.SYS_CACHE_InvalidateDCache
                0x0000000000000000        0xc build/default/production/_ext/1014039709/sys_cache.o
 .text.SYS_CACHE_CleanDCache
                0x0000000000000000        0xc build/default/production/_ext/1014039709/sys_cache.o
 .text.SYS_CACHE_InvalidateDCache_by_Addr
                0x0000000000000000        0xc build/default/production/_ext/1014039709/sys_cache.o
 .text.SYS_CACHE_CleanDCache_by_Addr
                0x0000000000000000        0xc build/default/production/_ext/1014039709/sys_cache.o
 .text.SYS_CACHE_CleanInvalidateDCache
                0x0000000000000000        0xc build/default/production/_ext/1014039709/sys_cache.o
 .text.SYS_CACHE_CleanInvalidateDCache_by_Addr
                0x0000000000000000        0xc build/default/production/_ext/1014039709/sys_cache.o
 .debug_info    0x0000000000000000      0x5f1 build/default/production/_ext/1014039709/sys_cache.o
 .debug_abbrev  0x0000000000000000       0xe9 build/default/production/_ext/1014039709/sys_cache.o
 .debug_aranges
                0x0000000000000000       0x80 build/default/production/_ext/1014039709/sys_cache.o
 .debug_ranges  0x0000000000000000       0x70 build/default/production/_ext/1014039709/sys_cache.o
 .debug_line    0x0000000000000000      0x284 build/default/production/_ext/1014039709/sys_cache.o
 .debug_str     0x0000000000000000      0x578 build/default/production/_ext/1014039709/sys_cache.o
 .comment       0x0000000000000000       0x2c build/default/production/_ext/1014039709/sys_cache.o
 .debug_frame   0x0000000000000000       0xe0 build/default/production/_ext/1014039709/sys_cache.o
 .ARM.attributes
                0x0000000000000000       0x3a build/default/production/_ext/1014039709/sys_cache.o
 .text          0x0000000000000000        0x0 build/default/production/_ext/1832805299/sys_console.o
 .data          0x0000000000000000        0x0 build/default/production/_ext/1832805299/sys_console.o
 .bss           0x0000000000000000        0x0 build/default/production/_ext/1832805299/sys_console.o
 .text.SYS_CONSOLE_Status
                0x0000000000000000       0x50 build/default/production/_ext/1832805299/sys_console.o
 .text.SYS_CONSOLE_HandleGet
                0x0000000000000000        0xa build/default/production/_ext/1832805299/sys_console.o
 .text.SYS_CONSOLE_DeviceGet
                0x0000000000000000       0x18 build/default/production/_ext/1832805299/sys_console.o
 .text.SYS_CONSOLE_Tasks
                0x0000000000000000       0x28 build/default/production/_ext/1832805299/sys_console.o
 .text.SYS_CONSOLE_Read
                0x0000000000000000       0x34 build/default/production/_ext/1832805299/sys_console.o
 .text.SYS_CONSOLE_ReadFreeBufferCountGet
                0x0000000000000000       0x34 build/default/production/_ext/1832805299/sys_console.o
 .text.SYS_CONSOLE_ReadCountGet
                0x0000000000000000       0x34 build/default/production/_ext/1832805299/sys_console.o
 .text.SYS_CONSOLE_Write
                0x0000000000000000       0x34 build/default/production/_ext/1832805299/sys_console.o
 .text.SYS_CONSOLE_WriteFreeBufferCountGet
                0x0000000000000000       0x34 build/default/production/_ext/1832805299/sys_console.o
 .text.SYS_CONSOLE_WriteCountGet
                0x0000000000000000       0x34 build/default/production/_ext/1832805299/sys_console.o
 .text.SYS_CONSOLE_Print
                0x0000000000000000       0x74 build/default/production/_ext/1832805299/sys_console.o
 .text.SYS_CONSOLE_Message
                0x0000000000000000       0x30 build/default/production/_ext/1832805299/sys_console.o
 .text.SYS_CONSOLE_Flush
                0x0000000000000000       0x2c build/default/production/_ext/1832805299/sys_console.o
 .bss.consolePrintBuffer
                0x0000000000000000     0x2000 build/default/production/_ext/1832805299/sys_console.o
 .text          0x0000000000000000        0x0 build/default/production/_ext/1832805299/sys_console_uart.o
 .data          0x0000000000000000        0x0 build/default/production/_ext/1832805299/sys_console_uart.o
 .bss           0x0000000000000000        0x0 build/default/production/_ext/1832805299/sys_console_uart.o
 .text          0x0000000000000000        0x0 build/default/production/_ext/1881668453/sys_int.o
 .data          0x0000000000000000        0x0 build/default/production/_ext/1881668453/sys_int.o
 .bss           0x0000000000000000        0x0 build/default/production/_ext/1881668453/sys_int.o
 .text.SYS_INT_Enable
                0x0000000000000000        0x8 build/default/production/_ext/1881668453/sys_int.o
 .text.SYS_INT_Disable
                0x0000000000000000        0x8 build/default/production/_ext/1881668453/sys_int.o
 .text.SYS_INT_Restore
                0x0000000000000000        0x8 build/default/production/_ext/1881668453/sys_int.o
 .text          0x0000000000000000        0x0 build/default/production/_ext/101884895/sys_time.o
 .data          0x0000000000000000        0x0 build/default/production/_ext/101884895/sys_time.o
 .bss           0x0000000000000000        0x0 build/default/production/_ext/101884895/sys_time.o
 .text.SYS_TIME_Deinitialize
                0x0000000000000000       0x34 build/default/production/_ext/101884895/sys_time.o
 .text.SYS_TIME_Status
                0x0000000000000000       0x14 build/default/production/_ext/101884895/sys_time.o
 .text.SYS_TIME_FrequencyGet
                0x0000000000000000       0x14 build/default/production/_ext/101884895/sys_time.o
 .text.SYS_TIME_Counter64Get
                0x0000000000000000       0x1c build/default/production/_ext/101884895/sys_time.o
 .text.SYS_TIME_CounterGet
                0x0000000000000000        0x8 build/default/production/_ext/101884895/sys_time.o
 .text.SYS_TIME_CounterSet
                0x0000000000000000       0x1c build/default/production/_ext/101884895/sys_time.o
 .text.SYS_TIME_CountToUS
                0x0000000000000000       0x54 build/default/production/_ext/101884895/sys_time.o
 .text.SYS_TIME_CountToMS
                0x0000000000000000       0x4c build/default/production/_ext/101884895/sys_time.o
 .text.SYS_TIME_USToCount
                0x0000000000000000       0x44 build/default/production/_ext/101884895/sys_time.o
 .text.SYS_TIME_TimerCreate
                0x0000000000000000       0x1c build/default/production/_ext/101884895/sys_time.o
 .text.SYS_TIME_TimerReload
                0x0000000000000000       0x80 build/default/production/_ext/101884895/sys_time.o
 .text.SYS_TIME_TimerCounterGet
                0x0000000000000000       0x6c build/default/production/_ext/101884895/sys_time.o
 .text.SYS_TIME_TimerPeriodHasExpired
                0x0000000000000000       0x28 build/default/production/_ext/101884895/sys_time.o
 .text.SYS_TIME_DelayUS
                0x0000000000000000       0x3c build/default/production/_ext/101884895/sys_time.o
 .text.SYS_TIME_DelayMS
                0x0000000000000000       0x3c build/default/production/_ext/101884895/sys_time.o
 .text.SYS_TIME_DelayIsComplete
                0x0000000000000000       0x18 build/default/production/_ext/101884895/sys_time.o
 .text.SYS_TIME_CallbackRegisterUS
                0x0000000000000000       0x42 build/default/production/_ext/101884895/sys_time.o
 .text          0x0000000000000000        0x0 build/default/production/_ext/1171490990/startup_xc32.o
 .data          0x0000000000000000        0x0 build/default/production/_ext/1171490990/startup_xc32.o
 .bss           0x0000000000000000        0x0 build/default/production/_ext/1171490990/startup_xc32.o
 .text          0x0000000000000000        0x0 build/default/production/_ext/1171490990/libc_syscalls.o
 .data          0x0000000000000000        0x0 build/default/production/_ext/1171490990/libc_syscalls.o
 .bss           0x0000000000000000        0x0 build/default/production/_ext/1171490990/libc_syscalls.o
 .text._exit    0x0000000000000000        0x2 build/default/production/_ext/1171490990/libc_syscalls.o
 .debug_info    0x0000000000000000       0xaa build/default/production/_ext/1171490990/libc_syscalls.o
 .debug_abbrev  0x0000000000000000       0x5d build/default/production/_ext/1171490990/libc_syscalls.o
 .debug_loc     0x0000000000000000       0x15 build/default/production/_ext/1171490990/libc_syscalls.o
 .debug_aranges
                0x0000000000000000       0x20 build/default/production/_ext/1171490990/libc_syscalls.o
 .debug_ranges  0x0000000000000000       0x10 build/default/production/_ext/1171490990/libc_syscalls.o
 .debug_line    0x0000000000000000       0x5b build/default/production/_ext/1171490990/libc_syscalls.o
 .debug_str     0x0000000000000000      0x2bf build/default/production/_ext/1171490990/libc_syscalls.o
 .comment       0x0000000000000000       0x2c build/default/production/_ext/1171490990/libc_syscalls.o
 .debug_frame   0x0000000000000000       0x20 build/default/production/_ext/1171490990/libc_syscalls.o
 .ARM.attributes
                0x0000000000000000       0x3a build/default/production/_ext/1171490990/libc_syscalls.o
 .text          0x0000000000000000        0x0 build/default/production/_ext/1171490990/initialization.o
 .data          0x0000000000000000        0x0 build/default/production/_ext/1171490990/initialization.o
 .bss           0x0000000000000000        0x0 build/default/production/_ext/1171490990/initialization.o
 .text          0x0000000000000000        0x0 build/default/production/_ext/1171490990/exceptions.o
 .data          0x0000000000000000        0x0 build/default/production/_ext/1171490990/exceptions.o
 .bss           0x0000000000000000        0x0 build/default/production/_ext/1171490990/exceptions.o
 .text          0x0000000000000000        0x0 build/default/production/_ext/1171490990/tasks.o
 .data          0x0000000000000000        0x0 build/default/production/_ext/1171490990/tasks.o
 .bss           0x0000000000000000        0x0 build/default/production/_ext/1171490990/tasks.o
 .text          0x0000000000000000        0x0 build/default/production/_ext/1171490990/interrupts.o
 .data          0x0000000000000000        0x0 build/default/production/_ext/1171490990/interrupts.o
 .bss           0x0000000000000000        0x0 build/default/production/_ext/1171490990/interrupts.o
 .text          0x0000000000000000        0x0 build/default/production/_ext/1360937237/main.o
 .data          0x0000000000000000        0x0 build/default/production/_ext/1360937237/main.o
 .bss           0x0000000000000000        0x0 build/default/production/_ext/1360937237/main.o
 .text          0x0000000000000000        0x0 build/default/production/_ext/1360937237/console_driver.o
 .data          0x0000000000000000        0x0 build/default/production/_ext/1360937237/console_driver.o
 .bss           0x0000000000000000        0x0 build/default/production/_ext/1360937237/console_driver.o
 .text.CONSOLE_DRIVER_Tasks
                0x0000000000000000       0x14 build/default/production/_ext/1360937237/console_driver.o
 .text          0x0000000000000000        0x0 build/default/production/_ext/1360937237/mcp9808_driver.o
 .data          0x0000000000000000        0x0 build/default/production/_ext/1360937237/mcp9808_driver.o
 .bss           0x0000000000000000        0x0 build/default/production/_ext/1360937237/mcp9808_driver.o
 .bss.mcp9808_driverData
                0x0000000000000000        0x0 build/default/production/_ext/1360937237/mcp9808_driver.o
 .text          0x0000000000000000        0x0 build/default/production/_ext/1360937237/hdc302x_driver.o
 .data          0x0000000000000000        0x0 build/default/production/_ext/1360937237/hdc302x_driver.o
 .bss           0x0000000000000000        0x0 build/default/production/_ext/1360937237/hdc302x_driver.o
 .text.HDC302X_DRIVER_I2C_Callback
                0x0000000000000000       0x20 build/default/production/_ext/1360937237/hdc302x_driver.o
 .text.HDC302X_DRIVER_Temperature_Alert
                0x0000000000000000        0xc build/default/production/_ext/1360937237/hdc302x_driver.o
 .text.HDC302X_DRIVER_Get_Task_Start_Status
                0x0000000000000000        0xc build/default/production/_ext/1360937237/hdc302x_driver.o
 .text.HDC302X_DRIVER_Set_Task_Start_Status
                0x0000000000000000        0xc build/default/production/_ext/1360937237/hdc302x_driver.o
 .text.HDC302X_DRIVER_Get_Task_Completed_Status
                0x0000000000000000        0xc build/default/production/_ext/1360937237/hdc302x_driver.o
 .text.HDC302X_DRIVER_Set_Task_Completed_Status
                0x0000000000000000        0xc build/default/production/_ext/1360937237/hdc302x_driver.o
 .text.HDC302X_DRIVER_Enter_Auto_Measurement_Mode
                0x0000000000000000       0x30 build/default/production/_ext/1360937237/hdc302x_driver.o
 .text.HDC302X_DRIVER_Exit_Auto_Measurement_Mode
                0x0000000000000000       0x2c build/default/production/_ext/1360937237/hdc302x_driver.o
 .text.HDC302X_DRIVER_Get_Offset_Values
                0x0000000000000000       0x34 build/default/production/_ext/1360937237/hdc302x_driver.o
 .text.HDC302X_DRIVER_Store_Offset_Values
                0x0000000000000000       0x18 build/default/production/_ext/1360937237/hdc302x_driver.o
 .text.HDC302X_DRIVER_Get_High_Alert_Set_Values
                0x0000000000000000       0x34 build/default/production/_ext/1360937237/hdc302x_driver.o
 .text.HDC302X_DRIVER_Store_High_Alert_Set_Values
                0x0000000000000000       0x18 build/default/production/_ext/1360937237/hdc302x_driver.o
 .text.HDC302X_DRIVER_Get_High_Alert_Clear_Values
                0x0000000000000000       0x34 build/default/production/_ext/1360937237/hdc302x_driver.o
 .text.HDC302X_DRIVER_Store_High_Alert_Clear_Values
                0x0000000000000000       0x18 build/default/production/_ext/1360937237/hdc302x_driver.o
 .text.HDC302X_DRIVER_Get_Low_Alert_Set_Values
                0x0000000000000000       0x34 build/default/production/_ext/1360937237/hdc302x_driver.o
 .text.HDC302X_DRIVER_Store_Low_Alert_Set_Values
                0x0000000000000000       0x18 build/default/production/_ext/1360937237/hdc302x_driver.o
 .text.HDC302X_DRIVER_Get_Low_Alert_Clear_Values
                0x0000000000000000       0x34 build/default/production/_ext/1360937237/hdc302x_driver.o
 .text.HDC302X_DRIVER_Store_Low_Alert_Clear_Values
                0x0000000000000000       0x18 build/default/production/_ext/1360937237/hdc302x_driver.o
 .text.HDC302X_DRIVER_Auto_Mode_Measurement_Readout_Write
                0x0000000000000000       0x2c build/default/production/_ext/1360937237/hdc302x_driver.o
 .text.HDC302X_DRIVER_Auto_Mode_Measurement_Readout_Read
                0x0000000000000000       0x24 build/default/production/_ext/1360937237/hdc302x_driver.o
 .text.HDC302X_DRIVER_Store_Auto_Mode_Measurement_Readout_Values
                0x0000000000000000       0x24 build/default/production/_ext/1360937237/hdc302x_driver.o
 .text.HDC302X_DRIVER_Auto_Mode_Minimum_Temperature_Write
                0x0000000000000000       0x34 build/default/production/_ext/1360937237/hdc302x_driver.o
 .text.HDC302X_DRIVER_Auto_Mode_Minimum_Temperature_Store_Value
                0x0000000000000000       0x18 build/default/production/_ext/1360937237/hdc302x_driver.o
 .text.HDC302X_DRIVER_Auto_Mode_Maximum_Temperature_Write
                0x0000000000000000       0x34 build/default/production/_ext/1360937237/hdc302x_driver.o
 .text.HDC302X_DRIVER_Auto_Mode_Maximum_Temperature_Store_Value
                0x0000000000000000       0x18 build/default/production/_ext/1360937237/hdc302x_driver.o
 .text.HDC302X_DRIVER_Get_Minimum_Humidity
                0x0000000000000000       0x34 build/default/production/_ext/1360937237/hdc302x_driver.o
 .text.HDC302X_DRIVER_Auto_Mode_Minimum_Humidity_Store_Value
                0x0000000000000000       0x18 build/default/production/_ext/1360937237/hdc302x_driver.o
 .text.HDC302X_DRIVER_Auto_Mode_Maximum_Humidity_Write
                0x0000000000000000       0x34 build/default/production/_ext/1360937237/hdc302x_driver.o
 .text.HDC302X_DRIVER_Auto_Mode_Maximum_Humidity_Store_Value
                0x0000000000000000       0x18 build/default/production/_ext/1360937237/hdc302x_driver.o
 .text.HDC302X_DRIVER_Trigger_Mode_Measurement_Readout_Write
                0x0000000000000000       0x30 build/default/production/_ext/1360937237/hdc302x_driver.o
 .text.HDC302X_DRIVER_Trigger_Mode_Measurement_Readout_Read
                0x0000000000000000       0x24 build/default/production/_ext/1360937237/hdc302x_driver.o
 .text.HDC302X_DRIVER_Trigger_Mode_Measurement_Readout_Store_Value
                0x0000000000000000       0x24 build/default/production/_ext/1360937237/hdc302x_driver.o
 .text.HDC302X_DRIVER_Get_Status_Value
                0x0000000000000000       0x34 build/default/production/_ext/1360937237/hdc302x_driver.o
 .text.HDC302X_DRIVER_Store_Status_Value
                0x0000000000000000       0x18 build/default/production/_ext/1360937237/hdc302x_driver.o
 .text.HDC302X_DRIVER_Get_NIST_54
                0x0000000000000000       0x34 build/default/production/_ext/1360937237/hdc302x_driver.o
 .text.HDC302X_DRIVER_Store_NIST_54_Value
                0x0000000000000000       0x18 build/default/production/_ext/1360937237/hdc302x_driver.o
 .text.HDC302X_DRIVER_Get_NIST_32
                0x0000000000000000       0x34 build/default/production/_ext/1360937237/hdc302x_driver.o
 .text.HDC302X_DRIVER_Store_NIST_32_Value
                0x0000000000000000       0x18 build/default/production/_ext/1360937237/hdc302x_driver.o
 .text.HDC302X_DRIVER_Get_NIST_10
                0x0000000000000000       0x34 build/default/production/_ext/1360937237/hdc302x_driver.o
 .text.HDC302X_DRIVER_Store_NIST_10_Value
                0x0000000000000000       0x18 build/default/production/_ext/1360937237/hdc302x_driver.o
 .text.HDC302X_DRIVER_Temperature_Calculation
                0x0000000000000000       0x5c build/default/production/_ext/1360937237/hdc302x_driver.o
 .text.HDC302X_DRIVER_Humidity_Calculation
                0x0000000000000000       0x34 build/default/production/_ext/1360937237/hdc302x_driver.o
 .text.HDC302X_DRIVER_Soft_Reset
                0x0000000000000000       0x2c build/default/production/_ext/1360937237/hdc302x_driver.o
 .text.HDC302X_DRIVER_Heater_Enable
                0x0000000000000000       0x2c build/default/production/_ext/1360937237/hdc302x_driver.o
 .text.HDC302X_DRIVER_Heater_Disable
                0x0000000000000000       0x2c build/default/production/_ext/1360937237/hdc302x_driver.o
 .text.HDC302X_DRIVER_Calculation_CRC
                0x0000000000000000       0x42 build/default/production/_ext/1360937237/hdc302x_driver.o
 .text.HDC302X_DRIVER_Calculation_Array_CRC
                0x0000000000000000       0x1a build/default/production/_ext/1360937237/hdc302x_driver.o
 .text.HDC302X_DRIVER_Config_Offset
                0x0000000000000000       0x40 build/default/production/_ext/1360937237/hdc302x_driver.o
 .text.HDC302X_DRIVER_Config_High_Alert_Set
                0x0000000000000000       0x40 build/default/production/_ext/1360937237/hdc302x_driver.o
 .text.HDC302X_DRIVER_Config_High_Alert_Clear
                0x0000000000000000       0x40 build/default/production/_ext/1360937237/hdc302x_driver.o
 .text.HDC302X_DRIVER_Config_Low_Alert_Set
                0x0000000000000000       0x40 build/default/production/_ext/1360937237/hdc302x_driver.o
 .text.HDC302X_DRIVER_Config_Low_Alert_Clear
                0x0000000000000000       0x40 build/default/production/_ext/1360937237/hdc302x_driver.o
 .text.HDC302X_DRIVER_Heater_Configuration
                0x0000000000000000       0x3c build/default/production/_ext/1360937237/hdc302x_driver.o
 .text.HDC302X_DRIVER_Set_Offset_Code
                0x0000000000000000       0x40 build/default/production/_ext/1360937237/hdc302x_driver.o
 .text.HDC302X_DRIVER_Set_ALERT_Code
                0x0000000000000000       0x38 build/default/production/_ext/1360937237/hdc302x_driver.o
 .text.HDC302X_DRIVER_Print_Data
                0x0000000000000000       0x40 build/default/production/_ext/1360937237/hdc302x_driver.o
 .bss.hdc302x_sensorData
                0x0000000000000000       0x16 build/default/production/_ext/1360937237/hdc302x_driver.o
 .bss.hdc302x_sensorSettings
                0x0000000000000000        0xc build/default/production/_ext/1360937237/hdc302x_driver.o
 .rodata.HDC302X_DRIVER_Print_Data.str1.4
                0x0000000000000000       0x40 build/default/production/_ext/1360937237/hdc302x_driver.o
 .text          0x0000000000000000        0x0 build/default/production/_ext/1360937237/sht4x_driver.o
 .data          0x0000000000000000        0x0 build/default/production/_ext/1360937237/sht4x_driver.o
 .bss           0x0000000000000000        0x0 build/default/production/_ext/1360937237/sht4x_driver.o
 .text.SHT4X_DRIVER_I2C_Callback
                0x0000000000000000       0x20 build/default/production/_ext/1360937237/sht4x_driver.o
 .text.SHT4X_DRIVER_Get_Task_Start_Status
                0x0000000000000000        0xc build/default/production/_ext/1360937237/sht4x_driver.o
 .text.SHT4X_DRIVER_Set_Task_Start_Status
                0x0000000000000000        0xc build/default/production/_ext/1360937237/sht4x_driver.o
 .text.SHT4X_DRIVER_Get_Task_Completed_Status
                0x0000000000000000        0xc build/default/production/_ext/1360937237/sht4x_driver.o
 .text.SHT4X_DRIVER_Set_Task_Completed_Status
                0x0000000000000000        0xc build/default/production/_ext/1360937237/sht4x_driver.o
 .text.SHT4X_DRIVER_Measurement_Readout_Write
                0x0000000000000000       0x24 build/default/production/_ext/1360937237/sht4x_driver.o
 .text.SHT4X_DRIVER_Measurement_Readout_Read
                0x0000000000000000       0x24 build/default/production/_ext/1360937237/sht4x_driver.o
 .text.SHT4X_DRIVER_Measurement_Readout_Store_Values
                0x0000000000000000       0x24 build/default/production/_ext/1360937237/sht4x_driver.o
 .text.SHT4X_DRIVER_Read_Serial_Number
                0x0000000000000000       0x30 build/default/production/_ext/1360937237/sht4x_driver.o
 .text.SHT4X_DRIVER_Store_Serial_Number
                0x0000000000000000       0x24 build/default/production/_ext/1360937237/sht4x_driver.o
 .text.SHT4X_DRIVER_Soft_Reset
                0x0000000000000000       0x28 build/default/production/_ext/1360937237/sht4x_driver.o
 .text.SHT4X_DRIVER_Temperature_Calculation
                0x0000000000000000       0x5c build/default/production/_ext/1360937237/sht4x_driver.o
 .text.SHT4X_DRIVER_Humidity_Calculation
                0x0000000000000000       0x3c build/default/production/_ext/1360937237/sht4x_driver.o
 .text.SHT4X_DRIVER_Print_Data
                0x0000000000000000       0x40 build/default/production/_ext/1360937237/sht4x_driver.o
 .bss.sht4x_sensorData
                0x0000000000000000        0x8 build/default/production/_ext/1360937237/sht4x_driver.o
 .rodata.SHT4X_DRIVER_Print_Data.str1.4
                0x0000000000000000       0x40 build/default/production/_ext/1360937237/sht4x_driver.o
 .text          0x0000000000000000        0x0 build/default/production/_ext/1360937237/rtc_driver.o
 .data          0x0000000000000000        0x0 build/default/production/_ext/1360937237/rtc_driver.o
 .bss           0x0000000000000000        0x0 build/default/production/_ext/1360937237/rtc_driver.o
 .text.RTC_DRIVER_Tasks
                0x0000000000000000       0x14 build/default/production/_ext/1360937237/rtc_driver.o
 .text          0x0000000000000000        0x0 build/default/production/_ext/1360937237/timer_driver.o
 .data          0x0000000000000000        0x0 build/default/production/_ext/1360937237/timer_driver.o
 .bss           0x0000000000000000        0x0 build/default/production/_ext/1360937237/timer_driver.o
 .text.TIMER_DRIVER_Get_TMR0_Status
                0x0000000000000000        0xc build/default/production/_ext/1360937237/timer_driver.o
 .text.TIMER_DRIVER_Set_TMR0_Status
                0x0000000000000000        0xc build/default/production/_ext/1360937237/timer_driver.o
 .text.TIMER_DRIVER_Start_TMR0
                0x0000000000000000       0x10 build/default/production/_ext/1360937237/timer_driver.o
 .text.TIMER_DRIVER_Get_TMR1_Status
                0x0000000000000000        0xc build/default/production/_ext/1360937237/timer_driver.o
 .text.TIMER_DRIVER_Set_TMR1_Status
                0x0000000000000000        0xc build/default/production/_ext/1360937237/timer_driver.o
 .text.TIMER_DRIVER_Start_TMR1
                0x0000000000000000       0x10 build/default/production/_ext/1360937237/timer_driver.o
 .text.TIMER_DRIVER_Get_TMR2_Status
                0x0000000000000000        0xc build/default/production/_ext/1360937237/timer_driver.o
 .text.TIMER_DRIVER_Set_TMR2_Status
                0x0000000000000000        0xc build/default/production/_ext/1360937237/timer_driver.o
 .text.TIMER_DRIVER_Start_TMR2
                0x0000000000000000       0x10 build/default/production/_ext/1360937237/timer_driver.o
 .text.TIMER_DRIVER_Get_TMR3_Status
                0x0000000000000000        0xc build/default/production/_ext/1360937237/timer_driver.o
 .text.TIMER_DRIVER_Set_TMR3_Status
                0x0000000000000000        0xc build/default/production/_ext/1360937237/timer_driver.o
 .text.TIMER_DRIVER_Start_TMR3
                0x0000000000000000       0x10 build/default/production/_ext/1360937237/timer_driver.o
 .text          0x0000000000000000        0x0 build/default/production/_ext/1360937237/can0_driver.o
 .data          0x0000000000000000        0x0 build/default/production/_ext/1360937237/can0_driver.o
 .bss           0x0000000000000000        0x0 build/default/production/_ext/1360937237/can0_driver.o
 .text.CAN0_DRIVER_Tasks
                0x0000000000000000       0x14 build/default/production/_ext/1360937237/can0_driver.o
 .text          0x0000000000000000        0x0 build/default/production/_ext/1360937237/bme690_driver.o
 .data          0x0000000000000000        0x0 build/default/production/_ext/1360937237/bme690_driver.o
 .bss           0x0000000000000000        0x0 build/default/production/_ext/1360937237/bme690_driver.o
 .text.BME690_DRIVER_I2C_Callback
                0x0000000000000000       0x20 build/default/production/_ext/1360937237/bme690_driver.o
 .text.BME690_DRIVER_Alert
                0x0000000000000000        0xc build/default/production/_ext/1360937237/bme690_driver.o
 .text.BME690_DRIVER_Get_Task_Start_Status
                0x0000000000000000        0xc build/default/production/_ext/1360937237/bme690_driver.o
 .text.BME690_DRIVER_Set_Task_Start_Status
                0x0000000000000000        0xc build/default/production/_ext/1360937237/bme690_driver.o
 .text.BME690_DRIVER_Get_Task_Completed_Status
                0x0000000000000000        0xc build/default/production/_ext/1360937237/bme690_driver.o
 .text.BME690_DRIVER_Set_Task_Completed_Status
                0x0000000000000000        0xc build/default/production/_ext/1360937237/bme690_driver.o
 .text.BME690_DRIVER_Get_Variant_ID
                0x0000000000000000       0x30 build/default/production/_ext/1360937237/bme690_driver.o
 .text.BME690_DRIVER_Store_Variant_ID
                0x0000000000000000       0x14 build/default/production/_ext/1360937237/bme690_driver.o
 .text.BME690_DRIVER_Reset_BME690
                0x0000000000000000       0x2c build/default/production/_ext/1360937237/bme690_driver.o
 .text.BME690_DRIVER_Get_Chip_ID
                0x0000000000000000       0x30 build/default/production/_ext/1360937237/bme690_driver.o
 .text.BME690_DRIVER_Store_Chip_ID
                0x0000000000000000       0x14 build/default/production/_ext/1360937237/bme690_driver.o
 .text.BME690_DRIVER_Get_Config
                0x0000000000000000       0x30 build/default/production/_ext/1360937237/bme690_driver.o
 .text.BME690_DRIVER_Store_Config
                0x0000000000000000       0x14 build/default/production/_ext/1360937237/bme690_driver.o
 .text.BME690_DRIVER_Set_Config
                0x0000000000000000       0x28 build/default/production/_ext/1360937237/bme690_driver.o
 .text.BME690_DRIVER_Get_Control_Measurement
                0x0000000000000000       0x30 build/default/production/_ext/1360937237/bme690_driver.o
 .text.BME690_DRIVER_Store_Control_Measurement
                0x0000000000000000        0x2 build/default/production/_ext/1360937237/bme690_driver.o
 .text.BME690_DRIVER_Set_Control_Measurement
                0x0000000000000000        0x2 build/default/production/_ext/1360937237/bme690_driver.o
 .text.BME690_DRIVER_Get_Control_Humidity
                0x0000000000000000       0x30 build/default/production/_ext/1360937237/bme690_driver.o
 .text.BME690_DRIVER_Store_Control_Humidity
                0x0000000000000000        0x2 build/default/production/_ext/1360937237/bme690_driver.o
 .text.BME690_DRIVER_Set_Control_Humidity
                0x0000000000000000        0x2 build/default/production/_ext/1360937237/bme690_driver.o
 .text.BME690_DRIVER_Get_Control_Gas_1
                0x0000000000000000       0x30 build/default/production/_ext/1360937237/bme690_driver.o
 .text.BME690_DRIVER_Set_Control_Gas_1
                0x0000000000000000        0x2 build/default/production/_ext/1360937237/bme690_driver.o
 .text.BME690_DRIVER_Get_Control_Gas_0
                0x0000000000000000       0x30 build/default/production/_ext/1360937237/bme690_driver.o
 .text.BME690_DRIVER_Set_Control_Gas_0
                0x0000000000000000        0x2 build/default/production/_ext/1360937237/bme690_driver.o
 .text.BME690_DRIVER_Get_Gas_Wait_Shared
                0x0000000000000000       0x30 build/default/production/_ext/1360937237/bme690_driver.o
 .text.BME690_DRIVER_Set_Gas_Wait_Shared
                0x0000000000000000        0x2 build/default/production/_ext/1360937237/bme690_driver.o
 .text.BME690_DRIVER_Get_Gas_Wait
                0x0000000000000000       0x30 build/default/production/_ext/1360937237/bme690_driver.o
 .text.BME690_DRIVER_Set_Gas_Wait
                0x0000000000000000        0x2 build/default/production/_ext/1360937237/bme690_driver.o
 .text.BME690_DRIVER_Get_Res_Heat
                0x0000000000000000        0x2 build/default/production/_ext/1360937237/bme690_driver.o
 .text.BME690_DRIVER_Set_Res_Heat
                0x0000000000000000        0x2 build/default/production/_ext/1360937237/bme690_driver.o
 .text.BME690_DRIVER_Get_Idac_Heat
                0x0000000000000000        0x2 build/default/production/_ext/1360937237/bme690_driver.o
 .text.BME690_DRIVER_Set_Idac_Heat
                0x0000000000000000        0x2 build/default/production/_ext/1360937237/bme690_driver.o
 .text.BME690_DRIVER_Get_Gas_LSB
                0x0000000000000000        0x2 build/default/production/_ext/1360937237/bme690_driver.o
 .text.BME690_DRIVER_Store_Gas_LSB
                0x0000000000000000        0x2 build/default/production/_ext/1360937237/bme690_driver.o
 .text.BME690_DRIVER_Get_Gas_MSB
                0x0000000000000000        0x2 build/default/production/_ext/1360937237/bme690_driver.o
 .text.BME690_DRIVER_Store_Gas_MSB
                0x0000000000000000        0x2 build/default/production/_ext/1360937237/bme690_driver.o
 .text.BME690_DRIVER_Get_Humidity_LSB
                0x0000000000000000        0x2 build/default/production/_ext/1360937237/bme690_driver.o
 .text.BME690_DRIVER_Store_Humidity_LSB
                0x0000000000000000        0x2 build/default/production/_ext/1360937237/bme690_driver.o
 .text.BME690_DRIVER_Get_Humidity_MSB
                0x0000000000000000        0x2 build/default/production/_ext/1360937237/bme690_driver.o
 .text.BME690_DRIVER_Store_Humidity_MSB
                0x0000000000000000        0x2 build/default/production/_ext/1360937237/bme690_driver.o
 .text.BME690_DRIVER_Get_Temperature_XLSB
                0x0000000000000000        0x2 build/default/production/_ext/1360937237/bme690_driver.o
 .text.BME690_DRIVER_Store_Temperature_XLSB
                0x0000000000000000        0x2 build/default/production/_ext/1360937237/bme690_driver.o
 .text.BME690_DRIVER_Get_Temperature_LSB
                0x0000000000000000        0x2 build/default/production/_ext/1360937237/bme690_driver.o
 .text.BME690_DRIVER_Store_Temperature_LSB
                0x0000000000000000        0x2 build/default/production/_ext/1360937237/bme690_driver.o
 .text.BME690_DRIVER_Get_Temperature_MSB
                0x0000000000000000        0x2 build/default/production/_ext/1360937237/bme690_driver.o
 .text.BME690_DRIVER_Store_Temperature_MSB
                0x0000000000000000        0x2 build/default/production/_ext/1360937237/bme690_driver.o
 .text.BME690_DRIVER_Get_Pressure_XLSB
                0x0000000000000000        0x2 build/default/production/_ext/1360937237/bme690_driver.o
 .text.BME690_DRIVER_Store_Pressure_XLSB
                0x0000000000000000        0x2 build/default/production/_ext/1360937237/bme690_driver.o
 .text.BME690_DRIVER_Get_Pressure_LSB
                0x0000000000000000        0x2 build/default/production/_ext/1360937237/bme690_driver.o
 .text.BME690_DRIVER_Store_Pressure_LSB
                0x0000000000000000        0x2 build/default/production/_ext/1360937237/bme690_driver.o
 .text.BME690_DRIVER_Get_Pressure_MSB
                0x0000000000000000        0x2 build/default/production/_ext/1360937237/bme690_driver.o
 .text.BME690_DRIVER_Store_Pressure_MSB
                0x0000000000000000        0x2 build/default/production/_ext/1360937237/bme690_driver.o
 .text.BME690_DRIVER_Get_Sub_Measurement_Status
                0x0000000000000000        0x2 build/default/production/_ext/1360937237/bme690_driver.o
 .text.BME690_DRIVER_Get_Measurement_Status
                0x0000000000000000        0x2 build/default/production/_ext/1360937237/bme690_driver.o
 .text.BME690_DRIVER_Get_Calibration_Register_Value
                0x0000000000000000        0x2 build/default/production/_ext/1360937237/bme690_driver.o
 .bss.bme690_calibrationData
                0x0000000000000000       0x2c build/default/production/_ext/1360937237/bme690_driver.o
 .bss.bme690_heaterConfig
                0x0000000000000000       0x14 build/default/production/_ext/1360937237/bme690_driver.o
 .bss.bme690_sensorData
                0x0000000000000000       0x2c build/default/production/_ext/1360937237/bme690_driver.o
 .text          0x0000000000000000        0x0 build/default/production/_ext/1360937237/rstc_driver.o
 .data          0x0000000000000000        0x0 build/default/production/_ext/1360937237/rstc_driver.o
 .bss           0x0000000000000000        0x0 build/default/production/_ext/1360937237/rstc_driver.o
 .text.RSTC_DRIVER_Tasks
                0x0000000000000000       0x14 build/default/production/_ext/1360937237/rstc_driver.o
 .text          0x0000000000000000        0x0 build/default/production/_ext/1360937237/lc709204f_driver.o
 .data          0x0000000000000000        0x0 build/default/production/_ext/1360937237/lc709204f_driver.o
 .bss           0x0000000000000000        0x0 build/default/production/_ext/1360937237/lc709204f_driver.o
 .bss.lc709204f_driverData
                0x0000000000000000        0x0 build/default/production/_ext/1360937237/lc709204f_driver.o
 .text          0x0000000000000000        0x0 c:/applications/microchip/xc32/bin/bin/../../lib/gcc/pic32c/8.3.1/../../../../pic32c/lib/thumb/v8-m.main+fp/hard\libpic32c.a(data_init.o)
 .data          0x0000000000000000        0x0 c:/applications/microchip/xc32/bin/bin/../../lib/gcc/pic32c/8.3.1/../../../../pic32c/lib/thumb/v8-m.main+fp/hard\libpic32c.a(data_init.o)
 .xc_stack_usage
                0x0000000000000000       0x68 c:/applications/microchip/xc32/bin/bin/../../lib/gcc/pic32c/8.3.1/../../../../pic32c/lib/thumb/v8-m.main+fp/hard\libpic32c.a(data_init.o)
 .xc_stack_usage.hdr
                0x0000000000000000        0xe c:/applications/microchip/xc32/bin/bin/../../lib/gcc/pic32c/8.3.1/../../../../pic32c/lib/thumb/v8-m.main+fp/hard\libpic32c.a(data_init.o)
 .text          0x0000000000000000        0x0 c:/applications/microchip/xc32/bin/bin/../../lib/gcc/pic32c/8.3.1/../../../../pic32c/lib/thumb/v8-m.main+fp/hard\libc-size-musl.a(memset.o)
 .data          0x0000000000000000        0x0 c:/applications/microchip/xc32/bin/bin/../../lib/gcc/pic32c/8.3.1/../../../../pic32c/lib/thumb/v8-m.main+fp/hard\libc-size-musl.a(memset.o)
 .bss           0x0000000000000000        0x0 c:/applications/microchip/xc32/bin/bin/../../lib/gcc/pic32c/8.3.1/../../../../pic32c/lib/thumb/v8-m.main+fp/hard\libc-size-musl.a(memset.o)
 .xc_stack_usage
                0x0000000000000000       0x14 c:/applications/microchip/xc32/bin/bin/../../lib/gcc/pic32c/8.3.1/../../../../pic32c/lib/thumb/v8-m.main+fp/hard\libc-size-musl.a(memset.o)
 .xc_stack_usage.hdr
                0x0000000000000000        0xe c:/applications/microchip/xc32/bin/bin/../../lib/gcc/pic32c/8.3.1/../../../../pic32c/lib/thumb/v8-m.main+fp/hard\libc-size-musl.a(memset.o)
 .text          0x0000000000000000        0x0 c:/applications/microchip/xc32/bin/bin/../../lib/gcc/pic32c/8.3.1/../../../../pic32c/lib/thumb/v8-m.main+fp/hard\libc-size-musl.a(strlen.o)
 .data          0x0000000000000000        0x0 c:/applications/microchip/xc32/bin/bin/../../lib/gcc/pic32c/8.3.1/../../../../pic32c/lib/thumb/v8-m.main+fp/hard\libc-size-musl.a(strlen.o)
 .bss           0x0000000000000000        0x0 c:/applications/microchip/xc32/bin/bin/../../lib/gcc/pic32c/8.3.1/../../../../pic32c/lib/thumb/v8-m.main+fp/hard\libc-size-musl.a(strlen.o)
 .xc_stack_usage
                0x0000000000000000       0x14 c:/applications/microchip/xc32/bin/bin/../../lib/gcc/pic32c/8.3.1/../../../../pic32c/lib/thumb/v8-m.main+fp/hard\libc-size-musl.a(strlen.o)
 .text.strlen   0x0000000000000000       0x18 c:/applications/microchip/xc32/bin/bin/../../lib/gcc/pic32c/8.3.1/../../../../pic32c/lib/thumb/v8-m.main+fp/hard\libc-size-musl.a(strlen.o)
 .xc_stack_usage.hdr
                0x0000000000000000        0xe c:/applications/microchip/xc32/bin/bin/../../lib/gcc/pic32c/8.3.1/../../../../pic32c/lib/thumb/v8-m.main+fp/hard\libc-size-musl.a(strlen.o)
 .debug_info    0x0000000000000000       0xa4 c:/applications/microchip/xc32/bin/bin/../../lib/gcc/pic32c/8.3.1/../../../../pic32c/lib/thumb/v8-m.main+fp/hard\libc-size-musl.a(strlen.o)
 .debug_abbrev  0x0000000000000000       0x91 c:/applications/microchip/xc32/bin/bin/../../lib/gcc/pic32c/8.3.1/../../../../pic32c/lib/thumb/v8-m.main+fp/hard\libc-size-musl.a(strlen.o)
 .debug_loc     0x0000000000000000       0x90 c:/applications/microchip/xc32/bin/bin/../../lib/gcc/pic32c/8.3.1/../../../../pic32c/lib/thumb/v8-m.main+fp/hard\libc-size-musl.a(strlen.o)
 .debug_aranges
                0x0000000000000000       0x20 c:/applications/microchip/xc32/bin/bin/../../lib/gcc/pic32c/8.3.1/../../../../pic32c/lib/thumb/v8-m.main+fp/hard\libc-size-musl.a(strlen.o)
 .debug_ranges  0x0000000000000000       0x10 c:/applications/microchip/xc32/bin/bin/../../lib/gcc/pic32c/8.3.1/../../../../pic32c/lib/thumb/v8-m.main+fp/hard\libc-size-musl.a(strlen.o)
 .debug_line    0x0000000000000000       0xe6 c:/applications/microchip/xc32/bin/bin/../../lib/gcc/pic32c/8.3.1/../../../../pic32c/lib/thumb/v8-m.main+fp/hard\libc-size-musl.a(strlen.o)
 .debug_str     0x0000000000000000      0x22d c:/applications/microchip/xc32/bin/bin/../../lib/gcc/pic32c/8.3.1/../../../../pic32c/lib/thumb/v8-m.main+fp/hard\libc-size-musl.a(strlen.o)
 .comment       0x0000000000000000       0x2c c:/applications/microchip/xc32/bin/bin/../../lib/gcc/pic32c/8.3.1/../../../../pic32c/lib/thumb/v8-m.main+fp/hard\libc-size-musl.a(strlen.o)
 .note.GNU-stack
                0x0000000000000000        0x0 c:/applications/microchip/xc32/bin/bin/../../lib/gcc/pic32c/8.3.1/../../../../pic32c/lib/thumb/v8-m.main+fp/hard\libc-size-musl.a(strlen.o)
 .debug_frame   0x0000000000000000       0x20 c:/applications/microchip/xc32/bin/bin/../../lib/gcc/pic32c/8.3.1/../../../../pic32c/lib/thumb/v8-m.main+fp/hard\libc-size-musl.a(strlen.o)
 .ARM.attributes
                0x0000000000000000       0x3a c:/applications/microchip/xc32/bin/bin/../../lib/gcc/pic32c/8.3.1/../../../../pic32c/lib/thumb/v8-m.main+fp/hard\libc-size-musl.a(strlen.o)
 .ARM.attributes
                0x0000000000000000       0x24 c:/applications/microchip/xc32/bin/bin/../../lib/gcc/pic32c/8.3.1/../../../../pic32c/lib/thumb/v8-m.main+fp/hard\libm-fast-emfloat.a(__aeabi_ul2f.o)
 .text.__aeabi_ul2f
                0x0000000000000000       0x54 c:/applications/microchip/xc32/bin/bin/../../lib/gcc/pic32c/8.3.1/../../../../pic32c/lib/thumb/v8-m.main+fp/hard\libm-fast-emfloat.a(__aeabi_ul2f.o)
 .xc_stack_usage.hdr
                0x0000000000000000        0xe c:/applications/microchip/xc32/bin/bin/../../lib/gcc/pic32c/8.3.1/../../../../pic32c/lib/thumb/v8-m.main+fp/hard\libm-fast-emfloat.a(__aeabi_ul2f.o)
 .xc_stack_usage
                0x0000000000000000       0x1a c:/applications/microchip/xc32/bin/bin/../../lib/gcc/pic32c/8.3.1/../../../../pic32c/lib/thumb/v8-m.main+fp/hard\libm-fast-emfloat.a(__aeabi_ul2f.o)
 .ARM.attributes
                0x0000000000000000       0x24 c:/applications/microchip/xc32/bin/bin/../../lib/gcc/pic32c/8.3.1/../../../../pic32c/lib/thumb/v8-m.main+fp/hard\libm-fast-emfloat.a(__aeabi_f2d.o)
 .text.__aeabi_f2d
                0x0000000000000000       0x34 c:/applications/microchip/xc32/bin/bin/../../lib/gcc/pic32c/8.3.1/../../../../pic32c/lib/thumb/v8-m.main+fp/hard\libm-fast-emfloat.a(__aeabi_f2d.o)
 .xc_stack_usage.hdr
                0x0000000000000000        0xe c:/applications/microchip/xc32/bin/bin/../../lib/gcc/pic32c/8.3.1/../../../../pic32c/lib/thumb/v8-m.main+fp/hard\libm-fast-emfloat.a(__aeabi_f2d.o)
 .xc_stack_usage
                0x0000000000000000       0x19 c:/applications/microchip/xc32/bin/bin/../../lib/gcc/pic32c/8.3.1/../../../../pic32c/lib/thumb/v8-m.main+fp/hard\libm-fast-emfloat.a(__aeabi_f2d.o)
 .text          0x0000000000000000        0x0 c:/applications/microchip/xc32/bin/bin/../../lib/gcc/pic32c/8.3.1/../../../../pic32c/lib/thumb/v8-m.main+fp/hard\libc-musl.a(__libc_start_main.o)
 .data          0x0000000000000000        0x0 c:/applications/microchip/xc32/bin/bin/../../lib/gcc/pic32c/8.3.1/../../../../pic32c/lib/thumb/v8-m.main+fp/hard\libc-musl.a(__libc_start_main.o)
 .bss           0x0000000000000000        0x0 c:/applications/microchip/xc32/bin/bin/../../lib/gcc/pic32c/8.3.1/../../../../pic32c/lib/thumb/v8-m.main+fp/hard\libc-musl.a(__libc_start_main.o)
 .xc_stack_usage
                0x0000000000000000       0x34 c:/applications/microchip/xc32/bin/bin/../../lib/gcc/pic32c/8.3.1/../../../../pic32c/lib/thumb/v8-m.main+fp/hard\libc-musl.a(__libc_start_main.o)
 .xc_stack_usage.hdr
                0x0000000000000000        0xe c:/applications/microchip/xc32/bin/bin/../../lib/gcc/pic32c/8.3.1/../../../../pic32c/lib/thumb/v8-m.main+fp/hard\libc-musl.a(__libc_start_main.o)
 .text          0x0000000000000000        0x0 c:/applications/microchip/xc32/bin/bin/../../lib/gcc/pic32c/8.3.1/../../../../pic32c/lib/thumb/v8-m.main+fp/hard\libc-musl.a(libc.o)
 .data          0x0000000000000000        0x0 c:/applications/microchip/xc32/bin/bin/../../lib/gcc/pic32c/8.3.1/../../../../pic32c/lib/thumb/v8-m.main+fp/hard\libc-musl.a(libc.o)
 .xc_stack_usage.hdr
                0x0000000000000000        0xe c:/applications/microchip/xc32/bin/bin/../../lib/gcc/pic32c/8.3.1/../../../../pic32c/lib/thumb/v8-m.main+fp/hard\libc-musl.a(libc.o)
 .text          0x0000000000000000        0x0 c:/applications/microchip/xc32/bin/bin/../../lib/gcc/pic32c/8.3.1/../../../../pic32c/lib/thumb/v8-m.main+fp/hard\libc-musl.a(vsnprintf.o)
 .data          0x0000000000000000        0x0 c:/applications/microchip/xc32/bin/bin/../../lib/gcc/pic32c/8.3.1/../../../../pic32c/lib/thumb/v8-m.main+fp/hard\libc-musl.a(vsnprintf.o)
 .bss           0x0000000000000000        0x0 c:/applications/microchip/xc32/bin/bin/../../lib/gcc/pic32c/8.3.1/../../../../pic32c/lib/thumb/v8-m.main+fp/hard\libc-musl.a(vsnprintf.o)
 .xc_stack_usage
                0x0000000000000000       0x17 c:/applications/microchip/xc32/bin/bin/../../lib/gcc/pic32c/8.3.1/../../../../pic32c/lib/thumb/v8-m.main+fp/hard\libc-musl.a(vsnprintf.o)
 .text.vsnprintf
                0x0000000000000000       0x64 c:/applications/microchip/xc32/bin/bin/../../lib/gcc/pic32c/8.3.1/../../../../pic32c/lib/thumb/v8-m.main+fp/hard\libc-musl.a(vsnprintf.o)
 .xc_stack_usage.hdr
                0x0000000000000000        0xe c:/applications/microchip/xc32/bin/bin/../../lib/gcc/pic32c/8.3.1/../../../../pic32c/lib/thumb/v8-m.main+fp/hard\libc-musl.a(vsnprintf.o)
 .debug_info    0x0000000000000000      0x43a c:/applications/microchip/xc32/bin/bin/../../lib/gcc/pic32c/8.3.1/../../../../pic32c/lib/thumb/v8-m.main+fp/hard\libc-musl.a(vsnprintf.o)
 .debug_abbrev  0x0000000000000000      0x195 c:/applications/microchip/xc32/bin/bin/../../lib/gcc/pic32c/8.3.1/../../../../pic32c/lib/thumb/v8-m.main+fp/hard\libc-musl.a(vsnprintf.o)
 .debug_loc     0x0000000000000000       0xeb c:/applications/microchip/xc32/bin/bin/../../lib/gcc/pic32c/8.3.1/../../../../pic32c/lib/thumb/v8-m.main+fp/hard\libc-musl.a(vsnprintf.o)
 .debug_aranges
                0x0000000000000000       0x20 c:/applications/microchip/xc32/bin/bin/../../lib/gcc/pic32c/8.3.1/../../../../pic32c/lib/thumb/v8-m.main+fp/hard\libc-musl.a(vsnprintf.o)
 .debug_ranges  0x0000000000000000       0x10 c:/applications/microchip/xc32/bin/bin/../../lib/gcc/pic32c/8.3.1/../../../../pic32c/lib/thumb/v8-m.main+fp/hard\libc-musl.a(vsnprintf.o)
 .debug_line    0x0000000000000000      0x235 c:/applications/microchip/xc32/bin/bin/../../lib/gcc/pic32c/8.3.1/../../../../pic32c/lib/thumb/v8-m.main+fp/hard\libc-musl.a(vsnprintf.o)
 .debug_str     0x0000000000000000      0x397 c:/applications/microchip/xc32/bin/bin/../../lib/gcc/pic32c/8.3.1/../../../../pic32c/lib/thumb/v8-m.main+fp/hard\libc-musl.a(vsnprintf.o)
 .comment       0x0000000000000000       0x2c c:/applications/microchip/xc32/bin/bin/../../lib/gcc/pic32c/8.3.1/../../../../pic32c/lib/thumb/v8-m.main+fp/hard\libc-musl.a(vsnprintf.o)
 .note.GNU-stack
                0x0000000000000000        0x0 c:/applications/microchip/xc32/bin/bin/../../lib/gcc/pic32c/8.3.1/../../../../pic32c/lib/thumb/v8-m.main+fp/hard\libc-musl.a(vsnprintf.o)
 .debug_frame   0x0000000000000000       0x38 c:/applications/microchip/xc32/bin/bin/../../lib/gcc/pic32c/8.3.1/../../../../pic32c/lib/thumb/v8-m.main+fp/hard\libc-musl.a(vsnprintf.o)
 .ARM.attributes
                0x0000000000000000       0x3a c:/applications/microchip/xc32/bin/bin/../../lib/gcc/pic32c/8.3.1/../../../../pic32c/lib/thumb/v8-m.main+fp/hard\libc-musl.a(vsnprintf.o)
 .text          0x0000000000000000        0x0 c:/applications/microchip/xc32/bin/bin/../../lib/gcc/pic32c/8.3.1/../../../../pic32c/lib/thumb/v8-m.main+fp/hard\libc-musl.a(__environ.o)
 .data          0x0000000000000000        0x0 c:/applications/microchip/xc32/bin/bin/../../lib/gcc/pic32c/8.3.1/../../../../pic32c/lib/thumb/v8-m.main+fp/hard\libc-musl.a(__environ.o)
 .xc_stack_usage.hdr
                0x0000000000000000        0xe c:/applications/microchip/xc32/bin/bin/../../lib/gcc/pic32c/8.3.1/../../../../pic32c/lib/thumb/v8-m.main+fp/hard\libc-musl.a(__environ.o)
 .text          0x0000000000000000        0x0 c:/applications/microchip/xc32/bin/bin/../../lib/gcc/pic32c/8.3.1/../../../../pic32c/lib/thumb/v8-m.main+fp/hard\libc-musl.a(__errno_location.o)
 .data          0x0000000000000000        0x0 c:/applications/microchip/xc32/bin/bin/../../lib/gcc/pic32c/8.3.1/../../../../pic32c/lib/thumb/v8-m.main+fp/hard\libc-musl.a(__errno_location.o)
 .bss           0x0000000000000000        0x4 c:/applications/microchip/xc32/bin/bin/../../lib/gcc/pic32c/8.3.1/../../../../pic32c/lib/thumb/v8-m.main+fp/hard\libc-musl.a(__errno_location.o)
 .xc_stack_usage.hdr
                0x0000000000000000        0xe c:/applications/microchip/xc32/bin/bin/../../lib/gcc/pic32c/8.3.1/../../../../pic32c/lib/thumb/v8-m.main+fp/hard\libc-musl.a(__errno_location.o)
 .debug_info    0x0000000000000000       0x5b c:/applications/microchip/xc32/bin/bin/../../lib/gcc/pic32c/8.3.1/../../../../pic32c/lib/thumb/v8-m.main+fp/hard\libc-musl.a(__errno_location.o)
 .debug_abbrev  0x0000000000000000       0x39 c:/applications/microchip/xc32/bin/bin/../../lib/gcc/pic32c/8.3.1/../../../../pic32c/lib/thumb/v8-m.main+fp/hard\libc-musl.a(__errno_location.o)
 .debug_aranges
                0x0000000000000000       0x18 c:/applications/microchip/xc32/bin/bin/../../lib/gcc/pic32c/8.3.1/../../../../pic32c/lib/thumb/v8-m.main+fp/hard\libc-musl.a(__errno_location.o)
 .debug_line    0x0000000000000000       0x9a c:/applications/microchip/xc32/bin/bin/../../lib/gcc/pic32c/8.3.1/../../../../pic32c/lib/thumb/v8-m.main+fp/hard\libc-musl.a(__errno_location.o)
 .debug_str     0x0000000000000000      0x23f c:/applications/microchip/xc32/bin/bin/../../lib/gcc/pic32c/8.3.1/../../../../pic32c/lib/thumb/v8-m.main+fp/hard\libc-musl.a(__errno_location.o)
 .comment       0x0000000000000000       0x2c c:/applications/microchip/xc32/bin/bin/../../lib/gcc/pic32c/8.3.1/../../../../pic32c/lib/thumb/v8-m.main+fp/hard\libc-musl.a(__errno_location.o)
 .note.GNU-stack
                0x0000000000000000        0x0 c:/applications/microchip/xc32/bin/bin/../../lib/gcc/pic32c/8.3.1/../../../../pic32c/lib/thumb/v8-m.main+fp/hard\libc-musl.a(__errno_location.o)
 .ARM.attributes
                0x0000000000000000       0x38 c:/applications/microchip/xc32/bin/bin/../../lib/gcc/pic32c/8.3.1/../../../../pic32c/lib/thumb/v8-m.main+fp/hard\libc-musl.a(__errno_location.o)
 .text          0x0000000000000000        0x0 c:/applications/microchip/xc32/bin/bin/../../lib/gcc/pic32c/8.3.1/../../../../pic32c/lib/thumb/v8-m.main+fp/hard\libc-musl.a(vfprintf.o)
 .data          0x0000000000000000        0x0 c:/applications/microchip/xc32/bin/bin/../../lib/gcc/pic32c/8.3.1/../../../../pic32c/lib/thumb/v8-m.main+fp/hard\libc-musl.a(vfprintf.o)
 .bss           0x0000000000000000        0x0 c:/applications/microchip/xc32/bin/bin/../../lib/gcc/pic32c/8.3.1/../../../../pic32c/lib/thumb/v8-m.main+fp/hard\libc-musl.a(vfprintf.o)
 .xc_stack_usage
                0x0000000000000000       0x38 c:/applications/microchip/xc32/bin/bin/../../lib/gcc/pic32c/8.3.1/../../../../pic32c/lib/thumb/v8-m.main+fp/hard\libc-musl.a(vfprintf.o)
 .text.vfprintf
                0x0000000000000000       0x1c c:/applications/microchip/xc32/bin/bin/../../lib/gcc/pic32c/8.3.1/../../../../pic32c/lib/thumb/v8-m.main+fp/hard\libc-musl.a(vfprintf.o)
 __xc_reference_data
                0x0000000000000000        0x4 c:/applications/microchip/xc32/bin/bin/../../lib/gcc/pic32c/8.3.1/../../../../pic32c/lib/thumb/v8-m.main+fp/hard\libc-musl.a(vfprintf.o)
 .xc_stack_usage.hdr
                0x0000000000000000        0xe c:/applications/microchip/xc32/bin/bin/../../lib/gcc/pic32c/8.3.1/../../../../pic32c/lib/thumb/v8-m.main+fp/hard\libc-musl.a(vfprintf.o)
 .debug_info    0x0000000000000000      0x406 c:/applications/microchip/xc32/bin/bin/../../lib/gcc/pic32c/8.3.1/../../../../pic32c/lib/thumb/v8-m.main+fp/hard\libc-musl.a(vfprintf.o)
 .debug_abbrev  0x0000000000000000      0x189 c:/applications/microchip/xc32/bin/bin/../../lib/gcc/pic32c/8.3.1/../../../../pic32c/lib/thumb/v8-m.main+fp/hard\libc-musl.a(vfprintf.o)
 .debug_loc     0x0000000000000000       0x88 c:/applications/microchip/xc32/bin/bin/../../lib/gcc/pic32c/8.3.1/../../../../pic32c/lib/thumb/v8-m.main+fp/hard\libc-musl.a(vfprintf.o)
 .debug_aranges
                0x0000000000000000       0x28 c:/applications/microchip/xc32/bin/bin/../../lib/gcc/pic32c/8.3.1/../../../../pic32c/lib/thumb/v8-m.main+fp/hard\libc-musl.a(vfprintf.o)
 .debug_ranges  0x0000000000000000       0x18 c:/applications/microchip/xc32/bin/bin/../../lib/gcc/pic32c/8.3.1/../../../../pic32c/lib/thumb/v8-m.main+fp/hard\libc-musl.a(vfprintf.o)
 .debug_line    0x0000000000000000      0x1e6 c:/applications/microchip/xc32/bin/bin/../../lib/gcc/pic32c/8.3.1/../../../../pic32c/lib/thumb/v8-m.main+fp/hard\libc-musl.a(vfprintf.o)
 .debug_str     0x0000000000000000      0x395 c:/applications/microchip/xc32/bin/bin/../../lib/gcc/pic32c/8.3.1/../../../../pic32c/lib/thumb/v8-m.main+fp/hard\libc-musl.a(vfprintf.o)
 .comment       0x0000000000000000       0x2c c:/applications/microchip/xc32/bin/bin/../../lib/gcc/pic32c/8.3.1/../../../../pic32c/lib/thumb/v8-m.main+fp/hard\libc-musl.a(vfprintf.o)
 .note.GNU-stack
                0x0000000000000000        0x0 c:/applications/microchip/xc32/bin/bin/../../lib/gcc/pic32c/8.3.1/../../../../pic32c/lib/thumb/v8-m.main+fp/hard\libc-musl.a(vfprintf.o)
 .debug_frame   0x0000000000000000       0x3c c:/applications/microchip/xc32/bin/bin/../../lib/gcc/pic32c/8.3.1/../../../../pic32c/lib/thumb/v8-m.main+fp/hard\libc-musl.a(vfprintf.o)
 .ARM.attributes
                0x0000000000000000       0x3a c:/applications/microchip/xc32/bin/bin/../../lib/gcc/pic32c/8.3.1/../../../../pic32c/lib/thumb/v8-m.main+fp/hard\libc-musl.a(vfprintf.o)
 .text          0x0000000000000000        0x0 c:/applications/microchip/xc32/bin/bin/../../lib/gcc/pic32c/8.3.1/../../../../pic32c/lib/thumb/v8-m.main+fp/hard\libc-musl.a(__io_fmt_needed.o)
 .data          0x0000000000000000        0x0 c:/applications/microchip/xc32/bin/bin/../../lib/gcc/pic32c/8.3.1/../../../../pic32c/lib/thumb/v8-m.main+fp/hard\libc-musl.a(__io_fmt_needed.o)
 .bss           0x0000000000000000        0x0 c:/applications/microchip/xc32/bin/bin/../../lib/gcc/pic32c/8.3.1/../../../../pic32c/lib/thumb/v8-m.main+fp/hard\libc-musl.a(__io_fmt_needed.o)
 .xc_stack_usage
                0x0000000000000000       0x1d c:/applications/microchip/xc32/bin/bin/../../lib/gcc/pic32c/8.3.1/../../../../pic32c/lib/thumb/v8-m.main+fp/hard\libc-musl.a(__io_fmt_needed.o)
 __xc_reference_data
                0x0000000000000000       0x58 c:/applications/microchip/xc32/bin/bin/../../lib/gcc/pic32c/8.3.1/../../../../pic32c/lib/thumb/v8-m.main+fp/hard\libc-musl.a(__io_fmt_needed.o)
 .xc_stack_usage.hdr
                0x0000000000000000        0xe c:/applications/microchip/xc32/bin/bin/../../lib/gcc/pic32c/8.3.1/../../../../pic32c/lib/thumb/v8-m.main+fp/hard\libc-musl.a(__io_fmt_needed.o)
 .debug_info    0x0000000000000000      0x188 c:/applications/microchip/xc32/bin/bin/../../lib/gcc/pic32c/8.3.1/../../../../pic32c/lib/thumb/v8-m.main+fp/hard\libc-musl.a(__io_fmt_needed.o)
 .debug_abbrev  0x0000000000000000       0x75 c:/applications/microchip/xc32/bin/bin/../../lib/gcc/pic32c/8.3.1/../../../../pic32c/lib/thumb/v8-m.main+fp/hard\libc-musl.a(__io_fmt_needed.o)
 .debug_loc     0x0000000000000000       0x2c c:/applications/microchip/xc32/bin/bin/../../lib/gcc/pic32c/8.3.1/../../../../pic32c/lib/thumb/v8-m.main+fp/hard\libc-musl.a(__io_fmt_needed.o)
 .debug_aranges
                0x0000000000000000       0x20 c:/applications/microchip/xc32/bin/bin/../../lib/gcc/pic32c/8.3.1/../../../../pic32c/lib/thumb/v8-m.main+fp/hard\libc-musl.a(__io_fmt_needed.o)
 .debug_ranges  0x0000000000000000       0x10 c:/applications/microchip/xc32/bin/bin/../../lib/gcc/pic32c/8.3.1/../../../../pic32c/lib/thumb/v8-m.main+fp/hard\libc-musl.a(__io_fmt_needed.o)
 .debug_line    0x0000000000000000       0xc5 c:/applications/microchip/xc32/bin/bin/../../lib/gcc/pic32c/8.3.1/../../../../pic32c/lib/thumb/v8-m.main+fp/hard\libc-musl.a(__io_fmt_needed.o)
 .debug_str     0x0000000000000000      0x34c c:/applications/microchip/xc32/bin/bin/../../lib/gcc/pic32c/8.3.1/../../../../pic32c/lib/thumb/v8-m.main+fp/hard\libc-musl.a(__io_fmt_needed.o)
 .comment       0x0000000000000000       0x2c c:/applications/microchip/xc32/bin/bin/../../lib/gcc/pic32c/8.3.1/../../../../pic32c/lib/thumb/v8-m.main+fp/hard\libc-musl.a(__io_fmt_needed.o)
 .note.GNU-stack
                0x0000000000000000        0x0 c:/applications/microchip/xc32/bin/bin/../../lib/gcc/pic32c/8.3.1/../../../../pic32c/lib/thumb/v8-m.main+fp/hard\libc-musl.a(__io_fmt_needed.o)
 .debug_frame   0x0000000000000000       0x2c c:/applications/microchip/xc32/bin/bin/../../lib/gcc/pic32c/8.3.1/../../../../pic32c/lib/thumb/v8-m.main+fp/hard\libc-musl.a(__io_fmt_needed.o)
 .ARM.attributes
                0x0000000000000000       0x3a c:/applications/microchip/xc32/bin/bin/../../lib/gcc/pic32c/8.3.1/../../../../pic32c/lib/thumb/v8-m.main+fp/hard\libc-musl.a(__io_fmt_needed.o)
 .text          0x0000000000000000        0x0 c:/applications/microchip/xc32/bin/bin/../../lib/gcc/pic32c/8.3.1/../../../../pic32c/lib/thumb/v8-m.main+fp/hard\libc-musl.a(__pop_float.o)
 .data          0x0000000000000000        0x0 c:/applications/microchip/xc32/bin/bin/../../lib/gcc/pic32c/8.3.1/../../../../pic32c/lib/thumb/v8-m.main+fp/hard\libc-musl.a(__pop_float.o)
 .bss           0x0000000000000000        0x0 c:/applications/microchip/xc32/bin/bin/../../lib/gcc/pic32c/8.3.1/../../../../pic32c/lib/thumb/v8-m.main+fp/hard\libc-musl.a(__pop_float.o)
 .xc_stack_usage
                0x0000000000000000       0x19 c:/applications/microchip/xc32/bin/bin/../../lib/gcc/pic32c/8.3.1/../../../../pic32c/lib/thumb/v8-m.main+fp/hard\libc-musl.a(__pop_float.o)
 .text.__pop_float
                0x0000000000000000       0x2a c:/applications/microchip/xc32/bin/bin/../../lib/gcc/pic32c/8.3.1/../../../../pic32c/lib/thumb/v8-m.main+fp/hard\libc-musl.a(__pop_float.o)
 .xc_stack_usage.hdr
                0x0000000000000000        0xe c:/applications/microchip/xc32/bin/bin/../../lib/gcc/pic32c/8.3.1/../../../../pic32c/lib/thumb/v8-m.main+fp/hard\libc-musl.a(__pop_float.o)
 .debug_info    0x0000000000000000      0x162 c:/applications/microchip/xc32/bin/bin/../../lib/gcc/pic32c/8.3.1/../../../../pic32c/lib/thumb/v8-m.main+fp/hard\libc-musl.a(__pop_float.o)
 .debug_abbrev  0x0000000000000000       0xdc c:/applications/microchip/xc32/bin/bin/../../lib/gcc/pic32c/8.3.1/../../../../pic32c/lib/thumb/v8-m.main+fp/hard\libc-musl.a(__pop_float.o)
 .debug_loc     0x0000000000000000       0xa6 c:/applications/microchip/xc32/bin/bin/../../lib/gcc/pic32c/8.3.1/../../../../pic32c/lib/thumb/v8-m.main+fp/hard\libc-musl.a(__pop_float.o)
 .debug_aranges
                0x0000000000000000       0x20 c:/applications/microchip/xc32/bin/bin/../../lib/gcc/pic32c/8.3.1/../../../../pic32c/lib/thumb/v8-m.main+fp/hard\libc-musl.a(__pop_float.o)
 .debug_ranges  0x0000000000000000       0x10 c:/applications/microchip/xc32/bin/bin/../../lib/gcc/pic32c/8.3.1/../../../../pic32c/lib/thumb/v8-m.main+fp/hard\libc-musl.a(__pop_float.o)
 .debug_line    0x0000000000000000      0x165 c:/applications/microchip/xc32/bin/bin/../../lib/gcc/pic32c/8.3.1/../../../../pic32c/lib/thumb/v8-m.main+fp/hard\libc-musl.a(__pop_float.o)
 .debug_str     0x0000000000000000      0x2d6 c:/applications/microchip/xc32/bin/bin/../../lib/gcc/pic32c/8.3.1/../../../../pic32c/lib/thumb/v8-m.main+fp/hard\libc-musl.a(__pop_float.o)
 .comment       0x0000000000000000       0x2c c:/applications/microchip/xc32/bin/bin/../../lib/gcc/pic32c/8.3.1/../../../../pic32c/lib/thumb/v8-m.main+fp/hard\libc-musl.a(__pop_float.o)
 .note.GNU-stack
                0x0000000000000000        0x0 c:/applications/microchip/xc32/bin/bin/../../lib/gcc/pic32c/8.3.1/../../../../pic32c/lib/thumb/v8-m.main+fp/hard\libc-musl.a(__pop_float.o)
 .debug_frame   0x0000000000000000       0x20 c:/applications/microchip/xc32/bin/bin/../../lib/gcc/pic32c/8.3.1/../../../../pic32c/lib/thumb/v8-m.main+fp/hard\libc-musl.a(__pop_float.o)
 .ARM.attributes
                0x0000000000000000       0x3a c:/applications/microchip/xc32/bin/bin/../../lib/gcc/pic32c/8.3.1/../../../../pic32c/lib/thumb/v8-m.main+fp/hard\libc-musl.a(__pop_float.o)
 .text          0x0000000000000000        0x0 c:/applications/microchip/xc32/bin/bin/../../lib/gcc/pic32c/8.3.1/../../../../pic32c/lib/thumb/v8-m.main+fp/hard\libc-musl.a(__pop_int.o)
 .data          0x0000000000000000        0x0 c:/applications/microchip/xc32/bin/bin/../../lib/gcc/pic32c/8.3.1/../../../../pic32c/lib/thumb/v8-m.main+fp/hard\libc-musl.a(__pop_int.o)
 .bss           0x0000000000000000        0x0 c:/applications/microchip/xc32/bin/bin/../../lib/gcc/pic32c/8.3.1/../../../../pic32c/lib/thumb/v8-m.main+fp/hard\libc-musl.a(__pop_int.o)
 .xc_stack_usage
                0x0000000000000000       0x17 c:/applications/microchip/xc32/bin/bin/../../lib/gcc/pic32c/8.3.1/../../../../pic32c/lib/thumb/v8-m.main+fp/hard\libc-musl.a(__pop_int.o)
 .text.__pop_int
                0x0000000000000000       0xac c:/applications/microchip/xc32/bin/bin/../../lib/gcc/pic32c/8.3.1/../../../../pic32c/lib/thumb/v8-m.main+fp/hard\libc-musl.a(__pop_int.o)
 .xc_stack_usage.hdr
                0x0000000000000000        0xe c:/applications/microchip/xc32/bin/bin/../../lib/gcc/pic32c/8.3.1/../../../../pic32c/lib/thumb/v8-m.main+fp/hard\libc-musl.a(__pop_int.o)
 .debug_info    0x0000000000000000      0x183 c:/applications/microchip/xc32/bin/bin/../../lib/gcc/pic32c/8.3.1/../../../../pic32c/lib/thumb/v8-m.main+fp/hard\libc-musl.a(__pop_int.o)
 .debug_abbrev  0x0000000000000000       0xdc c:/applications/microchip/xc32/bin/bin/../../lib/gcc/pic32c/8.3.1/../../../../pic32c/lib/thumb/v8-m.main+fp/hard\libc-musl.a(__pop_int.o)
 .debug_loc     0x0000000000000000      0x2f5 c:/applications/microchip/xc32/bin/bin/../../lib/gcc/pic32c/8.3.1/../../../../pic32c/lib/thumb/v8-m.main+fp/hard\libc-musl.a(__pop_int.o)
 .debug_aranges
                0x0000000000000000       0x20 c:/applications/microchip/xc32/bin/bin/../../lib/gcc/pic32c/8.3.1/../../../../pic32c/lib/thumb/v8-m.main+fp/hard\libc-musl.a(__pop_int.o)
 .debug_ranges  0x0000000000000000       0x10 c:/applications/microchip/xc32/bin/bin/../../lib/gcc/pic32c/8.3.1/../../../../pic32c/lib/thumb/v8-m.main+fp/hard\libc-musl.a(__pop_int.o)
 .debug_line    0x0000000000000000      0x200 c:/applications/microchip/xc32/bin/bin/../../lib/gcc/pic32c/8.3.1/../../../../pic32c/lib/thumb/v8-m.main+fp/hard\libc-musl.a(__pop_int.o)
 .debug_str     0x0000000000000000      0x2e1 c:/applications/microchip/xc32/bin/bin/../../lib/gcc/pic32c/8.3.1/../../../../pic32c/lib/thumb/v8-m.main+fp/hard\libc-musl.a(__pop_int.o)
 .comment       0x0000000000000000       0x2c c:/applications/microchip/xc32/bin/bin/../../lib/gcc/pic32c/8.3.1/../../../../pic32c/lib/thumb/v8-m.main+fp/hard\libc-musl.a(__pop_int.o)
 .note.GNU-stack
                0x0000000000000000        0x0 c:/applications/microchip/xc32/bin/bin/../../lib/gcc/pic32c/8.3.1/../../../../pic32c/lib/thumb/v8-m.main+fp/hard\libc-musl.a(__pop_int.o)
 .debug_frame   0x0000000000000000       0x28 c:/applications/microchip/xc32/bin/bin/../../lib/gcc/pic32c/8.3.1/../../../../pic32c/lib/thumb/v8-m.main+fp/hard\libc-musl.a(__pop_int.o)
 .ARM.attributes
                0x0000000000000000       0x3a c:/applications/microchip/xc32/bin/bin/../../lib/gcc/pic32c/8.3.1/../../../../pic32c/lib/thumb/v8-m.main+fp/hard\libc-musl.a(__pop_int.o)
 .text          0x0000000000000000        0x0 c:/applications/microchip/xc32/bin/bin/../../lib/gcc/pic32c/8.3.1/../../../../pic32c/lib/thumb/v8-m.main+fp/hard\libc-musl.a(__pop_ptr.o)
 .data          0x0000000000000000        0x0 c:/applications/microchip/xc32/bin/bin/../../lib/gcc/pic32c/8.3.1/../../../../pic32c/lib/thumb/v8-m.main+fp/hard\libc-musl.a(__pop_ptr.o)
 .bss           0x0000000000000000        0x0 c:/applications/microchip/xc32/bin/bin/../../lib/gcc/pic32c/8.3.1/../../../../pic32c/lib/thumb/v8-m.main+fp/hard\libc-musl.a(__pop_ptr.o)
 .xc_stack_usage
                0x0000000000000000       0x17 c:/applications/microchip/xc32/bin/bin/../../lib/gcc/pic32c/8.3.1/../../../../pic32c/lib/thumb/v8-m.main+fp/hard\libc-musl.a(__pop_ptr.o)
 .text.__pop_ptr
                0x0000000000000000       0x7c c:/applications/microchip/xc32/bin/bin/../../lib/gcc/pic32c/8.3.1/../../../../pic32c/lib/thumb/v8-m.main+fp/hard\libc-musl.a(__pop_ptr.o)
 .xc_stack_usage.hdr
                0x0000000000000000        0xe c:/applications/microchip/xc32/bin/bin/../../lib/gcc/pic32c/8.3.1/../../../../pic32c/lib/thumb/v8-m.main+fp/hard\libc-musl.a(__pop_ptr.o)
 .debug_info    0x0000000000000000      0x187 c:/applications/microchip/xc32/bin/bin/../../lib/gcc/pic32c/8.3.1/../../../../pic32c/lib/thumb/v8-m.main+fp/hard\libc-musl.a(__pop_ptr.o)
 .debug_abbrev  0x0000000000000000       0xed c:/applications/microchip/xc32/bin/bin/../../lib/gcc/pic32c/8.3.1/../../../../pic32c/lib/thumb/v8-m.main+fp/hard\libc-musl.a(__pop_ptr.o)
 .debug_loc     0x0000000000000000      0x1db c:/applications/microchip/xc32/bin/bin/../../lib/gcc/pic32c/8.3.1/../../../../pic32c/lib/thumb/v8-m.main+fp/hard\libc-musl.a(__pop_ptr.o)
 .debug_aranges
                0x0000000000000000       0x20 c:/applications/microchip/xc32/bin/bin/../../lib/gcc/pic32c/8.3.1/../../../../pic32c/lib/thumb/v8-m.main+fp/hard\libc-musl.a(__pop_ptr.o)
 .debug_ranges  0x0000000000000000       0x10 c:/applications/microchip/xc32/bin/bin/../../lib/gcc/pic32c/8.3.1/../../../../pic32c/lib/thumb/v8-m.main+fp/hard\libc-musl.a(__pop_ptr.o)
 .debug_line    0x0000000000000000      0x1e8 c:/applications/microchip/xc32/bin/bin/../../lib/gcc/pic32c/8.3.1/../../../../pic32c/lib/thumb/v8-m.main+fp/hard\libc-musl.a(__pop_ptr.o)
 .debug_str     0x0000000000000000      0x2e3 c:/applications/microchip/xc32/bin/bin/../../lib/gcc/pic32c/8.3.1/../../../../pic32c/lib/thumb/v8-m.main+fp/hard\libc-musl.a(__pop_ptr.o)
 .comment       0x0000000000000000       0x2c c:/applications/microchip/xc32/bin/bin/../../lib/gcc/pic32c/8.3.1/../../../../pic32c/lib/thumb/v8-m.main+fp/hard\libc-musl.a(__pop_ptr.o)
 .note.GNU-stack
                0x0000000000000000        0x0 c:/applications/microchip/xc32/bin/bin/../../lib/gcc/pic32c/8.3.1/../../../../pic32c/lib/thumb/v8-m.main+fp/hard\libc-musl.a(__pop_ptr.o)
 .debug_frame   0x0000000000000000       0x28 c:/applications/microchip/xc32/bin/bin/../../lib/gcc/pic32c/8.3.1/../../../../pic32c/lib/thumb/v8-m.main+fp/hard\libc-musl.a(__pop_ptr.o)
 .ARM.attributes
                0x0000000000000000       0x3a c:/applications/microchip/xc32/bin/bin/../../lib/gcc/pic32c/8.3.1/../../../../pic32c/lib/thumb/v8-m.main+fp/hard\libc-musl.a(__pop_ptr.o)
 .text          0x0000000000000000        0x0 c:/applications/microchip/xc32/bin/bin/../../lib/gcc/pic32c/8.3.1/../../../../pic32c/lib/thumb/v8-m.main+fp/hard\libc-musl.a(__printf_core.o)
 .data          0x0000000000000000        0x0 c:/applications/microchip/xc32/bin/bin/../../lib/gcc/pic32c/8.3.1/../../../../pic32c/lib/thumb/v8-m.main+fp/hard\libc-musl.a(__printf_core.o)
 .bss           0x0000000000000000        0x0 c:/applications/microchip/xc32/bin/bin/../../lib/gcc/pic32c/8.3.1/../../../../pic32c/lib/thumb/v8-m.main+fp/hard\libc-musl.a(__printf_core.o)
 .xc_stack_usage
                0x0000000000000000       0xaf c:/applications/microchip/xc32/bin/bin/../../lib/gcc/pic32c/8.3.1/../../../../pic32c/lib/thumb/v8-m.main+fp/hard\libc-musl.a(__printf_core.o)
 .text.__string_out
                0x0000000000000000       0x28 c:/applications/microchip/xc32/bin/bin/../../lib/gcc/pic32c/8.3.1/../../../../pic32c/lib/thumb/v8-m.main+fp/hard\libc-musl.a(__printf_core.o)
 .text.__pad    0x0000000000000000       0x7e c:/applications/microchip/xc32/bin/bin/../../lib/gcc/pic32c/8.3.1/../../../../pic32c/lib/thumb/v8-m.main+fp/hard\libc-musl.a(__printf_core.o)
 .text.__dummy_fmt3
                0x0000000000000000        0x4 c:/applications/microchip/xc32/bin/bin/../../lib/gcc/pic32c/8.3.1/../../../../pic32c/lib/thumb/v8-m.main+fp/hard\libc-musl.a(__printf_core.o)
 .text.__dummy_fmt4
                0x0000000000000000        0x4 c:/applications/microchip/xc32/bin/bin/../../lib/gcc/pic32c/8.3.1/../../../../pic32c/lib/thumb/v8-m.main+fp/hard\libc-musl.a(__printf_core.o)
 .text.__dummy_fmts
                0x0000000000000000        0x4 c:/applications/microchip/xc32/bin/bin/../../lib/gcc/pic32c/8.3.1/../../../../pic32c/lib/thumb/v8-m.main+fp/hard\libc-musl.a(__printf_core.o)
 .text.__fmt_state
                0x0000000000000000       0x38 c:/applications/microchip/xc32/bin/bin/../../lib/gcc/pic32c/8.3.1/../../../../pic32c/lib/thumb/v8-m.main+fp/hard\libc-musl.a(__printf_core.o)
 .text.__printf_core
                0x0000000000000000      0x308 c:/applications/microchip/xc32/bin/bin/../../lib/gcc/pic32c/8.3.1/../../../../pic32c/lib/thumb/v8-m.main+fp/hard\libc-musl.a(__printf_core.o)
 .rodata        0x0000000000000000       0x16 c:/applications/microchip/xc32/bin/bin/../../lib/gcc/pic32c/8.3.1/../../../../pic32c/lib/thumb/v8-m.main+fp/hard\libc-musl.a(__printf_core.o)
 .rodata.str1.1
                0x0000000000000000        0x8 c:/applications/microchip/xc32/bin/bin/../../lib/gcc/pic32c/8.3.1/../../../../pic32c/lib/thumb/v8-m.main+fp/hard\libc-musl.a(__printf_core.o)
 .xc_stack_usage.hdr
                0x0000000000000000        0xe c:/applications/microchip/xc32/bin/bin/../../lib/gcc/pic32c/8.3.1/../../../../pic32c/lib/thumb/v8-m.main+fp/hard\libc-musl.a(__printf_core.o)
 .debug_info    0x0000000000000000      0xa5d c:/applications/microchip/xc32/bin/bin/../../lib/gcc/pic32c/8.3.1/../../../../pic32c/lib/thumb/v8-m.main+fp/hard\libc-musl.a(__printf_core.o)
 .debug_abbrev  0x0000000000000000      0x332 c:/applications/microchip/xc32/bin/bin/../../lib/gcc/pic32c/8.3.1/../../../../pic32c/lib/thumb/v8-m.main+fp/hard\libc-musl.a(__printf_core.o)
 .debug_loc     0x0000000000000000      0x5e9 c:/applications/microchip/xc32/bin/bin/../../lib/gcc/pic32c/8.3.1/../../../../pic32c/lib/thumb/v8-m.main+fp/hard\libc-musl.a(__printf_core.o)
 .debug_aranges
                0x0000000000000000       0x50 c:/applications/microchip/xc32/bin/bin/../../lib/gcc/pic32c/8.3.1/../../../../pic32c/lib/thumb/v8-m.main+fp/hard\libc-musl.a(__printf_core.o)
 .debug_ranges  0x0000000000000000       0x58 c:/applications/microchip/xc32/bin/bin/../../lib/gcc/pic32c/8.3.1/../../../../pic32c/lib/thumb/v8-m.main+fp/hard\libc-musl.a(__printf_core.o)
 .debug_line    0x0000000000000000      0x697 c:/applications/microchip/xc32/bin/bin/../../lib/gcc/pic32c/8.3.1/../../../../pic32c/lib/thumb/v8-m.main+fp/hard\libc-musl.a(__printf_core.o)
 .debug_str     0x0000000000000000      0x3fd c:/applications/microchip/xc32/bin/bin/../../lib/gcc/pic32c/8.3.1/../../../../pic32c/lib/thumb/v8-m.main+fp/hard\libc-musl.a(__printf_core.o)
 .comment       0x0000000000000000       0x2c c:/applications/microchip/xc32/bin/bin/../../lib/gcc/pic32c/8.3.1/../../../../pic32c/lib/thumb/v8-m.main+fp/hard\libc-musl.a(__printf_core.o)
 .note.GNU-stack
                0x0000000000000000        0x0 c:/applications/microchip/xc32/bin/bin/../../lib/gcc/pic32c/8.3.1/../../../../pic32c/lib/thumb/v8-m.main+fp/hard\libc-musl.a(__printf_core.o)
 .debug_frame   0x0000000000000000       0xd0 c:/applications/microchip/xc32/bin/bin/../../lib/gcc/pic32c/8.3.1/../../../../pic32c/lib/thumb/v8-m.main+fp/hard\libc-musl.a(__printf_core.o)
 .ARM.attributes
                0x0000000000000000       0x3a c:/applications/microchip/xc32/bin/bin/../../lib/gcc/pic32c/8.3.1/../../../../pic32c/lib/thumb/v8-m.main+fp/hard\libc-musl.a(__printf_core.o)
 .text          0x0000000000000000        0x0 c:/applications/microchip/xc32/bin/bin/../../lib/gcc/pic32c/8.3.1/../../../../pic32c/lib/thumb/v8-m.main+fp/hard\libc-musl.a(atoi.o)
 .data          0x0000000000000000        0x0 c:/applications/microchip/xc32/bin/bin/../../lib/gcc/pic32c/8.3.1/../../../../pic32c/lib/thumb/v8-m.main+fp/hard\libc-musl.a(atoi.o)
 .bss           0x0000000000000000        0x0 c:/applications/microchip/xc32/bin/bin/../../lib/gcc/pic32c/8.3.1/../../../../pic32c/lib/thumb/v8-m.main+fp/hard\libc-musl.a(atoi.o)
 .xc_stack_usage
                0x0000000000000000       0x12 c:/applications/microchip/xc32/bin/bin/../../lib/gcc/pic32c/8.3.1/../../../../pic32c/lib/thumb/v8-m.main+fp/hard\libc-musl.a(atoi.o)
 .text.atoi     0x0000000000000000       0x44 c:/applications/microchip/xc32/bin/bin/../../lib/gcc/pic32c/8.3.1/../../../../pic32c/lib/thumb/v8-m.main+fp/hard\libc-musl.a(atoi.o)
 .xc_stack_usage.hdr
                0x0000000000000000        0xe c:/applications/microchip/xc32/bin/bin/../../lib/gcc/pic32c/8.3.1/../../../../pic32c/lib/thumb/v8-m.main+fp/hard\libc-musl.a(atoi.o)
 .debug_info    0x0000000000000000       0xf4 c:/applications/microchip/xc32/bin/bin/../../lib/gcc/pic32c/8.3.1/../../../../pic32c/lib/thumb/v8-m.main+fp/hard\libc-musl.a(atoi.o)
 .debug_abbrev  0x0000000000000000       0xc6 c:/applications/microchip/xc32/bin/bin/../../lib/gcc/pic32c/8.3.1/../../../../pic32c/lib/thumb/v8-m.main+fp/hard\libc-musl.a(atoi.o)
 .debug_loc     0x0000000000000000       0xd8 c:/applications/microchip/xc32/bin/bin/../../lib/gcc/pic32c/8.3.1/../../../../pic32c/lib/thumb/v8-m.main+fp/hard\libc-musl.a(atoi.o)
 .debug_aranges
                0x0000000000000000       0x20 c:/applications/microchip/xc32/bin/bin/../../lib/gcc/pic32c/8.3.1/../../../../pic32c/lib/thumb/v8-m.main+fp/hard\libc-musl.a(atoi.o)
 .debug_ranges  0x0000000000000000       0x10 c:/applications/microchip/xc32/bin/bin/../../lib/gcc/pic32c/8.3.1/../../../../pic32c/lib/thumb/v8-m.main+fp/hard\libc-musl.a(atoi.o)
 .debug_line    0x0000000000000000      0x163 c:/applications/microchip/xc32/bin/bin/../../lib/gcc/pic32c/8.3.1/../../../../pic32c/lib/thumb/v8-m.main+fp/hard\libc-musl.a(atoi.o)
 .debug_str     0x0000000000000000      0x232 c:/applications/microchip/xc32/bin/bin/../../lib/gcc/pic32c/8.3.1/../../../../pic32c/lib/thumb/v8-m.main+fp/hard\libc-musl.a(atoi.o)
 .comment       0x0000000000000000       0x2c c:/applications/microchip/xc32/bin/bin/../../lib/gcc/pic32c/8.3.1/../../../../pic32c/lib/thumb/v8-m.main+fp/hard\libc-musl.a(atoi.o)
 .note.GNU-stack
                0x0000000000000000        0x0 c:/applications/microchip/xc32/bin/bin/../../lib/gcc/pic32c/8.3.1/../../../../pic32c/lib/thumb/v8-m.main+fp/hard\libc-musl.a(atoi.o)
 .debug_frame   0x0000000000000000       0x28 c:/applications/microchip/xc32/bin/bin/../../lib/gcc/pic32c/8.3.1/../../../../pic32c/lib/thumb/v8-m.main+fp/hard\libc-musl.a(atoi.o)
 .ARM.attributes
                0x0000000000000000       0x3a c:/applications/microchip/xc32/bin/bin/../../lib/gcc/pic32c/8.3.1/../../../../pic32c/lib/thumb/v8-m.main+fp/hard\libc-musl.a(atoi.o)
 .text          0x0000000000000000        0x0 c:/applications/microchip/xc32/bin/bin/../../lib/gcc/pic32c/8.3.1/../../../../pic32c/lib/thumb/v8-m.main+fp/hard\libc-musl.a(tolower.o)
 .data          0x0000000000000000        0x0 c:/applications/microchip/xc32/bin/bin/../../lib/gcc/pic32c/8.3.1/../../../../pic32c/lib/thumb/v8-m.main+fp/hard\libc-musl.a(tolower.o)
 .bss           0x0000000000000000        0x0 c:/applications/microchip/xc32/bin/bin/../../lib/gcc/pic32c/8.3.1/../../../../pic32c/lib/thumb/v8-m.main+fp/hard\libc-musl.a(tolower.o)
 .xc_stack_usage
                0x0000000000000000       0x2e c:/applications/microchip/xc32/bin/bin/../../lib/gcc/pic32c/8.3.1/../../../../pic32c/lib/thumb/v8-m.main+fp/hard\libc-musl.a(tolower.o)
 .text.tolower  0x0000000000000000        0xe c:/applications/microchip/xc32/bin/bin/../../lib/gcc/pic32c/8.3.1/../../../../pic32c/lib/thumb/v8-m.main+fp/hard\libc-musl.a(tolower.o)
 .text.__tolower_l
                0x0000000000000000        0x4 c:/applications/microchip/xc32/bin/bin/../../lib/gcc/pic32c/8.3.1/../../../../pic32c/lib/thumb/v8-m.main+fp/hard\libc-musl.a(tolower.o)
 .xc_stack_usage.hdr
                0x0000000000000000        0xe c:/applications/microchip/xc32/bin/bin/../../lib/gcc/pic32c/8.3.1/../../../../pic32c/lib/thumb/v8-m.main+fp/hard\libc-musl.a(tolower.o)
 .debug_info    0x0000000000000000      0x12b c:/applications/microchip/xc32/bin/bin/../../lib/gcc/pic32c/8.3.1/../../../../pic32c/lib/thumb/v8-m.main+fp/hard\libc-musl.a(tolower.o)
 .debug_abbrev  0x0000000000000000      0x108 c:/applications/microchip/xc32/bin/bin/../../lib/gcc/pic32c/8.3.1/../../../../pic32c/lib/thumb/v8-m.main+fp/hard\libc-musl.a(tolower.o)
 .debug_loc     0x0000000000000000       0x4a c:/applications/microchip/xc32/bin/bin/../../lib/gcc/pic32c/8.3.1/../../../../pic32c/lib/thumb/v8-m.main+fp/hard\libc-musl.a(tolower.o)
 .debug_aranges
                0x0000000000000000       0x28 c:/applications/microchip/xc32/bin/bin/../../lib/gcc/pic32c/8.3.1/../../../../pic32c/lib/thumb/v8-m.main+fp/hard\libc-musl.a(tolower.o)
 .debug_ranges  0x0000000000000000       0x18 c:/applications/microchip/xc32/bin/bin/../../lib/gcc/pic32c/8.3.1/../../../../pic32c/lib/thumb/v8-m.main+fp/hard\libc-musl.a(tolower.o)
 .debug_line    0x0000000000000000      0x157 c:/applications/microchip/xc32/bin/bin/../../lib/gcc/pic32c/8.3.1/../../../../pic32c/lib/thumb/v8-m.main+fp/hard\libc-musl.a(tolower.o)
 .debug_str     0x0000000000000000      0x25f c:/applications/microchip/xc32/bin/bin/../../lib/gcc/pic32c/8.3.1/../../../../pic32c/lib/thumb/v8-m.main+fp/hard\libc-musl.a(tolower.o)
 .comment       0x0000000000000000       0x2c c:/applications/microchip/xc32/bin/bin/../../lib/gcc/pic32c/8.3.1/../../../../pic32c/lib/thumb/v8-m.main+fp/hard\libc-musl.a(tolower.o)
 .note.GNU-stack
                0x0000000000000000        0x0 c:/applications/microchip/xc32/bin/bin/../../lib/gcc/pic32c/8.3.1/../../../../pic32c/lib/thumb/v8-m.main+fp/hard\libc-musl.a(tolower.o)
 .debug_frame   0x0000000000000000       0x30 c:/applications/microchip/xc32/bin/bin/../../lib/gcc/pic32c/8.3.1/../../../../pic32c/lib/thumb/v8-m.main+fp/hard\libc-musl.a(tolower.o)
 .ARM.attributes
                0x0000000000000000       0x3a c:/applications/microchip/xc32/bin/bin/../../lib/gcc/pic32c/8.3.1/../../../../pic32c/lib/thumb/v8-m.main+fp/hard\libc-musl.a(tolower.o)
 .text          0x0000000000000000        0x0 c:/applications/microchip/xc32/bin/bin/../../lib/gcc/pic32c/8.3.1/../../../../pic32c/lib/thumb/v8-m.main+fp/hard\libc-musl.a(__fmt_a.o)
 .data          0x0000000000000000        0x0 c:/applications/microchip/xc32/bin/bin/../../lib/gcc/pic32c/8.3.1/../../../../pic32c/lib/thumb/v8-m.main+fp/hard\libc-musl.a(__fmt_a.o)
 .bss           0x0000000000000000        0x0 c:/applications/microchip/xc32/bin/bin/../../lib/gcc/pic32c/8.3.1/../../../../pic32c/lib/thumb/v8-m.main+fp/hard\libc-musl.a(__fmt_a.o)
 .xc_stack_usage
                0x0000000000000000       0x15 c:/applications/microchip/xc32/bin/bin/../../lib/gcc/pic32c/8.3.1/../../../../pic32c/lib/thumb/v8-m.main+fp/hard\libc-musl.a(__fmt_a.o)
 .text.__fmt_a  0x0000000000000000      0x4b0 c:/applications/microchip/xc32/bin/bin/../../lib/gcc/pic32c/8.3.1/../../../../pic32c/lib/thumb/v8-m.main+fp/hard\libc-musl.a(__fmt_a.o)
 .rodata.str1.1
                0x0000000000000000       0x10 c:/applications/microchip/xc32/bin/bin/../../lib/gcc/pic32c/8.3.1/../../../../pic32c/lib/thumb/v8-m.main+fp/hard\libc-musl.a(__fmt_a.o)
 .xc_stack_usage.hdr
                0x0000000000000000        0xe c:/applications/microchip/xc32/bin/bin/../../lib/gcc/pic32c/8.3.1/../../../../pic32c/lib/thumb/v8-m.main+fp/hard\libc-musl.a(__fmt_a.o)
 .debug_info    0x0000000000000000      0x646 c:/applications/microchip/xc32/bin/bin/../../lib/gcc/pic32c/8.3.1/../../../../pic32c/lib/thumb/v8-m.main+fp/hard\libc-musl.a(__fmt_a.o)
 .debug_abbrev  0x0000000000000000      0x1d5 c:/applications/microchip/xc32/bin/bin/../../lib/gcc/pic32c/8.3.1/../../../../pic32c/lib/thumb/v8-m.main+fp/hard\libc-musl.a(__fmt_a.o)
 .debug_loc     0x0000000000000000      0xb15 c:/applications/microchip/xc32/bin/bin/../../lib/gcc/pic32c/8.3.1/../../../../pic32c/lib/thumb/v8-m.main+fp/hard\libc-musl.a(__fmt_a.o)
 .debug_aranges
                0x0000000000000000       0x20 c:/applications/microchip/xc32/bin/bin/../../lib/gcc/pic32c/8.3.1/../../../../pic32c/lib/thumb/v8-m.main+fp/hard\libc-musl.a(__fmt_a.o)
 .debug_ranges  0x0000000000000000       0x10 c:/applications/microchip/xc32/bin/bin/../../lib/gcc/pic32c/8.3.1/../../../../pic32c/lib/thumb/v8-m.main+fp/hard\libc-musl.a(__fmt_a.o)
 .debug_line    0x0000000000000000      0x636 c:/applications/microchip/xc32/bin/bin/../../lib/gcc/pic32c/8.3.1/../../../../pic32c/lib/thumb/v8-m.main+fp/hard\libc-musl.a(__fmt_a.o)
 .debug_str     0x0000000000000000      0x349 c:/applications/microchip/xc32/bin/bin/../../lib/gcc/pic32c/8.3.1/../../../../pic32c/lib/thumb/v8-m.main+fp/hard\libc-musl.a(__fmt_a.o)
 .comment       0x0000000000000000       0x2c c:/applications/microchip/xc32/bin/bin/../../lib/gcc/pic32c/8.3.1/../../../../pic32c/lib/thumb/v8-m.main+fp/hard\libc-musl.a(__fmt_a.o)
 .note.GNU-stack
                0x0000000000000000        0x0 c:/applications/microchip/xc32/bin/bin/../../lib/gcc/pic32c/8.3.1/../../../../pic32c/lib/thumb/v8-m.main+fp/hard\libc-musl.a(__fmt_a.o)
 .debug_frame   0x0000000000000000       0x40 c:/applications/microchip/xc32/bin/bin/../../lib/gcc/pic32c/8.3.1/../../../../pic32c/lib/thumb/v8-m.main+fp/hard\libc-musl.a(__fmt_a.o)
 .ARM.attributes
                0x0000000000000000       0x3a c:/applications/microchip/xc32/bin/bin/../../lib/gcc/pic32c/8.3.1/../../../../pic32c/lib/thumb/v8-m.main+fp/hard\libc-musl.a(__fmt_a.o)
 .text          0x0000000000000000        0x0 c:/applications/microchip/xc32/bin/bin/../../lib/gcc/pic32c/8.3.1/../../../../pic32c/lib/thumb/v8-m.main+fp/hard\libc-musl.a(__fmt_d.o)
 .data          0x0000000000000000        0x0 c:/applications/microchip/xc32/bin/bin/../../lib/gcc/pic32c/8.3.1/../../../../pic32c/lib/thumb/v8-m.main+fp/hard\libc-musl.a(__fmt_d.o)
 .bss           0x0000000000000000        0x0 c:/applications/microchip/xc32/bin/bin/../../lib/gcc/pic32c/8.3.1/../../../../pic32c/lib/thumb/v8-m.main+fp/hard\libc-musl.a(__fmt_d.o)
 .xc_stack_usage
                0x0000000000000000       0x15 c:/applications/microchip/xc32/bin/bin/../../lib/gcc/pic32c/8.3.1/../../../../pic32c/lib/thumb/v8-m.main+fp/hard\libc-musl.a(__fmt_d.o)
 .text.__fmt_d  0x0000000000000000       0xa8 c:/applications/microchip/xc32/bin/bin/../../lib/gcc/pic32c/8.3.1/../../../../pic32c/lib/thumb/v8-m.main+fp/hard\libc-musl.a(__fmt_d.o)
 .xc_stack_usage.hdr
                0x0000000000000000        0xe c:/applications/microchip/xc32/bin/bin/../../lib/gcc/pic32c/8.3.1/../../../../pic32c/lib/thumb/v8-m.main+fp/hard\libc-musl.a(__fmt_d.o)
 .debug_info    0x0000000000000000      0x330 c:/applications/microchip/xc32/bin/bin/../../lib/gcc/pic32c/8.3.1/../../../../pic32c/lib/thumb/v8-m.main+fp/hard\libc-musl.a(__fmt_d.o)
 .debug_abbrev  0x0000000000000000      0x161 c:/applications/microchip/xc32/bin/bin/../../lib/gcc/pic32c/8.3.1/../../../../pic32c/lib/thumb/v8-m.main+fp/hard\libc-musl.a(__fmt_d.o)
 .debug_loc     0x0000000000000000      0x1ef c:/applications/microchip/xc32/bin/bin/../../lib/gcc/pic32c/8.3.1/../../../../pic32c/lib/thumb/v8-m.main+fp/hard\libc-musl.a(__fmt_d.o)
 .debug_aranges
                0x0000000000000000       0x20 c:/applications/microchip/xc32/bin/bin/../../lib/gcc/pic32c/8.3.1/../../../../pic32c/lib/thumb/v8-m.main+fp/hard\libc-musl.a(__fmt_d.o)
 .debug_ranges  0x0000000000000000       0x10 c:/applications/microchip/xc32/bin/bin/../../lib/gcc/pic32c/8.3.1/../../../../pic32c/lib/thumb/v8-m.main+fp/hard\libc-musl.a(__fmt_d.o)
 .debug_line    0x0000000000000000      0x1ff c:/applications/microchip/xc32/bin/bin/../../lib/gcc/pic32c/8.3.1/../../../../pic32c/lib/thumb/v8-m.main+fp/hard\libc-musl.a(__fmt_d.o)
 .debug_str     0x0000000000000000      0x30b c:/applications/microchip/xc32/bin/bin/../../lib/gcc/pic32c/8.3.1/../../../../pic32c/lib/thumb/v8-m.main+fp/hard\libc-musl.a(__fmt_d.o)
 .comment       0x0000000000000000       0x2c c:/applications/microchip/xc32/bin/bin/../../lib/gcc/pic32c/8.3.1/../../../../pic32c/lib/thumb/v8-m.main+fp/hard\libc-musl.a(__fmt_d.o)
 .note.GNU-stack
                0x0000000000000000        0x0 c:/applications/microchip/xc32/bin/bin/../../lib/gcc/pic32c/8.3.1/../../../../pic32c/lib/thumb/v8-m.main+fp/hard\libc-musl.a(__fmt_d.o)
 .debug_frame   0x0000000000000000       0x3c c:/applications/microchip/xc32/bin/bin/../../lib/gcc/pic32c/8.3.1/../../../../pic32c/lib/thumb/v8-m.main+fp/hard\libc-musl.a(__fmt_d.o)
 .ARM.attributes
                0x0000000000000000       0x3a c:/applications/microchip/xc32/bin/bin/../../lib/gcc/pic32c/8.3.1/../../../../pic32c/lib/thumb/v8-m.main+fp/hard\libc-musl.a(__fmt_d.o)
 .text          0x0000000000000000        0x0 c:/applications/microchip/xc32/bin/bin/../../lib/gcc/pic32c/8.3.1/../../../../pic32c/lib/thumb/v8-m.main+fp/hard\libc-musl.a(__fmt_fp.o)
 .data          0x0000000000000000        0x0 c:/applications/microchip/xc32/bin/bin/../../lib/gcc/pic32c/8.3.1/../../../../pic32c/lib/thumb/v8-m.main+fp/hard\libc-musl.a(__fmt_fp.o)
 .bss           0x0000000000000000        0x0 c:/applications/microchip/xc32/bin/bin/../../lib/gcc/pic32c/8.3.1/../../../../pic32c/lib/thumb/v8-m.main+fp/hard\libc-musl.a(__fmt_fp.o)
 .xc_stack_usage
                0x0000000000000000       0x16 c:/applications/microchip/xc32/bin/bin/../../lib/gcc/pic32c/8.3.1/../../../../pic32c/lib/thumb/v8-m.main+fp/hard\libc-musl.a(__fmt_fp.o)
 .text.__fmt_fp
                0x0000000000000000      0x4c8 c:/applications/microchip/xc32/bin/bin/../../lib/gcc/pic32c/8.3.1/../../../../pic32c/lib/thumb/v8-m.main+fp/hard\libc-musl.a(__fmt_fp.o)
 .rodata.str1.1
                0x0000000000000000       0x10 c:/applications/microchip/xc32/bin/bin/../../lib/gcc/pic32c/8.3.1/../../../../pic32c/lib/thumb/v8-m.main+fp/hard\libc-musl.a(__fmt_fp.o)
 .xc_stack_usage.hdr
                0x0000000000000000        0xe c:/applications/microchip/xc32/bin/bin/../../lib/gcc/pic32c/8.3.1/../../../../pic32c/lib/thumb/v8-m.main+fp/hard\libc-musl.a(__fmt_fp.o)
 .debug_info    0x0000000000000000      0x673 c:/applications/microchip/xc32/bin/bin/../../lib/gcc/pic32c/8.3.1/../../../../pic32c/lib/thumb/v8-m.main+fp/hard\libc-musl.a(__fmt_fp.o)
 .debug_abbrev  0x0000000000000000      0x1f4 c:/applications/microchip/xc32/bin/bin/../../lib/gcc/pic32c/8.3.1/../../../../pic32c/lib/thumb/v8-m.main+fp/hard\libc-musl.a(__fmt_fp.o)
 .debug_loc     0x0000000000000000      0xa96 c:/applications/microchip/xc32/bin/bin/../../lib/gcc/pic32c/8.3.1/../../../../pic32c/lib/thumb/v8-m.main+fp/hard\libc-musl.a(__fmt_fp.o)
 .debug_aranges
                0x0000000000000000       0x20 c:/applications/microchip/xc32/bin/bin/../../lib/gcc/pic32c/8.3.1/../../../../pic32c/lib/thumb/v8-m.main+fp/hard\libc-musl.a(__fmt_fp.o)
 .debug_ranges  0x0000000000000000       0x10 c:/applications/microchip/xc32/bin/bin/../../lib/gcc/pic32c/8.3.1/../../../../pic32c/lib/thumb/v8-m.main+fp/hard\libc-musl.a(__fmt_fp.o)
 .debug_line    0x0000000000000000      0x66d c:/applications/microchip/xc32/bin/bin/../../lib/gcc/pic32c/8.3.1/../../../../pic32c/lib/thumb/v8-m.main+fp/hard\libc-musl.a(__fmt_fp.o)
 .debug_str     0x0000000000000000      0x36a c:/applications/microchip/xc32/bin/bin/../../lib/gcc/pic32c/8.3.1/../../../../pic32c/lib/thumb/v8-m.main+fp/hard\libc-musl.a(__fmt_fp.o)
 .comment       0x0000000000000000       0x2c c:/applications/microchip/xc32/bin/bin/../../lib/gcc/pic32c/8.3.1/../../../../pic32c/lib/thumb/v8-m.main+fp/hard\libc-musl.a(__fmt_fp.o)
 .note.GNU-stack
                0x0000000000000000        0x0 c:/applications/microchip/xc32/bin/bin/../../lib/gcc/pic32c/8.3.1/../../../../pic32c/lib/thumb/v8-m.main+fp/hard\libc-musl.a(__fmt_fp.o)
 .debug_frame   0x0000000000000000       0x50 c:/applications/microchip/xc32/bin/bin/../../lib/gcc/pic32c/8.3.1/../../../../pic32c/lib/thumb/v8-m.main+fp/hard\libc-musl.a(__fmt_fp.o)
 .ARM.attributes
                0x0000000000000000       0x3a c:/applications/microchip/xc32/bin/bin/../../lib/gcc/pic32c/8.3.1/../../../../pic32c/lib/thumb/v8-m.main+fp/hard\libc-musl.a(__fmt_fp.o)
 .text          0x0000000000000000        0x0 c:/applications/microchip/xc32/bin/bin/../../lib/gcc/pic32c/8.3.1/../../../../pic32c/lib/thumb/v8-m.main+fp/hard\libc-musl.a(__fmt_o.o)
 .data          0x0000000000000000        0x0 c:/applications/microchip/xc32/bin/bin/../../lib/gcc/pic32c/8.3.1/../../../../pic32c/lib/thumb/v8-m.main+fp/hard\libc-musl.a(__fmt_o.o)
 .bss           0x0000000000000000        0x0 c:/applications/microchip/xc32/bin/bin/../../lib/gcc/pic32c/8.3.1/../../../../pic32c/lib/thumb/v8-m.main+fp/hard\libc-musl.a(__fmt_o.o)
 .xc_stack_usage
                0x0000000000000000       0x15 c:/applications/microchip/xc32/bin/bin/../../lib/gcc/pic32c/8.3.1/../../../../pic32c/lib/thumb/v8-m.main+fp/hard\libc-musl.a(__fmt_o.o)
 .text.__fmt_o  0x0000000000000000       0x74 c:/applications/microchip/xc32/bin/bin/../../lib/gcc/pic32c/8.3.1/../../../../pic32c/lib/thumb/v8-m.main+fp/hard\libc-musl.a(__fmt_o.o)
 .xc_stack_usage.hdr
                0x0000000000000000        0xe c:/applications/microchip/xc32/bin/bin/../../lib/gcc/pic32c/8.3.1/../../../../pic32c/lib/thumb/v8-m.main+fp/hard\libc-musl.a(__fmt_o.o)
 .debug_info    0x0000000000000000      0x301 c:/applications/microchip/xc32/bin/bin/../../lib/gcc/pic32c/8.3.1/../../../../pic32c/lib/thumb/v8-m.main+fp/hard\libc-musl.a(__fmt_o.o)
 .debug_abbrev  0x0000000000000000      0x161 c:/applications/microchip/xc32/bin/bin/../../lib/gcc/pic32c/8.3.1/../../../../pic32c/lib/thumb/v8-m.main+fp/hard\libc-musl.a(__fmt_o.o)
 .debug_loc     0x0000000000000000      0x10a c:/applications/microchip/xc32/bin/bin/../../lib/gcc/pic32c/8.3.1/../../../../pic32c/lib/thumb/v8-m.main+fp/hard\libc-musl.a(__fmt_o.o)
 .debug_aranges
                0x0000000000000000       0x20 c:/applications/microchip/xc32/bin/bin/../../lib/gcc/pic32c/8.3.1/../../../../pic32c/lib/thumb/v8-m.main+fp/hard\libc-musl.a(__fmt_o.o)
 .debug_ranges  0x0000000000000000       0x10 c:/applications/microchip/xc32/bin/bin/../../lib/gcc/pic32c/8.3.1/../../../../pic32c/lib/thumb/v8-m.main+fp/hard\libc-musl.a(__fmt_o.o)
 .debug_line    0x0000000000000000      0x1ad c:/applications/microchip/xc32/bin/bin/../../lib/gcc/pic32c/8.3.1/../../../../pic32c/lib/thumb/v8-m.main+fp/hard\libc-musl.a(__fmt_o.o)
 .debug_str     0x0000000000000000      0x30b c:/applications/microchip/xc32/bin/bin/../../lib/gcc/pic32c/8.3.1/../../../../pic32c/lib/thumb/v8-m.main+fp/hard\libc-musl.a(__fmt_o.o)
 .comment       0x0000000000000000       0x2c c:/applications/microchip/xc32/bin/bin/../../lib/gcc/pic32c/8.3.1/../../../../pic32c/lib/thumb/v8-m.main+fp/hard\libc-musl.a(__fmt_o.o)
 .note.GNU-stack
                0x0000000000000000        0x0 c:/applications/microchip/xc32/bin/bin/../../lib/gcc/pic32c/8.3.1/../../../../pic32c/lib/thumb/v8-m.main+fp/hard\libc-musl.a(__fmt_o.o)
 .debug_frame   0x0000000000000000       0x34 c:/applications/microchip/xc32/bin/bin/../../lib/gcc/pic32c/8.3.1/../../../../pic32c/lib/thumb/v8-m.main+fp/hard\libc-musl.a(__fmt_o.o)
 .ARM.attributes
                0x0000000000000000       0x3a c:/applications/microchip/xc32/bin/bin/../../lib/gcc/pic32c/8.3.1/../../../../pic32c/lib/thumb/v8-m.main+fp/hard\libc-musl.a(__fmt_o.o)
 .text          0x0000000000000000        0x0 c:/applications/microchip/xc32/bin/bin/../../lib/gcc/pic32c/8.3.1/../../../../pic32c/lib/thumb/v8-m.main+fp/hard\libc-musl.a(__fmt_s.o)
 .data          0x0000000000000000        0x0 c:/applications/microchip/xc32/bin/bin/../../lib/gcc/pic32c/8.3.1/../../../../pic32c/lib/thumb/v8-m.main+fp/hard\libc-musl.a(__fmt_s.o)
 .bss           0x0000000000000000        0x0 c:/applications/microchip/xc32/bin/bin/../../lib/gcc/pic32c/8.3.1/../../../../pic32c/lib/thumb/v8-m.main+fp/hard\libc-musl.a(__fmt_s.o)
 .xc_stack_usage
                0x0000000000000000       0x15 c:/applications/microchip/xc32/bin/bin/../../lib/gcc/pic32c/8.3.1/../../../../pic32c/lib/thumb/v8-m.main+fp/hard\libc-musl.a(__fmt_s.o)
 .text.__fmt_s  0x0000000000000000       0x58 c:/applications/microchip/xc32/bin/bin/../../lib/gcc/pic32c/8.3.1/../../../../pic32c/lib/thumb/v8-m.main+fp/hard\libc-musl.a(__fmt_s.o)
 .rodata.str1.1
                0x0000000000000000        0x7 c:/applications/microchip/xc32/bin/bin/../../lib/gcc/pic32c/8.3.1/../../../../pic32c/lib/thumb/v8-m.main+fp/hard\libc-musl.a(__fmt_s.o)
 .xc_stack_usage.hdr
                0x0000000000000000        0xe c:/applications/microchip/xc32/bin/bin/../../lib/gcc/pic32c/8.3.1/../../../../pic32c/lib/thumb/v8-m.main+fp/hard\libc-musl.a(__fmt_s.o)
 .debug_info    0x0000000000000000      0x2b2 c:/applications/microchip/xc32/bin/bin/../../lib/gcc/pic32c/8.3.1/../../../../pic32c/lib/thumb/v8-m.main+fp/hard\libc-musl.a(__fmt_s.o)
 .debug_abbrev  0x0000000000000000      0x14c c:/applications/microchip/xc32/bin/bin/../../lib/gcc/pic32c/8.3.1/../../../../pic32c/lib/thumb/v8-m.main+fp/hard\libc-musl.a(__fmt_s.o)
 .debug_loc     0x0000000000000000      0x14a c:/applications/microchip/xc32/bin/bin/../../lib/gcc/pic32c/8.3.1/../../../../pic32c/lib/thumb/v8-m.main+fp/hard\libc-musl.a(__fmt_s.o)
 .debug_aranges
                0x0000000000000000       0x20 c:/applications/microchip/xc32/bin/bin/../../lib/gcc/pic32c/8.3.1/../../../../pic32c/lib/thumb/v8-m.main+fp/hard\libc-musl.a(__fmt_s.o)
 .debug_ranges  0x0000000000000000       0x10 c:/applications/microchip/xc32/bin/bin/../../lib/gcc/pic32c/8.3.1/../../../../pic32c/lib/thumb/v8-m.main+fp/hard\libc-musl.a(__fmt_s.o)
 .debug_line    0x0000000000000000      0x1f9 c:/applications/microchip/xc32/bin/bin/../../lib/gcc/pic32c/8.3.1/../../../../pic32c/lib/thumb/v8-m.main+fp/hard\libc-musl.a(__fmt_s.o)
 .debug_str     0x0000000000000000      0x2f7 c:/applications/microchip/xc32/bin/bin/../../lib/gcc/pic32c/8.3.1/../../../../pic32c/lib/thumb/v8-m.main+fp/hard\libc-musl.a(__fmt_s.o)
 .comment       0x0000000000000000       0x2c c:/applications/microchip/xc32/bin/bin/../../lib/gcc/pic32c/8.3.1/../../../../pic32c/lib/thumb/v8-m.main+fp/hard\libc-musl.a(__fmt_s.o)
 .note.GNU-stack
                0x0000000000000000        0x0 c:/applications/microchip/xc32/bin/bin/../../lib/gcc/pic32c/8.3.1/../../../../pic32c/lib/thumb/v8-m.main+fp/hard\libc-musl.a(__fmt_s.o)
 .debug_frame   0x0000000000000000       0x34 c:/applications/microchip/xc32/bin/bin/../../lib/gcc/pic32c/8.3.1/../../../../pic32c/lib/thumb/v8-m.main+fp/hard\libc-musl.a(__fmt_s.o)
 .ARM.attributes
                0x0000000000000000       0x3a c:/applications/microchip/xc32/bin/bin/../../lib/gcc/pic32c/8.3.1/../../../../pic32c/lib/thumb/v8-m.main+fp/hard\libc-musl.a(__fmt_s.o)
 .text          0x0000000000000000        0x0 c:/applications/microchip/xc32/bin/bin/../../lib/gcc/pic32c/8.3.1/../../../../pic32c/lib/thumb/v8-m.main+fp/hard\libc-musl.a(__fmt_u.o)
 .data          0x0000000000000000        0x0 c:/applications/microchip/xc32/bin/bin/../../lib/gcc/pic32c/8.3.1/../../../../pic32c/lib/thumb/v8-m.main+fp/hard\libc-musl.a(__fmt_u.o)
 .bss           0x0000000000000000        0x0 c:/applications/microchip/xc32/bin/bin/../../lib/gcc/pic32c/8.3.1/../../../../pic32c/lib/thumb/v8-m.main+fp/hard\libc-musl.a(__fmt_u.o)
 .xc_stack_usage
                0x0000000000000000       0x15 c:/applications/microchip/xc32/bin/bin/../../lib/gcc/pic32c/8.3.1/../../../../pic32c/lib/thumb/v8-m.main+fp/hard\libc-musl.a(__fmt_u.o)
 .text.__fmt_u  0x0000000000000000       0x58 c:/applications/microchip/xc32/bin/bin/../../lib/gcc/pic32c/8.3.1/../../../../pic32c/lib/thumb/v8-m.main+fp/hard\libc-musl.a(__fmt_u.o)
 .xc_stack_usage.hdr
                0x0000000000000000        0xe c:/applications/microchip/xc32/bin/bin/../../lib/gcc/pic32c/8.3.1/../../../../pic32c/lib/thumb/v8-m.main+fp/hard\libc-musl.a(__fmt_u.o)
 .debug_info    0x0000000000000000      0x301 c:/applications/microchip/xc32/bin/bin/../../lib/gcc/pic32c/8.3.1/../../../../pic32c/lib/thumb/v8-m.main+fp/hard\libc-musl.a(__fmt_u.o)
 .debug_abbrev  0x0000000000000000      0x161 c:/applications/microchip/xc32/bin/bin/../../lib/gcc/pic32c/8.3.1/../../../../pic32c/lib/thumb/v8-m.main+fp/hard\libc-musl.a(__fmt_u.o)
 .debug_loc     0x0000000000000000      0x10a c:/applications/microchip/xc32/bin/bin/../../lib/gcc/pic32c/8.3.1/../../../../pic32c/lib/thumb/v8-m.main+fp/hard\libc-musl.a(__fmt_u.o)
 .debug_aranges
                0x0000000000000000       0x20 c:/applications/microchip/xc32/bin/bin/../../lib/gcc/pic32c/8.3.1/../../../../pic32c/lib/thumb/v8-m.main+fp/hard\libc-musl.a(__fmt_u.o)
 .debug_ranges  0x0000000000000000       0x10 c:/applications/microchip/xc32/bin/bin/../../lib/gcc/pic32c/8.3.1/../../../../pic32c/lib/thumb/v8-m.main+fp/hard\libc-musl.a(__fmt_u.o)
 .debug_line    0x0000000000000000      0x18a c:/applications/microchip/xc32/bin/bin/../../lib/gcc/pic32c/8.3.1/../../../../pic32c/lib/thumb/v8-m.main+fp/hard\libc-musl.a(__fmt_u.o)
 .debug_str     0x0000000000000000      0x30b c:/applications/microchip/xc32/bin/bin/../../lib/gcc/pic32c/8.3.1/../../../../pic32c/lib/thumb/v8-m.main+fp/hard\libc-musl.a(__fmt_u.o)
 .comment       0x0000000000000000       0x2c c:/applications/microchip/xc32/bin/bin/../../lib/gcc/pic32c/8.3.1/../../../../pic32c/lib/thumb/v8-m.main+fp/hard\libc-musl.a(__fmt_u.o)
 .note.GNU-stack
                0x0000000000000000        0x0 c:/applications/microchip/xc32/bin/bin/../../lib/gcc/pic32c/8.3.1/../../../../pic32c/lib/thumb/v8-m.main+fp/hard\libc-musl.a(__fmt_u.o)
 .debug_frame   0x0000000000000000       0x34 c:/applications/microchip/xc32/bin/bin/../../lib/gcc/pic32c/8.3.1/../../../../pic32c/lib/thumb/v8-m.main+fp/hard\libc-musl.a(__fmt_u.o)
 .ARM.attributes
                0x0000000000000000       0x3a c:/applications/microchip/xc32/bin/bin/../../lib/gcc/pic32c/8.3.1/../../../../pic32c/lib/thumb/v8-m.main+fp/hard\libc-musl.a(__fmt_u.o)
 .text          0x0000000000000000        0x0 c:/applications/microchip/xc32/bin/bin/../../lib/gcc/pic32c/8.3.1/../../../../pic32c/lib/thumb/v8-m.main+fp/hard\libc-musl.a(__fmt_x.o)
 .data          0x0000000000000000        0x0 c:/applications/microchip/xc32/bin/bin/../../lib/gcc/pic32c/8.3.1/../../../../pic32c/lib/thumb/v8-m.main+fp/hard\libc-musl.a(__fmt_x.o)
 .bss           0x0000000000000000        0x0 c:/applications/microchip/xc32/bin/bin/../../lib/gcc/pic32c/8.3.1/../../../../pic32c/lib/thumb/v8-m.main+fp/hard\libc-musl.a(__fmt_x.o)
 .xc_stack_usage
                0x0000000000000000       0x15 c:/applications/microchip/xc32/bin/bin/../../lib/gcc/pic32c/8.3.1/../../../../pic32c/lib/thumb/v8-m.main+fp/hard\libc-musl.a(__fmt_x.o)
 .text.__fmt_x  0x0000000000000000      0x122 c:/applications/microchip/xc32/bin/bin/../../lib/gcc/pic32c/8.3.1/../../../../pic32c/lib/thumb/v8-m.main+fp/hard\libc-musl.a(__fmt_x.o)
 .xc_stack_usage.hdr
                0x0000000000000000        0xe c:/applications/microchip/xc32/bin/bin/../../lib/gcc/pic32c/8.3.1/../../../../pic32c/lib/thumb/v8-m.main+fp/hard\libc-musl.a(__fmt_x.o)
 .debug_info    0x0000000000000000      0x331 c:/applications/microchip/xc32/bin/bin/../../lib/gcc/pic32c/8.3.1/../../../../pic32c/lib/thumb/v8-m.main+fp/hard\libc-musl.a(__fmt_x.o)
 .debug_abbrev  0x0000000000000000      0x150 c:/applications/microchip/xc32/bin/bin/../../lib/gcc/pic32c/8.3.1/../../../../pic32c/lib/thumb/v8-m.main+fp/hard\libc-musl.a(__fmt_x.o)
 .debug_loc     0x0000000000000000      0x2bf c:/applications/microchip/xc32/bin/bin/../../lib/gcc/pic32c/8.3.1/../../../../pic32c/lib/thumb/v8-m.main+fp/hard\libc-musl.a(__fmt_x.o)
 .debug_aranges
                0x0000000000000000       0x20 c:/applications/microchip/xc32/bin/bin/../../lib/gcc/pic32c/8.3.1/../../../../pic32c/lib/thumb/v8-m.main+fp/hard\libc-musl.a(__fmt_x.o)
 .debug_ranges  0x0000000000000000       0x10 c:/applications/microchip/xc32/bin/bin/../../lib/gcc/pic32c/8.3.1/../../../../pic32c/lib/thumb/v8-m.main+fp/hard\libc-musl.a(__fmt_x.o)
 .debug_line    0x0000000000000000      0x2d1 c:/applications/microchip/xc32/bin/bin/../../lib/gcc/pic32c/8.3.1/../../../../pic32c/lib/thumb/v8-m.main+fp/hard\libc-musl.a(__fmt_x.o)
 .debug_str     0x0000000000000000      0x30b c:/applications/microchip/xc32/bin/bin/../../lib/gcc/pic32c/8.3.1/../../../../pic32c/lib/thumb/v8-m.main+fp/hard\libc-musl.a(__fmt_x.o)
 .comment       0x0000000000000000       0x2c c:/applications/microchip/xc32/bin/bin/../../lib/gcc/pic32c/8.3.1/../../../../pic32c/lib/thumb/v8-m.main+fp/hard\libc-musl.a(__fmt_x.o)
 .note.GNU-stack
                0x0000000000000000        0x0 c:/applications/microchip/xc32/bin/bin/../../lib/gcc/pic32c/8.3.1/../../../../pic32c/lib/thumb/v8-m.main+fp/hard\libc-musl.a(__fmt_x.o)
 .debug_frame   0x0000000000000000       0x40 c:/applications/microchip/xc32/bin/bin/../../lib/gcc/pic32c/8.3.1/../../../../pic32c/lib/thumb/v8-m.main+fp/hard\libc-musl.a(__fmt_x.o)
 .ARM.attributes
                0x0000000000000000       0x3a c:/applications/microchip/xc32/bin/bin/../../lib/gcc/pic32c/8.3.1/../../../../pic32c/lib/thumb/v8-m.main+fp/hard\libc-musl.a(__fmt_x.o)
 .text          0x0000000000000000        0x0 c:/applications/microchip/xc32/bin/bin/../../lib/gcc/pic32c/8.3.1/../../../../pic32c/lib/thumb/v8-m.main+fp/hard\libc-musl.a(toupper.o)
 .data          0x0000000000000000        0x0 c:/applications/microchip/xc32/bin/bin/../../lib/gcc/pic32c/8.3.1/../../../../pic32c/lib/thumb/v8-m.main+fp/hard\libc-musl.a(toupper.o)
 .bss           0x0000000000000000        0x0 c:/applications/microchip/xc32/bin/bin/../../lib/gcc/pic32c/8.3.1/../../../../pic32c/lib/thumb/v8-m.main+fp/hard\libc-musl.a(toupper.o)
 .xc_stack_usage
                0x0000000000000000       0x2e c:/applications/microchip/xc32/bin/bin/../../lib/gcc/pic32c/8.3.1/../../../../pic32c/lib/thumb/v8-m.main+fp/hard\libc-musl.a(toupper.o)
 .text.toupper  0x0000000000000000        0xe c:/applications/microchip/xc32/bin/bin/../../lib/gcc/pic32c/8.3.1/../../../../pic32c/lib/thumb/v8-m.main+fp/hard\libc-musl.a(toupper.o)
 .text.__toupper_l
                0x0000000000000000        0x4 c:/applications/microchip/xc32/bin/bin/../../lib/gcc/pic32c/8.3.1/../../../../pic32c/lib/thumb/v8-m.main+fp/hard\libc-musl.a(toupper.o)
 .xc_stack_usage.hdr
                0x0000000000000000        0xe c:/applications/microchip/xc32/bin/bin/../../lib/gcc/pic32c/8.3.1/../../../../pic32c/lib/thumb/v8-m.main+fp/hard\libc-musl.a(toupper.o)
 .debug_info    0x0000000000000000      0x12b c:/applications/microchip/xc32/bin/bin/../../lib/gcc/pic32c/8.3.1/../../../../pic32c/lib/thumb/v8-m.main+fp/hard\libc-musl.a(toupper.o)
 .debug_abbrev  0x0000000000000000      0x108 c:/applications/microchip/xc32/bin/bin/../../lib/gcc/pic32c/8.3.1/../../../../pic32c/lib/thumb/v8-m.main+fp/hard\libc-musl.a(toupper.o)
 .debug_loc     0x0000000000000000       0x4a c:/applications/microchip/xc32/bin/bin/../../lib/gcc/pic32c/8.3.1/../../../../pic32c/lib/thumb/v8-m.main+fp/hard\libc-musl.a(toupper.o)
 .debug_aranges
                0x0000000000000000       0x28 c:/applications/microchip/xc32/bin/bin/../../lib/gcc/pic32c/8.3.1/../../../../pic32c/lib/thumb/v8-m.main+fp/hard\libc-musl.a(toupper.o)
 .debug_ranges  0x0000000000000000       0x18 c:/applications/microchip/xc32/bin/bin/../../lib/gcc/pic32c/8.3.1/../../../../pic32c/lib/thumb/v8-m.main+fp/hard\libc-musl.a(toupper.o)
 .debug_line    0x0000000000000000      0x157 c:/applications/microchip/xc32/bin/bin/../../lib/gcc/pic32c/8.3.1/../../../../pic32c/lib/thumb/v8-m.main+fp/hard\libc-musl.a(toupper.o)
 .debug_str     0x0000000000000000      0x25f c:/applications/microchip/xc32/bin/bin/../../lib/gcc/pic32c/8.3.1/../../../../pic32c/lib/thumb/v8-m.main+fp/hard\libc-musl.a(toupper.o)
 .comment       0x0000000000000000       0x2c c:/applications/microchip/xc32/bin/bin/../../lib/gcc/pic32c/8.3.1/../../../../pic32c/lib/thumb/v8-m.main+fp/hard\libc-musl.a(toupper.o)
 .note.GNU-stack
                0x0000000000000000        0x0 c:/applications/microchip/xc32/bin/bin/../../lib/gcc/pic32c/8.3.1/../../../../pic32c/lib/thumb/v8-m.main+fp/hard\libc-musl.a(toupper.o)
 .debug_frame   0x0000000000000000       0x30 c:/applications/microchip/xc32/bin/bin/../../lib/gcc/pic32c/8.3.1/../../../../pic32c/lib/thumb/v8-m.main+fp/hard\libc-musl.a(toupper.o)
 .ARM.attributes
                0x0000000000000000       0x3a c:/applications/microchip/xc32/bin/bin/../../lib/gcc/pic32c/8.3.1/../../../../pic32c/lib/thumb/v8-m.main+fp/hard\libc-musl.a(toupper.o)
 .text          0x0000000000000000        0x0 c:/applications/microchip/xc32/bin/bin/../../lib/gcc/pic32c/8.3.1/../../../../pic32c/lib/thumb/v8-m.main+fp/hard\libc-musl.a(__cvt_u.o)
 .data          0x0000000000000000        0x0 c:/applications/microchip/xc32/bin/bin/../../lib/gcc/pic32c/8.3.1/../../../../pic32c/lib/thumb/v8-m.main+fp/hard\libc-musl.a(__cvt_u.o)
 .bss           0x0000000000000000        0x0 c:/applications/microchip/xc32/bin/bin/../../lib/gcc/pic32c/8.3.1/../../../../pic32c/lib/thumb/v8-m.main+fp/hard\libc-musl.a(__cvt_u.o)
 .xc_stack_usage
                0x0000000000000000       0x15 c:/applications/microchip/xc32/bin/bin/../../lib/gcc/pic32c/8.3.1/../../../../pic32c/lib/thumb/v8-m.main+fp/hard\libc-musl.a(__cvt_u.o)
 .text.__cvt_u  0x0000000000000000       0x78 c:/applications/microchip/xc32/bin/bin/../../lib/gcc/pic32c/8.3.1/../../../../pic32c/lib/thumb/v8-m.main+fp/hard\libc-musl.a(__cvt_u.o)
 .xc_stack_usage.hdr
                0x0000000000000000        0xe c:/applications/microchip/xc32/bin/bin/../../lib/gcc/pic32c/8.3.1/../../../../pic32c/lib/thumb/v8-m.main+fp/hard\libc-musl.a(__cvt_u.o)
 .debug_info    0x0000000000000000      0x1d9 c:/applications/microchip/xc32/bin/bin/../../lib/gcc/pic32c/8.3.1/../../../../pic32c/lib/thumb/v8-m.main+fp/hard\libc-musl.a(__cvt_u.o)
 .debug_abbrev  0x0000000000000000       0xe5 c:/applications/microchip/xc32/bin/bin/../../lib/gcc/pic32c/8.3.1/../../../../pic32c/lib/thumb/v8-m.main+fp/hard\libc-musl.a(__cvt_u.o)
 .debug_loc     0x0000000000000000      0x1c2 c:/applications/microchip/xc32/bin/bin/../../lib/gcc/pic32c/8.3.1/../../../../pic32c/lib/thumb/v8-m.main+fp/hard\libc-musl.a(__cvt_u.o)
 .debug_aranges
                0x0000000000000000       0x20 c:/applications/microchip/xc32/bin/bin/../../lib/gcc/pic32c/8.3.1/../../../../pic32c/lib/thumb/v8-m.main+fp/hard\libc-musl.a(__cvt_u.o)
 .debug_ranges  0x0000000000000000       0x10 c:/applications/microchip/xc32/bin/bin/../../lib/gcc/pic32c/8.3.1/../../../../pic32c/lib/thumb/v8-m.main+fp/hard\libc-musl.a(__cvt_u.o)
 .debug_line    0x0000000000000000      0x1c1 c:/applications/microchip/xc32/bin/bin/../../lib/gcc/pic32c/8.3.1/../../../../pic32c/lib/thumb/v8-m.main+fp/hard\libc-musl.a(__cvt_u.o)
 .debug_str     0x0000000000000000      0x2c7 c:/applications/microchip/xc32/bin/bin/../../lib/gcc/pic32c/8.3.1/../../../../pic32c/lib/thumb/v8-m.main+fp/hard\libc-musl.a(__cvt_u.o)
 .comment       0x0000000000000000       0x2c c:/applications/microchip/xc32/bin/bin/../../lib/gcc/pic32c/8.3.1/../../../../pic32c/lib/thumb/v8-m.main+fp/hard\libc-musl.a(__cvt_u.o)
 .note.GNU-stack
                0x0000000000000000        0x0 c:/applications/microchip/xc32/bin/bin/../../lib/gcc/pic32c/8.3.1/../../../../pic32c/lib/thumb/v8-m.main+fp/hard\libc-musl.a(__cvt_u.o)
 .debug_frame   0x0000000000000000       0x38 c:/applications/microchip/xc32/bin/bin/../../lib/gcc/pic32c/8.3.1/../../../../pic32c/lib/thumb/v8-m.main+fp/hard\libc-musl.a(__cvt_u.o)
 .ARM.attributes
                0x0000000000000000       0x3a c:/applications/microchip/xc32/bin/bin/../../lib/gcc/pic32c/8.3.1/../../../../pic32c/lib/thumb/v8-m.main+fp/hard\libc-musl.a(__cvt_u.o)
 .ARM.attributes
                0x0000000000000000       0x38 c:/applications/microchip/xc32/bin/bin/../../lib/gcc/pic32c/8.3.1/../../../../pic32c/lib/thumb/v8-m.main+fp/hard\libm-fast-emfloat.a(fma.o)
 .comment       0x0000000000000000       0x2c c:/applications/microchip/xc32/bin/bin/../../lib/gcc/pic32c/8.3.1/../../../../pic32c/lib/thumb/v8-m.main+fp/hard\libm-fast-emfloat.a(fma.o)
 .text.fma      0x0000000000000000       0x2c c:/applications/microchip/xc32/bin/bin/../../lib/gcc/pic32c/8.3.1/../../../../pic32c/lib/thumb/v8-m.main+fp/hard\libm-fast-emfloat.a(fma.o)
 .xc_stack_usage.hdr
                0x0000000000000000        0xe c:/applications/microchip/xc32/bin/bin/../../lib/gcc/pic32c/8.3.1/../../../../pic32c/lib/thumb/v8-m.main+fp/hard\libm-fast-emfloat.a(fma.o)
 .xc_stack_usage
                0x0000000000000000       0x11 c:/applications/microchip/xc32/bin/bin/../../lib/gcc/pic32c/8.3.1/../../../../pic32c/lib/thumb/v8-m.main+fp/hard\libm-fast-emfloat.a(fma.o)
 .ARM.attributes
                0x0000000000000000       0x38 c:/applications/microchip/xc32/bin/bin/../../lib/gcc/pic32c/8.3.1/../../../../pic32c/lib/thumb/v8-m.main+fp/hard\libm-fast-emfloat.a(floor.o)
 .comment       0x0000000000000000       0x2c c:/applications/microchip/xc32/bin/bin/../../lib/gcc/pic32c/8.3.1/../../../../pic32c/lib/thumb/v8-m.main+fp/hard\libm-fast-emfloat.a(floor.o)
 .text.floor    0x0000000000000000       0xbc c:/applications/microchip/xc32/bin/bin/../../lib/gcc/pic32c/8.3.1/../../../../pic32c/lib/thumb/v8-m.main+fp/hard\libm-fast-emfloat.a(floor.o)
 .xc_stack_usage.hdr
                0x0000000000000000        0xe c:/applications/microchip/xc32/bin/bin/../../lib/gcc/pic32c/8.3.1/../../../../pic32c/lib/thumb/v8-m.main+fp/hard\libm-fast-emfloat.a(floor.o)
 .xc_stack_usage
                0x0000000000000000       0x13 c:/applications/microchip/xc32/bin/bin/../../lib/gcc/pic32c/8.3.1/../../../../pic32c/lib/thumb/v8-m.main+fp/hard\libm-fast-emfloat.a(floor.o)
 .ARM.attributes
                0x0000000000000000       0x24 c:/applications/microchip/xc32/bin/bin/../../lib/gcc/pic32c/8.3.1/../../../../pic32c/lib/thumb/v8-m.main+fp/hard\libm-fast-emfloat.a(__aeabi_dadd.o)
 .text.__aeabi_dadd
                0x0000000000000000      0x23e c:/applications/microchip/xc32/bin/bin/../../lib/gcc/pic32c/8.3.1/../../../../pic32c/lib/thumb/v8-m.main+fp/hard\libm-fast-emfloat.a(__aeabi_dadd.o)
 .xc_stack_usage.hdr
                0x0000000000000000        0xe c:/applications/microchip/xc32/bin/bin/../../lib/gcc/pic32c/8.3.1/../../../../pic32c/lib/thumb/v8-m.main+fp/hard\libm-fast-emfloat.a(__aeabi_dadd.o)
 .xc_stack_usage
                0x0000000000000000       0x1a c:/applications/microchip/xc32/bin/bin/../../lib/gcc/pic32c/8.3.1/../../../../pic32c/lib/thumb/v8-m.main+fp/hard\libm-fast-emfloat.a(__aeabi_dadd.o)
 .ARM.attributes
                0x0000000000000000       0x24 c:/applications/microchip/xc32/bin/bin/../../lib/gcc/pic32c/8.3.1/../../../../pic32c/lib/thumb/v8-m.main+fp/hard\libm-fast-emfloat.a(__aeabi_dsub.o)
 .text.__aeabi_dsub
                0x0000000000000000        0x8 c:/applications/microchip/xc32/bin/bin/../../lib/gcc/pic32c/8.3.1/../../../../pic32c/lib/thumb/v8-m.main+fp/hard\libm-fast-emfloat.a(__aeabi_dsub.o)
 .xc_stack_usage.hdr
                0x0000000000000000        0xe c:/applications/microchip/xc32/bin/bin/../../lib/gcc/pic32c/8.3.1/../../../../pic32c/lib/thumb/v8-m.main+fp/hard\libm-fast-emfloat.a(__aeabi_dsub.o)
 .xc_stack_usage
                0x0000000000000000       0x1a c:/applications/microchip/xc32/bin/bin/../../lib/gcc/pic32c/8.3.1/../../../../pic32c/lib/thumb/v8-m.main+fp/hard\libm-fast-emfloat.a(__aeabi_dsub.o)
 .ARM.attributes
                0x0000000000000000       0x24 c:/applications/microchip/xc32/bin/bin/../../lib/gcc/pic32c/8.3.1/../../../../pic32c/lib/thumb/v8-m.main+fp/hard\libm-fast-emfloat.a(__aeabi_dmul.o)
 .text.__aeabi_dmul
                0x0000000000000000      0x130 c:/applications/microchip/xc32/bin/bin/../../lib/gcc/pic32c/8.3.1/../../../../pic32c/lib/thumb/v8-m.main+fp/hard\libm-fast-emfloat.a(__aeabi_dmul.o)
 .xc_stack_usage.hdr
                0x0000000000000000        0xe c:/applications/microchip/xc32/bin/bin/../../lib/gcc/pic32c/8.3.1/../../../../pic32c/lib/thumb/v8-m.main+fp/hard\libm-fast-emfloat.a(__aeabi_dmul.o)
 .xc_stack_usage
                0x0000000000000000       0x1a c:/applications/microchip/xc32/bin/bin/../../lib/gcc/pic32c/8.3.1/../../../../pic32c/lib/thumb/v8-m.main+fp/hard\libm-fast-emfloat.a(__aeabi_dmul.o)
 .ARM.attributes
                0x0000000000000000       0x24 c:/applications/microchip/xc32/bin/bin/../../lib/gcc/pic32c/8.3.1/../../../../pic32c/lib/thumb/v8-m.main+fp/hard\libm-fast-emfloat.a(__aeabi_ddiv.o)
 .text.__aeabi_ddiv
                0x0000000000000000      0x216 c:/applications/microchip/xc32/bin/bin/../../lib/gcc/pic32c/8.3.1/../../../../pic32c/lib/thumb/v8-m.main+fp/hard\libm-fast-emfloat.a(__aeabi_ddiv.o)
 .xc_stack_usage.hdr
                0x0000000000000000        0xe c:/applications/microchip/xc32/bin/bin/../../lib/gcc/pic32c/8.3.1/../../../../pic32c/lib/thumb/v8-m.main+fp/hard\libm-fast-emfloat.a(__aeabi_ddiv.o)
 .xc_stack_usage
                0x0000000000000000       0x1a c:/applications/microchip/xc32/bin/bin/../../lib/gcc/pic32c/8.3.1/../../../../pic32c/lib/thumb/v8-m.main+fp/hard\libm-fast-emfloat.a(__aeabi_ddiv.o)
 .ARM.attributes
                0x0000000000000000       0x24 c:/applications/microchip/xc32/bin/bin/../../lib/gcc/pic32c/8.3.1/../../../../pic32c/lib/thumb/v8-m.main+fp/hard\libm-fast-emfloat.a(__aeabi_dcmple.o)
 .text.__aeabi_dcmple
                0x0000000000000000       0x3c c:/applications/microchip/xc32/bin/bin/../../lib/gcc/pic32c/8.3.1/../../../../pic32c/lib/thumb/v8-m.main+fp/hard\libm-fast-emfloat.a(__aeabi_dcmple.o)
 .xc_stack_usage.hdr
                0x0000000000000000        0xe c:/applications/microchip/xc32/bin/bin/../../lib/gcc/pic32c/8.3.1/../../../../pic32c/lib/thumb/v8-m.main+fp/hard\libm-fast-emfloat.a(__aeabi_dcmple.o)
 .xc_stack_usage
                0x0000000000000000       0x1c c:/applications/microchip/xc32/bin/bin/../../lib/gcc/pic32c/8.3.1/../../../../pic32c/lib/thumb/v8-m.main+fp/hard\libm-fast-emfloat.a(__aeabi_dcmple.o)
 .ARM.attributes
                0x0000000000000000       0x24 c:/applications/microchip/xc32/bin/bin/../../lib/gcc/pic32c/8.3.1/../../../../pic32c/lib/thumb/v8-m.main+fp/hard\libm-fast-emfloat.a(__aeabi_dcmpeq.o)
 .text.__aeabi_dcmpeq
                0x0000000000000000       0x32 c:/applications/microchip/xc32/bin/bin/../../lib/gcc/pic32c/8.3.1/../../../../pic32c/lib/thumb/v8-m.main+fp/hard\libm-fast-emfloat.a(__aeabi_dcmpeq.o)
 .xc_stack_usage.hdr
                0x0000000000000000        0xe c:/applications/microchip/xc32/bin/bin/../../lib/gcc/pic32c/8.3.1/../../../../pic32c/lib/thumb/v8-m.main+fp/hard\libm-fast-emfloat.a(__aeabi_dcmpeq.o)
 .xc_stack_usage
                0x0000000000000000       0x1c c:/applications/microchip/xc32/bin/bin/../../lib/gcc/pic32c/8.3.1/../../../../pic32c/lib/thumb/v8-m.main+fp/hard\libm-fast-emfloat.a(__aeabi_dcmpeq.o)
 .ARM.attributes
                0x0000000000000000       0x24 c:/applications/microchip/xc32/bin/bin/../../lib/gcc/pic32c/8.3.1/../../../../pic32c/lib/thumb/v8-m.main+fp/hard\libm-fast-emfloat.a(__aeabi_dcmpgt.o)
 .text.__aeabi_dcmpgt
                0x0000000000000000       0x38 c:/applications/microchip/xc32/bin/bin/../../lib/gcc/pic32c/8.3.1/../../../../pic32c/lib/thumb/v8-m.main+fp/hard\libm-fast-emfloat.a(__aeabi_dcmpgt.o)
 .xc_stack_usage.hdr
                0x0000000000000000        0xe c:/applications/microchip/xc32/bin/bin/../../lib/gcc/pic32c/8.3.1/../../../../pic32c/lib/thumb/v8-m.main+fp/hard\libm-fast-emfloat.a(__aeabi_dcmpgt.o)
 .xc_stack_usage
                0x0000000000000000       0x1c c:/applications/microchip/xc32/bin/bin/../../lib/gcc/pic32c/8.3.1/../../../../pic32c/lib/thumb/v8-m.main+fp/hard\libm-fast-emfloat.a(__aeabi_dcmpgt.o)
 .ARM.attributes
                0x0000000000000000       0x24 c:/applications/microchip/xc32/bin/bin/../../lib/gcc/pic32c/8.3.1/../../../../pic32c/lib/thumb/v8-m.main+fp/hard\libm-fast-emfloat.a(__aeabi_dcmplt.o)
 .text.__aeabi_dcmplt
                0x0000000000000000       0x38 c:/applications/microchip/xc32/bin/bin/../../lib/gcc/pic32c/8.3.1/../../../../pic32c/lib/thumb/v8-m.main+fp/hard\libm-fast-emfloat.a(__aeabi_dcmplt.o)
 .xc_stack_usage.hdr
                0x0000000000000000        0xe c:/applications/microchip/xc32/bin/bin/../../lib/gcc/pic32c/8.3.1/../../../../pic32c/lib/thumb/v8-m.main+fp/hard\libm-fast-emfloat.a(__aeabi_dcmplt.o)
 .xc_stack_usage
                0x0000000000000000       0x1c c:/applications/microchip/xc32/bin/bin/../../lib/gcc/pic32c/8.3.1/../../../../pic32c/lib/thumb/v8-m.main+fp/hard\libm-fast-emfloat.a(__aeabi_dcmplt.o)
 .ARM.attributes
                0x0000000000000000       0x24 c:/applications/microchip/xc32/bin/bin/../../lib/gcc/pic32c/8.3.1/../../../../pic32c/lib/thumb/v8-m.main+fp/hard\libm-fast-emfloat.a(__aeabi_d2iz.o)
 .text.__aeabi_d2iz
                0x0000000000000000       0x4a c:/applications/microchip/xc32/bin/bin/../../lib/gcc/pic32c/8.3.1/../../../../pic32c/lib/thumb/v8-m.main+fp/hard\libm-fast-emfloat.a(__aeabi_d2iz.o)
 .xc_stack_usage.hdr
                0x0000000000000000        0xe c:/applications/microchip/xc32/bin/bin/../../lib/gcc/pic32c/8.3.1/../../../../pic32c/lib/thumb/v8-m.main+fp/hard\libm-fast-emfloat.a(__aeabi_d2iz.o)
 .xc_stack_usage
                0x0000000000000000       0x1a c:/applications/microchip/xc32/bin/bin/../../lib/gcc/pic32c/8.3.1/../../../../pic32c/lib/thumb/v8-m.main+fp/hard\libm-fast-emfloat.a(__aeabi_d2iz.o)
 .text          0x0000000000000000       0x30 c:/applications/microchip/xc32/bin/bin/../../lib/gcc/pic32c/8.3.1/thumb/v8-m.main+fp/hard\libgcc.a(_aeabi_uldivmod.o)
 .data          0x0000000000000000        0x0 c:/applications/microchip/xc32/bin/bin/../../lib/gcc/pic32c/8.3.1/thumb/v8-m.main+fp/hard\libgcc.a(_aeabi_uldivmod.o)
 .bss           0x0000000000000000        0x0 c:/applications/microchip/xc32/bin/bin/../../lib/gcc/pic32c/8.3.1/thumb/v8-m.main+fp/hard\libgcc.a(_aeabi_uldivmod.o)
 .xc_stack_usage.hdr
                0x0000000000000000        0xe c:/applications/microchip/xc32/bin/bin/../../lib/gcc/pic32c/8.3.1/thumb/v8-m.main+fp/hard\libgcc.a(_aeabi_uldivmod.o)
 .xc_stack_usage
                0x0000000000000000       0x1e c:/applications/microchip/xc32/bin/bin/../../lib/gcc/pic32c/8.3.1/thumb/v8-m.main+fp/hard\libgcc.a(_aeabi_uldivmod.o)
 .debug_line    0x0000000000000000       0x91 c:/applications/microchip/xc32/bin/bin/../../lib/gcc/pic32c/8.3.1/thumb/v8-m.main+fp/hard\libgcc.a(_aeabi_uldivmod.o)
 .debug_info    0x0000000000000000       0x26 c:/applications/microchip/xc32/bin/bin/../../lib/gcc/pic32c/8.3.1/thumb/v8-m.main+fp/hard\libgcc.a(_aeabi_uldivmod.o)
 .debug_abbrev  0x0000000000000000       0x14 c:/applications/microchip/xc32/bin/bin/../../lib/gcc/pic32c/8.3.1/thumb/v8-m.main+fp/hard\libgcc.a(_aeabi_uldivmod.o)
 .debug_aranges
                0x0000000000000000       0x20 c:/applications/microchip/xc32/bin/bin/../../lib/gcc/pic32c/8.3.1/thumb/v8-m.main+fp/hard\libgcc.a(_aeabi_uldivmod.o)
 .debug_str     0x0000000000000000       0xda c:/applications/microchip/xc32/bin/bin/../../lib/gcc/pic32c/8.3.1/thumb/v8-m.main+fp/hard\libgcc.a(_aeabi_uldivmod.o)
 .debug_frame   0x0000000000000000       0x2c c:/applications/microchip/xc32/bin/bin/../../lib/gcc/pic32c/8.3.1/thumb/v8-m.main+fp/hard\libgcc.a(_aeabi_uldivmod.o)
 .ARM.attributes
                0x0000000000000000       0x22 c:/applications/microchip/xc32/bin/bin/../../lib/gcc/pic32c/8.3.1/thumb/v8-m.main+fp/hard\libgcc.a(_aeabi_uldivmod.o)
 .text          0x0000000000000000      0x2bc c:/applications/microchip/xc32/bin/bin/../../lib/gcc/pic32c/8.3.1/thumb/v8-m.main+fp/hard\libgcc.a(_udivmoddi4.o)
 .data          0x0000000000000000        0x0 c:/applications/microchip/xc32/bin/bin/../../lib/gcc/pic32c/8.3.1/thumb/v8-m.main+fp/hard\libgcc.a(_udivmoddi4.o)
 .bss           0x0000000000000000        0x0 c:/applications/microchip/xc32/bin/bin/../../lib/gcc/pic32c/8.3.1/thumb/v8-m.main+fp/hard\libgcc.a(_udivmoddi4.o)
 .xc_stack_usage
                0x0000000000000000       0x1a c:/applications/microchip/xc32/bin/bin/../../lib/gcc/pic32c/8.3.1/thumb/v8-m.main+fp/hard\libgcc.a(_udivmoddi4.o)
 .ARM.extab     0x0000000000000000        0x0 c:/applications/microchip/xc32/bin/bin/../../lib/gcc/pic32c/8.3.1/thumb/v8-m.main+fp/hard\libgcc.a(_udivmoddi4.o)
 .ARM.exidx     0x0000000000000000        0x8 c:/applications/microchip/xc32/bin/bin/../../lib/gcc/pic32c/8.3.1/thumb/v8-m.main+fp/hard\libgcc.a(_udivmoddi4.o)
 .xc_stack_usage.hdr
                0x0000000000000000        0xe c:/applications/microchip/xc32/bin/bin/../../lib/gcc/pic32c/8.3.1/thumb/v8-m.main+fp/hard\libgcc.a(_udivmoddi4.o)
 .debug_info    0x0000000000000000      0x52a c:/applications/microchip/xc32/bin/bin/../../lib/gcc/pic32c/8.3.1/thumb/v8-m.main+fp/hard\libgcc.a(_udivmoddi4.o)
 .debug_abbrev  0x0000000000000000      0x122 c:/applications/microchip/xc32/bin/bin/../../lib/gcc/pic32c/8.3.1/thumb/v8-m.main+fp/hard\libgcc.a(_udivmoddi4.o)
 .debug_loc     0x0000000000000000      0xe7b c:/applications/microchip/xc32/bin/bin/../../lib/gcc/pic32c/8.3.1/thumb/v8-m.main+fp/hard\libgcc.a(_udivmoddi4.o)
 .debug_aranges
                0x0000000000000000       0x20 c:/applications/microchip/xc32/bin/bin/../../lib/gcc/pic32c/8.3.1/thumb/v8-m.main+fp/hard\libgcc.a(_udivmoddi4.o)
 .debug_ranges  0x0000000000000000       0xb0 c:/applications/microchip/xc32/bin/bin/../../lib/gcc/pic32c/8.3.1/thumb/v8-m.main+fp/hard\libgcc.a(_udivmoddi4.o)
 .debug_line    0x0000000000000000      0x353 c:/applications/microchip/xc32/bin/bin/../../lib/gcc/pic32c/8.3.1/thumb/v8-m.main+fp/hard\libgcc.a(_udivmoddi4.o)
 .debug_str     0x0000000000000000      0x2d9 c:/applications/microchip/xc32/bin/bin/../../lib/gcc/pic32c/8.3.1/thumb/v8-m.main+fp/hard\libgcc.a(_udivmoddi4.o)
 .comment       0x0000000000000000       0x2c c:/applications/microchip/xc32/bin/bin/../../lib/gcc/pic32c/8.3.1/thumb/v8-m.main+fp/hard\libgcc.a(_udivmoddi4.o)
 .debug_frame   0x0000000000000000       0x38 c:/applications/microchip/xc32/bin/bin/../../lib/gcc/pic32c/8.3.1/thumb/v8-m.main+fp/hard\libgcc.a(_udivmoddi4.o)
 .ARM.attributes
                0x0000000000000000       0x38 c:/applications/microchip/xc32/bin/bin/../../lib/gcc/pic32c/8.3.1/thumb/v8-m.main+fp/hard\libgcc.a(_udivmoddi4.o)
 .text          0x0000000000000000        0x4 c:/applications/microchip/xc32/bin/bin/../../lib/gcc/pic32c/8.3.1/thumb/v8-m.main+fp/hard\libgcc.a(_dvmd_tls.o)
 .data          0x0000000000000000        0x0 c:/applications/microchip/xc32/bin/bin/../../lib/gcc/pic32c/8.3.1/thumb/v8-m.main+fp/hard\libgcc.a(_dvmd_tls.o)
 .bss           0x0000000000000000        0x0 c:/applications/microchip/xc32/bin/bin/../../lib/gcc/pic32c/8.3.1/thumb/v8-m.main+fp/hard\libgcc.a(_dvmd_tls.o)
 .xc_stack_usage.hdr
                0x0000000000000000        0xe c:/applications/microchip/xc32/bin/bin/../../lib/gcc/pic32c/8.3.1/thumb/v8-m.main+fp/hard\libgcc.a(_dvmd_tls.o)
 .xc_stack_usage
                0x0000000000000000       0x36 c:/applications/microchip/xc32/bin/bin/../../lib/gcc/pic32c/8.3.1/thumb/v8-m.main+fp/hard\libgcc.a(_dvmd_tls.o)
 .debug_line    0x0000000000000000       0x91 c:/applications/microchip/xc32/bin/bin/../../lib/gcc/pic32c/8.3.1/thumb/v8-m.main+fp/hard\libgcc.a(_dvmd_tls.o)
 .debug_info    0x0000000000000000       0x26 c:/applications/microchip/xc32/bin/bin/../../lib/gcc/pic32c/8.3.1/thumb/v8-m.main+fp/hard\libgcc.a(_dvmd_tls.o)
 .debug_abbrev  0x0000000000000000       0x14 c:/applications/microchip/xc32/bin/bin/../../lib/gcc/pic32c/8.3.1/thumb/v8-m.main+fp/hard\libgcc.a(_dvmd_tls.o)
 .debug_aranges
                0x0000000000000000       0x20 c:/applications/microchip/xc32/bin/bin/../../lib/gcc/pic32c/8.3.1/thumb/v8-m.main+fp/hard\libgcc.a(_dvmd_tls.o)
 .debug_str     0x0000000000000000       0xde c:/applications/microchip/xc32/bin/bin/../../lib/gcc/pic32c/8.3.1/thumb/v8-m.main+fp/hard\libgcc.a(_dvmd_tls.o)
 .ARM.attributes
                0x0000000000000000       0x22 c:/applications/microchip/xc32/bin/bin/../../lib/gcc/pic32c/8.3.1/thumb/v8-m.main+fp/hard\libgcc.a(_dvmd_tls.o)
 .text          0x0000000000000000        0x0 c:/applications/microchip/xc32/bin/bin/../../lib/gcc/pic32c/8.3.1/../../../../pic32c/lib/thumb/v8-m.main+fp/hard\libc-size-musl.a(memcpy.o)
 .data          0x0000000000000000        0x0 c:/applications/microchip/xc32/bin/bin/../../lib/gcc/pic32c/8.3.1/../../../../pic32c/lib/thumb/v8-m.main+fp/hard\libc-size-musl.a(memcpy.o)
 .bss           0x0000000000000000        0x0 c:/applications/microchip/xc32/bin/bin/../../lib/gcc/pic32c/8.3.1/../../../../pic32c/lib/thumb/v8-m.main+fp/hard\libc-size-musl.a(memcpy.o)
 .xc_stack_usage
                0x0000000000000000       0x14 c:/applications/microchip/xc32/bin/bin/../../lib/gcc/pic32c/8.3.1/../../../../pic32c/lib/thumb/v8-m.main+fp/hard\libc-size-musl.a(memcpy.o)
 .text.memcpy   0x0000000000000000       0x1c c:/applications/microchip/xc32/bin/bin/../../lib/gcc/pic32c/8.3.1/../../../../pic32c/lib/thumb/v8-m.main+fp/hard\libc-size-musl.a(memcpy.o)
 .xc_stack_usage.hdr
                0x0000000000000000        0xe c:/applications/microchip/xc32/bin/bin/../../lib/gcc/pic32c/8.3.1/../../../../pic32c/lib/thumb/v8-m.main+fp/hard\libc-size-musl.a(memcpy.o)
 .debug_info    0x0000000000000000       0xf3 c:/applications/microchip/xc32/bin/bin/../../lib/gcc/pic32c/8.3.1/../../../../pic32c/lib/thumb/v8-m.main+fp/hard\libc-size-musl.a(memcpy.o)
 .debug_abbrev  0x0000000000000000       0xbb c:/applications/microchip/xc32/bin/bin/../../lib/gcc/pic32c/8.3.1/../../../../pic32c/lib/thumb/v8-m.main+fp/hard\libc-size-musl.a(memcpy.o)
 .debug_loc     0x0000000000000000      0x10b c:/applications/microchip/xc32/bin/bin/../../lib/gcc/pic32c/8.3.1/../../../../pic32c/lib/thumb/v8-m.main+fp/hard\libc-size-musl.a(memcpy.o)
 .debug_aranges
                0x0000000000000000       0x20 c:/applications/microchip/xc32/bin/bin/../../lib/gcc/pic32c/8.3.1/../../../../pic32c/lib/thumb/v8-m.main+fp/hard\libc-size-musl.a(memcpy.o)
 .debug_ranges  0x0000000000000000       0x10 c:/applications/microchip/xc32/bin/bin/../../lib/gcc/pic32c/8.3.1/../../../../pic32c/lib/thumb/v8-m.main+fp/hard\libc-size-musl.a(memcpy.o)
 .debug_line    0x0000000000000000       0xfe c:/applications/microchip/xc32/bin/bin/../../lib/gcc/pic32c/8.3.1/../../../../pic32c/lib/thumb/v8-m.main+fp/hard\libc-size-musl.a(memcpy.o)
 .debug_str     0x0000000000000000      0x23b c:/applications/microchip/xc32/bin/bin/../../lib/gcc/pic32c/8.3.1/../../../../pic32c/lib/thumb/v8-m.main+fp/hard\libc-size-musl.a(memcpy.o)
 .comment       0x0000000000000000       0x2c c:/applications/microchip/xc32/bin/bin/../../lib/gcc/pic32c/8.3.1/../../../../pic32c/lib/thumb/v8-m.main+fp/hard\libc-size-musl.a(memcpy.o)
 .note.GNU-stack
                0x0000000000000000        0x0 c:/applications/microchip/xc32/bin/bin/../../lib/gcc/pic32c/8.3.1/../../../../pic32c/lib/thumb/v8-m.main+fp/hard\libc-size-musl.a(memcpy.o)
 .debug_frame   0x0000000000000000       0x2c c:/applications/microchip/xc32/bin/bin/../../lib/gcc/pic32c/8.3.1/../../../../pic32c/lib/thumb/v8-m.main+fp/hard\libc-size-musl.a(memcpy.o)
 .ARM.attributes
                0x0000000000000000       0x3a c:/applications/microchip/xc32/bin/bin/../../lib/gcc/pic32c/8.3.1/../../../../pic32c/lib/thumb/v8-m.main+fp/hard\libc-size-musl.a(memcpy.o)
 .text          0x0000000000000000        0x0 c:/applications/microchip/xc32/bin/bin/../../lib/gcc/pic32c/8.3.1/../../../../pic32c/lib/thumb/v8-m.main+fp/hard\libc-size-musl.a(strcpy.o)
 .data          0x0000000000000000        0x0 c:/applications/microchip/xc32/bin/bin/../../lib/gcc/pic32c/8.3.1/../../../../pic32c/lib/thumb/v8-m.main+fp/hard\libc-size-musl.a(strcpy.o)
 .bss           0x0000000000000000        0x0 c:/applications/microchip/xc32/bin/bin/../../lib/gcc/pic32c/8.3.1/../../../../pic32c/lib/thumb/v8-m.main+fp/hard\libc-size-musl.a(strcpy.o)
 .xc_stack_usage
                0x0000000000000000       0x14 c:/applications/microchip/xc32/bin/bin/../../lib/gcc/pic32c/8.3.1/../../../../pic32c/lib/thumb/v8-m.main+fp/hard\libc-size-musl.a(strcpy.o)
 .text.strcpy   0x0000000000000000        0xc c:/applications/microchip/xc32/bin/bin/../../lib/gcc/pic32c/8.3.1/../../../../pic32c/lib/thumb/v8-m.main+fp/hard\libc-size-musl.a(strcpy.o)
 .xc_stack_usage.hdr
                0x0000000000000000        0xe c:/applications/microchip/xc32/bin/bin/../../lib/gcc/pic32c/8.3.1/../../../../pic32c/lib/thumb/v8-m.main+fp/hard\libc-size-musl.a(strcpy.o)
 .debug_info    0x0000000000000000       0xbd c:/applications/microchip/xc32/bin/bin/../../lib/gcc/pic32c/8.3.1/../../../../pic32c/lib/thumb/v8-m.main+fp/hard\libc-size-musl.a(strcpy.o)
 .debug_abbrev  0x0000000000000000       0xa2 c:/applications/microchip/xc32/bin/bin/../../lib/gcc/pic32c/8.3.1/../../../../pic32c/lib/thumb/v8-m.main+fp/hard\libc-size-musl.a(strcpy.o)
 .debug_loc     0x0000000000000000       0x67 c:/applications/microchip/xc32/bin/bin/../../lib/gcc/pic32c/8.3.1/../../../../pic32c/lib/thumb/v8-m.main+fp/hard\libc-size-musl.a(strcpy.o)
 .debug_aranges
                0x0000000000000000       0x20 c:/applications/microchip/xc32/bin/bin/../../lib/gcc/pic32c/8.3.1/../../../../pic32c/lib/thumb/v8-m.main+fp/hard\libc-size-musl.a(strcpy.o)
 .debug_ranges  0x0000000000000000       0x10 c:/applications/microchip/xc32/bin/bin/../../lib/gcc/pic32c/8.3.1/../../../../pic32c/lib/thumb/v8-m.main+fp/hard\libc-size-musl.a(strcpy.o)
 .debug_line    0x0000000000000000       0xad c:/applications/microchip/xc32/bin/bin/../../lib/gcc/pic32c/8.3.1/../../../../pic32c/lib/thumb/v8-m.main+fp/hard\libc-size-musl.a(strcpy.o)
 .debug_str     0x0000000000000000      0x223 c:/applications/microchip/xc32/bin/bin/../../lib/gcc/pic32c/8.3.1/../../../../pic32c/lib/thumb/v8-m.main+fp/hard\libc-size-musl.a(strcpy.o)
 .comment       0x0000000000000000       0x2c c:/applications/microchip/xc32/bin/bin/../../lib/gcc/pic32c/8.3.1/../../../../pic32c/lib/thumb/v8-m.main+fp/hard\libc-size-musl.a(strcpy.o)
 .note.GNU-stack
                0x0000000000000000        0x0 c:/applications/microchip/xc32/bin/bin/../../lib/gcc/pic32c/8.3.1/../../../../pic32c/lib/thumb/v8-m.main+fp/hard\libc-size-musl.a(strcpy.o)
 .debug_frame   0x0000000000000000       0x28 c:/applications/microchip/xc32/bin/bin/../../lib/gcc/pic32c/8.3.1/../../../../pic32c/lib/thumb/v8-m.main+fp/hard\libc-size-musl.a(strcpy.o)
 .ARM.attributes
                0x0000000000000000       0x3a c:/applications/microchip/xc32/bin/bin/../../lib/gcc/pic32c/8.3.1/../../../../pic32c/lib/thumb/v8-m.main+fp/hard\libc-size-musl.a(strcpy.o)
 .text          0x0000000000000000        0x0 c:/applications/microchip/xc32/bin/bin/../../lib/gcc/pic32c/8.3.1/../../../../pic32c/lib/thumb/v8-m.main+fp/hard\libc-size-musl.a(stpcpy.o)
 .data          0x0000000000000000        0x0 c:/applications/microchip/xc32/bin/bin/../../lib/gcc/pic32c/8.3.1/../../../../pic32c/lib/thumb/v8-m.main+fp/hard\libc-size-musl.a(stpcpy.o)
 .bss           0x0000000000000000        0x0 c:/applications/microchip/xc32/bin/bin/../../lib/gcc/pic32c/8.3.1/../../../../pic32c/lib/thumb/v8-m.main+fp/hard\libc-size-musl.a(stpcpy.o)
 .xc_stack_usage
                0x0000000000000000       0x14 c:/applications/microchip/xc32/bin/bin/../../lib/gcc/pic32c/8.3.1/../../../../pic32c/lib/thumb/v8-m.main+fp/hard\libc-size-musl.a(stpcpy.o)
 .text.stpcpy   0x0000000000000000       0x14 c:/applications/microchip/xc32/bin/bin/../../lib/gcc/pic32c/8.3.1/../../../../pic32c/lib/thumb/v8-m.main+fp/hard\libc-size-musl.a(stpcpy.o)
 .xc_stack_usage.hdr
                0x0000000000000000        0xe c:/applications/microchip/xc32/bin/bin/../../lib/gcc/pic32c/8.3.1/../../../../pic32c/lib/thumb/v8-m.main+fp/hard\libc-size-musl.a(stpcpy.o)
 .debug_info    0x0000000000000000       0xac c:/applications/microchip/xc32/bin/bin/../../lib/gcc/pic32c/8.3.1/../../../../pic32c/lib/thumb/v8-m.main+fp/hard\libc-size-musl.a(stpcpy.o)
 .debug_abbrev  0x0000000000000000       0x6e c:/applications/microchip/xc32/bin/bin/../../lib/gcc/pic32c/8.3.1/../../../../pic32c/lib/thumb/v8-m.main+fp/hard\libc-size-musl.a(stpcpy.o)
 .debug_loc     0x0000000000000000       0x60 c:/applications/microchip/xc32/bin/bin/../../lib/gcc/pic32c/8.3.1/../../../../pic32c/lib/thumb/v8-m.main+fp/hard\libc-size-musl.a(stpcpy.o)
 .debug_aranges
                0x0000000000000000       0x20 c:/applications/microchip/xc32/bin/bin/../../lib/gcc/pic32c/8.3.1/../../../../pic32c/lib/thumb/v8-m.main+fp/hard\libc-size-musl.a(stpcpy.o)
 .debug_ranges  0x0000000000000000       0x10 c:/applications/microchip/xc32/bin/bin/../../lib/gcc/pic32c/8.3.1/../../../../pic32c/lib/thumb/v8-m.main+fp/hard\libc-size-musl.a(stpcpy.o)
 .debug_line    0x0000000000000000       0xc1 c:/applications/microchip/xc32/bin/bin/../../lib/gcc/pic32c/8.3.1/../../../../pic32c/lib/thumb/v8-m.main+fp/hard\libc-size-musl.a(stpcpy.o)
 .debug_str     0x0000000000000000      0x237 c:/applications/microchip/xc32/bin/bin/../../lib/gcc/pic32c/8.3.1/../../../../pic32c/lib/thumb/v8-m.main+fp/hard\libc-size-musl.a(stpcpy.o)
 .comment       0x0000000000000000       0x2c c:/applications/microchip/xc32/bin/bin/../../lib/gcc/pic32c/8.3.1/../../../../pic32c/lib/thumb/v8-m.main+fp/hard\libc-size-musl.a(stpcpy.o)
 .note.GNU-stack
                0x0000000000000000        0x0 c:/applications/microchip/xc32/bin/bin/../../lib/gcc/pic32c/8.3.1/../../../../pic32c/lib/thumb/v8-m.main+fp/hard\libc-size-musl.a(stpcpy.o)
 .debug_frame   0x0000000000000000       0x20 c:/applications/microchip/xc32/bin/bin/../../lib/gcc/pic32c/8.3.1/../../../../pic32c/lib/thumb/v8-m.main+fp/hard\libc-size-musl.a(stpcpy.o)
 .ARM.attributes
                0x0000000000000000       0x3a c:/applications/microchip/xc32/bin/bin/../../lib/gcc/pic32c/8.3.1/../../../../pic32c/lib/thumb/v8-m.main+fp/hard\libc-size-musl.a(stpcpy.o)
 .text          0x0000000000000000        0x0 c:/applications/microchip/xc32/bin/bin/../../lib/gcc/pic32c/8.3.1/thumb/v8-m.main+fp/hard/crtend.o
 .data          0x0000000000000000        0x0 c:/applications/microchip/xc32/bin/bin/../../lib/gcc/pic32c/8.3.1/thumb/v8-m.main+fp/hard/crtend.o
 .bss           0x0000000000000000        0x0 c:/applications/microchip/xc32/bin/bin/../../lib/gcc/pic32c/8.3.1/thumb/v8-m.main+fp/hard/crtend.o
 .eh_frame      0x0000000000000000        0x4 c:/applications/microchip/xc32/bin/bin/../../lib/gcc/pic32c/8.3.1/thumb/v8-m.main+fp/hard/crtend.o
 .xc_stack_usage.hdr
                0x0000000000000000        0xe c:/applications/microchip/xc32/bin/bin/../../lib/gcc/pic32c/8.3.1/thumb/v8-m.main+fp/hard/crtend.o
 .comment       0x0000000000000000       0x2c c:/applications/microchip/xc32/bin/bin/../../lib/gcc/pic32c/8.3.1/thumb/v8-m.main+fp/hard/crtend.o
 .ARM.attributes
                0x0000000000000000       0x36 c:/applications/microchip/xc32/bin/bin/../../lib/gcc/pic32c/8.3.1/thumb/v8-m.main+fp/hard/crtend.o
 .text          0x0000000000000000        0x0 c:/applications/microchip/xc32/bin/bin/../../lib/gcc/pic32c/8.3.1/thumb/v8-m.main+fp/hard/crtn.o
 .data          0x0000000000000000        0x0 c:/applications/microchip/xc32/bin/bin/../../lib/gcc/pic32c/8.3.1/thumb/v8-m.main+fp/hard/crtn.o
 .bss           0x0000000000000000        0x0 c:/applications/microchip/xc32/bin/bin/../../lib/gcc/pic32c/8.3.1/thumb/v8-m.main+fp/hard/crtn.o
 .xc_stack_usage.hdr
                0x0000000000000000        0xe c:/applications/microchip/xc32/bin/bin/../../lib/gcc/pic32c/8.3.1/thumb/v8-m.main+fp/hard/crtn.o
 .text          0x0000000000000000        0x0 c:/applications/microchip/xc32/bin/bin/../../lib/gcc/pic32c/8.3.1/../../../../pic32c/lib/thumb/v8-m.main+fp/hard\libpic32c.a(pic32_data_init_clear.o)
 .data          0x0000000000000000        0x0 c:/applications/microchip/xc32/bin/bin/../../lib/gcc/pic32c/8.3.1/../../../../pic32c/lib/thumb/v8-m.main+fp/hard\libpic32c.a(pic32_data_init_clear.o)
 .bss           0x0000000000000000        0x0 c:/applications/microchip/xc32/bin/bin/../../lib/gcc/pic32c/8.3.1/../../../../pic32c/lib/thumb/v8-m.main+fp/hard\libpic32c.a(pic32_data_init_clear.o)
 .xc_stack_usage
                0x0000000000000000       0x1b c:/applications/microchip/xc32/bin/bin/../../lib/gcc/pic32c/8.3.1/../../../../pic32c/lib/thumb/v8-m.main+fp/hard\libpic32c.a(pic32_data_init_clear.o)
 .xc_stack_usage.hdr
                0x0000000000000000        0xe c:/applications/microchip/xc32/bin/bin/../../lib/gcc/pic32c/8.3.1/../../../../pic32c/lib/thumb/v8-m.main+fp/hard\libpic32c.a(pic32_data_init_clear.o)
 .text          0x0000000000000000        0x0 c:/applications/microchip/xc32/bin/bin/../../lib/gcc/pic32c/8.3.1/../../../../pic32c/lib/thumb/v8-m.main+fp/hard\libpic32c.a(pic32_data_init_copy.o)
 .data          0x0000000000000000        0x0 c:/applications/microchip/xc32/bin/bin/../../lib/gcc/pic32c/8.3.1/../../../../pic32c/lib/thumb/v8-m.main+fp/hard\libpic32c.a(pic32_data_init_copy.o)
 .bss           0x0000000000000000        0x0 c:/applications/microchip/xc32/bin/bin/../../lib/gcc/pic32c/8.3.1/../../../../pic32c/lib/thumb/v8-m.main+fp/hard\libpic32c.a(pic32_data_init_copy.o)
 .xc_stack_usage
                0x0000000000000000       0x1a c:/applications/microchip/xc32/bin/bin/../../lib/gcc/pic32c/8.3.1/../../../../pic32c/lib/thumb/v8-m.main+fp/hard\libpic32c.a(pic32_data_init_copy.o)
 .xc_stack_usage.hdr
                0x0000000000000000        0xe c:/applications/microchip/xc32/bin/bin/../../lib/gcc/pic32c/8.3.1/../../../../pic32c/lib/thumb/v8-m.main+fp/hard\libpic32c.a(pic32_data_init_copy.o)

Memory Configuration

Name             Origin             Length             Attributes
boot_rom         0x0000000008000000 0x0000000000020000 xrl
rom              0x000000000c000000 0x0000000000200000 xrl
ram              0x0000000020000000 0x0000000000080000 xw !r
tcm              0x0000000000000000 0x0000000000000000 xw
*default*        0x0000000000000000 0xffffffffffffffff

Linker script and memory map

LOAD c:/applications/microchip/xc32/bin/bin/../../lib/gcc/pic32c/8.3.1/thumb/v8-m.main+fp/hard/crti.o
LOAD c:/applications/microchip/xc32/bin/bin/../../lib/gcc/pic32c/8.3.1/thumb/v8-m.main+fp/hard/crtbegin.o
LOAD build/default/production/_ext/158385033/drv_i2c.o
LOAD build/default/production/_ext/2070931557/drv_spi.o
LOAD build/default/production/_ext/869808652/drv_usart.o
LOAD build/default/production/_ext/829343244/plib_ac.o
LOAD build/default/production/_ext/60165182/plib_can0.o
LOAD build/default/production/_ext/60165242/plib_ccl.o
LOAD build/default/production/_ext/1984496892/plib_clock.o
LOAD build/default/production/_ext/1865131932/plib_cmcc.o
LOAD build/default/production/_ext/60167341/plib_eic.o
LOAD build/default/production/_ext/1986646378/plib_evsys.o
LOAD build/default/production/_ext/1987437027/plib_freqm.o
LOAD build/default/production/_ext/1865468468/plib_nvic.o
LOAD build/default/production/_ext/1865510628/plib_pdec.o
LOAD build/default/production/_ext/829342769/plib_pm.o
LOAD build/default/production/_ext/1865521619/plib_port.o
LOAD build/default/production/_ext/1865585090/plib_rstc.o
LOAD build/default/production/_ext/60180175/plib_rtc_timer.o
LOAD build/default/production/_ext/508257091/plib_sercom0_i2c_master.o
LOAD build/default/production/_ext/17022449/plib_sercom1_spi_master.o
LOAD build/default/production/_ext/504274921/plib_sercom3_usart.o
LOAD build/default/production/_ext/504274921/plib_sercom2_usart.o
LOAD build/default/production/_ext/1865616679/plib_supc.o
LOAD build/default/production/_ext/1827571544/plib_systick.o
LOAD build/default/production/_ext/60181570/plib_tcc0.o
LOAD build/default/production/_ext/1865643529/plib_trng.o
LOAD build/default/production/_ext/163028504/xc32_monitor.o
LOAD build/default/production/_ext/1014039709/sys_cache.o
LOAD build/default/production/_ext/1832805299/sys_console.o
LOAD build/default/production/_ext/1832805299/sys_console_uart.o
LOAD build/default/production/_ext/1881668453/sys_int.o
LOAD build/default/production/_ext/101884895/sys_time.o
LOAD build/default/production/_ext/1171490990/startup_xc32.o
LOAD build/default/production/_ext/1171490990/libc_syscalls.o
LOAD build/default/production/_ext/1171490990/initialization.o
LOAD build/default/production/_ext/1171490990/exceptions.o
LOAD build/default/production/_ext/1171490990/tasks.o
LOAD build/default/production/_ext/1171490990/interrupts.o
LOAD build/default/production/_ext/1360937237/main.o
LOAD build/default/production/_ext/1360937237/console_driver.o
LOAD build/default/production/_ext/1360937237/mcp9808_driver.o
LOAD build/default/production/_ext/1360937237/hdc302x_driver.o
LOAD build/default/production/_ext/1360937237/sht4x_driver.o
LOAD build/default/production/_ext/1360937237/rtc_driver.o
LOAD build/default/production/_ext/1360937237/timer_driver.o
LOAD build/default/production/_ext/1360937237/can0_driver.o
LOAD build/default/production/_ext/1360937237/bme690_driver.o
LOAD build/default/production/_ext/1360937237/rstc_driver.o
LOAD build/default/production/_ext/1360937237/lc709204f_driver.o
                0x0000000000000001                __MPLAB_BUILD = 0x1
                0x000000000c200000                __rom_end = (ORIGIN (rom) + LENGTH (rom))
                0x0000000020080000                __ram_end = (ORIGIN (ram) + LENGTH (ram))

.vectors        0x0000000008000000      0x2b8
                0x0000000008000000                . = ALIGN (0x4)
                0x0000000008000000                _sfixed = .
 *(.vectors .vectors.* .vectors_default .vectors_default.*)
 .vectors.exception_table
                0x0000000008000000      0x2b8 build/default/production/_ext/1171490990/interrupts.o
                0x0000000008000000                exception_table
 *(.isr_vector)
 *(.reset*)
 *(.after_vectors)

.text           0x000000000c000000       0x20
                0x000000000c000000                . = ALIGN (0x4)
 *(.glue_7t)
 .glue_7t       0x000000000c000000        0x0 linker stubs
 *(.glue_7)
 .glue_7        0x000000000c000000        0x0 linker stubs
 *(.gnu.linkonce.r.*)
 *(.ARM.extab* .gnu.linkonce.armextab.*)
                0x000000000c000000                . = ALIGN (0x4)
 *(.init)
 .init          0x000000000c000000        0x4 c:/applications/microchip/xc32/bin/bin/../../lib/gcc/pic32c/8.3.1/thumb/v8-m.main+fp/hard/crti.o
                0x000000000c000000                _init
 .init          0x000000000c000004        0x8 c:/applications/microchip/xc32/bin/bin/../../lib/gcc/pic32c/8.3.1/thumb/v8-m.main+fp/hard/crtn.o
                0x000000000c00000c                . = ALIGN (0x4)
                0x000000000c00000c                __preinit_array_start = .
 *(.preinit_array)
                0x000000000c00000c                __preinit_array_end = .
                0x000000000c00000c                . = ALIGN (0x4)
                0x000000000c00000c                __init_array_start = .
 *(SORT_BY_NAME(.init_array.*))
 *(.init_array)
 .init_array    0x000000000c00000c        0x4 c:/applications/microchip/xc32/bin/bin/../../lib/gcc/pic32c/8.3.1/thumb/v8-m.main+fp/hard/crtbegin.o
                0x000000000c000010                __init_array_end = .
                0x000000000c000010                . = ALIGN (0x4)
 *crtbegin.o(.ctors)
 *(EXCLUDE_FILE(*crtend.o) .ctors)
 *(SORT_BY_NAME(.ctors.*))
 *crtend.o(.ctors)
                0x000000000c000010                . = ALIGN (0x4)
 *(.fini)
 .fini          0x000000000c000010        0x4 c:/applications/microchip/xc32/bin/bin/../../lib/gcc/pic32c/8.3.1/thumb/v8-m.main+fp/hard/crti.o
                0x000000000c000010                _fini
 .fini          0x000000000c000014        0x8 c:/applications/microchip/xc32/bin/bin/../../lib/gcc/pic32c/8.3.1/thumb/v8-m.main+fp/hard/crtn.o
                0x000000000c00001c                . = ALIGN (0x4)
                0x000000000c00001c                __fini_array_start = .
 *(.fini_array)
 .fini_array    0x000000000c00001c        0x4 c:/applications/microchip/xc32/bin/bin/../../lib/gcc/pic32c/8.3.1/thumb/v8-m.main+fp/hard/crtbegin.o
 *(SORT_BY_NAME(.fini_array.*))
                0x000000000c000020                __fini_array_end = .
 *crtbegin.o(.dtors)
 *(EXCLUDE_FILE(*crtend.o) .dtors)
 *(SORT_BY_NAME(.dtors.*))
 *crtend.o(.dtors)
                0x000000000c000020                . = ALIGN (0x4)
                0x000000000c000020                _efixed = .
                [!provide]                        PROVIDE (__exidx_start = .)

.ARM.exidx
 *(.ARM.exidx* .gnu.linkonce.armexidx.*)
                [!provide]                        PROVIDE (__exidx_end = .)
                0x000000000c000020                . = ALIGN (0x4)
                0x000000000c000020                _etext = .

.bss            0x0000000020000000        0x0
                0x0000000020000000                . = ALIGN (0x4)
                0x0000000020000000                __bss_start__ = .
                0x0000000020000000                _sbss = .
                0x0000000020000000                _szero = .
 *(COMMON)
                0x0000000020000000                . = ALIGN (0x4)
                0x0000000020000000                __bss_end__ = .
                0x0000000020000000                _ebss = .
                0x0000000020000000                _ezero = .
                0x0000000020000000                . = ALIGN (0x4)
                0x0000000020000000                _end = .
                0x000000002007ffff                _ram_end_ = ((ORIGIN (ram) + LENGTH (ram)) - 0x1)
                0x0000000000000200                _min_heap_size = 0x200
START GROUP
LOAD c:/applications/microchip/xc32/bin/bin/../../lib/gcc/pic32c/8.3.1/../../../../pic32c/lib/thumb/v8-m.main+fp/hard\libpic32c.a
LOAD c:/applications/microchip/xc32/bin/bin/../../lib/gcc/pic32c/8.3.1/../../../../pic32c/lib/thumb/v8-m.main+fp/hard\libc-size-musl.a
LOAD c:/applications/microchip/xc32/bin/bin/../../lib/gcc/pic32c/8.3.1/../../../../pic32c/lib/thumb/v8-m.main+fp/hard\liblmalloc-musl.a
LOAD c:/applications/microchip/xc32/bin/bin/../../lib/gcc/pic32c/8.3.1/../../../../pic32c/lib/thumb/v8-m.main+fp/hard\libm-fast-emfloat.a
LOAD c:/applications/microchip/xc32/bin/bin/../../lib/gcc/pic32c/8.3.1/../../../../pic32c/lib/thumb/v8-m.main+fp/hard\libm-musl.a
LOAD c:/applications/microchip/xc32/bin/bin/../../lib/gcc/pic32c/8.3.1/../../../../pic32c/lib/thumb/v8-m.main+fp/hard\libc-musl.a
LOAD c:/applications/microchip/xc32/bin/bin/../../lib/gcc/pic32c/8.3.1/../../../../pic32c/lib/thumb/v8-m.main+fp/hard\libm-fast-emfloat.a
LOAD c:/applications/microchip/xc32/bin/bin/../../lib/gcc/pic32c/8.3.1/../../../../pic32c/lib/thumb/v8-m.main+fp/hard\libm-musl.a
LOAD c:/applications/microchip/xc32/bin/bin/../../lib/gcc/pic32c/8.3.1/thumb/v8-m.main+fp/hard\libgcc.a
END GROUP
LOAD c:/applications/microchip/xc32/bin/bin/../../lib/gcc/pic32c/8.3.1/thumb/v8-m.main+fp/hard/crtend.o
LOAD c:/applications/microchip/xc32/bin/bin/../../lib/gcc/pic32c/8.3.1/thumb/v8-m.main+fp/hard/crtn.o
OUTPUT(dist/default/production/PIC32CK_DRIVER.X.production.elf elf32-littlearm)
LOAD data_init
LOAD stack

.ARM.attributes
                0x0000000000000000       0x38
 .ARM.attributes
                0x0000000000000000       0x22 c:/applications/microchip/xc32/bin/bin/../../lib/gcc/pic32c/8.3.1/thumb/v8-m.main+fp/hard/crti.o
 .ARM.attributes
                0x0000000000000022       0x38 c:/applications/microchip/xc32/bin/bin/../../lib/gcc/pic32c/8.3.1/thumb/v8-m.main+fp/hard/crtbegin.o
 .ARM.attributes
                0x000000000000005a       0x3a build/default/production/_ext/158385033/drv_i2c.o
 .ARM.attributes
                0x0000000000000094       0x3a build/default/production/_ext/2070931557/drv_spi.o
 .ARM.attributes
                0x00000000000000ce       0x3a build/default/production/_ext/869808652/drv_usart.o
 .ARM.attributes
                0x0000000000000108       0x3a build/default/production/_ext/829343244/plib_ac.o
 .ARM.attributes
                0x0000000000000142       0x3a build/default/production/_ext/60165182/plib_can0.o
 .ARM.attributes
                0x000000000000017c       0x3a build/default/production/_ext/60165242/plib_ccl.o
 .ARM.attributes
                0x00000000000001b6       0x3a build/default/production/_ext/1984496892/plib_clock.o
 .ARM.attributes
                0x00000000000001f0       0x3a build/default/production/_ext/60167341/plib_eic.o
 .ARM.attributes
                0x000000000000022a       0x3a build/default/production/_ext/1986646378/plib_evsys.o
 .ARM.attributes
                0x0000000000000264       0x3a build/default/production/_ext/1987437027/plib_freqm.o
 .ARM.attributes
                0x000000000000029e       0x3a build/default/production/_ext/1865468468/plib_nvic.o
 .ARM.attributes
                0x00000000000002d8       0x3a build/default/production/_ext/1865510628/plib_pdec.o
 .ARM.attributes
                0x0000000000000312       0x3a build/default/production/_ext/829342769/plib_pm.o
 .ARM.attributes
                0x000000000000034c       0x3a build/default/production/_ext/1865521619/plib_port.o
 .ARM.attributes
                0x0000000000000386       0x3a build/default/production/_ext/60180175/plib_rtc_timer.o
 .ARM.attributes
                0x00000000000003c0       0x3a build/default/production/_ext/508257091/plib_sercom0_i2c_master.o
 .ARM.attributes
                0x00000000000003fa       0x3a build/default/production/_ext/17022449/plib_sercom1_spi_master.o
 .ARM.attributes
                0x0000000000000434       0x3a build/default/production/_ext/504274921/plib_sercom3_usart.o
 .ARM.attributes
                0x000000000000046e       0x3a build/default/production/_ext/504274921/plib_sercom2_usart.o
 .ARM.attributes
                0x00000000000004a8       0x3a build/default/production/_ext/1865616679/plib_supc.o
 .ARM.attributes
                0x00000000000004e2       0x3a build/default/production/_ext/1827571544/plib_systick.o
 .ARM.attributes
                0x000000000000051c       0x3a build/default/production/_ext/60181570/plib_tcc0.o
 .ARM.attributes
                0x0000000000000556       0x3a build/default/production/_ext/1865643529/plib_trng.o
 .ARM.attributes
                0x0000000000000590       0x3a build/default/production/_ext/1832805299/sys_console.o
 .ARM.attributes
                0x00000000000005ca       0x3a build/default/production/_ext/1832805299/sys_console_uart.o
 .ARM.attributes
                0x0000000000000604       0x3a build/default/production/_ext/1881668453/sys_int.o
 .ARM.attributes
                0x000000000000063e       0x3a build/default/production/_ext/101884895/sys_time.o
 .ARM.attributes
                0x0000000000000678       0x3a build/default/production/_ext/1171490990/startup_xc32.o
 .ARM.attributes
                0x00000000000006b2       0x3a build/default/production/_ext/1171490990/initialization.o
 .ARM.attributes
                0x00000000000006ec       0x3a build/default/production/_ext/1171490990/exceptions.o
 .ARM.attributes
                0x0000000000000726       0x3a build/default/production/_ext/1171490990/tasks.o
 .ARM.attributes
                0x0000000000000760       0x3a build/default/production/_ext/1171490990/interrupts.o
 .ARM.attributes
                0x000000000000079a       0x3a build/default/production/_ext/1360937237/main.o
 .ARM.attributes
                0x00000000000007d4       0x3a build/default/production/_ext/1360937237/console_driver.o
 .ARM.attributes
                0x000000000000080e       0x3a build/default/production/_ext/1360937237/mcp9808_driver.o
 .ARM.attributes
                0x0000000000000848       0x3a build/default/production/_ext/1360937237/hdc302x_driver.o
 .ARM.attributes
                0x0000000000000882       0x3a build/default/production/_ext/1360937237/sht4x_driver.o
 .ARM.attributes
                0x00000000000008bc       0x3a build/default/production/_ext/1360937237/rtc_driver.o
 .ARM.attributes
                0x00000000000008f6       0x3a build/default/production/_ext/1360937237/timer_driver.o
 .ARM.attributes
                0x0000000000000930       0x3a build/default/production/_ext/1360937237/can0_driver.o
 .ARM.attributes
                0x000000000000096a       0x3a build/default/production/_ext/1360937237/bme690_driver.o
 .ARM.attributes
                0x00000000000009a4       0x3a build/default/production/_ext/1360937237/rstc_driver.o
 .ARM.attributes
                0x00000000000009de       0x3a build/default/production/_ext/1360937237/lc709204f_driver.o
 .ARM.attributes
                0x0000000000000a18       0x38 c:/applications/microchip/xc32/bin/bin/../../lib/gcc/pic32c/8.3.1/../../../../pic32c/lib/thumb/v8-m.main+fp/hard\libpic32c.a(data_init.o)
 .ARM.attributes
                0x0000000000000a50       0x3a c:/applications/microchip/xc32/bin/bin/../../lib/gcc/pic32c/8.3.1/../../../../pic32c/lib/thumb/v8-m.main+fp/hard\libc-size-musl.a(memset.o)
 .ARM.attributes
                0x0000000000000a8a       0x3a c:/applications/microchip/xc32/bin/bin/../../lib/gcc/pic32c/8.3.1/../../../../pic32c/lib/thumb/v8-m.main+fp/hard\libc-musl.a(__libc_start_main.o)
 .ARM.attributes
                0x0000000000000ac4       0x38 c:/applications/microchip/xc32/bin/bin/../../lib/gcc/pic32c/8.3.1/../../../../pic32c/lib/thumb/v8-m.main+fp/hard\libc-musl.a(libc.o)
 .ARM.attributes
                0x0000000000000afc       0x38 c:/applications/microchip/xc32/bin/bin/../../lib/gcc/pic32c/8.3.1/../../../../pic32c/lib/thumb/v8-m.main+fp/hard\libc-musl.a(__environ.o)
 .ARM.attributes
                0x0000000000000b34       0x22 c:/applications/microchip/xc32/bin/bin/../../lib/gcc/pic32c/8.3.1/thumb/v8-m.main+fp/hard/crtn.o
 .ARM.attributes
                0x0000000000000b56       0x38 c:/applications/microchip/xc32/bin/bin/../../lib/gcc/pic32c/8.3.1/../../../../pic32c/lib/thumb/v8-m.main+fp/hard\libpic32c.a(pic32_data_init_clear.o)
 .ARM.attributes
                0x0000000000000b8e       0x38 c:/applications/microchip/xc32/bin/bin/../../lib/gcc/pic32c/8.3.1/../../../../pic32c/lib/thumb/v8-m.main+fp/hard\libpic32c.a(pic32_data_init_copy.o)

.comment        0x0000000000000000       0x2b
 .comment       0x0000000000000000       0x2b c:/applications/microchip/xc32/bin/bin/../../lib/gcc/pic32c/8.3.1/thumb/v8-m.main+fp/hard/crtbegin.o
                                         0x2c (size before relaxing)
 .comment       0x000000000000002b       0x2c build/default/production/_ext/158385033/drv_i2c.o
 .comment       0x000000000000002b       0x2c build/default/production/_ext/2070931557/drv_spi.o
 .comment       0x000000000000002b       0x2c build/default/production/_ext/869808652/drv_usart.o
 .comment       0x000000000000002b       0x2c build/default/production/_ext/829343244/plib_ac.o
 .comment       0x000000000000002b       0x2c build/default/production/_ext/60165182/plib_can0.o
 .comment       0x000000000000002b       0x2c build/default/production/_ext/60165242/plib_ccl.o
 .comment       0x000000000000002b       0x2c build/default/production/_ext/1984496892/plib_clock.o
 .comment       0x000000000000002b       0x2c build/default/production/_ext/60167341/plib_eic.o
 .comment       0x000000000000002b       0x2c build/default/production/_ext/1986646378/plib_evsys.o
 .comment       0x000000000000002b       0x2c build/default/production/_ext/1987437027/plib_freqm.o
 .comment       0x000000000000002b       0x2c build/default/production/_ext/1865468468/plib_nvic.o
 .comment       0x000000000000002b       0x2c build/default/production/_ext/1865510628/plib_pdec.o
 .comment       0x000000000000002b       0x2c build/default/production/_ext/829342769/plib_pm.o
 .comment       0x000000000000002b       0x2c build/default/production/_ext/1865521619/plib_port.o
 .comment       0x000000000000002b       0x2c build/default/production/_ext/60180175/plib_rtc_timer.o
 .comment       0x000000000000002b       0x2c build/default/production/_ext/508257091/plib_sercom0_i2c_master.o
 .comment       0x000000000000002b       0x2c build/default/production/_ext/17022449/plib_sercom1_spi_master.o
 .comment       0x000000000000002b       0x2c build/default/production/_ext/504274921/plib_sercom3_usart.o
 .comment       0x000000000000002b       0x2c build/default/production/_ext/504274921/plib_sercom2_usart.o
 .comment       0x000000000000002b       0x2c build/default/production/_ext/1865616679/plib_supc.o
 .comment       0x000000000000002b       0x2c build/default/production/_ext/1827571544/plib_systick.o
 .comment       0x000000000000002b       0x2c build/default/production/_ext/60181570/plib_tcc0.o
 .comment       0x000000000000002b       0x2c build/default/production/_ext/1865643529/plib_trng.o
 .comment       0x000000000000002b       0x2c build/default/production/_ext/1832805299/sys_console.o
 .comment       0x000000000000002b       0x2c build/default/production/_ext/1832805299/sys_console_uart.o
 .comment       0x000000000000002b       0x2c build/default/production/_ext/1881668453/sys_int.o
 .comment       0x000000000000002b       0x2c build/default/production/_ext/101884895/sys_time.o
 .comment       0x000000000000002b       0x2c build/default/production/_ext/1171490990/startup_xc32.o
 .comment       0x000000000000002b       0x2c build/default/production/_ext/1171490990/initialization.o
 .comment       0x000000000000002b       0x2c build/default/production/_ext/1171490990/exceptions.o
 .comment       0x000000000000002b       0x2c build/default/production/_ext/1171490990/tasks.o
 .comment       0x000000000000002b       0x2c build/default/production/_ext/1171490990/interrupts.o
 .comment       0x000000000000002b       0x2c build/default/production/_ext/1360937237/main.o
 .comment       0x000000000000002b       0x2c build/default/production/_ext/1360937237/console_driver.o
 .comment       0x000000000000002b       0x2c build/default/production/_ext/1360937237/mcp9808_driver.o
 .comment       0x000000000000002b       0x2c build/default/production/_ext/1360937237/hdc302x_driver.o
 .comment       0x000000000000002b       0x2c build/default/production/_ext/1360937237/sht4x_driver.o
 .comment       0x000000000000002b       0x2c build/default/production/_ext/1360937237/rtc_driver.o
 .comment       0x000000000000002b       0x2c build/default/production/_ext/1360937237/timer_driver.o
 .comment       0x000000000000002b       0x2c build/default/production/_ext/1360937237/can0_driver.o
 .comment       0x000000000000002b       0x2c build/default/production/_ext/1360937237/bme690_driver.o
 .comment       0x000000000000002b       0x2c build/default/production/_ext/1360937237/rstc_driver.o
 .comment       0x000000000000002b       0x2c build/default/production/_ext/1360937237/lc709204f_driver.o
 .comment       0x000000000000002b       0x2c c:/applications/microchip/xc32/bin/bin/../../lib/gcc/pic32c/8.3.1/../../../../pic32c/lib/thumb/v8-m.main+fp/hard\libpic32c.a(data_init.o)
 .comment       0x000000000000002b       0x2c c:/applications/microchip/xc32/bin/bin/../../lib/gcc/pic32c/8.3.1/../../../../pic32c/lib/thumb/v8-m.main+fp/hard\libc-size-musl.a(memset.o)
 .comment       0x000000000000002b       0x2c c:/applications/microchip/xc32/bin/bin/../../lib/gcc/pic32c/8.3.1/../../../../pic32c/lib/thumb/v8-m.main+fp/hard\libc-musl.a(__libc_start_main.o)
 .comment       0x000000000000002b       0x2c c:/applications/microchip/xc32/bin/bin/../../lib/gcc/pic32c/8.3.1/../../../../pic32c/lib/thumb/v8-m.main+fp/hard\libc-musl.a(libc.o)
 .comment       0x000000000000002b       0x2c c:/applications/microchip/xc32/bin/bin/../../lib/gcc/pic32c/8.3.1/../../../../pic32c/lib/thumb/v8-m.main+fp/hard\libc-musl.a(__environ.o)
 .comment       0x000000000000002b       0x2c c:/applications/microchip/xc32/bin/bin/../../lib/gcc/pic32c/8.3.1/../../../../pic32c/lib/thumb/v8-m.main+fp/hard\libpic32c.a(pic32_data_init_clear.o)
 .comment       0x000000000000002b       0x2c c:/applications/microchip/xc32/bin/bin/../../lib/gcc/pic32c/8.3.1/../../../../pic32c/lib/thumb/v8-m.main+fp/hard\libpic32c.a(pic32_data_init_copy.o)

.debug_info     0x0000000000000000    0x1d333
 .debug_info    0x0000000000000000     0x21b7 build/default/production/_ext/158385033/drv_i2c.o
 .debug_info    0x00000000000021b7     0x2585 build/default/production/_ext/2070931557/drv_spi.o
 .debug_info    0x000000000000473c     0x2851 build/default/production/_ext/869808652/drv_usart.o
 .debug_info    0x0000000000006f8d      0x4c6 build/default/production/_ext/829343244/plib_ac.o
 .debug_info    0x0000000000007453     0x12d1 build/default/production/_ext/60165182/plib_can0.o
 .debug_info    0x0000000000008724      0x180 build/default/production/_ext/60165242/plib_ccl.o
 .debug_info    0x00000000000088a4      0x5c4 build/default/production/_ext/1984496892/plib_clock.o
 .debug_info    0x0000000000008e68      0x201 build/default/production/_ext/60167341/plib_eic.o
 .debug_info    0x0000000000009069       0x9b build/default/production/_ext/1986646378/plib_evsys.o
 .debug_info    0x0000000000009104      0x363 build/default/production/_ext/1987437027/plib_freqm.o
 .debug_info    0x0000000000009467     0x179e build/default/production/_ext/1865468468/plib_nvic.o
 .debug_info    0x000000000000ac05      0x37d build/default/production/_ext/1865510628/plib_pdec.o
 .debug_info    0x000000000000af82      0x221 build/default/production/_ext/829342769/plib_pm.o
 .debug_info    0x000000000000b1a3      0x69a build/default/production/_ext/1865521619/plib_port.o
 .debug_info    0x000000000000b83d      0x9b9 build/default/production/_ext/60180175/plib_rtc_timer.o
 .debug_info    0x000000000000c1f6     0x1307 build/default/production/_ext/508257091/plib_sercom0_i2c_master.o
 .debug_info    0x000000000000d4fd      0xf26 build/default/production/_ext/17022449/plib_sercom1_spi_master.o
 .debug_info    0x000000000000e423     0x17e7 build/default/production/_ext/504274921/plib_sercom3_usart.o
 .debug_info    0x000000000000fc0a     0x11e2 build/default/production/_ext/504274921/plib_sercom2_usart.o
 .debug_info    0x0000000000010dec      0x203 build/default/production/_ext/1865616679/plib_supc.o
 .debug_info    0x0000000000010fef      0x551 build/default/production/_ext/1827571544/plib_systick.o
 .debug_info    0x0000000000011540      0x590 build/default/production/_ext/60181570/plib_tcc0.o
 .debug_info    0x0000000000011ad0      0x1bd build/default/production/_ext/1865643529/plib_trng.o
 .debug_info    0x0000000000011c8d      0xc72 build/default/production/_ext/1832805299/sys_console.o
 .debug_info    0x00000000000128ff      0xdc6 build/default/production/_ext/1832805299/sys_console_uart.o
 .debug_info    0x00000000000136c5      0x8f9 build/default/production/_ext/1881668453/sys_int.o
 .debug_info    0x0000000000013fbe     0x1c05 build/default/production/_ext/101884895/sys_time.o
 .debug_info    0x0000000000015bc3      0x739 build/default/production/_ext/1171490990/startup_xc32.o
 .debug_info    0x00000000000162fc     0x2494 build/default/production/_ext/1171490990/initialization.o
 .debug_info    0x0000000000018790       0xc1 build/default/production/_ext/1171490990/exceptions.o
 .debug_info    0x0000000000018851       0xa9 build/default/production/_ext/1171490990/tasks.o
 .debug_info    0x00000000000188fa      0xc0d build/default/production/_ext/1171490990/interrupts.o
 .debug_info    0x0000000000019507       0xeb build/default/production/_ext/1360937237/main.o
 .debug_info    0x00000000000195f2      0x13a build/default/production/_ext/1360937237/console_driver.o
 .debug_info    0x000000000001972c       0xbf build/default/production/_ext/1360937237/mcp9808_driver.o
 .debug_info    0x00000000000197eb     0x1456 build/default/production/_ext/1360937237/hdc302x_driver.o
 .debug_info    0x000000000001ac41      0x5c3 build/default/production/_ext/1360937237/sht4x_driver.o
 .debug_info    0x000000000001b204      0x13a build/default/production/_ext/1360937237/rtc_driver.o
 .debug_info    0x000000000001b33e      0x590 build/default/production/_ext/1360937237/timer_driver.o
 .debug_info    0x000000000001b8ce      0x13a build/default/production/_ext/1360937237/can0_driver.o
 .debug_info    0x000000000001ba08      0xf88 build/default/production/_ext/1360937237/bme690_driver.o
 .debug_info    0x000000000001c990      0x13a build/default/production/_ext/1360937237/rstc_driver.o
 .debug_info    0x000000000001caca       0xbf build/default/production/_ext/1360937237/lc709204f_driver.o
 .debug_info    0x000000000001cb89       0x68 c:/applications/microchip/xc32/bin/bin/../../lib/gcc/pic32c/8.3.1/../../../../pic32c/lib/thumb/v8-m.main+fp/hard\libpic32c.a(data_init.o)
 .debug_info    0x000000000001cbf1       0xbb c:/applications/microchip/xc32/bin/bin/../../lib/gcc/pic32c/8.3.1/../../../../pic32c/lib/thumb/v8-m.main+fp/hard\libc-size-musl.a(memset.o)
 .debug_info    0x000000000001ccac      0x2fb c:/applications/microchip/xc32/bin/bin/../../lib/gcc/pic32c/8.3.1/../../../../pic32c/lib/thumb/v8-m.main+fp/hard\libc-musl.a(__libc_start_main.o)
 .debug_info    0x000000000001cfa7      0x276 c:/applications/microchip/xc32/bin/bin/../../lib/gcc/pic32c/8.3.1/../../../../pic32c/lib/thumb/v8-m.main+fp/hard\libc-musl.a(libc.o)
 .debug_info    0x000000000001d21d       0x97 c:/applications/microchip/xc32/bin/bin/../../lib/gcc/pic32c/8.3.1/../../../../pic32c/lib/thumb/v8-m.main+fp/hard\libc-musl.a(__environ.o)
 .debug_info    0x000000000001d2b4       0x3f c:/applications/microchip/xc32/bin/bin/../../lib/gcc/pic32c/8.3.1/../../../../pic32c/lib/thumb/v8-m.main+fp/hard\libpic32c.a(pic32_data_init_clear.o)
 .debug_info    0x000000000001d2f3       0x40 c:/applications/microchip/xc32/bin/bin/../../lib/gcc/pic32c/8.3.1/../../../../pic32c/lib/thumb/v8-m.main+fp/hard\libpic32c.a(pic32_data_init_copy.o)

.debug_abbrev   0x0000000000000000     0x53ea
 .debug_abbrev  0x0000000000000000      0x49f build/default/production/_ext/158385033/drv_i2c.o
 .debug_abbrev  0x000000000000049f      0x4b7 build/default/production/_ext/2070931557/drv_spi.o
 .debug_abbrev  0x0000000000000956      0x523 build/default/production/_ext/869808652/drv_usart.o
 .debug_abbrev  0x0000000000000e79      0x1a2 build/default/production/_ext/829343244/plib_ac.o
 .debug_abbrev  0x000000000000101b      0x2ee build/default/production/_ext/60165182/plib_can0.o
 .debug_abbrev  0x0000000000001309       0xa4 build/default/production/_ext/60165242/plib_ccl.o
 .debug_abbrev  0x00000000000013ad       0xfc build/default/production/_ext/1984496892/plib_clock.o
 .debug_abbrev  0x00000000000014a9       0xa4 build/default/production/_ext/60167341/plib_eic.o
 .debug_abbrev  0x000000000000154d       0x46 build/default/production/_ext/1986646378/plib_evsys.o
 .debug_abbrev  0x0000000000001593      0x11c build/default/production/_ext/1987437027/plib_freqm.o
 .debug_abbrev  0x00000000000016af      0x249 build/default/production/_ext/1865468468/plib_nvic.o
 .debug_abbrev  0x00000000000018f8       0xf2 build/default/production/_ext/1865510628/plib_pdec.o
 .debug_abbrev  0x00000000000019ea       0x95 build/default/production/_ext/829342769/plib_pm.o
 .debug_abbrev  0x0000000000001a7f      0x1e8 build/default/production/_ext/1865521619/plib_port.o
 .debug_abbrev  0x0000000000001c67      0x1a2 build/default/production/_ext/60180175/plib_rtc_timer.o
 .debug_abbrev  0x0000000000001e09      0x3ac build/default/production/_ext/508257091/plib_sercom0_i2c_master.o
 .debug_abbrev  0x00000000000021b5      0x276 build/default/production/_ext/17022449/plib_sercom1_spi_master.o
 .debug_abbrev  0x000000000000242b      0x439 build/default/production/_ext/504274921/plib_sercom3_usart.o
 .debug_abbrev  0x0000000000002864      0x318 build/default/production/_ext/504274921/plib_sercom2_usart.o
 .debug_abbrev  0x0000000000002b7c       0xdb build/default/production/_ext/1865616679/plib_supc.o
 .debug_abbrev  0x0000000000002c57      0x1ef build/default/production/_ext/1827571544/plib_systick.o
 .debug_abbrev  0x0000000000002e46      0x197 build/default/production/_ext/60181570/plib_tcc0.o
 .debug_abbrev  0x0000000000002fdd       0xc0 build/default/production/_ext/1865643529/plib_trng.o
 .debug_abbrev  0x000000000000309d      0x3cd build/default/production/_ext/1832805299/sys_console.o
 .debug_abbrev  0x000000000000346a      0x31c build/default/production/_ext/1832805299/sys_console_uart.o
 .debug_abbrev  0x0000000000003786      0x25c build/default/production/_ext/1881668453/sys_int.o
 .debug_abbrev  0x00000000000039e2      0x4c9 build/default/production/_ext/101884895/sys_time.o
 .debug_abbrev  0x0000000000003eab      0x1e3 build/default/production/_ext/1171490990/startup_xc32.o
 .debug_abbrev  0x000000000000408e      0x255 build/default/production/_ext/1171490990/initialization.o
 .debug_abbrev  0x00000000000042e3       0x49 build/default/production/_ext/1171490990/exceptions.o
 .debug_abbrev  0x000000000000432c       0x46 build/default/production/_ext/1171490990/tasks.o
 .debug_abbrev  0x0000000000004372       0xe5 build/default/production/_ext/1171490990/interrupts.o
 .debug_abbrev  0x0000000000004457       0x82 build/default/production/_ext/1360937237/main.o
 .debug_abbrev  0x00000000000044d9       0xdd build/default/production/_ext/1360937237/console_driver.o
 .debug_abbrev  0x00000000000045b6       0x75 build/default/production/_ext/1360937237/mcp9808_driver.o
 .debug_abbrev  0x000000000000462b      0x279 build/default/production/_ext/1360937237/hdc302x_driver.o
 .debug_abbrev  0x00000000000048a4      0x18e build/default/production/_ext/1360937237/sht4x_driver.o
 .debug_abbrev  0x0000000000004a32       0xdd build/default/production/_ext/1360937237/rtc_driver.o
 .debug_abbrev  0x0000000000004b0f      0x13f build/default/production/_ext/1360937237/timer_driver.o
 .debug_abbrev  0x0000000000004c4e       0xdd build/default/production/_ext/1360937237/can0_driver.o
 .debug_abbrev  0x0000000000004d2b      0x1c2 build/default/production/_ext/1360937237/bme690_driver.o
 .debug_abbrev  0x0000000000004eed       0xdd build/default/production/_ext/1360937237/rstc_driver.o
 .debug_abbrev  0x0000000000004fca       0x75 build/default/production/_ext/1360937237/lc709204f_driver.o
 .debug_abbrev  0x000000000000503f       0x44 c:/applications/microchip/xc32/bin/bin/../../lib/gcc/pic32c/8.3.1/../../../../pic32c/lib/thumb/v8-m.main+fp/hard\libpic32c.a(data_init.o)
 .debug_abbrev  0x0000000000005083       0xa2 c:/applications/microchip/xc32/bin/bin/../../lib/gcc/pic32c/8.3.1/../../../../pic32c/lib/thumb/v8-m.main+fp/hard\libc-size-musl.a(memset.o)
 .debug_abbrev  0x0000000000005125      0x133 c:/applications/microchip/xc32/bin/bin/../../lib/gcc/pic32c/8.3.1/../../../../pic32c/lib/thumb/v8-m.main+fp/hard\libc-musl.a(__libc_start_main.o)
 .debug_abbrev  0x0000000000005258       0xd4 c:/applications/microchip/xc32/bin/bin/../../lib/gcc/pic32c/8.3.1/../../../../pic32c/lib/thumb/v8-m.main+fp/hard\libc-musl.a(libc.o)
 .debug_abbrev  0x000000000000532c       0x62 c:/applications/microchip/xc32/bin/bin/../../lib/gcc/pic32c/8.3.1/../../../../pic32c/lib/thumb/v8-m.main+fp/hard\libc-musl.a(__environ.o)
 .debug_abbrev  0x000000000000538e       0x2e c:/applications/microchip/xc32/bin/bin/../../lib/gcc/pic32c/8.3.1/../../../../pic32c/lib/thumb/v8-m.main+fp/hard\libpic32c.a(pic32_data_init_clear.o)
 .debug_abbrev  0x00000000000053bc       0x2e c:/applications/microchip/xc32/bin/bin/../../lib/gcc/pic32c/8.3.1/../../../../pic32c/lib/thumb/v8-m.main+fp/hard\libpic32c.a(pic32_data_init_copy.o)

.debug_loc      0x0000000000000000     0xf595
 .debug_loc     0x0000000000000000     0x1bbf build/default/production/_ext/158385033/drv_i2c.o
 .debug_loc     0x0000000000001bbf     0x1b4c build/default/production/_ext/2070931557/drv_spi.o
 .debug_loc     0x000000000000370b     0x228f build/default/production/_ext/869808652/drv_usart.o
 .debug_loc     0x000000000000599a      0x173 build/default/production/_ext/829343244/plib_ac.o
 .debug_loc     0x0000000000005b0d      0xd30 build/default/production/_ext/60165182/plib_can0.o
 .debug_loc     0x000000000000683d       0xf8 build/default/production/_ext/1987437027/plib_freqm.o
 .debug_loc     0x0000000000006935      0x841 build/default/production/_ext/1865468468/plib_nvic.o
 .debug_loc     0x0000000000007176       0x15 build/default/production/_ext/1865510628/plib_pdec.o
 .debug_loc     0x000000000000718b      0x23d build/default/production/_ext/1865521619/plib_port.o
 .debug_loc     0x00000000000073c8       0x94 build/default/production/_ext/60180175/plib_rtc_timer.o
 .debug_loc     0x000000000000745c      0xece build/default/production/_ext/508257091/plib_sercom0_i2c_master.o
 .debug_loc     0x000000000000832a      0x6ae build/default/production/_ext/17022449/plib_sercom1_spi_master.o
 .debug_loc     0x00000000000089d8      0xef4 build/default/production/_ext/504274921/plib_sercom3_usart.o
 .debug_loc     0x00000000000098cc      0xaaa build/default/production/_ext/504274921/plib_sercom2_usart.o
 .debug_loc     0x000000000000a376      0x331 build/default/production/_ext/1827571544/plib_systick.o
 .debug_loc     0x000000000000a6a7       0x75 build/default/production/_ext/60181570/plib_tcc0.o
 .debug_loc     0x000000000000a71c      0xd39 build/default/production/_ext/1832805299/sys_console.o
 .debug_loc     0x000000000000b455      0x9f9 build/default/production/_ext/1832805299/sys_console_uart.o
 .debug_loc     0x000000000000be4e      0x182 build/default/production/_ext/1881668453/sys_int.o
 .debug_loc     0x000000000000bfd0     0x1e3e build/default/production/_ext/101884895/sys_time.o
 .debug_loc     0x000000000000de0e       0x4a build/default/production/_ext/1171490990/startup_xc32.o
 .debug_loc     0x000000000000de58       0x45 build/default/production/_ext/1171490990/initialization.o
 .debug_loc     0x000000000000de9d       0x20 build/default/production/_ext/1360937237/main.o
 .debug_loc     0x000000000000debd       0x16 build/default/production/_ext/1360937237/console_driver.o
 .debug_loc     0x000000000000ded3      0xf04 build/default/production/_ext/1360937237/hdc302x_driver.o
 .debug_loc     0x000000000000edd7      0x253 build/default/production/_ext/1360937237/sht4x_driver.o
 .debug_loc     0x000000000000f02a       0x16 build/default/production/_ext/1360937237/rtc_driver.o
 .debug_loc     0x000000000000f040      0x120 build/default/production/_ext/1360937237/timer_driver.o
 .debug_loc     0x000000000000f160       0x16 build/default/production/_ext/1360937237/can0_driver.o
 .debug_loc     0x000000000000f176      0x313 build/default/production/_ext/1360937237/bme690_driver.o
 .debug_loc     0x000000000000f489       0x16 build/default/production/_ext/1360937237/rstc_driver.o
 .debug_loc     0x000000000000f49f       0x14 c:/applications/microchip/xc32/bin/bin/../../lib/gcc/pic32c/8.3.1/../../../../pic32c/lib/thumb/v8-m.main+fp/hard\libpic32c.a(data_init.o)
 .debug_loc     0x000000000000f4b3       0x7d c:/applications/microchip/xc32/bin/bin/../../lib/gcc/pic32c/8.3.1/../../../../pic32c/lib/thumb/v8-m.main+fp/hard\libc-size-musl.a(memset.o)
 .debug_loc     0x000000000000f530       0x51 c:/applications/microchip/xc32/bin/bin/../../lib/gcc/pic32c/8.3.1/../../../../pic32c/lib/thumb/v8-m.main+fp/hard\libc-musl.a(__libc_start_main.o)
 .debug_loc     0x000000000000f581       0x14 c:/applications/microchip/xc32/bin/bin/../../lib/gcc/pic32c/8.3.1/../../../../pic32c/lib/thumb/v8-m.main+fp/hard\libpic32c.a(pic32_data_init_copy.o)

.debug_aranges  0x0000000000000000     0x13e0
 .debug_aranges
                0x0000000000000000       0xc0 build/default/production/_ext/158385033/drv_i2c.o
 .debug_aranges
                0x00000000000000c0       0x98 build/default/production/_ext/2070931557/drv_spi.o
 .debug_aranges
                0x0000000000000158      0x100 build/default/production/_ext/869808652/drv_usart.o
 .debug_aranges
                0x0000000000000258       0x50 build/default/production/_ext/829343244/plib_ac.o
 .debug_aranges
                0x00000000000002a8       0xa0 build/default/production/_ext/60165182/plib_can0.o
 .debug_aranges
                0x0000000000000348       0x20 build/default/production/_ext/60165242/plib_ccl.o
 .debug_aranges
                0x0000000000000368       0x20 build/default/production/_ext/1984496892/plib_clock.o
 .debug_aranges
                0x0000000000000388       0x20 build/default/production/_ext/60167341/plib_eic.o
 .debug_aranges
                0x00000000000003a8       0x20 build/default/production/_ext/1986646378/plib_evsys.o
 .debug_aranges
                0x00000000000003c8       0x40 build/default/production/_ext/1987437027/plib_freqm.o
 .debug_aranges
                0x0000000000000408       0x48 build/default/production/_ext/1865468468/plib_nvic.o
 .debug_aranges
                0x0000000000000450       0x50 build/default/production/_ext/1865510628/plib_pdec.o
 .debug_aranges
                0x00000000000004a0       0x58 build/default/production/_ext/829342769/plib_pm.o
 .debug_aranges
                0x00000000000004f8       0x68 build/default/production/_ext/1865521619/plib_port.o
 .debug_aranges
                0x0000000000000560       0xa0 build/default/production/_ext/60180175/plib_rtc_timer.o
 .debug_aranges
                0x0000000000000600       0x78 build/default/production/_ext/508257091/plib_sercom0_i2c_master.o
 .debug_aranges
                0x0000000000000678       0x60 build/default/production/_ext/17022449/plib_sercom1_spi_master.o
 .debug_aranges
                0x00000000000006d8       0xe8 build/default/production/_ext/504274921/plib_sercom3_usart.o
 .debug_aranges
                0x00000000000007c0       0xe0 build/default/production/_ext/504274921/plib_sercom2_usart.o
 .debug_aranges
                0x00000000000008a0       0x30 build/default/production/_ext/1865616679/plib_supc.o
 .debug_aranges
                0x00000000000008d0       0x98 build/default/production/_ext/1827571544/plib_systick.o
 .debug_aranges
                0x0000000000000968       0x78 build/default/production/_ext/60181570/plib_tcc0.o
 .debug_aranges
                0x00000000000009e0       0x28 build/default/production/_ext/1865643529/plib_trng.o
 .debug_aranges
                0x0000000000000a08       0x88 build/default/production/_ext/1832805299/sys_console.o
 .debug_aranges
                0x0000000000000a90       0x68 build/default/production/_ext/1832805299/sys_console_uart.o
 .debug_aranges
                0x0000000000000af8       0x40 build/default/production/_ext/1881668453/sys_int.o
 .debug_aranges
                0x0000000000000b38      0x108 build/default/production/_ext/101884895/sys_time.o
 .debug_aranges
                0x0000000000000c40       0x28 build/default/production/_ext/1171490990/startup_xc32.o
 .debug_aranges
                0x0000000000000c68       0x20 build/default/production/_ext/1171490990/initialization.o
 .debug_aranges
                0x0000000000000c88       0x28 build/default/production/_ext/1171490990/exceptions.o
 .debug_aranges
                0x0000000000000cb0       0x20 build/default/production/_ext/1171490990/tasks.o
 .debug_aranges
                0x0000000000000cd0       0x20 build/default/production/_ext/1171490990/interrupts.o
 .debug_aranges
                0x0000000000000cf0       0x20 build/default/production/_ext/1360937237/main.o
 .debug_aranges
                0x0000000000000d10       0x28 build/default/production/_ext/1360937237/console_driver.o
 .debug_aranges
                0x0000000000000d38       0x20 build/default/production/_ext/1360937237/mcp9808_driver.o
 .debug_aranges
                0x0000000000000d58      0x1e0 build/default/production/_ext/1360937237/hdc302x_driver.o
 .debug_aranges
                0x0000000000000f38       0x90 build/default/production/_ext/1360937237/sht4x_driver.o
 .debug_aranges
                0x0000000000000fc8       0x28 build/default/production/_ext/1360937237/rtc_driver.o
 .debug_aranges
                0x0000000000000ff0       0xc0 build/default/production/_ext/1360937237/timer_driver.o
 .debug_aranges
                0x00000000000010b0       0x28 build/default/production/_ext/1360937237/can0_driver.o
 .debug_aranges
                0x00000000000010d8      0x1d8 build/default/production/_ext/1360937237/bme690_driver.o
 .debug_aranges
                0x00000000000012b0       0x28 build/default/production/_ext/1360937237/rstc_driver.o
 .debug_aranges
                0x00000000000012d8       0x20 build/default/production/_ext/1360937237/lc709204f_driver.o
 .debug_aranges
                0x00000000000012f8       0x30 c:/applications/microchip/xc32/bin/bin/../../lib/gcc/pic32c/8.3.1/../../../../pic32c/lib/thumb/v8-m.main+fp/hard\libpic32c.a(data_init.o)
 .debug_aranges
                0x0000000000001328       0x20 c:/applications/microchip/xc32/bin/bin/../../lib/gcc/pic32c/8.3.1/../../../../pic32c/lib/thumb/v8-m.main+fp/hard\libc-size-musl.a(memset.o)
 .debug_aranges
                0x0000000000001348       0x28 c:/applications/microchip/xc32/bin/bin/../../lib/gcc/pic32c/8.3.1/../../../../pic32c/lib/thumb/v8-m.main+fp/hard\libc-musl.a(__libc_start_main.o)
 .debug_aranges
                0x0000000000001370       0x18 c:/applications/microchip/xc32/bin/bin/../../lib/gcc/pic32c/8.3.1/../../../../pic32c/lib/thumb/v8-m.main+fp/hard\libc-musl.a(libc.o)
 .debug_aranges
                0x0000000000001388       0x18 c:/applications/microchip/xc32/bin/bin/../../lib/gcc/pic32c/8.3.1/../../../../pic32c/lib/thumb/v8-m.main+fp/hard\libc-musl.a(__environ.o)
 .debug_aranges
                0x00000000000013a0       0x20 c:/applications/microchip/xc32/bin/bin/../../lib/gcc/pic32c/8.3.1/../../../../pic32c/lib/thumb/v8-m.main+fp/hard\libpic32c.a(pic32_data_init_clear.o)
 .debug_aranges
                0x00000000000013c0       0x20 c:/applications/microchip/xc32/bin/bin/../../lib/gcc/pic32c/8.3.1/../../../../pic32c/lib/thumb/v8-m.main+fp/hard\libpic32c.a(pic32_data_init_copy.o)

.debug_ranges   0x0000000000000000     0x1730
 .debug_ranges  0x0000000000000000      0x140 build/default/production/_ext/158385033/drv_i2c.o
 .debug_ranges  0x0000000000000140      0x180 build/default/production/_ext/2070931557/drv_spi.o
 .debug_ranges  0x00000000000002c0      0x1d0 build/default/production/_ext/869808652/drv_usart.o
 .debug_ranges  0x0000000000000490       0x40 build/default/production/_ext/829343244/plib_ac.o
 .debug_ranges  0x00000000000004d0       0x90 build/default/production/_ext/60165182/plib_can0.o
 .debug_ranges  0x0000000000000560       0x10 build/default/production/_ext/60165242/plib_ccl.o
 .debug_ranges  0x0000000000000570       0x10 build/default/production/_ext/1984496892/plib_clock.o
 .debug_ranges  0x0000000000000580       0x10 build/default/production/_ext/60167341/plib_eic.o
 .debug_ranges  0x0000000000000590       0x10 build/default/production/_ext/1986646378/plib_evsys.o
 .debug_ranges  0x00000000000005a0       0x30 build/default/production/_ext/1987437027/plib_freqm.o
 .debug_ranges  0x00000000000005d0       0x38 build/default/production/_ext/1865468468/plib_nvic.o
 .debug_ranges  0x0000000000000608       0x40 build/default/production/_ext/1865510628/plib_pdec.o
 .debug_ranges  0x0000000000000648       0x48 build/default/production/_ext/829342769/plib_pm.o
 .debug_ranges  0x0000000000000690       0x58 build/default/production/_ext/1865521619/plib_port.o
 .debug_ranges  0x00000000000006e8       0x90 build/default/production/_ext/60180175/plib_rtc_timer.o
 .debug_ranges  0x0000000000000778      0x130 build/default/production/_ext/508257091/plib_sercom0_i2c_master.o
 .debug_ranges  0x00000000000008a8       0x68 build/default/production/_ext/17022449/plib_sercom1_spi_master.o
 .debug_ranges  0x0000000000000910      0x1d0 build/default/production/_ext/504274921/plib_sercom3_usart.o
 .debug_ranges  0x0000000000000ae0      0x120 build/default/production/_ext/504274921/plib_sercom2_usart.o
 .debug_ranges  0x0000000000000c00       0x20 build/default/production/_ext/1865616679/plib_supc.o
 .debug_ranges  0x0000000000000c20       0x88 build/default/production/_ext/1827571544/plib_systick.o
 .debug_ranges  0x0000000000000ca8       0x68 build/default/production/_ext/60181570/plib_tcc0.o
 .debug_ranges  0x0000000000000d10       0x18 build/default/production/_ext/1865643529/plib_trng.o
 .debug_ranges  0x0000000000000d28       0x90 build/default/production/_ext/1832805299/sys_console.o
 .debug_ranges  0x0000000000000db8      0x1a8 build/default/production/_ext/1832805299/sys_console_uart.o
 .debug_ranges  0x0000000000000f60       0x30 build/default/production/_ext/1881668453/sys_int.o
 .debug_ranges  0x0000000000000f90      0x140 build/default/production/_ext/101884895/sys_time.o
 .debug_ranges  0x00000000000010d0       0x18 build/default/production/_ext/1171490990/startup_xc32.o
 .debug_ranges  0x00000000000010e8       0x10 build/default/production/_ext/1171490990/initialization.o
 .debug_ranges  0x00000000000010f8       0x18 build/default/production/_ext/1171490990/exceptions.o
 .debug_ranges  0x0000000000001110       0x10 build/default/production/_ext/1171490990/tasks.o
 .debug_ranges  0x0000000000001120       0x10 build/default/production/_ext/1171490990/interrupts.o
 .debug_ranges  0x0000000000001130       0x10 build/default/production/_ext/1360937237/main.o
 .debug_ranges  0x0000000000001140       0x18 build/default/production/_ext/1360937237/console_driver.o
 .debug_ranges  0x0000000000001158       0x10 build/default/production/_ext/1360937237/mcp9808_driver.o
 .debug_ranges  0x0000000000001168      0x1e8 build/default/production/_ext/1360937237/hdc302x_driver.o
 .debug_ranges  0x0000000000001350       0x80 build/default/production/_ext/1360937237/sht4x_driver.o
 .debug_ranges  0x00000000000013d0       0x18 build/default/production/_ext/1360937237/rtc_driver.o
 .debug_ranges  0x00000000000013e8       0xb0 build/default/production/_ext/1360937237/timer_driver.o
 .debug_ranges  0x0000000000001498       0x18 build/default/production/_ext/1360937237/can0_driver.o
 .debug_ranges  0x00000000000014b0      0x1c8 build/default/production/_ext/1360937237/bme690_driver.o
 .debug_ranges  0x0000000000001678       0x18 build/default/production/_ext/1360937237/rstc_driver.o
 .debug_ranges  0x0000000000001690       0x10 build/default/production/_ext/1360937237/lc709204f_driver.o
 .debug_ranges  0x00000000000016a0       0x20 c:/applications/microchip/xc32/bin/bin/../../lib/gcc/pic32c/8.3.1/../../../../pic32c/lib/thumb/v8-m.main+fp/hard\libpic32c.a(data_init.o)
 .debug_ranges  0x00000000000016c0       0x10 c:/applications/microchip/xc32/bin/bin/../../lib/gcc/pic32c/8.3.1/../../../../pic32c/lib/thumb/v8-m.main+fp/hard\libc-size-musl.a(memset.o)
 .debug_ranges  0x00000000000016d0       0x40 c:/applications/microchip/xc32/bin/bin/../../lib/gcc/pic32c/8.3.1/../../../../pic32c/lib/thumb/v8-m.main+fp/hard\libc-musl.a(__libc_start_main.o)
 .debug_ranges  0x0000000000001710       0x10 c:/applications/microchip/xc32/bin/bin/../../lib/gcc/pic32c/8.3.1/../../../../pic32c/lib/thumb/v8-m.main+fp/hard\libpic32c.a(pic32_data_init_clear.o)
 .debug_ranges  0x0000000000001720       0x10 c:/applications/microchip/xc32/bin/bin/../../lib/gcc/pic32c/8.3.1/../../../../pic32c/lib/thumb/v8-m.main+fp/hard\libpic32c.a(pic32_data_init_copy.o)

.debug_line     0x0000000000000000     0xd690
 .debug_line    0x0000000000000000      0xf5a build/default/production/_ext/158385033/drv_i2c.o
 .debug_line    0x0000000000000f5a     0x10bf build/default/production/_ext/2070931557/drv_spi.o
 .debug_line    0x0000000000002019     0x11dd build/default/production/_ext/869808652/drv_usart.o
 .debug_line    0x00000000000031f6      0x2fb build/default/production/_ext/829343244/plib_ac.o
 .debug_line    0x00000000000034f1      0x79a build/default/production/_ext/60165182/plib_can0.o
 .debug_line    0x0000000000003c8b      0x129 build/default/production/_ext/60165242/plib_ccl.o
 .debug_line    0x0000000000003db4      0x2dc build/default/production/_ext/1984496892/plib_clock.o
 .debug_line    0x0000000000004090      0x126 build/default/production/_ext/60167341/plib_eic.o
 .debug_line    0x00000000000041b6       0x66 build/default/production/_ext/1986646378/plib_evsys.o
 .debug_line    0x000000000000421c      0x1d9 build/default/production/_ext/1987437027/plib_freqm.o
 .debug_line    0x00000000000043f5      0x984 build/default/production/_ext/1865468468/plib_nvic.o
 .debug_line    0x0000000000004d79      0x2bf build/default/production/_ext/1865510628/plib_pdec.o
 .debug_line    0x0000000000005038      0x203 build/default/production/_ext/829342769/plib_pm.o
 .debug_line    0x000000000000523b      0x280 build/default/production/_ext/1865521619/plib_port.o
 .debug_line    0x00000000000054bb      0x3f1 build/default/production/_ext/60180175/plib_rtc_timer.o
 .debug_line    0x00000000000058ac      0x8fc build/default/production/_ext/508257091/plib_sercom0_i2c_master.o
 .debug_line    0x00000000000061a8      0x791 build/default/production/_ext/17022449/plib_sercom1_spi_master.o
 .debug_line    0x0000000000006939      0xcf1 build/default/production/_ext/504274921/plib_sercom3_usart.o
 .debug_line    0x000000000000762a      0x9b5 build/default/production/_ext/504274921/plib_sercom2_usart.o
 .debug_line    0x0000000000007fdf      0x173 build/default/production/_ext/1865616679/plib_supc.o
 .debug_line    0x0000000000008152      0x41b build/default/production/_ext/1827571544/plib_systick.o
 .debug_line    0x000000000000856d      0x342 build/default/production/_ext/60181570/plib_tcc0.o
 .debug_line    0x00000000000088af      0x11f build/default/production/_ext/1865643529/plib_trng.o
 .debug_line    0x00000000000089ce      0x642 build/default/production/_ext/1832805299/sys_console.o
 .debug_line    0x0000000000009010      0x60b build/default/production/_ext/1832805299/sys_console_uart.o
 .debug_line    0x000000000000961b      0x2c7 build/default/production/_ext/1881668453/sys_int.o
 .debug_line    0x00000000000098e2      0xe49 build/default/production/_ext/101884895/sys_time.o
 .debug_line    0x000000000000a72b      0x23f build/default/production/_ext/1171490990/startup_xc32.o
 .debug_line    0x000000000000a96a      0x93c build/default/production/_ext/1171490990/initialization.o
 .debug_line    0x000000000000b2a6       0x6f build/default/production/_ext/1171490990/exceptions.o
 .debug_line    0x000000000000b315       0x53 build/default/production/_ext/1171490990/tasks.o
 .debug_line    0x000000000000b368       0xe3 build/default/production/_ext/1171490990/interrupts.o
 .debug_line    0x000000000000b44b       0x6d build/default/production/_ext/1360937237/main.o
 .debug_line    0x000000000000b4b8       0x96 build/default/production/_ext/1360937237/console_driver.o
 .debug_line    0x000000000000b54e       0x5f build/default/production/_ext/1360937237/mcp9808_driver.o
 .debug_line    0x000000000000b5ad      0xba4 build/default/production/_ext/1360937237/hdc302x_driver.o
 .debug_line    0x000000000000c151      0x374 build/default/production/_ext/1360937237/sht4x_driver.o
 .debug_line    0x000000000000c4c5       0x8e build/default/production/_ext/1360937237/rtc_driver.o
 .debug_line    0x000000000000c553      0x381 build/default/production/_ext/1360937237/timer_driver.o
 .debug_line    0x000000000000c8d4       0x90 build/default/production/_ext/1360937237/can0_driver.o
 .debug_line    0x000000000000c964      0x64e build/default/production/_ext/1360937237/bme690_driver.o
 .debug_line    0x000000000000cfb2       0x90 build/default/production/_ext/1360937237/rstc_driver.o
 .debug_line    0x000000000000d042       0x63 build/default/production/_ext/1360937237/lc709204f_driver.o
 .debug_line    0x000000000000d0a5       0xa7 c:/applications/microchip/xc32/bin/bin/../../lib/gcc/pic32c/8.3.1/../../../../pic32c/lib/thumb/v8-m.main+fp/hard\libpic32c.a(data_init.o)
 .debug_line    0x000000000000d14c       0xe3 c:/applications/microchip/xc32/bin/bin/../../lib/gcc/pic32c/8.3.1/../../../../pic32c/lib/thumb/v8-m.main+fp/hard\libc-size-musl.a(memset.o)
 .debug_line    0x000000000000d22f      0x1c0 c:/applications/microchip/xc32/bin/bin/../../lib/gcc/pic32c/8.3.1/../../../../pic32c/lib/thumb/v8-m.main+fp/hard\libc-musl.a(__libc_start_main.o)
 .debug_line    0x000000000000d3ef       0xb5 c:/applications/microchip/xc32/bin/bin/../../lib/gcc/pic32c/8.3.1/../../../../pic32c/lib/thumb/v8-m.main+fp/hard\libc-musl.a(libc.o)
 .debug_line    0x000000000000d4a4       0xfb c:/applications/microchip/xc32/bin/bin/../../lib/gcc/pic32c/8.3.1/../../../../pic32c/lib/thumb/v8-m.main+fp/hard\libc-musl.a(__environ.o)
 .debug_line    0x000000000000d59f       0x72 c:/applications/microchip/xc32/bin/bin/../../lib/gcc/pic32c/8.3.1/../../../../pic32c/lib/thumb/v8-m.main+fp/hard\libpic32c.a(pic32_data_init_clear.o)
 .debug_line    0x000000000000d611       0x7f c:/applications/microchip/xc32/bin/bin/../../lib/gcc/pic32c/8.3.1/../../../../pic32c/lib/thumb/v8-m.main+fp/hard\libpic32c.a(pic32_data_init_copy.o)

.debug_str      0x0000000000000000    0x1c28a
 .debug_str     0x0000000000000000     0x19b1 build/default/production/_ext/158385033/drv_i2c.o
 .debug_str     0x00000000000019b1     0x22b3 build/default/production/_ext/2070931557/drv_spi.o
 .debug_str     0x0000000000003c64     0x1d89 build/default/production/_ext/869808652/drv_usart.o
 .debug_str     0x00000000000059ed      0x5c6 build/default/production/_ext/829343244/plib_ac.o
 .debug_str     0x0000000000005fb3      0xe5f build/default/production/_ext/60165182/plib_can0.o
 .debug_str     0x0000000000006e12      0x321 build/default/production/_ext/60165242/plib_ccl.o
 .debug_str     0x0000000000007133      0x681 build/default/production/_ext/1984496892/plib_clock.o
 .debug_str     0x00000000000077b4      0x3b8 build/default/production/_ext/60167341/plib_eic.o
 .debug_str     0x0000000000007b6c      0x2dd build/default/production/_ext/1986646378/plib_evsys.o
 .debug_str     0x0000000000007e49      0x465 build/default/production/_ext/1987437027/plib_freqm.o
 .debug_str     0x00000000000082ae      0xf95 build/default/production/_ext/1865468468/plib_nvic.o
 .debug_str     0x0000000000009243      0x497 build/default/production/_ext/1865510628/plib_pdec.o
 .debug_str     0x00000000000096da      0x3d3 build/default/production/_ext/829342769/plib_pm.o
 .debug_str     0x0000000000009aad      0x8ac build/default/production/_ext/1865521619/plib_port.o
 .debug_str     0x000000000000a359      0x6ba build/default/production/_ext/60180175/plib_rtc_timer.o
 .debug_str     0x000000000000aa13      0x9a5 build/default/production/_ext/508257091/plib_sercom0_i2c_master.o
 .debug_str     0x000000000000b3b8      0x85b build/default/production/_ext/17022449/plib_sercom1_spi_master.o
 .debug_str     0x000000000000bc13      0xdf9 build/default/production/_ext/504274921/plib_sercom3_usart.o
 .debug_str     0x000000000000ca0c      0xacb build/default/production/_ext/504274921/plib_sercom2_usart.o
 .debug_str     0x000000000000d4d7      0x3d8 build/default/production/_ext/1865616679/plib_supc.o
 .debug_str     0x000000000000d8af      0x51d build/default/production/_ext/1827571544/plib_systick.o
 .debug_str     0x000000000000ddcc      0x635 build/default/production/_ext/60181570/plib_tcc0.o
 .debug_str     0x000000000000e401      0x372 build/default/production/_ext/1865643529/plib_trng.o
 .debug_str     0x000000000000e773      0xa6b build/default/production/_ext/1832805299/sys_console.o
 .debug_str     0x000000000000f1de      0xb1d build/default/production/_ext/1832805299/sys_console_uart.o
 .debug_str     0x000000000000fcfb      0xe25 build/default/production/_ext/1881668453/sys_int.o
 .debug_str     0x0000000000010b20     0x15b7 build/default/production/_ext/101884895/sys_time.o
 .debug_str     0x00000000000120d7      0x544 build/default/production/_ext/1171490990/startup_xc32.o
 .debug_str     0x000000000001261b     0x2e8f build/default/production/_ext/1171490990/initialization.o
 .debug_str     0x00000000000154aa      0x2f0 build/default/production/_ext/1171490990/exceptions.o
 .debug_str     0x000000000001579a      0x2cc build/default/production/_ext/1171490990/tasks.o
 .debug_str     0x0000000000015a66     0x11a0 build/default/production/_ext/1171490990/interrupts.o
 .debug_str     0x0000000000016c06      0x2d0 build/default/production/_ext/1360937237/main.o
 .debug_str     0x0000000000016ed6      0x374 build/default/production/_ext/1360937237/console_driver.o
 .debug_str     0x000000000001724a      0x2f1 build/default/production/_ext/1360937237/mcp9808_driver.o
 .debug_str     0x000000000001753b     0x112b build/default/production/_ext/1360937237/hdc302x_driver.o
 .debug_str     0x0000000000018666      0x828 build/default/production/_ext/1360937237/sht4x_driver.o
 .debug_str     0x0000000000018e8e      0x354 build/default/production/_ext/1360937237/rtc_driver.o
 .debug_str     0x00000000000191e2      0x66e build/default/production/_ext/1360937237/timer_driver.o
 .debug_str     0x0000000000019850      0x35c build/default/production/_ext/1360937237/can0_driver.o
 .debug_str     0x0000000000019bac      0xf06 build/default/production/_ext/1360937237/bme690_driver.o
 .debug_str     0x000000000001aab2      0x35c build/default/production/_ext/1360937237/rstc_driver.o
 .debug_str     0x000000000001ae0e      0x2f9 build/default/production/_ext/1360937237/lc709204f_driver.o
 .debug_str     0x000000000001b107      0x212 c:/applications/microchip/xc32/bin/bin/../../lib/gcc/pic32c/8.3.1/../../../../pic32c/lib/thumb/v8-m.main+fp/hard\libpic32c.a(data_init.o)
 .debug_str     0x000000000001b319      0x227 c:/applications/microchip/xc32/bin/bin/../../lib/gcc/pic32c/8.3.1/../../../../pic32c/lib/thumb/v8-m.main+fp/hard\libc-size-musl.a(memset.o)
 .debug_str     0x000000000001b540      0x3e0 c:/applications/microchip/xc32/bin/bin/../../lib/gcc/pic32c/8.3.1/../../../../pic32c/lib/thumb/v8-m.main+fp/hard\libc-musl.a(__libc_start_main.o)
 .debug_str     0x000000000001b920      0x34b c:/applications/microchip/xc32/bin/bin/../../lib/gcc/pic32c/8.3.1/../../../../pic32c/lib/thumb/v8-m.main+fp/hard\libc-musl.a(libc.o)
 .debug_str     0x000000000001bc6b      0x24b c:/applications/microchip/xc32/bin/bin/../../lib/gcc/pic32c/8.3.1/../../../../pic32c/lib/thumb/v8-m.main+fp/hard\libc-musl.a(__environ.o)
 .debug_str     0x000000000001beb6      0x1eb c:/applications/microchip/xc32/bin/bin/../../lib/gcc/pic32c/8.3.1/../../../../pic32c/lib/thumb/v8-m.main+fp/hard\libpic32c.a(pic32_data_init_clear.o)
 .debug_str     0x000000000001c0a1      0x1e9 c:/applications/microchip/xc32/bin/bin/../../lib/gcc/pic32c/8.3.1/../../../../pic32c/lib/thumb/v8-m.main+fp/hard\libpic32c.a(pic32_data_init_copy.o)

.debug_frame    0x0000000000000000     0x2d40
 .debug_frame   0x0000000000000000      0x290 build/default/production/_ext/158385033/drv_i2c.o
 .debug_frame   0x0000000000000290      0x200 build/default/production/_ext/2070931557/drv_spi.o
 .debug_frame   0x0000000000000490      0x34c build/default/production/_ext/869808652/drv_usart.o
 .debug_frame   0x00000000000007dc       0x98 build/default/production/_ext/829343244/plib_ac.o
 .debug_frame   0x0000000000000874      0x190 build/default/production/_ext/60165182/plib_can0.o
 .debug_frame   0x0000000000000a04       0x20 build/default/production/_ext/60165242/plib_ccl.o
 .debug_frame   0x0000000000000a24       0x20 build/default/production/_ext/1984496892/plib_clock.o
 .debug_frame   0x0000000000000a44       0x20 build/default/production/_ext/60167341/plib_eic.o
 .debug_frame   0x0000000000000a64       0x20 build/default/production/_ext/1986646378/plib_evsys.o
 .debug_frame   0x0000000000000a84       0x60 build/default/production/_ext/1987437027/plib_freqm.o
 .debug_frame   0x0000000000000ae4       0x7c build/default/production/_ext/1865468468/plib_nvic.o
 .debug_frame   0x0000000000000b60       0x80 build/default/production/_ext/1865510628/plib_pdec.o
 .debug_frame   0x0000000000000be0       0x90 build/default/production/_ext/829342769/plib_pm.o
 .debug_frame   0x0000000000000c70       0xc8 build/default/production/_ext/1865521619/plib_port.o
 .debug_frame   0x0000000000000d38      0x128 build/default/production/_ext/60180175/plib_rtc_timer.o
 .debug_frame   0x0000000000000e60      0x10c build/default/production/_ext/508257091/plib_sercom0_i2c_master.o
 .debug_frame   0x0000000000000f6c       0xe0 build/default/production/_ext/17022449/plib_sercom1_spi_master.o
 .debug_frame   0x000000000000104c      0x238 build/default/production/_ext/504274921/plib_sercom3_usart.o
 .debug_frame   0x0000000000001284      0x200 build/default/production/_ext/504274921/plib_sercom2_usart.o
 .debug_frame   0x0000000000001484       0x40 build/default/production/_ext/1865616679/plib_supc.o
 .debug_frame   0x00000000000014c4      0x138 build/default/production/_ext/1827571544/plib_systick.o
 .debug_frame   0x00000000000015fc       0xd8 build/default/production/_ext/60181570/plib_tcc0.o
 .debug_frame   0x00000000000016d4       0x30 build/default/production/_ext/1865643529/plib_trng.o
 .debug_frame   0x0000000000001704      0x1d8 build/default/production/_ext/1832805299/sys_console.o
 .debug_frame   0x00000000000018dc       0xf8 build/default/production/_ext/1832805299/sys_console_uart.o
 .debug_frame   0x00000000000019d4       0x84 build/default/production/_ext/1881668453/sys_int.o
 .debug_frame   0x0000000000001a58      0x358 build/default/production/_ext/101884895/sys_time.o
 .debug_frame   0x0000000000001db0       0x38 build/default/production/_ext/1171490990/startup_xc32.o
 .debug_frame   0x0000000000001de8       0x28 build/default/production/_ext/1171490990/initialization.o
 .debug_frame   0x0000000000001e10       0x30 build/default/production/_ext/1171490990/exceptions.o
 .debug_frame   0x0000000000001e40       0x20 build/default/production/_ext/1171490990/tasks.o
 .debug_frame   0x0000000000001e60       0x20 build/default/production/_ext/1171490990/interrupts.o
 .debug_frame   0x0000000000001e80       0x28 build/default/production/_ext/1360937237/main.o
 .debug_frame   0x0000000000001ea8       0x30 build/default/production/_ext/1360937237/console_driver.o
 .debug_frame   0x0000000000001ed8       0x20 build/default/production/_ext/1360937237/mcp9808_driver.o
 .debug_frame   0x0000000000001ef8      0x594 build/default/production/_ext/1360937237/hdc302x_driver.o
 .debug_frame   0x000000000000248c      0x154 build/default/production/_ext/1360937237/sht4x_driver.o
 .debug_frame   0x00000000000025e0       0x30 build/default/production/_ext/1360937237/rtc_driver.o
 .debug_frame   0x0000000000002610      0x1ac build/default/production/_ext/1360937237/timer_driver.o
 .debug_frame   0x00000000000027bc       0x30 build/default/production/_ext/1360937237/can0_driver.o
 .debug_frame   0x00000000000027ec      0x414 build/default/production/_ext/1360937237/bme690_driver.o
 .debug_frame   0x0000000000002c00       0x30 build/default/production/_ext/1360937237/rstc_driver.o
 .debug_frame   0x0000000000002c30       0x20 build/default/production/_ext/1360937237/lc709204f_driver.o
 .debug_frame   0x0000000000002c50       0x4c c:/applications/microchip/xc32/bin/bin/../../lib/gcc/pic32c/8.3.1/../../../../pic32c/lib/thumb/v8-m.main+fp/hard\libpic32c.a(data_init.o)
 .debug_frame   0x0000000000002c9c       0x20 c:/applications/microchip/xc32/bin/bin/../../lib/gcc/pic32c/8.3.1/../../../../pic32c/lib/thumb/v8-m.main+fp/hard\libc-size-musl.a(memset.o)
 .debug_frame   0x0000000000002cbc       0x3c c:/applications/microchip/xc32/bin/bin/../../lib/gcc/pic32c/8.3.1/../../../../pic32c/lib/thumb/v8-m.main+fp/hard\libc-musl.a(__libc_start_main.o)
 .debug_frame   0x0000000000002cf8       0x20 c:/applications/microchip/xc32/bin/bin/../../lib/gcc/pic32c/8.3.1/../../../../pic32c/lib/thumb/v8-m.main+fp/hard\libpic32c.a(pic32_data_init_clear.o)
 .debug_frame   0x0000000000002d18       0x28 c:/applications/microchip/xc32/bin/bin/../../lib/gcc/pic32c/8.3.1/../../../../pic32c/lib/thumb/v8-m.main+fp/hard\libpic32c.a(pic32_data_init_copy.o)

.note.GNU-stack
                0x0000000000000000        0x0
 .note.GNU-stack
                0x0000000000000000        0x0 c:/applications/microchip/xc32/bin/bin/../../lib/gcc/pic32c/8.3.1/../../../../pic32c/lib/thumb/v8-m.main+fp/hard\libc-size-musl.a(memset.o)
 .note.GNU-stack
                0x0000000000000000        0x0 c:/applications/microchip/xc32/bin/bin/../../lib/gcc/pic32c/8.3.1/../../../../pic32c/lib/thumb/v8-m.main+fp/hard\libc-musl.a(__libc_start_main.o)
 .note.GNU-stack
                0x0000000000000000        0x0 c:/applications/microchip/xc32/bin/bin/../../lib/gcc/pic32c/8.3.1/../../../../pic32c/lib/thumb/v8-m.main+fp/hard\libc-musl.a(libc.o)
 .note.GNU-stack
                0x0000000000000000        0x0 c:/applications/microchip/xc32/bin/bin/../../lib/gcc/pic32c/8.3.1/../../../../pic32c/lib/thumb/v8-m.main+fp/hard\libc-musl.a(__environ.o)

.stack          0x0000000020021900      0x100
 .stack         0x0000000020021900      0x100 stack

.bss.SERCOM3_USART_ReadBuffer%1
                0x0000000020000000     0xffff
 .bss.SERCOM3_USART_ReadBuffer
                0x0000000020000000     0xffff build/default/production/_ext/504274921/plib_sercom3_usart.o

.bss.SERCOM3_USART_WriteBuffer%2
                0x0000000020010000     0xffff
 .bss.SERCOM3_USART_WriteBuffer
                0x0000000020010000     0xffff build/default/production/_ext/504274921/plib_sercom3_usart.o

.bss.drvI2C0TransferObj%3
                0x0000000020020000      0xb00
 .bss.drvI2C0TransferObj
                0x0000000020020000      0xb00 build/default/production/_ext/1171490990/initialization.o

.bss.timers%4   0x0000000020020b00      0x640
 .bss.timers    0x0000000020020b00      0x640 build/default/production/_ext/101884895/sys_time.o

.bss.drvI2C0ClientObjPool%5
                0x0000000020021140       0xf0
 .bss.drvI2C0ClientObjPool
                0x0000000020021140       0xf0 build/default/production/_ext/1171490990/initialization.o

.bss.drvUSART0BufferObjPool%6
                0x0000000020021230       0xb4
 .bss.drvUSART0BufferObjPool
                0x0000000020021230       0xb4 build/default/production/_ext/1171490990/initialization.o

.bss.drvSPI0TransferObjPool%7
                0x00000000200212e4       0x90
 .bss.drvSPI0TransferObjPool
                0x00000000200212e4       0x90 build/default/production/_ext/1171490990/initialization.o

.bss.gDrvSPIObj%8
                0x0000000020021374       0x54
 .bss.gDrvSPIObj
                0x0000000020021374       0x54 build/default/production/_ext/2070931557/drv_spi.o

.bss%9          0x00000000200213c8       0x50
 .bss           0x00000000200213c8       0x50 c:/applications/microchip/xc32/bin/bin/../../lib/gcc/pic32c/8.3.1/../../../../pic32c/lib/thumb/v8-m.main+fp/hard\libc-musl.a(libc.o)
                0x00000000200213c8                __progname_full
                0x00000000200213c8                program_invocation_name
                0x00000000200213cc                program_invocation_short_name
                0x00000000200213cc                __progname
                0x00000000200213d0                __sysinfo
                0x00000000200213d4                __hwcap
                0x00000000200213d8                __libc

.bss.gDrvUSARTObj%10
                0x0000000020021418       0x4c
 .bss.gDrvUSARTObj
                0x0000000020021418       0x4c build/default/production/_ext/869808652/drv_usart.o

.bss.sercom3USARTObj%11
                0x0000000020021464       0x40
 .bss.sercom3USARTObj
                0x0000000020021464       0x40 build/default/production/_ext/504274921/plib_sercom3_usart.o

.bss.gDrvI2CObj%12
                0x00000000200214a4       0x3c
 .bss.gDrvI2CObj
                0x00000000200214a4       0x3c build/default/production/_ext/158385033/drv_i2c.o

.bss.sercom2USARTObj%13
                0x00000000200214e0       0x30
 .bss.sercom2USARTObj
                0x00000000200214e0       0x30 build/default/production/_ext/504274921/plib_sercom2_usart.o

.bss.gSystemCounterObj%14
                0x0000000020021510       0x30
 .bss.gSystemCounterObj
                0x0000000020021510       0x30 build/default/production/_ext/101884895/sys_time.o

.bss.sercom0I2CObj%15
                0x0000000020021540       0x2c
 .bss.sercom0I2CObj
                0x0000000020021540       0x2c build/default/production/_ext/508257091/plib_sercom0_i2c_master.o

.bss.sercom1SPIObj%16
                0x000000002002156c       0x2c
 .bss.sercom1SPIObj
                0x000000002002156c       0x2c build/default/production/_ext/17022449/plib_sercom1_spi_master.o

.bss.drvSPI0ClientObjPool%17
                0x0000000020021598       0x28
 .bss.drvSPI0ClientObjPool
                0x0000000020021598       0x28 build/default/production/_ext/1171490990/initialization.o

.bss.hdc302x_driverData%18
                0x00000000200215c0       0x28
 .bss.hdc302x_driverData
                0x00000000200215c0       0x28 build/default/production/_ext/1360937237/hdc302x_driver.o
                0x00000000200215c0                hdc302x_driverData

.bss.sht4x_driverData%19
                0x00000000200215e8       0x28
 .bss.sht4x_driverData
                0x00000000200215e8       0x28 build/default/production/_ext/1360937237/sht4x_driver.o
                0x00000000200215e8                sht4x_driverData

.bss%20         0x0000000020021610       0x1c
 .bss           0x0000000020021610       0x1c c:/applications/microchip/xc32/bin/bin/../../lib/gcc/pic32c/8.3.1/thumb/v8-m.main+fp/hard/crtbegin.o

.bss.can0Obj%21
                0x000000002002162c       0x1c
 .bss.can0Obj   0x000000002002162c       0x1c build/default/production/_ext/60165182/plib_can0.o

.bss.bme690_driverData%22
                0x0000000020021648       0x1c
 .bss.bme690_driverData
                0x0000000020021648       0x1c build/default/production/_ext/1360937237/bme690_driver.o
                0x0000000020021648                bme690_driverData

.bss.sysObj%23  0x0000000020021664       0x14
 .bss.sysObj    0x0000000020021664       0x14 build/default/production/_ext/1171490990/initialization.o
                0x0000000020021664                sysObj

.bss.timer_driverData%24
                0x0000000020021678       0x14
 .bss.timer_driverData
                0x0000000020021678       0x14 build/default/production/_ext/1360937237/timer_driver.o
                0x0000000020021678                timer_driverData

.bss.drvUSART0ClientObjPool%25
                0x000000002002168c       0x10
 .bss.drvUSART0ClientObjPool
                0x000000002002168c       0x10 build/default/production/_ext/1171490990/initialization.o

.bss.rtcObj%26  0x000000002002169c        0xc
 .bss.rtcObj    0x000000002002169c        0xc build/default/production/_ext/60180175/plib_rtc_timer.o

.bss.systick%27
                0x00000000200216a8        0xc
 .bss.systick   0x00000000200216a8        0xc build/default/production/_ext/1827571544/plib_systick.o

.bss.consoleDeviceInstance%28
                0x00000000200216b4        0xc
 .bss.consoleDeviceInstance
                0x00000000200216b4        0xc build/default/production/_ext/1832805299/sys_console.o

.bss.TCC0_CallbackObject%29
                0x00000000200216c0        0x8
 .bss.TCC0_CallbackObject
                0x00000000200216c0        0x8 build/default/production/_ext/60181570/plib_tcc0.o

.bss.gConsoleUartData%30
                0x00000000200216c8        0x8
 .bss.gConsoleUartData
                0x00000000200216c8        0x8 build/default/production/_ext/1832805299/sys_console_uart.o

.bss%31         0x00000000200216d0        0x4
 .bss           0x00000000200216d0        0x4 c:/applications/microchip/xc32/bin/bin/../../lib/gcc/pic32c/8.3.1/../../../../pic32c/lib/thumb/v8-m.main+fp/hard\libpic32c.a(data_init.o)

.bss%32         0x00000000200216d4        0x4
 .bss           0x00000000200216d4        0x4 c:/applications/microchip/xc32/bin/bin/../../lib/gcc/pic32c/8.3.1/../../../../pic32c/lib/thumb/v8-m.main+fp/hard\libc-musl.a(__environ.o)
                0x00000000200216d4                __environ
                0x00000000200216d4                environ
                0x00000000200216d4                ___environ
                0x00000000200216d4                _environ

.bss.rstc_driverData%33
                0x00000000200216d8        0x1
 .bss.rstc_driverData
                0x00000000200216d8        0x1 build/default/production/_ext/1360937237/rstc_driver.o
                0x00000000200216d8                rstc_driverData

.bss.can0_driverData%34
                0x00000000200216dc        0x1
 .bss.can0_driverData
                0x00000000200216dc        0x1 build/default/production/_ext/1360937237/can0_driver.o
                0x00000000200216dc                can0_driverData

.bss.rtc_driverData%35
                0x00000000200216e0        0x1
 .bss.rtc_driverData
                0x00000000200216e0        0x1 build/default/production/_ext/1360937237/rtc_driver.o
                0x00000000200216e0                rtc_driverData

.bss.console_driverData%36
                0x00000000200216e4        0x1
 .bss.console_driverData
                0x00000000200216e4        0x1 build/default/production/_ext/1360937237/console_driver.o
                0x00000000200216e4                console_driverData

.bss.isLastByteTransferInProgress.8684%37
                0x000000002000ffff        0x1
 .bss.isLastByteTransferInProgress.8684
                0x000000002000ffff        0x1 build/default/production/_ext/17022449/plib_sercom1_spi_master.o

.bss.consolePrintBufferMutex%38
                0x000000002001ffff        0x1
 .bss.consolePrintBufferMutex
                0x000000002001ffff        0x1 build/default/production/_ext/1832805299/sys_console.o

.bss.isConsoleMutexCreated%39
                0x00000000200216d9        0x1
 .bss.isConsoleMutexCreated
                0x00000000200216d9        0x1 build/default/production/_ext/1832805299/sys_console.o

.data.gSysTimeTokenCount%40
                0x00000000200216da        0x2
 .data.gSysTimeTokenCount
                0x00000000200216da        0x2 build/default/production/_ext/101884895/sys_time.o

.eh_frame%z1    0x0000000000000000        0x0
 .eh_frame      0x0000000000000000        0x0 c:/applications/microchip/xc32/bin/bin/../../lib/gcc/pic32c/8.3.1/thumb/v8-m.main+fp/hard/crtbegin.o

.config_0A000000.__config_0A000000%41
                0x000000000a000000        0x4
 .config_0A000000.__config_0A000000
                0x000000000a000000        0x4 build/default/production/_ext/1171490990/initialization.o
                0x000000000a000000                __config_0A000000

.config_0A000004.__config_0A000004%42
                0x000000000a000004        0x4
 .config_0A000004.__config_0A000004
                0x000000000a000004        0x4 build/default/production/_ext/1171490990/initialization.o
                0x000000000a000004                __config_0A000004

.config_0A000008.__config_0A000008%43
                0x000000000a000008        0x4
 .config_0A000008.__config_0A000008
                0x000000000a000008        0x4 build/default/production/_ext/1171490990/initialization.o
                0x000000000a000008                __config_0A000008

.config_0A00000C.__config_0A00000C%44
                0x000000000a00000c        0x4
 .config_0A00000C.__config_0A00000C
                0x000000000a00000c        0x4 build/default/production/_ext/1171490990/initialization.o
                0x000000000a00000c                __config_0A00000C

.config_0A000010.__config_0A000010%45
                0x000000000a000010        0x4
 .config_0A000010.__config_0A000010
                0x000000000a000010        0x4 build/default/production/_ext/1171490990/initialization.o
                0x000000000a000010                __config_0A000010

.config_0A000014.__config_0A000014%46
                0x000000000a000014        0x4
 .config_0A000014.__config_0A000014
                0x000000000a000014        0x4 build/default/production/_ext/1171490990/initialization.o
                0x000000000a000014                __config_0A000014

.config_0A000018.__config_0A000018%47
                0x000000000a000018        0x4
 .config_0A000018.__config_0A000018
                0x000000000a000018        0x4 build/default/production/_ext/1171490990/initialization.o
                0x000000000a000018                __config_0A000018

.config_0A00001C.__config_0A00001C%48
                0x000000000a00001c        0x4
 .config_0A00001C.__config_0A00001C
                0x000000000a00001c        0x4 build/default/production/_ext/1171490990/initialization.o
                0x000000000a00001c                __config_0A00001C

.config_0A000020.__config_0A000020%49
                0x000000000a000020        0x4
 .config_0A000020.__config_0A000020
                0x000000000a000020        0x4 build/default/production/_ext/1171490990/initialization.o
                0x000000000a000020                __config_0A000020

.config_0A000024.__config_0A000024%50
                0x000000000a000024        0x4
 .config_0A000024.__config_0A000024
                0x000000000a000024        0x4 build/default/production/_ext/1171490990/initialization.o
                0x000000000a000024                __config_0A000024

.config_0A000028.__config_0A000028%51
                0x000000000a000028        0x4
 .config_0A000028.__config_0A000028
                0x000000000a000028        0x4 build/default/production/_ext/1171490990/initialization.o
                0x000000000a000028                __config_0A000028

.config_0A00002C.__config_0A00002C%52
                0x000000000a00002c        0x4
 .config_0A00002C.__config_0A00002C
                0x000000000a00002c        0x4 build/default/production/_ext/1171490990/initialization.o
                0x000000000a00002c                __config_0A00002C

.config_0A000030.__config_0A000030%53
                0x000000000a000030        0x4
 .config_0A000030.__config_0A000030
                0x000000000a000030        0x4 build/default/production/_ext/1171490990/initialization.o
                0x000000000a000030                __config_0A000030

.config_0A000034.__config_0A000034%54
                0x000000000a000034        0x4
 .config_0A000034.__config_0A000034
                0x000000000a000034        0x4 build/default/production/_ext/1171490990/initialization.o
                0x000000000a000034                __config_0A000034

.config_0A000038.__config_0A000038%55
                0x000000000a000038        0x4
 .config_0A000038.__config_0A000038
                0x000000000a000038        0x4 build/default/production/_ext/1171490990/initialization.o
                0x000000000a000038                __config_0A000038

.config_0A00003C.__config_0A00003C%56
                0x000000000a00003c        0x4
 .config_0A00003C.__config_0A00003C
                0x000000000a00003c        0x4 build/default/production/_ext/1171490990/initialization.o
                0x000000000a00003c                __config_0A00003C

.config_0A000040.__config_0A000040%57
                0x000000000a000040        0x4
 .config_0A000040.__config_0A000040
                0x000000000a000040        0x4 build/default/production/_ext/1171490990/initialization.o
                0x000000000a000040                __config_0A000040

.config_0A000044.__config_0A000044%58
                0x000000000a000044        0x4
 .config_0A000044.__config_0A000044
                0x000000000a000044        0x4 build/default/production/_ext/1171490990/initialization.o
                0x000000000a000044                __config_0A000044

.config_0A000048.__config_0A000048%59
                0x000000000a000048        0x4
 .config_0A000048.__config_0A000048
                0x000000000a000048        0x4 build/default/production/_ext/1171490990/initialization.o
                0x000000000a000048                __config_0A000048

.config_0A00004C.__config_0A00004C%60
                0x000000000a00004c        0x4
 .config_0A00004C.__config_0A00004C
                0x000000000a00004c        0x4 build/default/production/_ext/1171490990/initialization.o
                0x000000000a00004c                __config_0A00004C

.config_0A000054.__config_0A000054%61
                0x000000000a000054        0x4
 .config_0A000054.__config_0A000054
                0x000000000a000054        0x4 build/default/production/_ext/1171490990/initialization.o
                0x000000000a000054                __config_0A000054

.config_0A000058.__config_0A000058%62
                0x000000000a000058        0x4
 .config_0A000058.__config_0A000058
                0x000000000a000058        0x4 build/default/production/_ext/1171490990/initialization.o
                0x000000000a000058                __config_0A000058

.config_0A00005C.__config_0A00005C%63
                0x000000000a00005c        0x4
 .config_0A00005C.__config_0A00005C
                0x000000000a00005c        0x4 build/default/production/_ext/1171490990/initialization.o
                0x000000000a00005c                __config_0A00005C

.config_0A000060.__config_0A000060%64
                0x000000000a000060        0x4
 .config_0A000060.__config_0A000060
                0x000000000a000060        0x4 build/default/production/_ext/1171490990/initialization.o
                0x000000000a000060                __config_0A000060

.config_0A000064.__config_0A000064%65
                0x000000000a000064        0x4
 .config_0A000064.__config_0A000064
                0x000000000a000064        0x4 build/default/production/_ext/1171490990/initialization.o
                0x000000000a000064                __config_0A000064

.config_0A002000.__config_0A002000%66
                0x000000000a002000        0x4
 .config_0A002000.__config_0A002000
                0x000000000a002000        0x4 build/default/production/_ext/1171490990/initialization.o
                0x000000000a002000                __config_0A002000

.config_0A002004.__config_0A002004%67
                0x000000000a002004        0x4
 .config_0A002004.__config_0A002004
                0x000000000a002004        0x4 build/default/production/_ext/1171490990/initialization.o
                0x000000000a002004                __config_0A002004

.config_0A002008.__config_0A002008%68
                0x000000000a002008        0x4
 .config_0A002008.__config_0A002008
                0x000000000a002008        0x4 build/default/production/_ext/1171490990/initialization.o
                0x000000000a002008                __config_0A002008

.config_0A002020.__config_0A002020%69
                0x000000000a002020        0x4
 .config_0A002020.__config_0A002020
                0x000000000a002020        0x4 build/default/production/_ext/1171490990/initialization.o
                0x000000000a002020                __config_0A002020

.config_0A002024.__config_0A002024%70
                0x000000000a002024        0x4
 .config_0A002024.__config_0A002024
                0x000000000a002024        0x4 build/default/production/_ext/1171490990/initialization.o
                0x000000000a002024                __config_0A002024

.config_0A002028.__config_0A002028%71
                0x000000000a002028        0x4
 .config_0A002028.__config_0A002028
                0x000000000a002028        0x4 build/default/production/_ext/1171490990/initialization.o
                0x000000000a002028                __config_0A002028

.config_0A00202C.__config_0A00202C%72
                0x000000000a00202c        0x4
 .config_0A00202C.__config_0A00202C
                0x000000000a00202c        0x4 build/default/production/_ext/1171490990/initialization.o
                0x000000000a00202c                __config_0A00202C

.config_0A002030.__config_0A002030%73
                0x000000000a002030        0x4
 .config_0A002030.__config_0A002030
                0x000000000a002030        0x4 build/default/production/_ext/1171490990/initialization.o
                0x000000000a002030                __config_0A002030

.config_0A002034.__config_0A002034%74
                0x000000000a002034        0x4
 .config_0A002034.__config_0A002034
                0x000000000a002034        0x4 build/default/production/_ext/1171490990/initialization.o
                0x000000000a002034                __config_0A002034

.config_0A002038.__config_0A002038%75
                0x000000000a002038        0x4
 .config_0A002038.__config_0A002038
                0x000000000a002038        0x4 build/default/production/_ext/1171490990/initialization.o
                0x000000000a002038                __config_0A002038

.config_0A00203C.__config_0A00203C%76
                0x000000000a00203c        0x4
 .config_0A00203C.__config_0A00203C
                0x000000000a00203c        0x4 build/default/production/_ext/1171490990/initialization.o
                0x000000000a00203c                __config_0A00203C

.config_0A002040.__config_0A002040%77
                0x000000000a002040        0x4
 .config_0A002040.__config_0A002040
                0x000000000a002040        0x4 build/default/production/_ext/1171490990/initialization.o
                0x000000000a002040                __config_0A002040

.config_0A002044.__config_0A002044%78
                0x000000000a002044        0x4
 .config_0A002044.__config_0A002044
                0x000000000a002044        0x4 build/default/production/_ext/1171490990/initialization.o
                0x000000000a002044                __config_0A002044

.config_0A002048.__config_0A002048%79
                0x000000000a002048        0x4
 .config_0A002048.__config_0A002048
                0x000000000a002048        0x4 build/default/production/_ext/1171490990/initialization.o
                0x000000000a002048                __config_0A002048

.config_0A00204C.__config_0A00204C%80
                0x000000000a00204c        0x4
 .config_0A00204C.__config_0A00204C
                0x000000000a00204c        0x4 build/default/production/_ext/1171490990/initialization.o
                0x000000000a00204c                __config_0A00204C

.config_0A002050.__config_0A002050%81
                0x000000000a002050        0x4
 .config_0A002050.__config_0A002050
                0x000000000a002050        0x4 build/default/production/_ext/1171490990/initialization.o
                0x000000000a002050                __config_0A002050

.config_0A002054.__config_0A002054%82
                0x000000000a002054        0x4
 .config_0A002054.__config_0A002054
                0x000000000a002054        0x4 build/default/production/_ext/1171490990/initialization.o
                0x000000000a002054                __config_0A002054

.config_0A002058.__config_0A002058%83
                0x000000000a002058        0x4
 .config_0A002058.__config_0A002058
                0x000000000a002058        0x4 build/default/production/_ext/1171490990/initialization.o
                0x000000000a002058                __config_0A002058

.config_0A00205C.__config_0A00205C%84
                0x000000000a00205c        0x4
 .config_0A00205C.__config_0A00205C
                0x000000000a00205c        0x4 build/default/production/_ext/1171490990/initialization.o
                0x000000000a00205c                __config_0A00205C

.config_0A002060.__config_0A002060%85
                0x000000000a002060        0x4
 .config_0A002060.__config_0A002060
                0x000000000a002060        0x4 build/default/production/_ext/1171490990/initialization.o
                0x000000000a002060                __config_0A002060

.config_0A002064.__config_0A002064%86
                0x000000000a002064        0x4
 .config_0A002064.__config_0A002064
                0x000000000a002064        0x4 build/default/production/_ext/1171490990/initialization.o
                0x000000000a002064                __config_0A002064

.config_0A002068.__config_0A002068%87
                0x000000000a002068        0x4
 .config_0A002068.__config_0A002068
                0x000000000a002068        0x4 build/default/production/_ext/1171490990/initialization.o
                0x000000000a002068                __config_0A002068

.config_0A00206C.__config_0A00206C%88
                0x000000000a00206c        0x4
 .config_0A00206C.__config_0A00206C
                0x000000000a00206c        0x4 build/default/production/_ext/1171490990/initialization.o
                0x000000000a00206c                __config_0A00206C

.config_0A002070.__config_0A002070%89
                0x000000000a002070        0x4
 .config_0A002070.__config_0A002070
                0x000000000a002070        0x4 build/default/production/_ext/1171490990/initialization.o
                0x000000000a002070                __config_0A002070

.config_0A002074.__config_0A002074%90
                0x000000000a002074        0x4
 .config_0A002074.__config_0A002074
                0x000000000a002074        0x4 build/default/production/_ext/1171490990/initialization.o
                0x000000000a002074                __config_0A002074

.config_0A002078.__config_0A002078%91
                0x000000000a002078        0x4
 .config_0A002078.__config_0A002078
                0x000000000a002078        0x4 build/default/production/_ext/1171490990/initialization.o
                0x000000000a002078                __config_0A002078

.config_0A00207C.__config_0A00207C%92
                0x000000000a00207c        0x4
 .config_0A00207C.__config_0A00207C
                0x000000000a00207c        0x4 build/default/production/_ext/1171490990/initialization.o
                0x000000000a00207c                __config_0A00207C

.config_0A002080.__config_0A002080%93
                0x000000000a002080        0x4
 .config_0A002080.__config_0A002080
                0x000000000a002080        0x4 build/default/production/_ext/1171490990/initialization.o
                0x000000000a002080                __config_0A002080

.config_0A002084.__config_0A002084%94
                0x000000000a002084        0x4
 .config_0A002084.__config_0A002084
                0x000000000a002084        0x4 build/default/production/_ext/1171490990/initialization.o
                0x000000000a002084                __config_0A002084

.config_0A002088.__config_0A002088%95
                0x000000000a002088        0x4
 .config_0A002088.__config_0A002088
                0x000000000a002088        0x4 build/default/production/_ext/1171490990/initialization.o
                0x000000000a002088                __config_0A002088

.config_0A00208C.__config_0A00208C%96
                0x000000000a00208c        0x4
 .config_0A00208C.__config_0A00208C
                0x000000000a00208c        0x4 build/default/production/_ext/1171490990/initialization.o
                0x000000000a00208c                __config_0A00208C

.config_0A002090.__config_0A002090%97
                0x000000000a002090        0x4
 .config_0A002090.__config_0A002090
                0x000000000a002090        0x4 build/default/production/_ext/1171490990/initialization.o
                0x000000000a002090                __config_0A002090

.config_0A002094.__config_0A002094%98
                0x000000000a002094        0x4
 .config_0A002094.__config_0A002094
                0x000000000a002094        0x4 build/default/production/_ext/1171490990/initialization.o
                0x000000000a002094                __config_0A002094

.config_0A002098.__config_0A002098%99
                0x000000000a002098        0x4
 .config_0A002098.__config_0A002098
                0x000000000a002098        0x4 build/default/production/_ext/1171490990/initialization.o
                0x000000000a002098                __config_0A002098

.config_0A00209C.__config_0A00209C%100
                0x000000000a00209c        0x4
 .config_0A00209C.__config_0A00209C
                0x000000000a00209c        0x4 build/default/production/_ext/1171490990/initialization.o
                0x000000000a00209c                __config_0A00209C

.config_0A0020A0.__config_0A0020A0%101
                0x000000000a0020a0        0x4
 .config_0A0020A0.__config_0A0020A0
                0x000000000a0020a0        0x4 build/default/production/_ext/1171490990/initialization.o
                0x000000000a0020a0                __config_0A0020A0

.config_0A0020A4.__config_0A0020A4%102
                0x000000000a0020a4        0x4
 .config_0A0020A4.__config_0A0020A4
                0x000000000a0020a4        0x4 build/default/production/_ext/1171490990/initialization.o
                0x000000000a0020a4                __config_0A0020A4

.config_0A0020A8.__config_0A0020A8%103
                0x000000000a0020a8        0x4
 .config_0A0020A8.__config_0A0020A8
                0x000000000a0020a8        0x4 build/default/production/_ext/1171490990/initialization.o
                0x000000000a0020a8                __config_0A0020A8

.config_0A0020AC.__config_0A0020AC%104
                0x000000000a0020ac        0x4
 .config_0A0020AC.__config_0A0020AC
                0x000000000a0020ac        0x4 build/default/production/_ext/1171490990/initialization.o
                0x000000000a0020ac                __config_0A0020AC

.config_0A0020B0.__config_0A0020B0%105
                0x000000000a0020b0        0x4
 .config_0A0020B0.__config_0A0020B0
                0x000000000a0020b0        0x4 build/default/production/_ext/1171490990/initialization.o
                0x000000000a0020b0                __config_0A0020B0

.config_0A0020B4.__config_0A0020B4%106
                0x000000000a0020b4        0x4
 .config_0A0020B4.__config_0A0020B4
                0x000000000a0020b4        0x4 build/default/production/_ext/1171490990/initialization.o
                0x000000000a0020b4                __config_0A0020B4

.config_0A0020B8.__config_0A0020B8%107
                0x000000000a0020b8        0x4
 .config_0A0020B8.__config_0A0020B8
                0x000000000a0020b8        0x4 build/default/production/_ext/1171490990/initialization.o
                0x000000000a0020b8                __config_0A0020B8

.config_0A0020BC.__config_0A0020BC%108
                0x000000000a0020bc        0x4
 .config_0A0020BC.__config_0A0020BC
                0x000000000a0020bc        0x4 build/default/production/_ext/1171490990/initialization.o
                0x000000000a0020bc                __config_0A0020BC

.config_0A0020C0.__config_0A0020C0%109
                0x000000000a0020c0        0x4
 .config_0A0020C0.__config_0A0020C0
                0x000000000a0020c0        0x4 build/default/production/_ext/1171490990/initialization.o
                0x000000000a0020c0                __config_0A0020C0

.config_0A0020C4.__config_0A0020C4%110
                0x000000000a0020c4        0x4
 .config_0A0020C4.__config_0A0020C4
                0x000000000a0020c4        0x4 build/default/production/_ext/1171490990/initialization.o
                0x000000000a0020c4                __config_0A0020C4

.config_0A0020C8.__config_0A0020C8%111
                0x000000000a0020c8        0x4
 .config_0A0020C8.__config_0A0020C8
                0x000000000a0020c8        0x4 build/default/production/_ext/1171490990/initialization.o
                0x000000000a0020c8                __config_0A0020C8

.config_0A0020CC.__config_0A0020CC%112
                0x000000000a0020cc        0x4
 .config_0A0020CC.__config_0A0020CC
                0x000000000a0020cc        0x4 build/default/production/_ext/1171490990/initialization.o
                0x000000000a0020cc                __config_0A0020CC

.config_0A0020D0.__config_0A0020D0%113
                0x000000000a0020d0        0x4
 .config_0A0020D0.__config_0A0020D0
                0x000000000a0020d0        0x4 build/default/production/_ext/1171490990/initialization.o
                0x000000000a0020d0                __config_0A0020D0

.config_0A0020D4.__config_0A0020D4%114
                0x000000000a0020d4        0x4
 .config_0A0020D4.__config_0A0020D4
                0x000000000a0020d4        0x4 build/default/production/_ext/1171490990/initialization.o
                0x000000000a0020d4                __config_0A0020D4

.config_0A0020D8.__config_0A0020D8%115
                0x000000000a0020d8        0x4
 .config_0A0020D8.__config_0A0020D8
                0x000000000a0020d8        0x4 build/default/production/_ext/1171490990/initialization.o
                0x000000000a0020d8                __config_0A0020D8

.config_0A0020DC.__config_0A0020DC%116
                0x000000000a0020dc        0x4
 .config_0A0020DC.__config_0A0020DC
                0x000000000a0020dc        0x4 build/default/production/_ext/1171490990/initialization.o
                0x000000000a0020dc                __config_0A0020DC

.config_0A0020E0.__config_0A0020E0%117
                0x000000000a0020e0        0x4
 .config_0A0020E0.__config_0A0020E0
                0x000000000a0020e0        0x4 build/default/production/_ext/1171490990/initialization.o
                0x000000000a0020e0                __config_0A0020E0

.config_0A0020E4.__config_0A0020E4%118
                0x000000000a0020e4        0x4
 .config_0A0020E4.__config_0A0020E4
                0x000000000a0020e4        0x4 build/default/production/_ext/1171490990/initialization.o
                0x000000000a0020e4                __config_0A0020E4

.config_0A0020E8.__config_0A0020E8%119
                0x000000000a0020e8        0x4
 .config_0A0020E8.__config_0A0020E8
                0x000000000a0020e8        0x4 build/default/production/_ext/1171490990/initialization.o
                0x000000000a0020e8                __config_0A0020E8

.config_0A0020EC.__config_0A0020EC%120
                0x000000000a0020ec        0x4
 .config_0A0020EC.__config_0A0020EC
                0x000000000a0020ec        0x4 build/default/production/_ext/1171490990/initialization.o
                0x000000000a0020ec                __config_0A0020EC

.config_0A0020F0.__config_0A0020F0%121
                0x000000000a0020f0        0x4
 .config_0A0020F0.__config_0A0020F0
                0x000000000a0020f0        0x4 build/default/production/_ext/1171490990/initialization.o
                0x000000000a0020f0                __config_0A0020F0

.config_0A0020F4.__config_0A0020F4%122
                0x000000000a0020f4        0x4
 .config_0A0020F4.__config_0A0020F4
                0x000000000a0020f4        0x4 build/default/production/_ext/1171490990/initialization.o
                0x000000000a0020f4                __config_0A0020F4

.config_0A0020F8.__config_0A0020F8%123
                0x000000000a0020f8        0x4
 .config_0A0020F8.__config_0A0020F8
                0x000000000a0020f8        0x4 build/default/production/_ext/1171490990/initialization.o
                0x000000000a0020f8                __config_0A0020F8

.config_0A0020FC.__config_0A0020FC%124
                0x000000000a0020fc        0x4
 .config_0A0020FC.__config_0A0020FC
                0x000000000a0020fc        0x4 build/default/production/_ext/1171490990/initialization.o
                0x000000000a0020fc                __config_0A0020FC

.config_0A002100.__config_0A002100%125
                0x000000000a002100        0x4
 .config_0A002100.__config_0A002100
                0x000000000a002100        0x4 build/default/production/_ext/1171490990/initialization.o
                0x000000000a002100                __config_0A002100

.config_0A002110.__config_0A002110%126
                0x000000000a002110        0x4
 .config_0A002110.__config_0A002110
                0x000000000a002110        0x4 build/default/production/_ext/1171490990/initialization.o
                0x000000000a002110                __config_0A002110

.config_0A002114.__config_0A002114%127
                0x000000000a002114        0x4
 .config_0A002114.__config_0A002114
                0x000000000a002114        0x4 build/default/production/_ext/1171490990/initialization.o
                0x000000000a002114                __config_0A002114

.config_0A002118.__config_0A002118%128
                0x000000000a002118        0x4
 .config_0A002118.__config_0A002118
                0x000000000a002118        0x4 build/default/production/_ext/1171490990/initialization.o
                0x000000000a002118                __config_0A002118

.config_0A00211C.__config_0A00211C%129
                0x000000000a00211c        0x4
 .config_0A00211C.__config_0A00211C
                0x000000000a00211c        0x4 build/default/production/_ext/1171490990/initialization.o
                0x000000000a00211c                __config_0A00211C

.config_0A002120.__config_0A002120%130
                0x000000000a002120        0x4
 .config_0A002120.__config_0A002120
                0x000000000a002120        0x4 build/default/production/_ext/1171490990/initialization.o
                0x000000000a002120                __config_0A002120

.config_0A008000.__config_0A008000%131
                0x000000000a008000        0x4
 .config_0A008000.__config_0A008000
                0x000000000a008000        0x4 build/default/production/_ext/1171490990/initialization.o
                0x000000000a008000                __config_0A008000

.config_0A008004.__config_0A008004%132
                0x000000000a008004        0x4
 .config_0A008004.__config_0A008004
                0x000000000a008004        0x4 build/default/production/_ext/1171490990/initialization.o
                0x000000000a008004                __config_0A008004

.config_0A008008.__config_0A008008%133
                0x000000000a008008        0x4
 .config_0A008008.__config_0A008008
                0x000000000a008008        0x4 build/default/production/_ext/1171490990/initialization.o
                0x000000000a008008                __config_0A008008

.config_0A00800C.__config_0A00800C%134
                0x000000000a00800c        0x4
 .config_0A00800C.__config_0A00800C
                0x000000000a00800c        0x4 build/default/production/_ext/1171490990/initialization.o
                0x000000000a00800c                __config_0A00800C

.config_0A008010.__config_0A008010%135
                0x000000000a008010        0x4
 .config_0A008010.__config_0A008010
                0x000000000a008010        0x4 build/default/production/_ext/1171490990/initialization.o
                0x000000000a008010                __config_0A008010

.config_0A008014.__config_0A008014%136
                0x000000000a008014        0x4
 .config_0A008014.__config_0A008014
                0x000000000a008014        0x4 build/default/production/_ext/1171490990/initialization.o
                0x000000000a008014                __config_0A008014

.config_0A008018.__config_0A008018%137
                0x000000000a008018        0x4
 .config_0A008018.__config_0A008018
                0x000000000a008018        0x4 build/default/production/_ext/1171490990/initialization.o
                0x000000000a008018                __config_0A008018

.config_0A00801C.__config_0A00801C%138
                0x000000000a00801c        0x4
 .config_0A00801C.__config_0A00801C
                0x000000000a00801c        0x4 build/default/production/_ext/1171490990/initialization.o
                0x000000000a00801c                __config_0A00801C

.config_0A008020.__config_0A008020%139
                0x000000000a008020        0x4
 .config_0A008020.__config_0A008020
                0x000000000a008020        0x4 build/default/production/_ext/1171490990/initialization.o
                0x000000000a008020                __config_0A008020

.config_0A008024.__config_0A008024%140
                0x000000000a008024        0x4
 .config_0A008024.__config_0A008024
                0x000000000a008024        0x4 build/default/production/_ext/1171490990/initialization.o
                0x000000000a008024                __config_0A008024

.config_0A008028.__config_0A008028%141
                0x000000000a008028        0x4
 .config_0A008028.__config_0A008028
                0x000000000a008028        0x4 build/default/production/_ext/1171490990/initialization.o
                0x000000000a008028                __config_0A008028

.config_0A00802C.__config_0A00802C%142
                0x000000000a00802c        0x4
 .config_0A00802C.__config_0A00802C
                0x000000000a00802c        0x4 build/default/production/_ext/1171490990/initialization.o
                0x000000000a00802c                __config_0A00802C

.config_0A008030.__config_0A008030%143
                0x000000000a008030        0x4
 .config_0A008030.__config_0A008030
                0x000000000a008030        0x4 build/default/production/_ext/1171490990/initialization.o
                0x000000000a008030                __config_0A008030

.config_0A008034.__config_0A008034%144
                0x000000000a008034        0x4
 .config_0A008034.__config_0A008034
                0x000000000a008034        0x4 build/default/production/_ext/1171490990/initialization.o
                0x000000000a008034                __config_0A008034

.config_0A008038.__config_0A008038%145
                0x000000000a008038        0x4
 .config_0A008038.__config_0A008038
                0x000000000a008038        0x4 build/default/production/_ext/1171490990/initialization.o
                0x000000000a008038                __config_0A008038

.config_0A00803C.__config_0A00803C%146
                0x000000000a00803c        0x4
 .config_0A00803C.__config_0A00803C
                0x000000000a00803c        0x4 build/default/production/_ext/1171490990/initialization.o
                0x000000000a00803c                __config_0A00803C

.config_0A008040.__config_0A008040%147
                0x000000000a008040        0x4
 .config_0A008040.__config_0A008040
                0x000000000a008040        0x4 build/default/production/_ext/1171490990/initialization.o
                0x000000000a008040                __config_0A008040

.config_0A008044.__config_0A008044%148
                0x000000000a008044        0x4
 .config_0A008044.__config_0A008044
                0x000000000a008044        0x4 build/default/production/_ext/1171490990/initialization.o
                0x000000000a008044                __config_0A008044

.config_0A008048.__config_0A008048%149
                0x000000000a008048        0x4
 .config_0A008048.__config_0A008048
                0x000000000a008048        0x4 build/default/production/_ext/1171490990/initialization.o
                0x000000000a008048                __config_0A008048

.config_0A00804C.__config_0A00804C%150
                0x000000000a00804c        0x4
 .config_0A00804C.__config_0A00804C
                0x000000000a00804c        0x4 build/default/production/_ext/1171490990/initialization.o
                0x000000000a00804c                __config_0A00804C

.config_0A008054.__config_0A008054%151
                0x000000000a008054        0x4
 .config_0A008054.__config_0A008054
                0x000000000a008054        0x4 build/default/production/_ext/1171490990/initialization.o
                0x000000000a008054                __config_0A008054

.config_0A008058.__config_0A008058%152
                0x000000000a008058        0x4
 .config_0A008058.__config_0A008058
                0x000000000a008058        0x4 build/default/production/_ext/1171490990/initialization.o
                0x000000000a008058                __config_0A008058

.config_0A00805C.__config_0A00805C%153
                0x000000000a00805c        0x4
 .config_0A00805C.__config_0A00805C
                0x000000000a00805c        0x4 build/default/production/_ext/1171490990/initialization.o
                0x000000000a00805c                __config_0A00805C

.config_0A008060.__config_0A008060%154
                0x000000000a008060        0x4
 .config_0A008060.__config_0A008060
                0x000000000a008060        0x4 build/default/production/_ext/1171490990/initialization.o
                0x000000000a008060                __config_0A008060

.config_0A008064.__config_0A008064%155
                0x000000000a008064        0x4
 .config_0A008064.__config_0A008064
                0x000000000a008064        0x4 build/default/production/_ext/1171490990/initialization.o
                0x000000000a008064                __config_0A008064

.config_0A00A000.__config_0A00A000%156
                0x000000000a00a000        0x4
 .config_0A00A000.__config_0A00A000
                0x000000000a00a000        0x4 build/default/production/_ext/1171490990/initialization.o
                0x000000000a00a000                __config_0A00A000

.config_0A00A004.__config_0A00A004%157
                0x000000000a00a004        0x4
 .config_0A00A004.__config_0A00A004
                0x000000000a00a004        0x4 build/default/production/_ext/1171490990/initialization.o
                0x000000000a00a004                __config_0A00A004

.config_0A00A008.__config_0A00A008%158
                0x000000000a00a008        0x4
 .config_0A00A008.__config_0A00A008
                0x000000000a00a008        0x4 build/default/production/_ext/1171490990/initialization.o
                0x000000000a00a008                __config_0A00A008

.config_0A00A020.__config_0A00A020%159
                0x000000000a00a020        0x4
 .config_0A00A020.__config_0A00A020
                0x000000000a00a020        0x4 build/default/production/_ext/1171490990/initialization.o
                0x000000000a00a020                __config_0A00A020

.config_0A00A024.__config_0A00A024%160
                0x000000000a00a024        0x4
 .config_0A00A024.__config_0A00A024
                0x000000000a00a024        0x4 build/default/production/_ext/1171490990/initialization.o
                0x000000000a00a024                __config_0A00A024

.config_0A00A028.__config_0A00A028%161
                0x000000000a00a028        0x4
 .config_0A00A028.__config_0A00A028
                0x000000000a00a028        0x4 build/default/production/_ext/1171490990/initialization.o
                0x000000000a00a028                __config_0A00A028

.config_0A00A02C.__config_0A00A02C%162
                0x000000000a00a02c        0x4
 .config_0A00A02C.__config_0A00A02C
                0x000000000a00a02c        0x4 build/default/production/_ext/1171490990/initialization.o
                0x000000000a00a02c                __config_0A00A02C

.config_0A00A030.__config_0A00A030%163
                0x000000000a00a030        0x4
 .config_0A00A030.__config_0A00A030
                0x000000000a00a030        0x4 build/default/production/_ext/1171490990/initialization.o
                0x000000000a00a030                __config_0A00A030

.config_0A00A034.__config_0A00A034%164
                0x000000000a00a034        0x4
 .config_0A00A034.__config_0A00A034
                0x000000000a00a034        0x4 build/default/production/_ext/1171490990/initialization.o
                0x000000000a00a034                __config_0A00A034

.config_0A00A038.__config_0A00A038%165
                0x000000000a00a038        0x4
 .config_0A00A038.__config_0A00A038
                0x000000000a00a038        0x4 build/default/production/_ext/1171490990/initialization.o
                0x000000000a00a038                __config_0A00A038

.config_0A00A03C.__config_0A00A03C%166
                0x000000000a00a03c        0x4
 .config_0A00A03C.__config_0A00A03C
                0x000000000a00a03c        0x4 build/default/production/_ext/1171490990/initialization.o
                0x000000000a00a03c                __config_0A00A03C

.config_0A00A040.__config_0A00A040%167
                0x000000000a00a040        0x4
 .config_0A00A040.__config_0A00A040
                0x000000000a00a040        0x4 build/default/production/_ext/1171490990/initialization.o
                0x000000000a00a040                __config_0A00A040

.config_0A00A044.__config_0A00A044%168
                0x000000000a00a044        0x4
 .config_0A00A044.__config_0A00A044
                0x000000000a00a044        0x4 build/default/production/_ext/1171490990/initialization.o
                0x000000000a00a044                __config_0A00A044

.config_0A00A048.__config_0A00A048%169
                0x000000000a00a048        0x4
 .config_0A00A048.__config_0A00A048
                0x000000000a00a048        0x4 build/default/production/_ext/1171490990/initialization.o
                0x000000000a00a048                __config_0A00A048

.config_0A00A04C.__config_0A00A04C%170
                0x000000000a00a04c        0x4
 .config_0A00A04C.__config_0A00A04C
                0x000000000a00a04c        0x4 build/default/production/_ext/1171490990/initialization.o
                0x000000000a00a04c                __config_0A00A04C

.config_0A00A050.__config_0A00A050%171
                0x000000000a00a050        0x4
 .config_0A00A050.__config_0A00A050
                0x000000000a00a050        0x4 build/default/production/_ext/1171490990/initialization.o
                0x000000000a00a050                __config_0A00A050

.config_0A00A054.__config_0A00A054%172
                0x000000000a00a054        0x4
 .config_0A00A054.__config_0A00A054
                0x000000000a00a054        0x4 build/default/production/_ext/1171490990/initialization.o
                0x000000000a00a054                __config_0A00A054

.config_0A00A058.__config_0A00A058%173
                0x000000000a00a058        0x4
 .config_0A00A058.__config_0A00A058
                0x000000000a00a058        0x4 build/default/production/_ext/1171490990/initialization.o
                0x000000000a00a058                __config_0A00A058

.config_0A00A05C.__config_0A00A05C%174
                0x000000000a00a05c        0x4
 .config_0A00A05C.__config_0A00A05C
                0x000000000a00a05c        0x4 build/default/production/_ext/1171490990/initialization.o
                0x000000000a00a05c                __config_0A00A05C

.config_0A00A060.__config_0A00A060%175
                0x000000000a00a060        0x4
 .config_0A00A060.__config_0A00A060
                0x000000000a00a060        0x4 build/default/production/_ext/1171490990/initialization.o
                0x000000000a00a060                __config_0A00A060

.config_0A00A064.__config_0A00A064%176
                0x000000000a00a064        0x4
 .config_0A00A064.__config_0A00A064
                0x000000000a00a064        0x4 build/default/production/_ext/1171490990/initialization.o
                0x000000000a00a064                __config_0A00A064

.config_0A00A068.__config_0A00A068%177
                0x000000000a00a068        0x4
 .config_0A00A068.__config_0A00A068
                0x000000000a00a068        0x4 build/default/production/_ext/1171490990/initialization.o
                0x000000000a00a068                __config_0A00A068

.config_0A00A06C.__config_0A00A06C%178
                0x000000000a00a06c        0x4
 .config_0A00A06C.__config_0A00A06C
                0x000000000a00a06c        0x4 build/default/production/_ext/1171490990/initialization.o
                0x000000000a00a06c                __config_0A00A06C

.config_0A00A070.__config_0A00A070%179
                0x000000000a00a070        0x4
 .config_0A00A070.__config_0A00A070
                0x000000000a00a070        0x4 build/default/production/_ext/1171490990/initialization.o
                0x000000000a00a070                __config_0A00A070

.config_0A00A074.__config_0A00A074%180
                0x000000000a00a074        0x4
 .config_0A00A074.__config_0A00A074
                0x000000000a00a074        0x4 build/default/production/_ext/1171490990/initialization.o
                0x000000000a00a074                __config_0A00A074

.config_0A00A078.__config_0A00A078%181
                0x000000000a00a078        0x4
 .config_0A00A078.__config_0A00A078
                0x000000000a00a078        0x4 build/default/production/_ext/1171490990/initialization.o
                0x000000000a00a078                __config_0A00A078

.config_0A00A07C.__config_0A00A07C%182
                0x000000000a00a07c        0x4
 .config_0A00A07C.__config_0A00A07C
                0x000000000a00a07c        0x4 build/default/production/_ext/1171490990/initialization.o
                0x000000000a00a07c                __config_0A00A07C

.config_0A00A080.__config_0A00A080%183
                0x000000000a00a080        0x4
 .config_0A00A080.__config_0A00A080
                0x000000000a00a080        0x4 build/default/production/_ext/1171490990/initialization.o
                0x000000000a00a080                __config_0A00A080

.config_0A00A084.__config_0A00A084%184
                0x000000000a00a084        0x4
 .config_0A00A084.__config_0A00A084
                0x000000000a00a084        0x4 build/default/production/_ext/1171490990/initialization.o
                0x000000000a00a084                __config_0A00A084

.config_0A00A088.__config_0A00A088%185
                0x000000000a00a088        0x4
 .config_0A00A088.__config_0A00A088
                0x000000000a00a088        0x4 build/default/production/_ext/1171490990/initialization.o
                0x000000000a00a088                __config_0A00A088

.config_0A00A08C.__config_0A00A08C%186
                0x000000000a00a08c        0x4
 .config_0A00A08C.__config_0A00A08C
                0x000000000a00a08c        0x4 build/default/production/_ext/1171490990/initialization.o
                0x000000000a00a08c                __config_0A00A08C

.config_0A00A090.__config_0A00A090%187
                0x000000000a00a090        0x4
 .config_0A00A090.__config_0A00A090
                0x000000000a00a090        0x4 build/default/production/_ext/1171490990/initialization.o
                0x000000000a00a090                __config_0A00A090

.config_0A00A094.__config_0A00A094%188
                0x000000000a00a094        0x4
 .config_0A00A094.__config_0A00A094
                0x000000000a00a094        0x4 build/default/production/_ext/1171490990/initialization.o
                0x000000000a00a094                __config_0A00A094

.config_0A00A098.__config_0A00A098%189
                0x000000000a00a098        0x4
 .config_0A00A098.__config_0A00A098
                0x000000000a00a098        0x4 build/default/production/_ext/1171490990/initialization.o
                0x000000000a00a098                __config_0A00A098

.config_0A00A09C.__config_0A00A09C%190
                0x000000000a00a09c        0x4
 .config_0A00A09C.__config_0A00A09C
                0x000000000a00a09c        0x4 build/default/production/_ext/1171490990/initialization.o
                0x000000000a00a09c                __config_0A00A09C

.config_0A00A0A0.__config_0A00A0A0%191
                0x000000000a00a0a0        0x4
 .config_0A00A0A0.__config_0A00A0A0
                0x000000000a00a0a0        0x4 build/default/production/_ext/1171490990/initialization.o
                0x000000000a00a0a0                __config_0A00A0A0

.config_0A00A0A4.__config_0A00A0A4%192
                0x000000000a00a0a4        0x4
 .config_0A00A0A4.__config_0A00A0A4
                0x000000000a00a0a4        0x4 build/default/production/_ext/1171490990/initialization.o
                0x000000000a00a0a4                __config_0A00A0A4

.config_0A00A0A8.__config_0A00A0A8%193
                0x000000000a00a0a8        0x4
 .config_0A00A0A8.__config_0A00A0A8
                0x000000000a00a0a8        0x4 build/default/production/_ext/1171490990/initialization.o
                0x000000000a00a0a8                __config_0A00A0A8

.config_0A00A0AC.__config_0A00A0AC%194
                0x000000000a00a0ac        0x4
 .config_0A00A0AC.__config_0A00A0AC
                0x000000000a00a0ac        0x4 build/default/production/_ext/1171490990/initialization.o
                0x000000000a00a0ac                __config_0A00A0AC

.config_0A00A0B0.__config_0A00A0B0%195
                0x000000000a00a0b0        0x4
 .config_0A00A0B0.__config_0A00A0B0
                0x000000000a00a0b0        0x4 build/default/production/_ext/1171490990/initialization.o
                0x000000000a00a0b0                __config_0A00A0B0

.config_0A00A0B4.__config_0A00A0B4%196
                0x000000000a00a0b4        0x4
 .config_0A00A0B4.__config_0A00A0B4
                0x000000000a00a0b4        0x4 build/default/production/_ext/1171490990/initialization.o
                0x000000000a00a0b4                __config_0A00A0B4

.config_0A00A0B8.__config_0A00A0B8%197
                0x000000000a00a0b8        0x4
 .config_0A00A0B8.__config_0A00A0B8
                0x000000000a00a0b8        0x4 build/default/production/_ext/1171490990/initialization.o
                0x000000000a00a0b8                __config_0A00A0B8

.config_0A00A0BC.__config_0A00A0BC%198
                0x000000000a00a0bc        0x4
 .config_0A00A0BC.__config_0A00A0BC
                0x000000000a00a0bc        0x4 build/default/production/_ext/1171490990/initialization.o
                0x000000000a00a0bc                __config_0A00A0BC

.config_0A00A0C0.__config_0A00A0C0%199
                0x000000000a00a0c0        0x4
 .config_0A00A0C0.__config_0A00A0C0
                0x000000000a00a0c0        0x4 build/default/production/_ext/1171490990/initialization.o
                0x000000000a00a0c0                __config_0A00A0C0

.config_0A00A0C4.__config_0A00A0C4%200
                0x000000000a00a0c4        0x4
 .config_0A00A0C4.__config_0A00A0C4
                0x000000000a00a0c4        0x4 build/default/production/_ext/1171490990/initialization.o
                0x000000000a00a0c4                __config_0A00A0C4

.config_0A00A0C8.__config_0A00A0C8%201
                0x000000000a00a0c8        0x4
 .config_0A00A0C8.__config_0A00A0C8
                0x000000000a00a0c8        0x4 build/default/production/_ext/1171490990/initialization.o
                0x000000000a00a0c8                __config_0A00A0C8

.config_0A00A0CC.__config_0A00A0CC%202
                0x000000000a00a0cc        0x4
 .config_0A00A0CC.__config_0A00A0CC
                0x000000000a00a0cc        0x4 build/default/production/_ext/1171490990/initialization.o
                0x000000000a00a0cc                __config_0A00A0CC

.config_0A00A0D0.__config_0A00A0D0%203
                0x000000000a00a0d0        0x4
 .config_0A00A0D0.__config_0A00A0D0
                0x000000000a00a0d0        0x4 build/default/production/_ext/1171490990/initialization.o
                0x000000000a00a0d0                __config_0A00A0D0

.config_0A00A0D4.__config_0A00A0D4%204
                0x000000000a00a0d4        0x4
 .config_0A00A0D4.__config_0A00A0D4
                0x000000000a00a0d4        0x4 build/default/production/_ext/1171490990/initialization.o
                0x000000000a00a0d4                __config_0A00A0D4

.config_0A00A0D8.__config_0A00A0D8%205
                0x000000000a00a0d8        0x4
 .config_0A00A0D8.__config_0A00A0D8
                0x000000000a00a0d8        0x4 build/default/production/_ext/1171490990/initialization.o
                0x000000000a00a0d8                __config_0A00A0D8

.config_0A00A0DC.__config_0A00A0DC%206
                0x000000000a00a0dc        0x4
 .config_0A00A0DC.__config_0A00A0DC
                0x000000000a00a0dc        0x4 build/default/production/_ext/1171490990/initialization.o
                0x000000000a00a0dc                __config_0A00A0DC

.config_0A00A0E0.__config_0A00A0E0%207
                0x000000000a00a0e0        0x4
 .config_0A00A0E0.__config_0A00A0E0
                0x000000000a00a0e0        0x4 build/default/production/_ext/1171490990/initialization.o
                0x000000000a00a0e0                __config_0A00A0E0

.config_0A00A0E4.__config_0A00A0E4%208
                0x000000000a00a0e4        0x4
 .config_0A00A0E4.__config_0A00A0E4
                0x000000000a00a0e4        0x4 build/default/production/_ext/1171490990/initialization.o
                0x000000000a00a0e4                __config_0A00A0E4

.config_0A00A0E8.__config_0A00A0E8%209
                0x000000000a00a0e8        0x4
 .config_0A00A0E8.__config_0A00A0E8
                0x000000000a00a0e8        0x4 build/default/production/_ext/1171490990/initialization.o
                0x000000000a00a0e8                __config_0A00A0E8

.config_0A00A0EC.__config_0A00A0EC%210
                0x000000000a00a0ec        0x4
 .config_0A00A0EC.__config_0A00A0EC
                0x000000000a00a0ec        0x4 build/default/production/_ext/1171490990/initialization.o
                0x000000000a00a0ec                __config_0A00A0EC

.config_0A00A0F0.__config_0A00A0F0%211
                0x000000000a00a0f0        0x4
 .config_0A00A0F0.__config_0A00A0F0
                0x000000000a00a0f0        0x4 build/default/production/_ext/1171490990/initialization.o
                0x000000000a00a0f0                __config_0A00A0F0

.config_0A00A0F4.__config_0A00A0F4%212
                0x000000000a00a0f4        0x4
 .config_0A00A0F4.__config_0A00A0F4
                0x000000000a00a0f4        0x4 build/default/production/_ext/1171490990/initialization.o
                0x000000000a00a0f4                __config_0A00A0F4

.config_0A00A0F8.__config_0A00A0F8%213
                0x000000000a00a0f8        0x4
 .config_0A00A0F8.__config_0A00A0F8
                0x000000000a00a0f8        0x4 build/default/production/_ext/1171490990/initialization.o
                0x000000000a00a0f8                __config_0A00A0F8

.config_0A00A0FC.__config_0A00A0FC%214
                0x000000000a00a0fc        0x4
 .config_0A00A0FC.__config_0A00A0FC
                0x000000000a00a0fc        0x4 build/default/production/_ext/1171490990/initialization.o
                0x000000000a00a0fc                __config_0A00A0FC

.config_0A00A100.__config_0A00A100%215
                0x000000000a00a100        0x4
 .config_0A00A100.__config_0A00A100
                0x000000000a00a100        0x4 build/default/production/_ext/1171490990/initialization.o
                0x000000000a00a100                __config_0A00A100

.config_0A00A110.__config_0A00A110%216
                0x000000000a00a110        0x4
 .config_0A00A110.__config_0A00A110
                0x000000000a00a110        0x4 build/default/production/_ext/1171490990/initialization.o
                0x000000000a00a110                __config_0A00A110

.config_0A00A114.__config_0A00A114%217
                0x000000000a00a114        0x4
 .config_0A00A114.__config_0A00A114
                0x000000000a00a114        0x4 build/default/production/_ext/1171490990/initialization.o
                0x000000000a00a114                __config_0A00A114

.config_0A00A118.__config_0A00A118%218
                0x000000000a00a118        0x4
 .config_0A00A118.__config_0A00A118
                0x000000000a00a118        0x4 build/default/production/_ext/1171490990/initialization.o
                0x000000000a00a118                __config_0A00A118

.config_0A00A11C.__config_0A00A11C%219
                0x000000000a00a11c        0x4
 .config_0A00A11C.__config_0A00A11C
                0x000000000a00a11c        0x4 build/default/production/_ext/1171490990/initialization.o
                0x000000000a00a11c                __config_0A00A11C

.config_0A00A120.__config_0A00A120%220
                0x000000000a00a120        0x4
 .config_0A00A120.__config_0A00A120
                0x000000000a00a120        0x4 build/default/production/_ext/1171490990/initialization.o
                0x000000000a00a120                __config_0A00A120

.dinit%221      0x000000000c000020      0x1f0
 .dinit         0x000000000c000020      0x1f0 data_init

.text.SERCOM0_I2C_InterruptHandler%222
                0x000000000c000210      0x1bc
 .text.SERCOM0_I2C_InterruptHandler
                0x000000000c000210      0x1bc build/default/production/_ext/508257091/plib_sercom0_i2c_master.o
                0x000000000c000210                SERCOM0_I2C_InterruptHandler

.text.SERCOM1_SPI_WriteRead%223
                0x000000000c0003cc      0x17c
 .text.SERCOM1_SPI_WriteRead
                0x000000000c0003cc      0x17c build/default/production/_ext/17022449/plib_sercom1_spi_master.o
                0x000000000c0003cc                SERCOM1_SPI_WriteRead

.text.SERCOM1_SPI_InterruptHandler%224
                0x000000000c000548      0x158
 .text.SERCOM1_SPI_InterruptHandler
                0x000000000c000548      0x158 build/default/production/_ext/17022449/plib_sercom1_spi_master.o
                0x000000000c000548                SERCOM1_SPI_InterruptHandler

.text.SERCOM2_USART_SerialSetup%225
                0x000000000c0006a0      0x150
 .text.SERCOM2_USART_SerialSetup
                0x000000000c0006a0      0x150 build/default/production/_ext/504274921/plib_sercom2_usart.o
                0x000000000c0006a0                SERCOM2_USART_SerialSetup

.text.CLOCK_Initialize%226
                0x000000000c0007f0      0x14c
 .text.CLOCK_Initialize
                0x000000000c0007f0      0x14c build/default/production/_ext/1984496892/plib_clock.o
                0x000000000c0007f0                CLOCK_Initialize

.text.NVIC_Initialize%227
                0x000000000c00093c      0x120
 .text.NVIC_Initialize
                0x000000000c00093c      0x120 build/default/production/_ext/1865468468/plib_nvic.o
                0x000000000c00093c                NVIC_Initialize

.text.SERCOM0_I2C_TransferSetup%228
                0x000000000c000a5c      0x100
 .text.SERCOM0_I2C_TransferSetup
                0x000000000c000a5c      0x100 build/default/production/_ext/508257091/plib_sercom0_i2c_master.o
                0x000000000c000a5c                SERCOM0_I2C_TransferSetup

.text.lDRV_SPI_PlibCallbackHandler%229
                0x000000000c000b5c       0xe8
 .text.lDRV_SPI_PlibCallbackHandler
                0x000000000c000b5c       0xe8 build/default/production/_ext/2070931557/drv_spi.o

.text.lDRV_USART_BufferQueueTask%230
                0x000000000c000c44       0xdc
 .text.lDRV_USART_BufferQueueTask
                0x000000000c000c44       0xdc build/default/production/_ext/869808652/drv_usart.o

.text.SERCOM3_USART_Write%231
                0x000000000c000d20       0xd8
 .text.SERCOM3_USART_Write
                0x000000000c000d20       0xd8 build/default/production/_ext/504274921/plib_sercom3_usart.o
                0x000000000c000d20                SERCOM3_USART_Write

.text.lDRV_SPI_UpdateTransferSetupAndAssertCS%232
                0x000000000c000df8       0xc8
 .text.lDRV_SPI_UpdateTransferSetupAndAssertCS
                0x000000000c000df8       0xc8 build/default/production/_ext/2070931557/drv_spi.o

.text.SYS_Initialize%233
                0x000000000c000ec0       0xc4
 .text.SYS_Initialize
                0x000000000c000ec0       0xc4 build/default/production/_ext/1171490990/initialization.o
                0x000000000c000ec0                SYS_Initialize

.text.SYS_TIME_PLIBCallback%234
                0x000000000c000f84       0xc0
 .text.SYS_TIME_PLIBCallback
                0x000000000c000f84       0xc0 build/default/production/_ext/101884895/sys_time.o

.text.SERCOM3_USART_ISR_RX_Handler%235
                0x000000000c001044       0xb8
 .text.SERCOM3_USART_ISR_RX_Handler
                0x000000000c001044       0xb8 build/default/production/_ext/504274921/plib_sercom3_usart.o

.text.lDRV_I2C_NextTransferInitiate%236
                0x000000000c0010fc       0xb0
 .text.lDRV_I2C_NextTransferInitiate
                0x000000000c0010fc       0xb0 build/default/production/_ext/158385033/drv_i2c.o

.text.SYS_TIME_TimerObjectCreate%237
                0x000000000c0011ac       0xb0
 .text.SYS_TIME_TimerObjectCreate
                0x000000000c0011ac       0xb0 build/default/production/_ext/101884895/sys_time.o

.text.SERCOM1_SPI_TransferSetup%238
                0x000000000c00125c       0xa8
 .text.SERCOM1_SPI_TransferSetup
                0x000000000c00125c       0xa8 build/default/production/_ext/17022449/plib_sercom1_spi_master.o
                0x000000000c00125c                SERCOM1_SPI_TransferSetup

.text.SERCOM3_USART_ISR_TX_Handler%239
                0x000000000c001304       0xa8
 .text.SERCOM3_USART_ISR_TX_Handler
                0x000000000c001304       0xa8 build/default/production/_ext/504274921/plib_sercom3_usart.o

.text.DRV_USART_Initialize%240
                0x000000000c0013ac       0x88
 .text.DRV_USART_Initialize
                0x000000000c0013ac       0x88 build/default/production/_ext/869808652/drv_usart.o
                0x000000000c0013ac                DRV_USART_Initialize

.text.Reset_Handler%241
                0x000000000c001434       0x88
 .text.Reset_Handler
                0x000000000c001434       0x88 build/default/production/_ext/1171490990/startup_xc32.o
                0x000000000c001434                Reset_Handler

.text.DRV_SPI_Initialize%242
                0x000000000c0014bc       0x84
 .text.DRV_SPI_Initialize
                0x000000000c0014bc       0x84 build/default/production/_ext/2070931557/drv_spi.o
                0x000000000c0014bc                DRV_SPI_Initialize

.text.SERCOM3_USART_Read%243
                0x000000000c001540       0x84
 .text.SERCOM3_USART_Read
                0x000000000c001540       0x84 build/default/production/_ext/504274921/plib_sercom3_usart.o
                0x000000000c001540                SERCOM3_USART_Read

.text.SYS_TIME_AddToList%244
                0x000000000c0015c4       0x84
 .text.SYS_TIME_AddToList
                0x000000000c0015c4       0x84 build/default/production/_ext/101884895/sys_time.o

.text.SERCOM3_USART_Initialize%245
                0x000000000c001648       0x80
 .text.SERCOM3_USART_Initialize
                0x000000000c001648       0x80 build/default/production/_ext/504274921/plib_sercom3_usart.o
                0x000000000c001648                SERCOM3_USART_Initialize

.text.TIMER_DRIVER_Initialize%246
                0x000000000c0016c8       0x80
 .text.TIMER_DRIVER_Initialize
                0x000000000c0016c8       0x80 build/default/production/_ext/1360937237/timer_driver.o
                0x000000000c0016c8                TIMER_DRIVER_Initialize

.text.SERCOM2_USART_ISR_TX_Handler%247
                0x000000000c001748       0x78
 .text.SERCOM2_USART_ISR_TX_Handler
                0x000000000c001748       0x78 build/default/production/_ext/504274921/plib_sercom2_usart.o

.text.SERCOM2_USART_Write%248
                0x000000000c0017c0       0x74
 .text.SERCOM2_USART_Write
                0x000000000c0017c0       0x74 build/default/production/_ext/504274921/plib_sercom2_usart.o
                0x000000000c0017c0                SERCOM2_USART_Write

.text.SYS_TIME_Initialize%249
                0x000000000c001834       0x6c
 .text.SYS_TIME_Initialize
                0x000000000c001834       0x6c build/default/production/_ext/101884895/sys_time.o
                0x000000000c001834                SYS_TIME_Initialize

.text.DRV_I2C_Initialize%250
                0x000000000c0018a0       0x68
 .text.DRV_I2C_Initialize
                0x000000000c0018a0       0x68 build/default/production/_ext/158385033/drv_i2c.o
                0x000000000c0018a0                DRV_I2C_Initialize

.text.SERCOM2_USART_ISR_RX_Handler%251
                0x000000000c001908       0x68
 .text.SERCOM2_USART_ISR_RX_Handler
                0x000000000c001908       0x68 build/default/production/_ext/504274921/plib_sercom2_usart.o

.text.SERCOM0_I2C_Initialize%252
                0x000000000c001970       0x60
 .text.SERCOM0_I2C_Initialize
                0x000000000c001970       0x60 build/default/production/_ext/508257091/plib_sercom0_i2c_master.o
                0x000000000c001970                SERCOM0_I2C_Initialize

.text.__libc_start_init%253
                0x000000000c0019d0       0x5c
 .text.__libc_start_init
                0x000000000c0019d0       0x5c c:/applications/microchip/xc32/bin/bin/../../lib/gcc/pic32c/8.3.1/../../../../pic32c/lib/thumb/v8-m.main+fp/hard\libc-musl.a(__libc_start_main.o)
                0x000000000c0019d0                __libc_init_array

.text.CAN0_Initialize%254
                0x000000000c001a2c       0x58
 .text.CAN0_Initialize
                0x000000000c001a2c       0x58 build/default/production/_ext/60165182/plib_can0.o
                0x000000000c001a2c                CAN0_Initialize

.text.SERCOM3_USART_InterruptHandler%255
                0x000000000c001a84       0x58
 .text.SERCOM3_USART_InterruptHandler
                0x000000000c001a84       0x58 build/default/production/_ext/504274921/plib_sercom3_usart.o
                0x000000000c001a84                SERCOM3_USART_InterruptHandler

.text.SERCOM2_USART_InterruptHandler%256
                0x000000000c001adc       0x58
 .text.SERCOM2_USART_InterruptHandler
                0x000000000c001adc       0x58 build/default/production/_ext/504274921/plib_sercom2_usart.o
                0x000000000c001adc                SERCOM2_USART_InterruptHandler

.text.lDRV_I2C_PLibCallbackHandler%257
                0x000000000c001b34       0x54
 .text.lDRV_I2C_PLibCallbackHandler
                0x000000000c001b34       0x54 build/default/production/_ext/158385033/drv_i2c.o

.text.SERCOM2_USART_Initialize%258
                0x000000000c001b88       0x54
 .text.SERCOM2_USART_Initialize
                0x000000000c001b88       0x54 build/default/production/_ext/504274921/plib_sercom2_usart.o
                0x000000000c001b88                SERCOM2_USART_Initialize

.text.SYS_CONSOLE_Initialize%259
                0x000000000c001bdc       0x54
 .text.SYS_CONSOLE_Initialize
                0x000000000c001bdc       0x54 build/default/production/_ext/1832805299/sys_console.o
                0x000000000c001bdc                SYS_CONSOLE_Initialize

.text.SYS_TIME_RemoveFromList%260
                0x000000000c001c30       0x50
 .text.SYS_TIME_RemoveFromList
                0x000000000c001c30       0x50 build/default/production/_ext/101884895/sys_time.o

.text.SERCOM0_I2C_InitiateTransfer%261
                0x000000000c001c80       0x4c
 .text.SERCOM0_I2C_InitiateTransfer
                0x000000000c001c80       0x4c build/default/production/_ext/508257091/plib_sercom0_i2c_master.o

.text.SERCOM3_USART_ISR_ERR_Handler%262
                0x000000000c001ccc       0x4c
 .text.SERCOM3_USART_ISR_ERR_Handler
                0x000000000c001ccc       0x4c build/default/production/_ext/504274921/plib_sercom3_usart.o

.text.lDRV_I2C_ClientCallback%263
                0x000000000c001d18       0x48
 .text.lDRV_I2C_ClientCallback
                0x000000000c001d18       0x48 build/default/production/_ext/158385033/drv_i2c.o

.text.RTC_Initialize%264
                0x000000000c001d60       0x48
 .text.RTC_Initialize
                0x000000000c001d60       0x48 build/default/production/_ext/60180175/plib_rtc_timer.o
                0x000000000c001d60                RTC_Initialize

.text.SERCOM0_I2C_TransferAbort%265
                0x000000000c001da8       0x44
 .text.SERCOM0_I2C_TransferAbort
                0x000000000c001da8       0x44 build/default/production/_ext/508257091/plib_sercom0_i2c_master.o
                0x000000000c001da8                SERCOM0_I2C_TransferAbort

.text.SYS_INT_SourceDisable%266
                0x000000000c001dec       0x44
 .text.SYS_INT_SourceDisable
                0x000000000c001dec       0x44 build/default/production/_ext/1881668453/sys_int.o
                0x000000000c001dec                SYS_INT_SourceDisable

.text.SYS_TIME_MSToCount%267
                0x000000000c001e30       0x44
 .text.SYS_TIME_MSToCount
                0x000000000c001e30       0x44 build/default/production/_ext/101884895/sys_time.o
                0x000000000c001e30                SYS_TIME_MSToCount

.text.SYS_TIME_TimerStart%268
                0x000000000c001e74       0x44
 .text.SYS_TIME_TimerStart
                0x000000000c001e74       0x44 build/default/production/_ext/101884895/sys_time.o
                0x000000000c001e74                SYS_TIME_TimerStart

.text.SYS_TIME_CallbackRegisterMS%269
                0x000000000c001eb8       0x42
 .text.SYS_TIME_CallbackRegisterMS
                0x000000000c001eb8       0x42 build/default/production/_ext/101884895/sys_time.o
                0x000000000c001eb8                SYS_TIME_CallbackRegisterMS

.text%270       0x000000000c001efc       0x40
 .text          0x000000000c001efc       0x40 c:/applications/microchip/xc32/bin/bin/../../lib/gcc/pic32c/8.3.1/thumb/v8-m.main+fp/hard/crtbegin.o

.text.SERCOM2_USART_Read%271
                0x000000000c001f3c       0x40
 .text.SERCOM2_USART_Read
                0x000000000c001f3c       0x40 build/default/production/_ext/504274921/plib_sercom2_usart.o
                0x000000000c001f3c                SERCOM2_USART_Read

.text.TCC0_TimerInitialize%272
                0x000000000c001f7c       0x40
 .text.TCC0_TimerInitialize
                0x000000000c001f7c       0x40 build/default/production/_ext/60181570/plib_tcc0.o
                0x000000000c001f7c                TCC0_TimerInitialize

.text.PDEC_QDECInitialize%273
                0x000000000c001fbc       0x3c
 .text.PDEC_QDECInitialize
                0x000000000c001fbc       0x3c build/default/production/_ext/1865510628/plib_pdec.o
                0x000000000c001fbc                PDEC_QDECInitialize

.text.SERCOM1_SPI_Initialize%274
                0x000000000c001ff8       0x3c
 .text.SERCOM1_SPI_Initialize
                0x000000000c001ff8       0x3c build/default/production/_ext/17022449/plib_sercom1_spi_master.o
                0x000000000c001ff8                SERCOM1_SPI_Initialize

.text.SYS_TIME_GetTimerObject%275
                0x000000000c002034       0x3c
 .text.SYS_TIME_GetTimerObject
                0x000000000c002034       0x3c build/default/production/_ext/101884895/sys_time.o

.text.SYS_TIME_TimerDestroy%276
                0x000000000c002070       0x3c
 .text.SYS_TIME_TimerDestroy
                0x000000000c002070       0x3c build/default/production/_ext/101884895/sys_time.o
                0x000000000c002070                SYS_TIME_TimerDestroy

.text.SYS_TIME_TimerStop%277
                0x000000000c0020ac       0x3c
 .text.SYS_TIME_TimerStop
                0x000000000c0020ac       0x3c build/default/production/_ext/101884895/sys_time.o
                0x000000000c0020ac                SYS_TIME_TimerStop

.text.SERCOM0_I2C_Read%278
                0x000000000c0020e8       0x38
 .text.SERCOM0_I2C_Read
                0x000000000c0020e8       0x38 build/default/production/_ext/508257091/plib_sercom0_i2c_master.o
                0x000000000c0020e8                SERCOM0_I2C_Read

.text.SERCOM2_USART_ISR_ERR_Handler%279
                0x000000000c002120       0x38
 .text.SERCOM2_USART_ISR_ERR_Handler
                0x000000000c002120       0x38 build/default/production/_ext/504274921/plib_sercom2_usart.o

.text.SYS_TIME_ResourceLock%280
                0x000000000c002158       0x38
 .text.SYS_TIME_ResourceLock
                0x000000000c002158       0x38 build/default/production/_ext/101884895/sys_time.o

.text.__pic32c_data_initialization%281
                0x000000000c002190       0x38
 .text.__pic32c_data_initialization
                0x000000000c002190       0x38 c:/applications/microchip/xc32/bin/bin/../../lib/gcc/pic32c/8.3.1/../../../../pic32c/lib/thumb/v8-m.main+fp/hard\libpic32c.a(data_init.o)
                0x000000000c002190                __pic32c_data_initialization

.text.EIC_Initialize%282
                0x000000000c0021c8       0x34
 .text.EIC_Initialize
                0x000000000c0021c8       0x34 build/default/production/_ext/60167341/plib_eic.o
                0x000000000c0021c8                EIC_Initialize

.text.SERCOM0_I2C_Write%283
                0x000000000c0021fc       0x34
 .text.SERCOM0_I2C_Write
                0x000000000c0021fc       0x34 build/default/production/_ext/508257091/plib_sercom0_i2c_master.o
                0x000000000c0021fc                SERCOM0_I2C_Write

.text.SERCOM0_I2C_WriteRead%284
                0x000000000c002230       0x34
 .text.SERCOM0_I2C_WriteRead
                0x000000000c002230       0x34 build/default/production/_ext/508257091/plib_sercom0_i2c_master.o
                0x000000000c002230                SERCOM0_I2C_WriteRead

.text.Console_UART_Read%285
                0x000000000c002264       0x34
 .text.Console_UART_Read
                0x000000000c002264       0x34 build/default/production/_ext/1832805299/sys_console_uart.o
                0x000000000c002264                Console_UART_Read

.text.Console_UART_Write%286
                0x000000000c002298       0x34
 .text.Console_UART_Write
                0x000000000c002298       0x34 build/default/production/_ext/1832805299/sys_console_uart.o
                0x000000000c002298                Console_UART_Write

.text.SERCOM2_USART_ErrorClear%287
                0x000000000c0022cc       0x30
 .text.SERCOM2_USART_ErrorClear
                0x000000000c0022cc       0x30 build/default/production/_ext/504274921/plib_sercom2_usart.o

.text.Console_UART_WriteCountGet%288
                0x000000000c0022fc       0x30
 .text.Console_UART_WriteCountGet
                0x000000000c0022fc       0x30 build/default/production/_ext/1832805299/sys_console_uart.o
                0x000000000c0022fc                Console_UART_WriteCountGet

.text.Console_UART_WriteFreeBufferCountGet%289
                0x000000000c00232c       0x30
 .text.Console_UART_WriteFreeBufferCountGet
                0x000000000c00232c       0x30 build/default/production/_ext/1832805299/sys_console_uart.o
                0x000000000c00232c                Console_UART_WriteFreeBufferCountGet

.text.Console_UART_ReadFreeBufferCountGet%290
                0x000000000c00235c       0x30
 .text.Console_UART_ReadFreeBufferCountGet
                0x000000000c00235c       0x30 build/default/production/_ext/1832805299/sys_console_uart.o
                0x000000000c00235c                Console_UART_ReadFreeBufferCountGet

.text.Console_UART_ReadCountGet%291
                0x000000000c00238c       0x30
 .text.Console_UART_ReadCountGet
                0x000000000c00238c       0x30 build/default/production/_ext/1832805299/sys_console_uart.o
                0x000000000c00238c                Console_UART_ReadCountGet

.text.RTC_InterruptHandler%292
                0x000000000c0023bc       0x2c
 .text.RTC_InterruptHandler
                0x000000000c0023bc       0x2c build/default/production/_ext/60180175/plib_rtc_timer.o
                0x000000000c0023bc                RTC_InterruptHandler

.rodata.sysConsoleUARTDevDesc%293
                0x000000000c0023e8       0x2c
 .rodata.sysConsoleUARTDevDesc
                0x000000000c0023e8       0x2c build/default/production/_ext/1832805299/sys_console_uart.o
                0x000000000c0023e8                sysConsoleUARTDevDesc

.rodata.drvUsart0InitData%294
                0x000000000c002414       0x2c
 .rodata.drvUsart0InitData
                0x000000000c002414       0x2c build/default/production/_ext/1171490990/initialization.o

.rodata.drvUsart0PlibAPI%295
                0x000000000c002440       0x2c
 .rodata.drvUsart0PlibAPI
                0x000000000c002440       0x2c build/default/production/_ext/1171490990/initialization.o

.text.lDRV_USART_RX_PLIB_CallbackHandler%296
                0x000000000c00246c       0x2a
 .text.lDRV_USART_RX_PLIB_CallbackHandler
                0x000000000c00246c       0x2a build/default/production/_ext/869808652/drv_usart.o

.text.AC_Initialize%297
                0x000000000c002498       0x28
 .text.AC_Initialize
                0x000000000c002498       0x28 build/default/production/_ext/829343244/plib_ac.o
                0x000000000c002498                AC_Initialize

.text.SERCOM2_USART_ReadAbort%298
                0x000000000c0024c0       0x28
 .text.SERCOM2_USART_ReadAbort
                0x000000000c0024c0       0x28 build/default/production/_ext/504274921/plib_sercom2_usart.o
                0x000000000c0024c0                SERCOM2_USART_ReadAbort

.text.TCC0_OTHER_InterruptHandler%299
                0x000000000c0024e8       0x28
 .text.TCC0_OTHER_InterruptHandler
                0x000000000c0024e8       0x28 build/default/production/_ext/60181570/plib_tcc0.o
                0x000000000c0024e8                TCC0_OTHER_InterruptHandler

.rodata.drvSPI0remapDataBits%300
                0x000000000c002510       0x28
 .rodata.drvSPI0remapDataBits
                0x000000000c002510       0x28 build/default/production/_ext/1171490990/initialization.o

.text.SYSTICK_TimerInitialize%301
                0x000000000c002538       0x24
 .text.SYSTICK_TimerInitialize
                0x000000000c002538       0x24 build/default/production/_ext/1827571544/plib_systick.o
                0x000000000c002538                SYSTICK_TimerInitialize

.text.SysTick_Handler%302
                0x000000000c00255c       0x24
 .text.SysTick_Handler
                0x000000000c00255c       0x24 build/default/production/_ext/1827571544/plib_systick.o
                0x000000000c00255c                SysTick_Handler

.text.SYS_TIME_ResourceUnlock%303
                0x000000000c002580       0x24
 .text.SYS_TIME_ResourceUnlock
                0x000000000c002580       0x24 build/default/production/_ext/101884895/sys_time.o

.rodata.drvSPI0InitData%304
                0x000000000c0025a4       0x24
 .rodata.drvSPI0InitData
                0x000000000c0025a4       0x24 build/default/production/_ext/1171490990/initialization.o

.text.lDRV_USART_RemoveTransferObjFromList%305
                0x000000000c0025c8       0x20
 .text.lDRV_USART_RemoveTransferObjFromList
                0x000000000c0025c8       0x20 build/default/production/_ext/869808652/drv_usart.o

.text.SUPC_Initialize%306
                0x000000000c0025e8       0x20
 .text.SUPC_Initialize
                0x000000000c0025e8       0x20 build/default/production/_ext/1865616679/plib_supc.o
                0x000000000c0025e8                SUPC_Initialize

.text.SYS_INT_SourceRestore%307
                0x000000000c002608       0x20
 .text.SYS_INT_SourceRestore
                0x000000000c002608       0x20 build/default/production/_ext/1881668453/sys_int.o
                0x000000000c002608                SYS_INT_SourceRestore

.text.__dinit_copy%308
                0x000000000c002628       0x1e
 .text.__dinit_copy
                0x000000000c002628       0x1e c:/applications/microchip/xc32/bin/bin/../../lib/gcc/pic32c/8.3.1/../../../../pic32c/lib/thumb/v8-m.main+fp/hard\libpic32c.a(pic32_data_init_copy.o)
                0x000000000c002628                __dinit_copy_needed
                0x000000000c002628                __dinit_copy

.text.lDRV_USART_ReadSubmit%309
                0x000000000c002646       0x1c
 .text.lDRV_USART_ReadSubmit
                0x000000000c002646       0x1c build/default/production/_ext/869808652/drv_usart.o

.text.lDRV_USART_WriteSubmit%310
                0x000000000c002662       0x1c
 .text.lDRV_USART_WriteSubmit
                0x000000000c002662       0x1c build/default/production/_ext/869808652/drv_usart.o

.text.CCL_Initialize%311
                0x000000000c002680       0x1c
 .text.CCL_Initialize
                0x000000000c002680       0x1c build/default/production/_ext/60165242/plib_ccl.o
                0x000000000c002680                CCL_Initialize

.rodata.drvI2C0InitData%312
                0x000000000c00269c       0x1c
 .rodata.drvI2C0InitData
                0x000000000c00269c       0x1c build/default/production/_ext/1171490990/initialization.o

.rodata.drvI2C0PLibAPI%313
                0x000000000c0026b8       0x1c
 .rodata.drvI2C0PLibAPI
                0x000000000c0026b8       0x1c build/default/production/_ext/1171490990/initialization.o

.text.FREQM_Initialize%314
                0x000000000c0026d4       0x18
 .text.FREQM_Initialize
                0x000000000c0026d4       0x18 build/default/production/_ext/1987437027/plib_freqm.o
                0x000000000c0026d4                FREQM_Initialize

.text.SERCOM3_USART_WritePendingBytesGet%315
                0x000000000c0026ec       0x18
 .text.SERCOM3_USART_WritePendingBytesGet
                0x000000000c0026ec       0x18 build/default/production/_ext/504274921/plib_sercom3_usart.o

.text.SERCOM3_USART_ReadCountGet%316
                0x000000000c002704       0x18
 .text.SERCOM3_USART_ReadCountGet
                0x000000000c002704       0x18 build/default/production/_ext/504274921/plib_sercom3_usart.o
                0x000000000c002704                SERCOM3_USART_ReadCountGet

.text.TCC0_TimerStart%317
                0x000000000c00271c       0x18
 .text.TCC0_TimerStart
                0x000000000c00271c       0x18 build/default/production/_ext/60181570/plib_tcc0.o
                0x000000000c00271c                TCC0_TimerStart

.text.TCC0_TimerStop%318
                0x000000000c002734       0x18
 .text.TCC0_TimerStop
                0x000000000c002734       0x18 build/default/production/_ext/60181570/plib_tcc0.o
                0x000000000c002734                TCC0_TimerStop

.rodata.drvUsart0remapParity%319
                0x000000000c00274c       0x18
 .rodata.drvUsart0remapParity
                0x000000000c00274c       0x18 build/default/production/_ext/1171490990/initialization.o

.rodata.sysConsole0UARTPlibAPI%320
                0x000000000c002764       0x18
 .rodata.sysConsole0UARTPlibAPI
                0x000000000c002764       0x18 build/default/production/_ext/1171490990/initialization.o

.text.SERCOM1_SPI_IsTransmitterBusy%321
                0x000000000c00277c       0x14
 .text.SERCOM1_SPI_IsTransmitterBusy
                0x000000000c00277c       0x14 build/default/production/_ext/17022449/plib_sercom1_spi_master.o
                0x000000000c00277c                SERCOM1_SPI_IsTransmitterBusy

.text.SERCOM3_USART_ReadFreeBufferCountGet%322
                0x000000000c002790       0x14
 .text.SERCOM3_USART_ReadFreeBufferCountGet
                0x000000000c002790       0x14 build/default/production/_ext/504274921/plib_sercom3_usart.o
                0x000000000c002790                SERCOM3_USART_ReadFreeBufferCountGet

.text.SERCOM3_USART_WriteFreeBufferCountGet%323
                0x000000000c0027a4       0x14
 .text.SERCOM3_USART_WriteFreeBufferCountGet
                0x000000000c0027a4       0x14 build/default/production/_ext/504274921/plib_sercom3_usart.o
                0x000000000c0027a4                SERCOM3_USART_WriteFreeBufferCountGet

.text.TCC0_Timer32bitPeriodSet%324
                0x000000000c0027b8       0x14
 .text.TCC0_Timer32bitPeriodSet
                0x000000000c0027b8       0x14 build/default/production/_ext/60181570/plib_tcc0.o
                0x000000000c0027b8                TCC0_Timer32bitPeriodSet

.text.Console_UART_Initialize%325
                0x000000000c0027cc       0x14
 .text.Console_UART_Initialize
                0x000000000c0027cc       0x14 build/default/production/_ext/1832805299/sys_console_uart.o
                0x000000000c0027cc                Console_UART_Initialize

.rodata.drvI2C0InterruptSources%326
                0x000000000c0027e0       0x14
 .rodata.drvI2C0InterruptSources
                0x000000000c0027e0       0x14 build/default/production/_ext/1171490990/initialization.o

.rodata.drvUSART0InterruptSources%327
                0x000000000c0027f4       0x14
 .rodata.drvUSART0InterruptSources
                0x000000000c0027f4       0x14 build/default/production/_ext/1171490990/initialization.o

.rodata.drvUsart0remapDataWidth%328
                0x000000000c002808       0x14
 .rodata.drvUsart0remapDataWidth
                0x000000000c002808       0x14 build/default/production/_ext/1171490990/initialization.o

.rodata.sysTimePlibAPI%329
                0x000000000c00281c       0x14
 .rodata.sysTimePlibAPI
                0x000000000c00281c       0x14 build/default/production/_ext/1171490990/initialization.o

.text.HDC302X_DRIVER_Initialize%330
                0x000000000c002830       0x14
 .text.HDC302X_DRIVER_Initialize
                0x000000000c002830       0x14 build/default/production/_ext/1360937237/hdc302x_driver.o
                0x000000000c002830                HDC302X_DRIVER_Initialize

.text.SHT4X_DRIVER_Initialize%331
                0x000000000c002844       0x14
 .text.SHT4X_DRIVER_Initialize
                0x000000000c002844       0x14 build/default/production/_ext/1360937237/sht4x_driver.o
                0x000000000c002844                SHT4X_DRIVER_Initialize

.text.BME690_DRIVER_Initialize%332
                0x000000000c002858       0x14
 .text.BME690_DRIVER_Initialize
                0x000000000c002858       0x14 build/default/production/_ext/1360937237/bme690_driver.o
                0x000000000c002858                BME690_DRIVER_Initialize

.rodata%333     0x000000000c00286c       0x14
 .rodata        0x000000000c00286c       0x14 c:/applications/microchip/xc32/bin/bin/../../lib/gcc/pic32c/8.3.1/../../../../pic32c/lib/thumb/v8-m.main+fp/hard\libpic32c.a(data_init.o)

.text.memset%334
                0x000000000c002880       0x14
 .text.memset   0x000000000c002880       0x14 c:/applications/microchip/xc32/bin/bin/../../lib/gcc/pic32c/8.3.1/../../../../pic32c/lib/thumb/v8-m.main+fp/hard\libc-size-musl.a(memset.o)
                0x000000000c002880                memset

.text.lDRV_I2C_RemoveTransferObjFromList%335
                0x000000000c002894       0x12
 .text.lDRV_I2C_RemoveTransferObjFromList
                0x000000000c002894       0x12 build/default/production/_ext/158385033/drv_i2c.o

.text.NVIC_INT_Disable%336
                0x000000000c0028a6       0x12
 .text.NVIC_INT_Disable
                0x000000000c0028a6       0x12 build/default/production/_ext/1865468468/plib_nvic.o
                0x000000000c0028a6                NVIC_INT_Disable

.text.NVIC_INT_Restore%337
                0x000000000c0028b8       0x12
 .text.NVIC_INT_Restore
                0x000000000c0028b8       0x12 build/default/production/_ext/1865468468/plib_nvic.o
                0x000000000c0028b8                NVIC_INT_Restore

.text.__dinit_clear%338
                0x000000000c0028ca       0x12
 .text.__dinit_clear
                0x000000000c0028ca       0x12 c:/applications/microchip/xc32/bin/bin/../../lib/gcc/pic32c/8.3.1/../../../../pic32c/lib/thumb/v8-m.main+fp/hard\libpic32c.a(pic32_data_init_clear.o)
                0x000000000c0028ca                __dinit_clear
                0x000000000c0028ca                __dinit_clear_needed

.text.PM_Initialize%339
                0x000000000c0028dc       0x10
 .text.PM_Initialize
                0x000000000c0028dc       0x10 build/default/production/_ext/829342769/plib_pm.o
                0x000000000c0028dc                PM_Initialize

.text.SERCOM2_USART_ErrorGet%340
                0x000000000c0028ec       0x10
 .text.SERCOM2_USART_ErrorGet
                0x000000000c0028ec       0x10 build/default/production/_ext/504274921/plib_sercom2_usart.o
                0x000000000c0028ec                SERCOM2_USART_ErrorGet

.text.Console_UART_Status%341
                0x000000000c0028fc       0x10
 .text.Console_UART_Status
                0x000000000c0028fc       0x10 build/default/production/_ext/1832805299/sys_console_uart.o
                0x000000000c0028fc                Console_UART_Status

.rodata.drvSPI0InterruptSources%342
                0x000000000c00290c       0x10
 .rodata.drvSPI0InterruptSources
                0x000000000c00290c       0x10 build/default/production/_ext/1171490990/initialization.o

.rodata.drvSPI0PlibAPI%343
                0x000000000c00291c       0x10
 .rodata.drvSPI0PlibAPI
                0x000000000c00291c       0x10 build/default/production/_ext/1171490990/initialization.o

.text.TIMER_DRIVER_Stop_TMR0%344
                0x000000000c00292c       0x10
 .text.TIMER_DRIVER_Stop_TMR0
                0x000000000c00292c       0x10 build/default/production/_ext/1360937237/timer_driver.o
                0x000000000c00292c                TIMER_DRIVER_Stop_TMR0

.text.TIMER_DRIVER_Stop_TMR1%345
                0x000000000c00293c       0x10
 .text.TIMER_DRIVER_Stop_TMR1
                0x000000000c00293c       0x10 build/default/production/_ext/1360937237/timer_driver.o
                0x000000000c00293c                TIMER_DRIVER_Stop_TMR1

.text.TIMER_DRIVER_Stop_TMR2%346
                0x000000000c00294c       0x10
 .text.TIMER_DRIVER_Stop_TMR2
                0x000000000c00294c       0x10 build/default/production/_ext/1360937237/timer_driver.o
                0x000000000c00294c                TIMER_DRIVER_Stop_TMR2

.text.TIMER_DRIVER_Stop_TMR3%347
                0x000000000c00295c       0x10
 .text.TIMER_DRIVER_Stop_TMR3
                0x000000000c00295c       0x10 build/default/production/_ext/1360937237/timer_driver.o
                0x000000000c00295c                TIMER_DRIVER_Stop_TMR3

.text.lDRV_USART_TX_PLIB_CallbackHandler%348
                0x000000000c00296c        0xe
 .text.lDRV_USART_TX_PLIB_CallbackHandler
                0x000000000c00296c        0xe build/default/production/_ext/869808652/drv_usart.o

.text.main%349  0x000000000c00297a        0xe
 .text.main     0x000000000c00297a        0xe build/default/production/_ext/1360937237/main.o
                0x000000000c00297a                main

.text.SERCOM0_I2C_CallbackRegister%350
                0x000000000c002988        0xc
 .text.SERCOM0_I2C_CallbackRegister
                0x000000000c002988        0xc build/default/production/_ext/508257091/plib_sercom0_i2c_master.o
                0x000000000c002988                SERCOM0_I2C_CallbackRegister

.text.SERCOM0_I2C_ErrorGet%351
                0x000000000c002994        0xc
 .text.SERCOM0_I2C_ErrorGet
                0x000000000c002994        0xc build/default/production/_ext/508257091/plib_sercom0_i2c_master.o
                0x000000000c002994                SERCOM0_I2C_ErrorGet

.text.SERCOM1_SPI_CallbackRegister%352
                0x000000000c0029a0        0xc
 .text.SERCOM1_SPI_CallbackRegister
                0x000000000c0029a0        0xc build/default/production/_ext/17022449/plib_sercom1_spi_master.o
                0x000000000c0029a0                SERCOM1_SPI_CallbackRegister

.text.SERCOM2_USART_WriteIsBusy%353
                0x000000000c0029ac        0xc
 .text.SERCOM2_USART_WriteIsBusy
                0x000000000c0029ac        0xc build/default/production/_ext/504274921/plib_sercom2_usart.o
                0x000000000c0029ac                SERCOM2_USART_WriteIsBusy

.text.SERCOM2_USART_WriteCountGet%354
                0x000000000c0029b8        0xc
 .text.SERCOM2_USART_WriteCountGet
                0x000000000c0029b8        0xc build/default/production/_ext/504274921/plib_sercom2_usart.o
                0x000000000c0029b8                SERCOM2_USART_WriteCountGet

.text.SERCOM2_USART_WriteCallbackRegister%355
                0x000000000c0029c4        0xc
 .text.SERCOM2_USART_WriteCallbackRegister
                0x000000000c0029c4        0xc build/default/production/_ext/504274921/plib_sercom2_usart.o
                0x000000000c0029c4                SERCOM2_USART_WriteCallbackRegister

.text.SERCOM2_USART_ReadIsBusy%356
                0x000000000c0029d0        0xc
 .text.SERCOM2_USART_ReadIsBusy
                0x000000000c0029d0        0xc build/default/production/_ext/504274921/plib_sercom2_usart.o
                0x000000000c0029d0                SERCOM2_USART_ReadIsBusy

.text.SERCOM2_USART_ReadCountGet%357
                0x000000000c0029dc        0xc
 .text.SERCOM2_USART_ReadCountGet
                0x000000000c0029dc        0xc build/default/production/_ext/504274921/plib_sercom2_usart.o
                0x000000000c0029dc                SERCOM2_USART_ReadCountGet

.text.SERCOM2_USART_ReadCallbackRegister%358
                0x000000000c0029e8        0xc
 .text.SERCOM2_USART_ReadCallbackRegister
                0x000000000c0029e8        0xc build/default/production/_ext/504274921/plib_sercom2_usart.o
                0x000000000c0029e8                SERCOM2_USART_ReadCallbackRegister

.text.TCC0_TimerCallbackRegister%359
                0x000000000c0029f4        0xc
 .text.TCC0_TimerCallbackRegister
                0x000000000c0029f4        0xc build/default/production/_ext/60181570/plib_tcc0.o
                0x000000000c0029f4                TCC0_TimerCallbackRegister

.rodata.drvUsart0remapError%360
                0x000000000c002a00        0xc
 .rodata.drvUsart0remapError
                0x000000000c002a00        0xc build/default/production/_ext/1171490990/initialization.o

.rodata.drvUsart0remapStopBits%361
                0x000000000c002a0c        0xc
 .rodata.drvUsart0remapStopBits
                0x000000000c002a0c        0xc build/default/production/_ext/1171490990/initialization.o

.rodata.sysConsole0Init%362
                0x000000000c002a18        0xc
 .rodata.sysConsole0Init
                0x000000000c002a18        0xc build/default/production/_ext/1171490990/initialization.o

.text.CONSOLE_DRIVER_Initialize%363
                0x000000000c002a24        0xc
 .text.CONSOLE_DRIVER_Initialize
                0x000000000c002a24        0xc build/default/production/_ext/1360937237/console_driver.o
                0x000000000c002a24                CONSOLE_DRIVER_Initialize

.text.RTC_DRIVER_Initialize%364
                0x000000000c002a30        0xc
 .text.RTC_DRIVER_Initialize
                0x000000000c002a30        0xc build/default/production/_ext/1360937237/rtc_driver.o
                0x000000000c002a30                RTC_DRIVER_Initialize

.text.TMR0_Callback%365
                0x000000000c002a3c        0xc
 .text.TMR0_Callback
                0x000000000c002a3c        0xc build/default/production/_ext/1360937237/timer_driver.o
                0x000000000c002a3c                TMR0_Callback

.text.TMR1_Callback%366
                0x000000000c002a48        0xc
 .text.TMR1_Callback
                0x000000000c002a48        0xc build/default/production/_ext/1360937237/timer_driver.o
                0x000000000c002a48                TMR1_Callback

.text.TMR2_Callback%367
                0x000000000c002a54        0xc
 .text.TMR2_Callback
                0x000000000c002a54        0xc build/default/production/_ext/1360937237/timer_driver.o
                0x000000000c002a54                TMR2_Callback

.text.TMR3_Callback%368
                0x000000000c002a60        0xc
 .text.TMR3_Callback
                0x000000000c002a60        0xc build/default/production/_ext/1360937237/timer_driver.o
                0x000000000c002a60                TMR3_Callback

.text.CAN0_DRIVER_Initialize%369
                0x000000000c002a6c        0xc
 .text.CAN0_DRIVER_Initialize
                0x000000000c002a6c        0xc build/default/production/_ext/1360937237/can0_driver.o
                0x000000000c002a6c                CAN0_DRIVER_Initialize

.text.RSTC_DRIVER_Initialize%370
                0x000000000c002a78        0xc
 .text.RSTC_DRIVER_Initialize
                0x000000000c002a78        0xc build/default/production/_ext/1360937237/rstc_driver.o
                0x000000000c002a78                RSTC_DRIVER_Initialize

.text.SERCOM3_USART_WriteCountGet%371
                0x000000000c002a84        0x8
 .text.SERCOM3_USART_WriteCountGet
                0x000000000c002a84        0x8 build/default/production/_ext/504274921/plib_sercom3_usart.o
                0x000000000c002a84                SERCOM3_USART_WriteCountGet

.text.TCC0_TimerFrequencyGet%372
                0x000000000c002a8c        0x8
 .text.TCC0_TimerFrequencyGet
                0x000000000c002a8c        0x8 build/default/production/_ext/60181570/plib_tcc0.o
                0x000000000c002a8c                TCC0_TimerFrequencyGet

.rodata.drvSPI0remapClockPhase%373
                0x000000000c002a94        0x8
 .rodata.drvSPI0remapClockPhase
                0x000000000c002a94        0x8 build/default/production/_ext/1171490990/initialization.o

.rodata.drvSPI0remapClockPolarity%374
                0x000000000c002a9c        0x8
 .rodata.drvSPI0remapClockPolarity
                0x000000000c002a9c        0x8 build/default/production/_ext/1171490990/initialization.o

.rodata.sysTimeInitData%375
                0x000000000c002aa4        0x8
 .rodata.sysTimeInitData
                0x000000000c002aa4        0x8 build/default/production/_ext/1171490990/initialization.o

.text.PORT_GroupSet%376
                0x000000000c002aac        0x4
 .text.PORT_GroupSet
                0x000000000c002aac        0x4 build/default/production/_ext/1865521619/plib_port.o
                0x000000000c002aac                PORT_GroupSet

.text.PORT_GroupClear%377
                0x000000000c002ab0        0x4
 .text.PORT_GroupClear
                0x000000000c002ab0        0x4 build/default/production/_ext/1865521619/plib_port.o
                0x000000000c002ab0                PORT_GroupClear

.text.Console_UART_Flush%378
                0x000000000c002ab4        0x4
 .text.Console_UART_Flush
                0x000000000c002ab4        0x4 build/default/production/_ext/1832805299/sys_console_uart.o
                0x000000000c002ab4                Console_UART_Flush

.rodata.sysConsole0UARTInitData%379
                0x000000000c002ab8        0x4
 .rodata.sysConsole0UARTInitData
                0x000000000c002ab8        0x4 build/default/production/_ext/1171490990/initialization.o

.text.__dummy_decompress%380
                0x000000000c002abc        0x4
 .text.__dummy_decompress
                0x000000000c002abc        0x4 c:/applications/microchip/xc32/bin/bin/../../lib/gcc/pic32c/8.3.1/../../../../pic32c/lib/thumb/v8-m.main+fp/hard\libpic32c.a(data_init.o)
                0x000000000c002abc                __dinit_decompress
                0x000000000c002abc                __dinit_copy_val_data
                0x000000000c002abc                __dinit_copy_emb

.text.EVSYS_Initialize%381
                0x000000000c001efa        0x2
 .text.EVSYS_Initialize
                0x000000000c001efa        0x2 build/default/production/_ext/1986646378/plib_evsys.o
                0x000000000c001efa                EVSYS_Initialize

.text.TRNG_Initialize%382
                0x000000000c002496        0x2
 .text.TRNG_Initialize
                0x000000000c002496        0x2 build/default/production/_ext/1865643529/plib_trng.o
                0x000000000c002496                TRNG_Initialize

.text.Console_UART_Tasks%383
                0x000000000c00267e        0x2
 .text.Console_UART_Tasks
                0x000000000c00267e        0x2 build/default/production/_ext/1832805299/sys_console_uart.o
                0x000000000c00267e                Console_UART_Tasks

.text.Dummy_App_Func%384
                0x000000000c002ac0        0x2
 .text.Dummy_App_Func
                0x000000000c002ac0        0x2 build/default/production/_ext/1171490990/startup_xc32.o
                0x000000000c002ac0                _on_reset
                0x000000000c002ac0                _on_bootstrap
                0x000000000c002ac0                __xc32_on_reset
                0x000000000c002ac0                Dummy_App_Func
                0x000000000c002ac0                __xc32_on_bootstrap

.text.NonMaskableInt_Handler%385
                0x000000000c002ac2        0x2
 .text.NonMaskableInt_Handler
                0x000000000c002ac2        0x2 build/default/production/_ext/1171490990/exceptions.o
                0x000000000c002ac2                NonMaskableInt_Handler

.text.HardFault_Handler%386
                0x000000000c002ac4        0x2
 .text.HardFault_Handler
                0x000000000c002ac4        0x2 build/default/production/_ext/1171490990/exceptions.o
                0x000000000c002ac4                HardFault_Handler

.text.SYS_Tasks%387
                0x000000000c002ac6        0x2
 .text.SYS_Tasks
                0x000000000c002ac6        0x2 build/default/production/_ext/1171490990/tasks.o
                0x000000000c002ac6                SYS_Tasks

.text.Dummy_Handler%388
                0x000000000c002ac8        0x2
 .text.Dummy_Handler
                0x000000000c002ac8        0x2 build/default/production/_ext/1171490990/interrupts.o
                0x000000000c002ac8                EIC_EXTINT_9_Handler
                0x000000000c002ac8                TCC0_MC5_Handler
                0x000000000c002ac8                SVCall_Handler
                0x000000000c002ac8                DMA0_PRI1_Handler
                0x000000000c002ac8                TCC4_OTHER_Handler
                0x000000000c002ac8                TCC2_MC2_Handler
                0x000000000c002ac8                EVSYS_0_Handler
                0x000000000c002ac8                TRNG_Handler
                0x000000000c002ac8                USB_TRCPT0_Handler
                0x000000000c002ac8                AC_Handler
                0x000000000c002ac8                EIC_EXTINT_5_Handler
                0x000000000c002ac8                SPI_IXS_Handler
                0x000000000c002ac8                EIC_EXTINT_6_Handler
                0x000000000c002ac8                PendSV_Handler
                0x000000000c002ac8                SERCOM7_56_Handler
                0x000000000c002ac8                TCC4_MC0_Handler
                0x000000000c002ac8                EVSYS_3_Handler
                0x000000000c002ac8                TCC2_MC0_Handler
                0x000000000c002ac8                TCC2_MC5_Handler
                0x000000000c002ac8                TCC3_MC0_Handler
                0x000000000c002ac8                FCR_FLT_Handler
                0x000000000c002ac8                TCC2_MC1_Handler
                0x000000000c002ac8                OSCCTRL_XOSC_Handler
                0x000000000c002ac8                EIC_EXTINT_4_Handler
                0x000000000c002ac8                EIC_EXTINT_7_Handler
                0x000000000c002ac8                EVSYS_OTHER_Handler
                0x000000000c002ac8                TCC3_MC3_Handler
                0x000000000c002ac8                SERCOM7_4_Handler
                0x000000000c002ac8                USBHS_Handler
                0x000000000c002ac8                TCC1_MC5_Handler
                0x000000000c002ac8                UsageFault_Handler
                0x000000000c002ac8                SERCOM4_0_Handler
                0x000000000c002ac8                DMA1_PRI1_Handler
                0x000000000c002ac8                TCC1_MC0_Handler
                0x000000000c002ac8                HSM_ERROR_Handler
                0x000000000c002ac8                TCC3_MC5_Handler
                0x000000000c002ac8                TCC2_OTHER_Handler
                0x000000000c002ac8                EIC_EXTINT_11_Handler
                0x000000000c002ac8                EIC_EXTINT_14_Handler
                0x000000000c002ac8                OSC32KCTRL_Handler
                0x000000000c002ac8                SERCOM6_2_Handler
                0x000000000c002ac8                SERCOM5_4_Handler
                0x000000000c002ac8                EVSYS_1_Handler
                0x000000000c002ac8                HSM_TXINT_Handler
                0x000000000c002ac8                TCC4_MC1_Handler
                0x000000000c002ac8                WDT_Handler
                0x000000000c002ac8                TCC5_OTHER_Handler
                0x000000000c002ac8                Reserved2_Handler
                0x000000000c002ac8                TRAM_Handler
                0x000000000c002ac8                CAN0_Handler
                0x000000000c002ac8                EIC_EXTINT_15_Handler
                0x000000000c002ac8                TCC3_MC4_Handler
                0x000000000c002ac8                SERCOM6_0_Handler
                0x000000000c002ac8                EIC_EXTINT_1_Handler
                0x000000000c002ac8                TCC3_MC1_Handler
                0x000000000c002ac8                SERCOM5_0_Handler
                0x000000000c002ac8                TCC1_MC1_Handler
                0x000000000c002ac8                HMATRIX_Handler
                0x000000000c002ac8                SERCOM4_3_Handler
                0x000000000c002ac8                EIC_EXTINT_0_Handler
                0x000000000c002ac8                DMA0_PRI0_Handler
                0x000000000c002ac8                TCC6_MC0_Handler
                0x000000000c002ac8                TCC5_MC1_Handler
                0x000000000c002ac8                TCC1_OTHER_Handler
                0x000000000c002ac8                PAC_Handler
                0x000000000c002ac8                SERCOM4_1_Handler
                0x000000000c002ac8                Dummy_Handler
                0x000000000c002ac8                SERCOM6_56_Handler
                0x000000000c002ac8                SERCOM5_1_Handler
                0x000000000c002ac8                TCC0_MC4_Handler
                0x000000000c002ac8                USB_TRCPT1_Handler
                0x000000000c002ac8                TCC0_MC3_Handler
                0x000000000c002ac8                EIC_EXTINT_12_Handler
                0x000000000c002ac8                SERCOM7_1_Handler
                0x000000000c002ac8                PM_Handler
                0x000000000c002ac8                SERCOM6_3_Handler
                0x000000000c002ac8                TCC2_MC4_Handler
                0x000000000c002ac8                SERCOM4_4_Handler
                0x000000000c002ac8                OSCCTRL_DFLL_Handler
                0x000000000c002ac8                HSM_RXINT_Handler
                0x000000000c002ac8                SERCOM7_0_Handler
                0x000000000c002ac8                EIC_NSCHK_Handler
                0x000000000c002ac8                SERCOM7_3_Handler
                0x000000000c002ac8                USB_OTHER_Handler
                0x000000000c002ac8                TCC3_MC2_Handler
                0x000000000c002ac8                SDMMC1_Handler
                0x000000000c002ac8                SERCOM7_2_Handler
                0x000000000c002ac8                CAN1_Handler
                0x000000000c002ac8                EIC_EXTINT_10_Handler
                0x000000000c002ac8                TCC1_MC3_Handler
                0x000000000c002ac8                SERCOM4_56_Handler
                0x000000000c002ac8                ADC_GLOBAL_Handler
                0x000000000c002ac8                SERCOM5_3_Handler
                0x000000000c002ac8                OSCCTRL_PLL0_Handler
                0x000000000c002ac8                SecureFaultMonitor_Handler
                0x000000000c002ac8                SUPC_Handler
                0x000000000c002ac8                ADC_CORE1_Handler
                0x000000000c002ac8                PDEC_Handler
                0x000000000c002ac8                SQI_Handler
                0x000000000c002ac8                SERCOM6_1_Handler
                0x000000000c002ac8                TCC0_MC0_Handler
                0x000000000c002ac8                EIC_EXTINT_2_Handler
                0x000000000c002ac8                PCC_Handler
                0x000000000c002ac8                TCC1_MC4_Handler
                0x000000000c002ac8                SDMMC0_Handler
                0x000000000c002ac8                PORT_Handler
                0x000000000c002ac8                TCC3_OTHER_Handler
                0x000000000c002ac8                TCC7_MC0_Handler
                0x000000000c002ac8                ETH_Handler
                0x000000000c002ac8                EIC_EXTINT_13_Handler
                0x000000000c002ac8                SERCOM5_56_Handler
                0x000000000c002ac8                DMA1_PRI0_Handler
                0x000000000c002ac8                FCW_Handler
                0x000000000c002ac8                TCC7_OTHER_Handler
                0x000000000c002ac8                Reserved4_Handler
                0x000000000c002ac8                SERCOM4_2_Handler
                0x000000000c002ac8                TCC1_MC2_Handler
                0x000000000c002ac8                Reserved3_Handler
                0x000000000c002ac8                SERCOM5_2_Handler
                0x000000000c002ac8                DMA0_PRI2_Handler
                0x000000000c002ac8                EIC_EXTINT_3_Handler
                0x000000000c002ac8                TCC5_MC0_Handler
                0x000000000c002ac8                TCC2_MC3_Handler
                0x000000000c002ac8                PTC_Handler
                0x000000000c002ac8                EIC_EXTINT_8_Handler
                0x000000000c002ac8                FCR_ERR_Handler
                0x000000000c002ac8                MCLK_Handler
                0x000000000c002ac8                EVSYS_2_Handler
                0x000000000c002ac8                TCC7_MC1_Handler
                0x000000000c002ac8                Reserved5_Handler
                0x000000000c002ac8                BusFault_Handler
                0x000000000c002ac8                FREQM_Handler
                0x000000000c002ac8                MemoryManagement_Handler
                0x000000000c002ac8                TCC6_MC1_Handler
                0x000000000c002ac8                TCC0_MC1_Handler
                0x000000000c002ac8                DebugMonitor_Handler
                0x000000000c002ac8                USB_SOF_Handler
                0x000000000c002ac8                TCC0_MC2_Handler
                0x000000000c002ac8                SERCOM6_4_Handler
                0x000000000c002ac8                TCC6_OTHER_Handler

.text.MCP9808_DRIVER_Initialize%389
                0x000000000c002aca        0x2
 .text.MCP9808_DRIVER_Initialize
                0x000000000c002aca        0x2 build/default/production/_ext/1360937237/mcp9808_driver.o
                0x000000000c002aca                MCP9808_DRIVER_Initialize

.text.LC709204F_DRIVER_Initialize%390
                0x000000000c002acc        0x2
 .text.LC709204F_DRIVER_Initialize
                0x000000000c002acc        0x2 build/default/production/_ext/1360937237/lc709204f_driver.o
                0x000000000c002acc                LC709204F_DRIVER_Initialize

.text.__dummy_init_tls%391
                0x000000000c002ace        0x2
 .text.__dummy_init_tls
                0x000000000c002ace        0x2 c:/applications/microchip/xc32/bin/bin/../../lib/gcc/pic32c/8.3.1/../../../../pic32c/lib/thumb/v8-m.main+fp/hard\libpic32c.a(data_init.o)
                0x000000000c002ace                xc32_init_tls

.text.__dummy%392
                0x000000000c002ad0        0x2
 .text.__dummy  0x000000000c002ad0        0x2 c:/applications/microchip/xc32/bin/bin/../../lib/gcc/pic32c/8.3.1/../../../../pic32c/lib/thumb/v8-m.main+fp/hard\libc-musl.a(__libc_start_main.o)
                0x000000000c002ad0                __init_stdio
                0x000000000c002ad0                __init_host
