Archive member included to satisfy reference by file (symbol)

C:/Applications/Microchip/XC32/bin/bin/../../lib/gcc/pic32c/13.2.1/../../../../pic32c/lib/thumb/v6-m/nofp\libpic32c.a(data_init.o)
                              build/default/production/_ext/1171490990/startup_xc32.o (__pic32c_data_initialization)
C:/Applications/Microchip/XC32/bin/bin/../../lib/gcc/pic32c/13.2.1/../../../../pic32c/lib/thumb/v6-m/nofp\libc-size-musl.a(memcpy.o)
                              build/default/production/_ext/60165182/plib_can0.o (memcpy)
C:/Applications/Microchip/XC32/bin/bin/../../lib/gcc/pic32c/13.2.1/../../../../pic32c/lib/thumb/v6-m/nofp\libc-size-musl.a(memset.o)
                              build/default/production/_ext/60165182/plib_can0.o (memset)
C:/Applications/Microchip/XC32/bin/bin/../../lib/gcc/pic32c/13.2.1/../../../../pic32c/lib/thumb/v6-m/nofp\libc-size-musl.a(strlen.o)
                              build/default/production/_ext/1832805299/sys_console.o (strlen)
C:/Applications/Microchip/XC32/bin/bin/../../lib/gcc/pic32c/13.2.1/../../../../pic32c/lib/thumb/v6-m/nofp\libc-size-musl.a(strstr.o)
                              build/default/production/_ext/1360937237/fcm360w_driver.o (strstr)
C:/Applications/Microchip/XC32/bin/bin/../../lib/gcc/pic32c/13.2.1/../../../../pic32c/lib/thumb/v6-m/nofp\libc-size-musl.a(strchr.o)
                              build/default/production/_ext/1360937237/fcm360w_driver.o (strchr)
C:/Applications/Microchip/XC32/bin/bin/../../lib/gcc/pic32c/13.2.1/../../../../pic32c/lib/thumb/v6-m/nofp\libc-size-musl.a(strchrnul.o)
                              C:/Applications/Microchip/XC32/bin/bin/../../lib/gcc/pic32c/13.2.1/../../../../pic32c/lib/thumb/v6-m/nofp\libc-size-musl.a(strchr.o) (__strchrnul)
C:/Applications/Microchip/XC32/bin/bin/../../lib/gcc/pic32c/13.2.1/../../../../pic32c/lib/thumb/v6-m/nofp\libc-musl.a(__libc_start_main.o)
                              build/default/production/_ext/1171490990/startup_xc32.o (__libc_init_array)
C:/Applications/Microchip/XC32/bin/bin/../../lib/gcc/pic32c/13.2.1/../../../../pic32c/lib/thumb/v6-m/nofp\libc-musl.a(libc.o)
                              C:/Applications/Microchip/XC32/bin/bin/../../lib/gcc/pic32c/13.2.1/../../../../pic32c/lib/thumb/v6-m/nofp\libc-musl.a(__libc_start_main.o) (__progname_full)
C:/Applications/Microchip/XC32/bin/bin/../../lib/gcc/pic32c/13.2.1/../../../../pic32c/lib/thumb/v6-m/nofp\libc-musl.a(vsnprintf.o)
                              build/default/production/_ext/1832805299/sys_console.o (vsnprintf)
C:/Applications/Microchip/XC32/bin/bin/../../lib/gcc/pic32c/13.2.1/../../../../pic32c/lib/thumb/v6-m/nofp\libc-musl.a(sprintf.o)
                              (sprintf)
C:/Applications/Microchip/XC32/bin/bin/../../lib/gcc/pic32c/13.2.1/../../../../pic32c/lib/thumb/v6-m/nofp\libc-musl.a(vsprintf.o)
                              C:/Applications/Microchip/XC32/bin/bin/../../lib/gcc/pic32c/13.2.1/../../../../pic32c/lib/thumb/v6-m/nofp\libc-musl.a(sprintf.o) (vsprintf)
C:/Applications/Microchip/XC32/bin/bin/../../lib/gcc/pic32c/13.2.1/../../../../pic32c/lib/thumb/v6-m/nofp\libc-musl.a(__environ.o)
                              C:/Applications/Microchip/XC32/bin/bin/../../lib/gcc/pic32c/13.2.1/../../../../pic32c/lib/thumb/v6-m/nofp\libc-musl.a(__libc_start_main.o) (__environ)
C:/Applications/Microchip/XC32/bin/bin/../../lib/gcc/pic32c/13.2.1/../../../../pic32c/lib/thumb/v6-m/nofp\libc-musl.a(__errno_location.o)
                              C:/Applications/Microchip/XC32/bin/bin/../../lib/gcc/pic32c/13.2.1/../../../../pic32c/lib/thumb/v6-m/nofp\libc-musl.a(vsnprintf.o) (__errno_val)
C:/Applications/Microchip/XC32/bin/bin/../../lib/gcc/pic32c/13.2.1/../../../../pic32c/lib/thumb/v6-m/nofp\libc-musl.a(vfprintf.o)
                              C:/Applications/Microchip/XC32/bin/bin/../../lib/gcc/pic32c/13.2.1/../../../../pic32c/lib/thumb/v6-m/nofp\libc-musl.a(vsnprintf.o) (vfprintf)
C:/Applications/Microchip/XC32/bin/bin/../../lib/gcc/pic32c/13.2.1/../../../../pic32c/lib/thumb/v6-m/nofp\libc-musl.a(__io_fmt_needed.o)
                              C:/Applications/Microchip/XC32/bin/bin/../../lib/gcc/pic32c/13.2.1/../../../../pic32c/lib/thumb/v6-m/nofp\libc-musl.a(vfprintf.o) (__io_fmt_needed)
C:/Applications/Microchip/XC32/bin/bin/../../lib/gcc/pic32c/13.2.1/../../../../pic32c/lib/thumb/v6-m/nofp\libc-musl.a(__pop_float.o)
                              C:/Applications/Microchip/XC32/bin/bin/../../lib/gcc/pic32c/13.2.1/../../../../pic32c/lib/thumb/v6-m/nofp\libc-musl.a(__io_fmt_needed.o) (__pop_float_needed)
C:/Applications/Microchip/XC32/bin/bin/../../lib/gcc/pic32c/13.2.1/../../../../pic32c/lib/thumb/v6-m/nofp\libc-musl.a(__pop_int.o)
                              C:/Applications/Microchip/XC32/bin/bin/../../lib/gcc/pic32c/13.2.1/../../../../pic32c/lib/thumb/v6-m/nofp\libc-musl.a(__io_fmt_needed.o) (__pop_int_needed)
C:/Applications/Microchip/XC32/bin/bin/../../lib/gcc/pic32c/13.2.1/../../../../pic32c/lib/thumb/v6-m/nofp\libc-musl.a(__pop_ptr.o)
                              C:/Applications/Microchip/XC32/bin/bin/../../lib/gcc/pic32c/13.2.1/../../../../pic32c/lib/thumb/v6-m/nofp\libc-musl.a(__io_fmt_needed.o) (__pop_ptr_needed)
C:/Applications/Microchip/XC32/bin/bin/../../lib/gcc/pic32c/13.2.1/../../../../pic32c/lib/thumb/v6-m/nofp\libc-musl.a(__printf_core.o)
                              C:/Applications/Microchip/XC32/bin/bin/../../lib/gcc/pic32c/13.2.1/../../../../pic32c/lib/thumb/v6-m/nofp\libc-musl.a(vfprintf.o) (__printf_core)
C:/Applications/Microchip/XC32/bin/bin/../../lib/gcc/pic32c/13.2.1/../../../../pic32c/lib/thumb/v6-m/nofp\libc-musl.a(atoi.o)
                              C:/Applications/Microchip/XC32/bin/bin/../../lib/gcc/pic32c/13.2.1/../../../../pic32c/lib/thumb/v6-m/nofp\libc-musl.a(__printf_core.o) (atoi)
C:/Applications/Microchip/XC32/bin/bin/../../lib/gcc/pic32c/13.2.1/../../../../pic32c/lib/thumb/v6-m/nofp\libc-musl.a(tolower.o)
                              C:/Applications/Microchip/XC32/bin/bin/../../lib/gcc/pic32c/13.2.1/../../../../pic32c/lib/thumb/v6-m/nofp\libc-musl.a(__printf_core.o) (tolower)
C:/Applications/Microchip/XC32/bin/bin/../../lib/gcc/pic32c/13.2.1/../../../../pic32c/lib/thumb/v6-m/nofp\libc-musl.a(__fmt_a.o)
                              C:/Applications/Microchip/XC32/bin/bin/../../lib/gcc/pic32c/13.2.1/../../../../pic32c/lib/thumb/v6-m/nofp\libc-musl.a(__io_fmt_needed.o) (__fmt_a_needed)
C:/Applications/Microchip/XC32/bin/bin/../../lib/gcc/pic32c/13.2.1/../../../../pic32c/lib/thumb/v6-m/nofp\libc-musl.a(__fmt_d.o)
                              C:/Applications/Microchip/XC32/bin/bin/../../lib/gcc/pic32c/13.2.1/../../../../pic32c/lib/thumb/v6-m/nofp\libc-musl.a(__io_fmt_needed.o) (__fmt_d_needed)
C:/Applications/Microchip/XC32/bin/bin/../../lib/gcc/pic32c/13.2.1/../../../../pic32c/lib/thumb/v6-m/nofp\libc-musl.a(__fmt_fp.o)
                              C:/Applications/Microchip/XC32/bin/bin/../../lib/gcc/pic32c/13.2.1/../../../../pic32c/lib/thumb/v6-m/nofp\libc-musl.a(__io_fmt_needed.o) (__fmt_f_needed)
C:/Applications/Microchip/XC32/bin/bin/../../lib/gcc/pic32c/13.2.1/../../../../pic32c/lib/thumb/v6-m/nofp\libc-musl.a(__fmt_o.o)
                              C:/Applications/Microchip/XC32/bin/bin/../../lib/gcc/pic32c/13.2.1/../../../../pic32c/lib/thumb/v6-m/nofp\libc-musl.a(__io_fmt_needed.o) (__fmt_o_needed)
C:/Applications/Microchip/XC32/bin/bin/../../lib/gcc/pic32c/13.2.1/../../../../pic32c/lib/thumb/v6-m/nofp\libc-musl.a(__fmt_s.o)
                              C:/Applications/Microchip/XC32/bin/bin/../../lib/gcc/pic32c/13.2.1/../../../../pic32c/lib/thumb/v6-m/nofp\libc-musl.a(__io_fmt_needed.o) (__fmt_s_needed)
C:/Applications/Microchip/XC32/bin/bin/../../lib/gcc/pic32c/13.2.1/../../../../pic32c/lib/thumb/v6-m/nofp\libc-musl.a(__fmt_u.o)
                              C:/Applications/Microchip/XC32/bin/bin/../../lib/gcc/pic32c/13.2.1/../../../../pic32c/lib/thumb/v6-m/nofp\libc-musl.a(__io_fmt_needed.o) (__fmt_u_needed)
C:/Applications/Microchip/XC32/bin/bin/../../lib/gcc/pic32c/13.2.1/../../../../pic32c/lib/thumb/v6-m/nofp\libc-musl.a(__fmt_x.o)
                              C:/Applications/Microchip/XC32/bin/bin/../../lib/gcc/pic32c/13.2.1/../../../../pic32c/lib/thumb/v6-m/nofp\libc-musl.a(__io_fmt_needed.o) (__fmt_x_needed)
C:/Applications/Microchip/XC32/bin/bin/../../lib/gcc/pic32c/13.2.1/../../../../pic32c/lib/thumb/v6-m/nofp\libc-musl.a(toupper.o)
                              C:/Applications/Microchip/XC32/bin/bin/../../lib/gcc/pic32c/13.2.1/../../../../pic32c/lib/thumb/v6-m/nofp\libc-musl.a(__fmt_a.o) (toupper)
C:/Applications/Microchip/XC32/bin/bin/../../lib/gcc/pic32c/13.2.1/../../../../pic32c/lib/thumb/v6-m/nofp\libc-musl.a(__cvt_u.o)
                              C:/Applications/Microchip/XC32/bin/bin/../../lib/gcc/pic32c/13.2.1/../../../../pic32c/lib/thumb/v6-m/nofp\libc-musl.a(__fmt_d.o) (__cvt_u)
C:/Applications/Microchip/XC32/bin/bin/../../lib/gcc/pic32c/13.2.1/../../../../pic32c/lib/thumb/v6-m/nofp\libm-fast-emfloat.a(fma.o)
                              C:/Applications/Microchip/XC32/bin/bin/../../lib/gcc/pic32c/13.2.1/../../../../pic32c/lib/thumb/v6-m/nofp\libc-musl.a(__fmt_fp.o) (fma)
C:/Applications/Microchip/XC32/bin/bin/../../lib/gcc/pic32c/13.2.1/../../../../pic32c/lib/thumb/v6-m/nofp\libm-fast-emfloat.a(floor.o)
                              C:/Applications/Microchip/XC32/bin/bin/../../lib/gcc/pic32c/13.2.1/../../../../pic32c/lib/thumb/v6-m/nofp\libc-musl.a(__fmt_a.o) (floor)
C:/Applications/Microchip/XC32/bin/bin/../../lib/gcc/pic32c/13.2.1/../../../../pic32c/lib/thumb/v6-m/nofp\libm-fast-emfloat.a(__aeabi_fadd.o)
                              build/default/production/_ext/508257091/plib_sercom3_i2c_master.o (__aeabi_fadd)
C:/Applications/Microchip/XC32/bin/bin/../../lib/gcc/pic32c/13.2.1/../../../../pic32c/lib/thumb/v6-m/nofp\libm-fast-emfloat.a(__aeabi_dadd.o)
                              build/default/production/_ext/1360937237/mcp9808_driver.o (__aeabi_dadd)
C:/Applications/Microchip/XC32/bin/bin/../../lib/gcc/pic32c/13.2.1/../../../../pic32c/lib/thumb/v6-m/nofp\libm-fast-emfloat.a(__aeabi_fsub.o)
                              build/default/production/_ext/508257091/plib_sercom3_i2c_master.o (__aeabi_fsub)
C:/Applications/Microchip/XC32/bin/bin/../../lib/gcc/pic32c/13.2.1/../../../../pic32c/lib/thumb/v6-m/nofp\libm-fast-emfloat.a(__aeabi_dsub.o)
                              C:/Applications/Microchip/XC32/bin/bin/../../lib/gcc/pic32c/13.2.1/../../../../pic32c/lib/thumb/v6-m/nofp\libc-musl.a(__fmt_a.o) (__aeabi_dsub)
C:/Applications/Microchip/XC32/bin/bin/../../lib/gcc/pic32c/13.2.1/../../../../pic32c/lib/thumb/v6-m/nofp\libm-fast-emfloat.a(__aeabi_fmul.o)
                              build/default/production/_ext/60165182/plib_can0.o (__aeabi_fmul)
C:/Applications/Microchip/XC32/bin/bin/../../lib/gcc/pic32c/13.2.1/../../../../pic32c/lib/thumb/v6-m/nofp\libm-fast-emfloat.a(__aeabi_dmul_aux.o)
                              build/default/production/_ext/1360937237/mcp9808_driver.o (__aeabi_dmul)
C:/Applications/Microchip/XC32/bin/bin/../../lib/gcc/pic32c/13.2.1/../../../../pic32c/lib/thumb/v6-m/nofp\libm-fast-emfloat.a(__aeabi_fdiv.o)
                              build/default/production/_ext/60165182/plib_can0.o (__aeabi_fdiv)
C:/Applications/Microchip/XC32/bin/bin/../../lib/gcc/pic32c/13.2.1/../../../../pic32c/lib/thumb/v6-m/nofp\libm-fast-emfloat.a(__aeabi_ddiv.o)
                              C:/Applications/Microchip/XC32/bin/bin/../../lib/gcc/pic32c/13.2.1/../../../../pic32c/lib/thumb/v6-m/nofp\libc-musl.a(__fmt_a.o) (__aeabi_ddiv)
C:/Applications/Microchip/XC32/bin/bin/../../lib/gcc/pic32c/13.2.1/../../../../pic32c/lib/thumb/v6-m/nofp\libm-fast-emfloat.a(__aeabi_dcmple.o)
                              C:/Applications/Microchip/XC32/bin/bin/../../lib/gcc/pic32c/13.2.1/../../../../pic32c/lib/thumb/v6-m/nofp\libc-musl.a(__fmt_fp.o) (__aeabi_dcmple)
C:/Applications/Microchip/XC32/bin/bin/../../lib/gcc/pic32c/13.2.1/../../../../pic32c/lib/thumb/v6-m/nofp\libm-fast-emfloat.a(__aeabi_dcmpeq.o)
                              C:/Applications/Microchip/XC32/bin/bin/../../lib/gcc/pic32c/13.2.1/../../../../pic32c/lib/thumb/v6-m/nofp\libc-musl.a(__fmt_a.o) (__aeabi_dcmpeq)
C:/Applications/Microchip/XC32/bin/bin/../../lib/gcc/pic32c/13.2.1/../../../../pic32c/lib/thumb/v6-m/nofp\libm-fast-emfloat.a(__aeabi_dcmpgt.o)
                              C:/Applications/Microchip/XC32/bin/bin/../../lib/gcc/pic32c/13.2.1/../../../../pic32c/lib/thumb/v6-m/nofp\libc-musl.a(__fmt_fp.o) (__aeabi_dcmpgt)
C:/Applications/Microchip/XC32/bin/bin/../../lib/gcc/pic32c/13.2.1/../../../../pic32c/lib/thumb/v6-m/nofp\libm-fast-emfloat.a(__aeabi_fcmplt.o)
                              build/default/production/_ext/60165182/plib_can0.o (__aeabi_fcmplt)
C:/Applications/Microchip/XC32/bin/bin/../../lib/gcc/pic32c/13.2.1/../../../../pic32c/lib/thumb/v6-m/nofp\libm-fast-emfloat.a(__aeabi_dcmplt.o)
                              C:/Applications/Microchip/XC32/bin/bin/../../lib/gcc/pic32c/13.2.1/../../../../pic32c/lib/thumb/v6-m/nofp\libc-musl.a(__fmt_a.o) (__aeabi_dcmplt)
C:/Applications/Microchip/XC32/bin/bin/../../lib/gcc/pic32c/13.2.1/../../../../pic32c/lib/thumb/v6-m/nofp\libm-fast-emfloat.a(__aeabi_f2iz.o)
                              build/default/production/_ext/504274921/plib_sercom1_usart.o (__aeabi_f2iz)
C:/Applications/Microchip/XC32/bin/bin/../../lib/gcc/pic32c/13.2.1/../../../../pic32c/lib/thumb/v6-m/nofp\libm-fast-emfloat.a(__aeabi_d2iz.o)
                              C:/Applications/Microchip/XC32/bin/bin/../../lib/gcc/pic32c/13.2.1/../../../../pic32c/lib/thumb/v6-m/nofp\libc-musl.a(__fmt_a.o) (__aeabi_d2iz)
C:/Applications/Microchip/XC32/bin/bin/../../lib/gcc/pic32c/13.2.1/../../../../pic32c/lib/thumb/v6-m/nofp\libm-fast-emfloat.a(__aeabi_f2uiz.o)
                              build/default/production/_ext/60165182/plib_can0.o (__aeabi_f2uiz)
C:/Applications/Microchip/XC32/bin/bin/../../lib/gcc/pic32c/13.2.1/../../../../pic32c/lib/thumb/v6-m/nofp\libm-fast-emfloat.a(__aeabi_d2uiz.o)
                              C:/Applications/Microchip/XC32/bin/bin/../../lib/gcc/pic32c/13.2.1/../../../../pic32c/lib/thumb/v6-m/nofp\libm-fast-emfloat.a(__aeabi_d2iz.o) (.L__aeabi_d2uiz_fast_entry)
C:/Applications/Microchip/XC32/bin/bin/../../lib/gcc/pic32c/13.2.1/../../../../pic32c/lib/thumb/v6-m/nofp\libm-fast-emfloat.a(__aeabi_i2f.o)
                              build/default/production/_ext/504274921/plib_sercom1_usart.o (__aeabi_i2f)
C:/Applications/Microchip/XC32/bin/bin/../../lib/gcc/pic32c/13.2.1/../../../../pic32c/lib/thumb/v6-m/nofp\libm-fast-emfloat.a(__aeabi_l2f.o)
                              build/default/production/_ext/1360937237/ad9954_driver.o (__aeabi_l2f)
C:/Applications/Microchip/XC32/bin/bin/../../lib/gcc/pic32c/13.2.1/../../../../pic32c/lib/thumb/v6-m/nofp\libm-fast-emfloat.a(__aeabi_ui2f.o)
                              build/default/production/_ext/60165182/plib_can0.o (__aeabi_ui2f)
C:/Applications/Microchip/XC32/bin/bin/../../lib/gcc/pic32c/13.2.1/../../../../pic32c/lib/thumb/v6-m/nofp\libm-fast-emfloat.a(__aeabi_ul2f.o)
                              C:/Applications/Microchip/XC32/bin/bin/../../lib/gcc/pic32c/13.2.1/../../../../pic32c/lib/thumb/v6-m/nofp\libm-fast-emfloat.a(__aeabi_l2f.o) (__aeabi_ul2f)
C:/Applications/Microchip/XC32/bin/bin/../../lib/gcc/pic32c/13.2.1/../../../../pic32c/lib/thumb/v6-m/nofp\libm-fast-emfloat.a(__aeabi_f2d.o)
                              build/default/production/_ext/1360937237/sht4x_driver.o (__aeabi_f2d)
C:/Applications/Microchip/XC32/bin/bin/../../lib/gcc/pic32c/13.2.1/../../../../pic32c/lib/thumb/v6-m/nofp\libm-fast-emfloat.a(__aeabi_d2f.o)
                              build/default/production/_ext/1360937237/mcp9808_driver.o (__aeabi_d2f)
C:/Applications/Microchip/XC32/bin/bin/../../lib/gcc/pic32c/13.2.1/../../../../pic32c/lib/thumb/v6-m/nofp\libc-size-musl.a(strcpy.o)
                              C:/Applications/Microchip/XC32/bin/bin/../../lib/gcc/pic32c/13.2.1/../../../../pic32c/lib/thumb/v6-m/nofp\libc-musl.a(__fmt_a.o) (strcpy)
C:/Applications/Microchip/XC32/bin/bin/../../lib/gcc/pic32c/13.2.1/../../../../pic32c/lib/thumb/v6-m/nofp\libc-size-musl.a(stpcpy.o)
                              C:/Applications/Microchip/XC32/bin/bin/../../lib/gcc/pic32c/13.2.1/../../../../pic32c/lib/thumb/v6-m/nofp\libc-size-musl.a(strcpy.o) (__stpcpy)
C:/Applications/Microchip/XC32/bin/bin/../../lib/gcc/pic32c/13.2.1/thumb/v6-m/nofp\libgcc.a(_thumb1_case_uqi.o)
                              C:/Applications/Microchip/XC32/bin/bin/../../lib/gcc/pic32c/13.2.1/../../../../pic32c/lib/thumb/v6-m/nofp\libc-musl.a(__pop_int.o) (__gnu_thumb1_case_uqi)
C:/Applications/Microchip/XC32/bin/bin/../../lib/gcc/pic32c/13.2.1/thumb/v6-m/nofp\libgcc.a(_udivsi3.o)
                              build/default/production/_ext/60165182/plib_can0.o (__aeabi_uidiv)
C:/Applications/Microchip/XC32/bin/bin/../../lib/gcc/pic32c/13.2.1/thumb/v6-m/nofp\libgcc.a(_divsi3.o)
                              build/default/production/_ext/1360937237/hdc302x_driver.o (__aeabi_idiv)
C:/Applications/Microchip/XC32/bin/bin/../../lib/gcc/pic32c/13.2.1/thumb/v6-m/nofp\libgcc.a(_dvmd_tls.o)
                              C:/Applications/Microchip/XC32/bin/bin/../../lib/gcc/pic32c/13.2.1/thumb/v6-m/nofp\libgcc.a(_udivsi3.o) (__aeabi_idiv0)
C:/Applications/Microchip/XC32/bin/bin/../../lib/gcc/pic32c/13.2.1/thumb/v6-m/nofp\libgcc.a(_aeabi_uldivmod.o)
                              build/default/production/_ext/101884895/sys_time.o (__aeabi_uldivmod)
C:/Applications/Microchip/XC32/bin/bin/../../lib/gcc/pic32c/13.2.1/thumb/v6-m/nofp\libgcc.a(_muldi3.o)
                              build/default/production/_ext/1987437027/plib_freqm.o (__aeabi_lmul)
C:/Applications/Microchip/XC32/bin/bin/../../lib/gcc/pic32c/13.2.1/thumb/v6-m/nofp\libgcc.a(_udivmoddi4.o)
                              C:/Applications/Microchip/XC32/bin/bin/../../lib/gcc/pic32c/13.2.1/thumb/v6-m/nofp\libgcc.a(_aeabi_uldivmod.o) (__udivmoddi4)
C:/Applications/Microchip/XC32/bin/bin/../../lib/gcc/pic32c/13.2.1/thumb/v6-m/nofp\libgcc.a(_lshrdi3.o)
                              C:/Applications/Microchip/XC32/bin/bin/../../lib/gcc/pic32c/13.2.1/thumb/v6-m/nofp\libgcc.a(_udivmoddi4.o) (__aeabi_llsr)
C:/Applications/Microchip/XC32/bin/bin/../../lib/gcc/pic32c/13.2.1/thumb/v6-m/nofp\libgcc.a(_ashldi3.o)
                              C:/Applications/Microchip/XC32/bin/bin/../../lib/gcc/pic32c/13.2.1/thumb/v6-m/nofp\libgcc.a(_udivmoddi4.o) (__aeabi_llsl)
C:/Applications/Microchip/XC32/bin/bin/../../lib/gcc/pic32c/13.2.1/thumb/v6-m/nofp\libgcc.a(_clzdi2.o)
                              C:/Applications/Microchip/XC32/bin/bin/../../lib/gcc/pic32c/13.2.1/thumb/v6-m/nofp\libgcc.a(_udivmoddi4.o) (__clzdi2)
C:/Applications/Microchip/XC32/bin/bin/../../lib/gcc/pic32c/13.2.1/thumb/v6-m/nofp\libgcc.a(_clzsi2.o)
                              C:/Applications/Microchip/XC32/bin/bin/../../lib/gcc/pic32c/13.2.1/thumb/v6-m/nofp\libgcc.a(_clzdi2.o) (__clzsi2)
C:/Applications/Microchip/XC32/bin/bin/../../lib/gcc/pic32c/13.2.1/../../../../pic32c/lib/thumb/v6-m/nofp\libpic32c.a(pic32_data_init_clear.o)
                              (__dinit_clear_needed)
C:/Applications/Microchip/XC32/bin/bin/../../lib/gcc/pic32c/13.2.1/../../../../pic32c/lib/thumb/v6-m/nofp\libpic32c.a(pic32_data_init_copy.o)
                              (__dinit_copy_needed)

Microchip PIC32 Memory-Usage Report

ROM Program-Memory Usage
section                    address  length [bytes]      (dec)  Description
-------                 ----------  -------------------------  -----------
.vectors                         0           0xc0         192   
.text                         0xc0           0x20          32  App's exec code 
.ARM.exidx                    0xe0            0x8           8   
.text.SSD1306_DRIVER_Ta       0xe8          0x818        2072   
.text.__fmt_fp               0x900          0x4f8        1272   
.dinit                       0xdf8          0x4e0        1248   
.text.__fmt_a               0x12d8          0x4a0        1184   
.text.__printf_core         0x1778          0x320         800   
.text.BMP585_DRIVER_Tas     0x1a98          0x2d4         724   
.text.lDRV_I2C_WriteRea     0x1d6c          0x264         612   
.text.AD9954_DRIVER_Tas     0x1fd0          0x1fc         508   
.text.DRV_SPI_WriteRead     0x21cc          0x1dc         476   
.text.CAN0_DRIVER_Tasks     0x23a8          0x1d0         464   
.text.MCP9808_DRIVER_Ta     0x2578          0x1d0         464   
.text.CLOCK_Initialize      0x2748          0x1cc         460   
.text.__aeabi_dadd          0x2914          0x1c8         456   
.text.SERCOM3_I2C_Inter     0x2adc          0x1c0         448   
.text.lDRV_SPI_StartDMA     0x2c9c          0x19c         412   
.text.__aeabi_dmul_aux      0x2e38          0x18a         394   
.text.Console_UART_Task     0x2fc2            0x2           2   
.text.FCM360W_DRIVER_Ta     0x2fc4          0x180         384   
.text.SERCOM2_SPI_Write     0x3144          0x178         376   
.text.lDRV_USART_Buffer     0x32bc          0x168         360   
.text.SHT4X_DRIVER_Task     0x3424          0x160         352   
.text.lDRV_SPI_RX_DMA_C     0x3584          0x15c         348   
.text.SERCOM2_SPI_Inter     0x36e0          0x154         340   
.text.SERCOM0_USART_Ser     0x3834          0x154         340   
.text.__aeabi_fadd          0x3988          0x13a         314   
.text.__fmt_x               0x3ac2          0x12e         302   
.text.SYS_Initialize        0x3bf0          0x110         272   
.text.APP_Tasks             0x3d00          0x110         272   
.text.SERCOM3_I2C_Trans     0x3e10          0x10c         268   
.text.RSTC_DRIVER_Tasks     0x3f1c          0x108         264   
.text.SERCOM1_USART_Wri     0x4024          0x104         260   
.text.DRV_SPI_Open          0x4128           0xf8         248   
.text.DRV_I2C_Open          0x4220           0xf4         244   
.text.lDRV_USART_Buffer     0x4314           0xf4         244   
.text.SERCOM1_USART_ISR     0x4408           0xf0         240   
.text.NVIC_Initialize       0x44f8           0xec         236   
.rodata.SSD1306_DRIVER_     0x45e4           0xec         236   
.text.DRV_USART_Open        0x46d0           0xe8         232   
.text.SERCOM1_USART_ISR     0x47b8           0xe4         228   
.text                       0x489c           0xde         222  App's exec code 
.text.Dummy_Handler         0x497a            0x2           2   
.text.lDRV_SPI_PlibCall     0x497c           0xdc         220   
.text.CAN0_MessageRecei     0x4a58           0xdc         220   
.text.__pop_int             0x4b34           0xd6         214   
.text.NonMaskableInt_Ha     0x4c0a            0x2           2   
.text.lDRV_SPI_UpdateTr     0x4c0c           0xd0         208   
.text.DRV_SPI_Close         0x4cdc           0xd0         208   
.text.DMAC_Initialize       0x4dac           0xd0         208   
.text.SYS_TIME_PLIBCall     0x4e7c           0xd0         208   
.text.Reset_Handler         0x4f4c           0xd0         208   
.rodata.CAN0_DRIVER_Pri     0x501c           0xcf         207   
.text.DRV_USART_Initial     0x50ec           0xcc         204   
.text.lDRV_USART_Resour     0x51b8           0xca         202   
.text.lDRV_SPI_Resource     0x5282           0xc6         198   
.text.lDRV_I2C_NextTran     0x5348           0xc4         196   
.text.DMAC_ChannelTrans     0x540c           0xc4         196   
.text.__aeabi_ddiv          0x54d0           0xc4         196   
.text.lDRV_USART_Resour     0x5594           0xbe         190   
.text.HardFault_Handler     0x5652            0x2           2   
.text.floor                 0x5654           0xbc         188   
.text.__aeabi_fmul          0x5710           0xb6         182   
.text.lDRV_SPI_Resource     0x57c6           0xb4         180   
.text.Dummy_App_Func        0x587a            0x2           2   
.text.EIC_Initialize        0x587c           0xb4         180   
.text.__fmt_d               0x5930           0xb4         180   
.text.DRV_SPI_Initializ     0x59e4           0xb0         176   
.text.SYS_TIME_TimerObj     0x5a94           0xb0         176   
.text                       0x5b44           0xa8         168  App's exec code 
.text.SERCOM2_SPI_Trans     0x5bec           0xa0         160   
.text.CAN0_MessageRAMCo     0x5c8c           0x9c         156   
.text.SYS_TIME_AddToLis     0x5d28           0x9c         156   
.text.SERCOM1_USART_Rea     0x5dc4           0x94         148   
.text.__aeabi_fdiv          0x5e58           0x94         148   
.text.WS281X_DRIVER_Set     0x5eec           0x8c         140   
.text                       0x5f78           0x8c         140  App's exec code 
.text.lDRV_I2C_Resource     0x6004           0x8a         138   
.text.__dummy_init_tls      0x608e            0x2           2   
.text.SERCOM1_USART_Ini     0x6090           0x88         136   
.text.DRV_USART_Close       0x6118           0x84         132   
.text.TIMER_DRIVER_Init     0x619c           0x84         132   
.text.CAN0_MessageTrans     0x6220           0x80         128   
.text.SERCOM0_USART_ISR     0x62a0           0x80         128   
.text.NTC_DRIVER_Tasks      0x6320           0x80         128   
.text.lDRV_I2C_Resource     0x63a0           0x7c         124   
.text.DMAC_InterruptHan     0x641c           0x7c         124   
.text.DRV_I2C_Close         0x6498           0x78         120   
.text.__pad                 0x6510           0x78         120   
.text.__pop_ptr             0x6588           0x76         118   
.text.__cvt_u               0x65fe           0x76         118   
.text.SERCOM0_USART_Wri     0x6674           0x74         116   
.text.SYS_CONSOLE_Print     0x66e8           0x74         116   
.text.RTC_DRIVER_Tasks      0x675c           0x74         116   
.text.BME690_DRIVER_Tas     0x67d0           0x74         116   
.text.HDC302X_DRIVER_Ta     0x6844           0x74         116   
.text.XM125_DRIVER_Task     0x68b8           0x74         116   
.text.VCNL4200_DRIVER_T     0x692c           0x74         116   
.text.SEN63C_DRIVER_Tas     0x69a0           0x74         116   
.text.SERCOM0_USART_ISR     0x6a14           0x70         112   
.text.__fmt_o               0x6a84           0x6e         110   
.text.__dummy               0x6af2            0x2           2   
.text.DRV_I2C_Initializ     0x6af4           0x6c         108   
.text.CAN0_Initialize       0x6b60           0x6c         108   
.text.SYS_TIME_Initiali     0x6bcc           0x6c         108   
.text.CAN0_DRIVER_Get_R     0x6c38           0x6c         108   
.rodata.BMP585_DRIVER_T     0x6ca4           0x68         104   
.text.lDRV_USART_ReadSu     0x6d0c           0x66         102   
.text.WS281X_DRIVER_Tas     0x6d74           0x64         100   
.text.vsnprintf             0x6dd8           0x64         100   
.text.__aeabi_d2f           0x6e3c           0x62          98   
.text.lDRV_USART_WriteS     0x6e9e           0x60          96   
.text.EIC_InterruptHand     0x6f00           0x60          96   
.text.RTC_RTCCTimeGet       0x6f60           0x60          96   
.text.SERCOM3_I2C_Initi     0x6fc0           0x60          96   
.text.__strchrnul           0x7020           0x60          96   
.text.SYS_CONSOLE_Initi     0x7080           0x5c          92   
.text.CAN0_DRIVER_Set_M     0x70dc           0x5c          92   
.text.CONSOLE_DRIVER_Ta     0x7138           0x5c          92   
.text.__libc_start_init     0x7194           0x5c          92   
.text.lDRV_I2C_PLibCall     0x71f0           0x58          88   
.text.DRV_I2C_TransferS     0x7248           0x58          88   
.text.SERCOM1_USART_Int     0x72a0           0x58          88   
.text.SERCOM0_USART_Int     0x72f8           0x58          88   
.text.SYS_TIME_Callback     0x7350           0x58          88   
.text.__fmt_u               0x73a8           0x56          86   
.text.lDRV_SPI_TX_DMA_C     0x7400           0x54          84   
.text.ADC0_Initialize       0x7454           0x54          84   
.text.SERCOM3_I2C_Initi     0x74a8           0x54          84   
.text.SERCOM0_USART_Ini     0x74fc           0x54          84   
.text.SYS_Tasks             0x7550           0x54          84   
.text.MCP9808_DRIVER_Ca     0x75a4           0x54          84   
.text.lDRV_I2C_DriverHa     0x75f8           0x50          80   
.text.lDRV_SPI_DriverHa     0x7648           0x50          80   
.text.DRV_USART_BufferS     0x7698           0x50          80   
.text.SERCOM1_USART_ISR     0x76e8           0x50          80   
.text.SUPC_Initialize       0x7738           0x50          80   
.rodata.MCP9808_DRIVER_     0x7788           0x50          80   
.text.__fmt_s               0x77d8           0x50          80   
.text.lDRV_USART_Driver     0x7828           0x4c          76   
.text.SYS_TIME_RemoveFr     0x7874           0x4c          76   
.text.SYS_TIME_TimerSta     0x78c0           0x4a          74   
.text                       0x790c           0x48          72  App's exec code 
.text.SHT4X_DRIVER_Calc     0x7954           0x48          72   
.text.HDC302X_DRIVER_Pr     0x799c           0x48          72   
.text.lDRV_I2C_ClientCa     0x79e4           0x46          70   
.text.DRV_SPI_TransferS     0x7a2c           0x44          68   
.text.lDRV_USART_Remove     0x7a70           0x44          68   
.text.RTC_Initialize        0x7ab4           0x44          68   
.text.SERCOM3_I2C_Trans     0x7af8           0x44          68   
.text.SERCOM0_USART_Rea     0x7b3c           0x44          68   
.text.SYSTICK_DelayMs       0x7b80           0x44          68   
.text.TCC0_PWMInitializ     0x7bc4           0x44          68   
.text.atoi                  0x7c08           0x44          68   
.text.__aeabi_dcmple        0x7c4c           0x44          68   
.text.__aeabi_f2d           0x7c90           0x44          68   
.text                       0x7cd4           0x44          68  App's exec code 
.text.SERCOM0_USART_ISR     0x7d18           0x40          64   
.text.SYS_TIME_TimerDes     0x7d58           0x40          64   
.text.SYS_TIME_TimerSto     0x7d98           0x40          64   
.text                       0x7dd8           0x40          64  App's exec code 
.text.__aeabi_dcmpgt        0x7e18           0x3e          62   
.text.__aeabi_dcmplt        0x7e56           0x3e          62   
.text.__aeabi_f2iz          0x7e94           0x3e          62   
.text.DMAC_ChannelSetti     0x7ed4           0x3c          60   
.text.PDEC_QDECInitiali     0x7f10           0x3c          60   
.text.SERCOM3_I2C_Read      0x7f4c           0x3c          60   
.text.SERCOM3_I2C_Write     0x7f88           0x3c          60   
.text.SERCOM2_SPI_Initi     0x7fc4           0x3c          60   
.text.SYS_INT_SourceDis     0x8000           0x3c          60   
.text.SYS_TIME_GetTimer     0x803c           0x3c          60   
.rodata.drvUsart0InitDa     0x8078           0x3c          60   
.rodata.AD9954_DRIVER_T     0x80b4           0x3c          60   
.text.FCM360W_DRIVER_Ge     0x80f0           0x3c          60   
.text.strstr                0x812c           0x3c          60   
.text                       0x8168           0x3c          60  App's exec code 
.text.lDRV_I2C_RemoveCl     0x81a4           0x3a          58   
.text.SERCOM3_I2C_Write     0x81e0           0x38          56   
.text.Console_UART_Read     0x8218           0x38          56   
.text.Console_UART_Writ     0x8250           0x38          56   
.text.SYS_TIME_Resource     0x8288           0x38          56   
.rodata.SHT4X_DRIVER_Ta     0x82c0           0x38          56   
.text.AD9954_DRIVER_Set     0x82f8           0x38          56   
.text.RTC_DRIVER_Print_     0x8330           0x38          56   
.text.__pic32c_data_ini     0x8368           0x38          56   
.text.__pop_float           0x83a0           0x36          54   
.text.TC0_CaptureInitia     0x83d8           0x34          52   
.text.TC0_CaptureInterr     0x840c           0x34          52   
.text.TCC1_PWMInitializ     0x8440           0x34          52   
.text.SYS_CONSOLE_Messa     0x8474           0x34          52   
.rodata.drvSPI0InitData     0x84a8           0x34          52   
.rodata.CAN0_DRIVER_Tas     0x84dc           0x34          52   
.text.FCM360W_DRIVER_Wr     0x8510           0x34          52   
.rodata.FCM360W_DRIVER_     0x8544           0x34          52   
.text.__fmt_state           0x8578           0x34          52   
.text.__aeabi_d2iz          0x85ac           0x34          52   
.text.RTC_InterruptHand     0x85e0           0x30          48   
.text.Console_UART_Writ     0x8610           0x30          48   
.text.Console_UART_Writ     0x8640           0x30          48   
.text.Console_UART_Read     0x8670           0x30          48   
.text.Console_UART_Read     0x86a0           0x30          48   
.text.SHT4X_DRIVER_Calc     0x86d0           0x30          48   
.text.AD9954_DRIVER_Set     0x8700           0x30          48   
.text.AD9954_DRIVER_Set     0x8730           0x30          48   
.text.AD9954_DRIVER_Set     0x8760           0x30          48   
.text.MCP9808_DRIVER_Ge     0x8790           0x30          48   
.text.MCP9808_DRIVER_Ge     0x87c0           0x30          48   
.text.MCP9808_DRIVER_Ge     0x87f0           0x30          48   
.text.SSD1306_DRIVER_Se     0x8820           0x30          48   
.text.SSD1306_DRIVER_Se     0x8850           0x30          48   
.text.BMP585_DRIVER_Get     0x8880           0x30          48   
.text.BMP585_DRIVER_Get     0x88b0           0x30          48   
.text.BMP585_DRIVER_Get     0x88e0           0x30          48   
.text.__aeabi_dcmpeq        0x8910           0x2e          46   
.text.__aeabi_d2uiz         0x893e           0x2e          46   
.text.CAN0_ErrorGet         0x896c           0x2c          44   
.text.OSC32KCTRL_Interr     0x8998           0x2c          44   
.text.EIC_CallbackRegis     0x89c4           0x2c          44   
.text.SERCOM0_USART_Err     0x89f0           0x2c          44   
.text.SYSTICK_TimerInte     0x8a1c           0x2c          44   
.rodata.sysConsoleUARTD     0x8a48           0x2c          44   
.rodata.drvUsart0PlibAP     0x8a74           0x2c          44   
.text.MCP9808_DRIVER_Se     0x8aa0           0x2c          44   
.text.SSD1306_DRIVER_Wr     0x8acc           0x2c          44   
.text.BMP585_DRIVER_Get     0x8af8           0x2c          44   
.text.lDRV_USART_RX_DMA     0x8b24           0x2a          42   
.text.lDRV_USART_TX_DMA     0x8b4e           0x2a          42   
.text.__string_out          0x8b78           0x2a          42   
.text.lDRV_USART_RX_PLI     0x8ba2           0x28          40   
.text.ADC0_InterruptHan     0x8bcc           0x28          40   
.text.SERCOM0_USART_Rea     0x8bf4           0x28          40   
.text.SysTick_Handler       0x8c1c           0x28          40   
.rodata.drvSPI0remapDat     0x8c44           0x28          40   
.text.CAN0_DRIVER_Print     0x8c6c           0x28          40   
.text.RTC_DRIVER_Initia     0x8c94           0x28          40   
.text.MCP9808_DRIVER_Se     0x8cbc           0x28          40   
.text.BMP585_DRIVER_Set     0x8ce4           0x28          40   
.text.BMP585_DRIVER_Sto     0x8d0c           0x28          40   
.text.BMP585_DRIVER_Set     0x8d34           0x28          40   
.text.BMP585_DRIVER_Set     0x8d5c           0x28          40   
.text.BMP585_DRIVER_Cal     0x8d84           0x28          40   
.text.BMP585_DRIVER_Cal     0x8dac           0x28          40   
.text.__aeabi_i2f           0x8dd4           0x26          38   
.text.lDRV_USART_Remove     0x8dfa           0x24          36   
.text.AC_Initialize         0x8e20           0x24          36   
.text.FREQM_InterruptHa     0x8e44           0x24          36   
.text.SYSTICK_TimerInit     0x8e68           0x24          36   
.text.SYS_DMA_Addressin     0x8e8c           0x24          36   
.text.SYS_TIME_Resource     0x8eb0           0x24          36   
.text.SHT4X_DRIVER_Star     0x8ed4           0x24          36   
.text.SHT4X_DRIVER_Stor     0x8ef8           0x24          36   
.text.MCP9808_DRIVER_In     0x8f1c           0x24          36   
.text.BME690_DRIVER_Ini     0x8f40           0x24          36   
.text.HDC302X_DRIVER_In     0x8f64           0x24          36   
.text.XM125_DRIVER_Init     0x8f88           0x24          36   
.text.WS281X_DRIVER_Sen     0x8fac           0x24          36   
.text.VCNL4200_DRIVER_I     0x8fd0           0x24          36   
.rodata.APP_Tasks           0x8ff4           0x24          36   
.text.BMP585_DRIVER_Ini     0x9018           0x24          36   
.text.__aeabi_f2uiz         0x903c           0x24          36   
.text.CAN0_RxFifoFillLe     0x9060           0x20          32   
.text.WDT_Enable            0x9080           0x20          32   
.text.SYS_DMA_DataWidth     0x90a0           0x20          32   
.text.SHT4X_DRIVER_Get_     0x90c0           0x20          32   
.rodata.RSTC_DRIVER_Tas     0x90e0           0x20          32   
.text.NTC_DRIVER_Initia     0x9100           0x20          32   
.rodata.str1.1              0x9120           0x1f          31   
.text.__aeabi_ui2f          0x9140           0x1e          30   
.text.__dinit_copy          0x915e           0x1e          30   
.text.DRV_I2C_ReadTrans     0x917c           0x1c          28   
.text.DRV_I2C_WriteRead     0x9198           0x1c          28   
.text.lDRV_USART_GetDri     0x91b4           0x1c          28   
.text.ADC0_Enable           0x91d0           0x1c          28   
.text.ADC0_ConversionSt     0x91ec           0x1c          28   
.text.CCL_Initialize        0x9208           0x1c          28   
.text.DAC_Initialize        0x9224           0x1c          28   
.text.FREQM_Initialize      0x9240           0x1c          28   
.text.SERCOM1_USART_Wri     0x925c           0x1c          28   
.text.SERCOM1_USART_Rea     0x9278           0x1c          28   
.text.TCC1_PWMStart         0x9294           0x1c          28   
.text.TCC1_PWMStop          0x92b0           0x1c          28   
.text.SYS_INT_SourceRes     0x92cc           0x1c          28   
.rodata.sysTimePlibAPI      0x92e8           0x1c          28   
.rodata.drvUSART0Interr     0x9304           0x1c          28   
.rodata.drvI2C0InitData     0x9320           0x1c          28   
.rodata.drvI2C0PLibAPI      0x933c           0x1c          28   
.text.CAN0_DRIVER_Initi     0x9358           0x1c          28   
.text.NTC_DRIVER_Calcul     0x9374           0x1c          28   
.rodata.NTC_DRIVER_Task     0x9390           0x1c          28   
.text.WS281X_DRIVER_Ini     0x93ac           0x1c          28   
.text.SSD1306_DRIVER_Wr     0x93c8           0x1c          28   
.text.DRV_I2C_WriteTran     0x93e4           0x1a          26   
.text.Console_UART_Init     0x9400           0x18          24   
.rodata.sysConsole0UART     0x9418           0x18          24   
.rodata.drvUsart0remapP     0x9430           0x18          24   
.rodata.drvSPI0Interrup     0x9448           0x18          24   
.text.RSTC_DRIVER_Print     0x9460           0x18          24   
.rodata.RTC_DRIVER_Task     0x9478           0x18          24   
.text.MCP9808_DRIVER_St     0x9490           0x18          24   
.text.MCP9808_DRIVER_St     0x94a8           0x18          24   
.text.MCP9808_DRIVER_St     0x94c0           0x18          24   
.text.FCM360W_DRIVER_Re     0x94d8           0x18          24   
.text.HDC302X_DRIVER_Se     0x94f0           0x18          24   
.text.strlen                0x9508           0x18          24   
.text.vfprintf              0x9520           0x18          24   
.text                       0x9538           0x18          24  App's exec code 
.text                       0x9550           0x18          24  App's exec code 
.text                       0x9568           0x18          24  App's exec code 
.text.sprintf               0x9580           0x16          22   
.rodata                     0x9596           0x16          22  Read-only const 
.text.lDRV_I2C_RemoveTr     0x95ac           0x14          20   
.text.lDRV_SPI_RemoveTr     0x95c0           0x14          20   
.text.CAN0_ErrorCountGe     0x95d4           0x14          20   
.text.CAN0_InterruptGet     0x95e8           0x14          20   
.text.NVIC_INT_Restore      0x95fc           0x14          20   
.text.SERCOM2_SPI_IsTra     0x9610           0x14          20   
.text.SERCOM1_USART_Rea     0x9624           0x14          20   
.text.SERCOM1_USART_Wri     0x9638           0x14          20   
.text.SYSTICK_TimerStar     0x964c           0x14          20   
.text.SYSTICK_TimerInte     0x9660           0x14          20   
.text.WDT_TimeoutPeriod     0x9674           0x14          20   
.text.WDT_Clear             0x9688           0x14          20   
.text.Console_UART_Stat     0x969c           0x14          20   
.rodata.drvUsart0remapD     0x96b0           0x14          20   
.rodata.drvI2C0Interrup     0x96c4           0x14          20   
.text.SHT4X_DRIVER_Set_     0x96d8           0x14          20   
.text.SHT4X_DRIVER_Init     0x96ec           0x14          20   
.text.AD9954_DRIVER_Ini     0x9700           0x14          20   
.text.RTC_DRIVER_Alarm_     0x9714           0x14          20   
.rodata.BME690_DRIVER_T     0x9728           0x14          20   
.text.FCM360W_DRIVER_In     0x973c           0x14          20   
.rodata.HDC302X_DRIVER_     0x9750           0x14          20   
.text.FAN_DRIVER_Tasks      0x9764           0x14          20   
.rodata.XM125_DRIVER_Ta     0x9778           0x14          20   
.rodata.WS281X_DRIVER_T     0x978c           0x14          20   
.rodata.VCNL4200_DRIVER     0x97a0           0x14          20   
.text.SEN63C_DRIVER_Ini     0x97b4           0x14          20   
.rodata.SEN63C_DRIVER_T     0x97c8           0x14          20   
.text.SSD1306_DRIVER_In     0x97dc           0x14          20   
.text.APP_Initialize        0x97f0           0x14          20   
.text.STCC4_DRIVER_Task     0x9804           0x14          20   
.text.BMP585_DRIVER_Sto     0x9818           0x14          20   
.text.BMP585_DRIVER_Sto     0x982c           0x14          20   
.text.BMP585_DRIVER_Sto     0x9840           0x14          20   
.rodata                     0x9854           0x14          20  Read-only const 
.text.memcpy                0x9868           0x14          20   
.text.memset                0x987c           0x14          20   
.text.strchr                0x9890           0x14          20   
.text.vsprintf              0x98a4           0x14          20   
.text.stpcpy                0x98b8           0x14          20   
.text                       0x98cc           0x14          20  App's exec code 
.text.DRV_SPI_WriteTran     0x98e0           0x12          18   
.text.EVSYS_Initialize      0x98f2           0x12          18   
.text.NVIC_INT_Disable      0x9904           0x12          18   
.text.__dinit_clear         0x9916           0x12          18   
.text.DRV_USART_WriteBu     0x9928           0x10          16   
.text.DRV_USART_ReadBuf     0x9938           0x10          16   
.text.DMAC_ChannelCallb     0x9948           0x10          16   
.text.DMAC_ChannelSetti     0x9958           0x10          16   
.text.PM_Initialize         0x9968           0x10          16   
.text.SERCOM3_I2C_Error     0x9978           0x10          16   
.text.SERCOM0_USART_Err     0x9988           0x10          16   
.text.SERCOM0_USART_Rea     0x9998           0x10          16   
.text.SYSTICK_TimerStop     0x99a8           0x10          16   
.rodata.drvSPI0PlibAPI      0x99b8           0x10          16   
.text.RTC_DRIVER_XOSC32     0x99c8           0x10          16   
.text.RTC_DRIVER_Get_Sy     0x99d8           0x10          16   
.text.NTC_DRIVER_Callba     0x99e8           0x10          16   
.text.TIMER_DRIVER_Stop     0x99f8           0x10          16   
.text.TIMER_DRIVER_Star     0x9a08           0x10          16   
.text.TIMER_DRIVER_Stop     0x9a18           0x10          16   
.text.TIMER_DRIVER_Star     0x9a28           0x10          16   
.text.TIMER_DRIVER_Stop     0x9a38           0x10          16   
.text.TIMER_DRIVER_Star     0x9a48           0x10          16   
.text.TIMER_DRIVER_Stop     0x9a58           0x10          16   
.text.SSD1306_DRIVER_Se     0x9a68           0x10          16   
.text.BMP585_DRIVER_Set     0x9a78           0x10          16   
.text.fma                   0x9a88           0x10          16   
.text.__aeabi_fsub          0x9a98           0x10          16   
.text.__aeabi_dsub          0x9aa8           0x10          16   
.text.lDRV_USART_TX_PLI     0x9ab8            0xe          14   
.text.SYSTICK_TimerInte     0x9ac6            0xe          14   
.text.WS281X_DRIVER_DMA     0x9ad4            0xe          14   
.text.main                  0x9ae2            0xe          14   
.text.tolower               0x9af0            0xe          14   
.text.toupper               0x9afe            0xe          14   
.text.ADC0_ConversionRe     0x9b0c            0xc          12   
.text.ADC0_CallbackRegi     0x9b18            0xc          12   
.text.CAN0_InterruptCle     0x9b24            0xc          12   
.text.OSC32KCTRL_Callba     0x9b30            0xc          12   
.text.NVMCTRL_Initializ     0x9b3c            0xc          12   
.text.RSTC_ResetCauseGe     0x9b48            0xc          12   
.text.RTC_RTCCCallbackR     0x9b54            0xc          12   
.text.SERCOM3_I2C_Callb     0x9b60            0xc          12   
.text.SERCOM2_SPI_Callb     0x9b6c            0xc          12   
.text.SERCOM0_USART_Wri     0x9b78            0xc          12   
.text.SERCOM0_USART_Wri     0x9b84            0xc          12   
.text.SERCOM0_USART_Wri     0x9b90            0xc          12   
.text.SERCOM0_USART_Rea     0x9b9c            0xc          12   
.text.SERCOM0_USART_Rea     0x9ba8            0xc          12   
.text.SYSTICK_TimerPeri     0x9bb4            0xc          12   
.text.SYSTICK_TimerCall     0x9bc0            0xc          12   
.rodata.sysConsole0Init     0x9bcc            0xc          12   
.rodata.drvUsart0remapE     0x9bd8            0xc          12   
.rodata.drvUsart0remapS     0x9be4            0xc          12   
.text.CAN0_DRIVER_Set_T     0x9bf0            0xc          12   
.text.CAN0_DRIVER_Get_T     0x9bfc            0xc          12   
.text.CAN0_DRIVER_Set_T     0x9c08            0xc          12   
.text.RSTC_DRIVER_Initi     0x9c14            0xc          12   
.text.MCP9808_DRIVER_Al     0x9c20            0xc          12   
.text.BME690_DRIVER_Ale     0x9c2c            0xc          12   
.text.CONSOLE_DRIVER_Se     0x9c38            0xc          12   
.text.CONSOLE_DRIVER_Ge     0x9c44            0xc          12   
.text.CONSOLE_DRIVER_Se     0x9c50            0xc          12   
.text.CONSOLE_DRIVER_In     0x9c5c            0xc          12   
.text.HDC302X_DRIVER_Al     0x9c68            0xc          12   
.text.HDC302X_DRIVER_Se     0x9c74            0xc          12   
.text.HDC302X_DRIVER_Ge     0x9c80            0xc          12   
.text.HDC302X_DRIVER_Se     0x9c8c            0xc          12   
.text.FAN_DRIVER_Initia     0x9c98            0xc          12   
.text.Start_Up_TMR_Call     0x9ca4            0xc          12   
.text.Main_TMR_Callback     0x9cb0            0xc          12   
.text.Bus_TMR_Callback      0x9cbc            0xc          12   
.text.Wait_TMR_Callback     0x9cc8            0xc          12   
.text.TIMER_DRIVER_Get_     0x9cd4            0xc          12   
.text.TIMER_DRIVER_Set_     0x9ce0            0xc          12   
.text.TIMER_DRIVER_Get_     0x9cec            0xc          12   
.text.TIMER_DRIVER_Set_     0x9cf8            0xc          12   
.text.TIMER_DRIVER_Get_     0x9d04            0xc          12   
.text.TIMER_DRIVER_Set_     0x9d10            0xc          12   
.text.XM125_DRIVER_Aler     0x9d1c            0xc          12   
.text.VCNL4200_DRIVER_A     0x9d28            0xc          12   
.text.STCC4_DRIVER_Init     0x9d34            0xc          12   
.text.BMP585_DRIVER_Ale     0x9d40            0xc          12   
.text.strcpy                0x9d4c            0xc          12   
.text.SERCOM1_USART_Wri     0x9d58            0x8           8   
.text.SYSTICK_TimerFreq     0x9d60            0x8           8   
.text.SYS_INT_Disable       0x9d68            0x8           8   
.text.SYS_INT_Restore       0x9d70            0x8           8   
.rodata.sysTimeInitData     0x9d78            0x8           8   
.rodata.drvSPI0remapClo     0x9d80            0x8           8   
.rodata.drvSPI0remapClo     0x9d88            0x8           8   
.text.TC0_5_Handler         0x9d90            0x8           8   
.text.SYSTEM_Handler        0x9d98            0x8           8   
.text.PORT_GroupSet         0x9da0            0x4           4   
.text.PORT_GroupClear       0x9da4            0x4           4   
.text.Console_UART_Flus     0x9da8            0x4           4   
.rodata.sysConsole0UART     0x9dac            0x4           4   
.text.__dummy_decompres     0x9db0            0x4           4   
.text                       0x9db4            0x4           4  App's exec code 
      Total ROM used  :      0x9da0       40352  7.7% of 0x80000
        --------------------------------------------------------------------------
         Total Program Memory used  :      0x9da0       40352  7.7% of 0x80000
        --------------------------------------------------------------------------


RAM Data-Memory Usage
section                    address  length [bytes]      (dec)  Description
-------                 ----------  -------------------------  -----------
.bss.can0_driverData    0x20000000         0x5b40       23360   
.bss.consolePrintBuffer 0x20005b40         0x2000        8192   
.bss.SERCOM1_USART_Writ 0x20007b40         0x1000        4096   
.bss.SERCOM1_USART_Read 0x20008b40         0x1000        4096   
.bss.timers             0x20009b40          0x640        1600   
.bss.fcm360w_driverData 0x2000a180          0x214         532   
.bss.ws281x_driverData  0x2000a394          0x1e6         486   
.bss.isLastByteTransfer 0x2000a57a            0x1           1   
.bss.consolePrintBuffer 0x2000a57b            0x1           1   
.bss.eicCallbackObject  0x2000a57c           0xc0         192   
.bss.rtc_driverData     0x2000a63c           0x90         144   
.bss.gDrvSPIObj         0x2000a6cc           0x74         116   
.bss.gDrvUSARTObj       0x2000a740           0x60          96   
.bss.dmacChannelObj     0x2000a7a0           0x50          80   
.bss.descriptor_section 0x2000a7f0           0x50          80   
.bss.write_back_section 0x2000a840           0x50          80   
.bss.ad9954_driverData  0x2000a890           0x50          80   
.bss.sen63c_driverData  0x2000a8e0           0x50          80   
.bss                    0x2000a930           0x50          80  Uninitialized data 
.bss.sercom1USARTObj    0x2000a980           0x40          64   
.bss.can0DataTx         0x2000a9c0           0x40          64   
.bss.gDrvI2CObj         0x2000aa00           0x3c          60   
.bss.sercom0USARTObj    0x2000aa3c           0x30          48   
.bss.txDummyData        0x2000aa6c            0x4           4   
.bss.gSystemCounterObj  0x2000aa70           0x30          48   
.bss.bmp585_sensorData  0x2000aaa0           0x30          48   
.bss.sercom3I2CObj      0x2000aad0           0x2c          44   
.bss.sercom2SPIObj      0x2000aafc           0x2c          44   
.bss.drvI2C0TransferObj 0x2000ab28           0x2c          44   
.bss.drvSPI0ClientObjPo 0x2000ab54           0x28          40   
.bss.mcp9808_driverData 0x2000ab7c           0x28          40   
.bss.drvUSART0BufferObj 0x2000aba4           0x24          36   
.bss.drvSPI0TransferObj 0x2000abc8           0x24          36   
.bss.sht4x_driverData   0x2000abec           0x24          36   
.bss.hdc302x_sensorData 0x2000ac10           0x24          36   
.bss.hdc302x_driverData 0x2000ac34           0x24          36   
.bss.bmp585_driverData  0x2000ac58           0x24          36   
.bss.bme690_driverData  0x2000ac7c           0x20          32   
.bss.xm125_driverData   0x2000ac9c           0x20          32   
.bss.vcnl4200_driverDat 0x2000acbc           0x20          32   
.bss.ssd1306_driverData 0x2000acdc           0x20          32   
.bss                    0x2000acfc           0x1c          28  Uninitialized data 
.bss.can0Obj            0x2000ad18           0x1c          28   
.bss.drvI2C0ClientObjPo 0x2000ad34           0x18          24   
.bss.sysObj             0x2000ad4c           0x14          20   
.bss.sht4x_sensorData   0x2000ad60           0x14          20   
.bss.timer_driverData   0x2000ad74           0x14          20   
.bss.drvUSART0ClientObj 0x2000ad88           0x10          16   
.bss.mcp9808_sensorData 0x2000ad98           0x10          16   
.bss.rtcObj             0x2000ada8            0xc          12   
.bss.systick            0x2000adb4            0xc          12   
.bss.consoleDeviceInsta 0x2000adc0            0xc          12   
.bss.console_driverData 0x2000adcc            0xc          12   
.bss.ADC0_CallbackObjec 0x2000add8            0x8           8   
.bss.osc32kctrlObj      0x2000ade0            0x8           8   
.bss.freqmObj           0x2000ade8            0x8           8   
.bss.TC0_CallbackObject 0x2000adf0            0x8           8   
.bss.gConsoleUartData   0x2000adf8            0x8           8   
.bss.ntc_sensorData     0x2000ae00            0x8           8   
.bss.appData            0x2000ae08            0x5           5   
.bss.isConsoleMutexCrea 0x2000ae0d            0x1           1   
.data.gSysTimeTokenCoun 0x2000ae0e            0x2           2   
.bss.rstc_driverData    0x2000ae10            0x4           4   
.bss.ntc_driverData     0x2000ae14            0x4           4   
.bss                    0x2000ae18            0x4           4  Uninitialized data 
.bss                    0x2000ae1c            0x4           4  Uninitialized data 
.bss                    0x2000ae20            0x4           4  Uninitialized data 
.bss.stcc4_driverData   0x2000ae24            0x1           1   
.bss.fan_driverData     0x2000ae28            0x3           3   
.data.ASCII             0x2000ae2c          0x1e0         480   
         Total RAM used  :      0xb008       45064  68.8% of 0x10000
        --------------------------------------------------------------------------
            Total Data Memory used  :      0xb008       45064  68.8% of 0x10000
        --------------------------------------------------------------------------


Dynamic Data-Memory Reservation
section                    address  length [bytes]      (dec)  Description
-------                 ----------  -------------------------  -----------
heap                    0x2000b010          0x200         512  Reserved for heap 
stack                   0x2000b228         0x4dc8       19912  Reserved for stack 

        --------------------------------------------------------------------------

Microchip PIC32 Memory-Usage Report By Module

        text        data         bss         dec         hex    basename                     filename
--------------------------------------------------------------------------------
        1027           0       23424       24451        5f83    can0_driver.o            build/default/production/_ext/1360937237/can0_driver.o
        1284           0        8256        9540        2544    plib_sercom1_usart.o     build/default/production/_ext/504274921/plib_sercom1_usart.o
         260           0        8206        8466        2112    sys_console.o            build/default/production/_ext/1832805299/sys_console.o
        2944           0         120        3064         bf8    drv_spi.o                build/default/production/_ext/2070931557/drv_spi.o
        2512         480          32        3024         bd0    ssd1306_driver.o         build/default/production/_ext/1360937237/ssd1306_driver.o
        1166           2        1648        2816         b00    sys_time.o               build/default/production/_ext/101884895/sys_time.o
        2220           0          96        2316         90c    drv_usart.o              build/default/production/_ext/869808652/drv_usart.o
        2028           0          60        2088         828    drv_i2c.o                build/default/production/_ext/158385033/drv_i2c.o
        1380           0          84        1464         5b8    bmp585_driver.o          build/default/production/_ext/1360937237/bmp585_driver.o
        1272           0           0        1272         4f8    __fmt_fp.o               libc-musl.a
        1248           0           0        1248         4e0    data_init                data_init
        1176           0          48        1224         4c8    plib_sercom0_usart.o     build/default/production/_ext/504274921/plib_sercom0_usart.o
        1168           0          44        1212         4bc    plib_sercom3_i2c_master.obuild/default/production/_ext/508257091/plib_sercom3_i2c_master.o
        1184           0           0        1184         4a0    __fmt_a.o                libc-musl.a
         592           0         532        1124         464    fcm360w_driver.o         build/default/production/_ext/1360937237/fcm360w_driver.o
        1067           0           0        1067         42b    __printf_core.o          libc-musl.a
         976           0          56        1032         408    mcp9808_driver.o         build/default/production/_ext/1360937237/mcp9808_driver.o
         968           0          45        1013         3f5    plib_sercom2_spi_master.obuild/default/production/_ext/17022449/plib_sercom2_spi_master.o
         780           0         216         996         3e4    initialization.o         build/default/production/_ext/1171490990/initialization.o
         788           0          80         868         364    ad9954_driver.o          build/default/production/_ext/1360937237/ad9954_driver.o
         620           0         240         860         35c    plib_dmac.o              build/default/production/_ext/1865161661/plib_dmac.o
         338           0         486         824         338    ws281x_driver.o          build/default/production/_ext/1360937237/ws281x_driver.o
         740           0          28         768         300    plib_can0.o              build/default/production/_ext/60165182/plib_can0.o
         672           0          56         728         2d8    sht4x_driver.o           build/default/production/_ext/1360937237/sht4x_driver.o
         516           0           8         524         20c    plib_clock.o             build/default/production/_ext/1984496892/plib_clock.o
         320           0         192         512         200    plib_eic.o               build/default/production/_ext/60167341/plib_eic.o
         456           0           0         456         1c8    __aeabi_dadd.o           libm-fast-emfloat.a
         288           0         144         432         1b0    rtc_driver.o             build/default/production/_ext/1360937237/rtc_driver.o
         398           0           8         406         196    sys_console_uart.o       build/default/production/_ext/1832805299/sys_console_uart.o
         394           0           0         394         18a    __aeabi_dmul_aux.o       libm-fast-emfloat.a
         316           0          72         388         184    hdc302x_driver.o         build/default/production/_ext/1360937237/hdc302x_driver.o
         364           0          20         384         180    timer_driver.o           build/default/production/_ext/1360937237/timer_driver.o
         332           0           4         336         150    rstc_driver.o            build/default/production/_ext/1360937237/rstc_driver.o
         328           0           5         333         14d    app.o                    build/default/production/_ext/1360937237/app.o
         314           0           0         314         13a    __aeabi_fadd.o           libm-fast-emfloat.a
         290           0          12         302         12e    plib_systick.o           build/default/production/_ext/1827571544/plib_systick.o
         302           0           0         302         12e    __fmt_x.o                libc-musl.a
         274           0           0         274         112    plib_nvic.o              build/default/production/_ext/1865468468/plib_nvic.o
         232           0          12         244          f4    ntc_driver.o             build/default/production/_ext/1360937237/ntc_driver.o
         224           0          12         236          ec    plib_rtc_clock.o         build/default/production/_ext/60180175/plib_rtc_clock.o
         156           0          80         236          ec    sen63c_driver.o          build/default/production/_ext/1360937237/sen63c_driver.o
         230           0           0         230          e6    _udivmoddi4.o            libgcc.a
         184           0          32         216          d8    vcnl4200_driver.o        build/default/production/_ext/1360937237/vcnl4200_driver.o
         184           0          32         216          d8    xm125_driver.o           build/default/production/_ext/1360937237/xm125_driver.o
         184           0          32         216          d8    bme690_driver.o          build/default/production/_ext/1360937237/bme690_driver.o
         214           0           0         214          d6    __pop_int.o              libc-musl.a
         204           0           8         212          d4    plib_adc0.o              build/default/production/_ext/60163342/plib_adc0.o
         210           0           0         210          d2    startup_xc32.o           build/default/production/_ext/1171490990/startup_xc32.o
         210           0           0         210          d2    interrupts.o             build/default/production/_ext/1171490990/interrupts.o
         196           0           0         196          c4    __aeabi_ddiv.o           libm-fast-emfloat.a
         188           0           0         188          bc    floor.o                  libm-fast-emfloat.a
         182           0           0         182          b6    __aeabi_fmul.o           libm-fast-emfloat.a
         180           0           0         180          b4    __fmt_d.o                libc-musl.a
         168           0           0         168          a8    _divsi3.o                libgcc.a
         140           0          12         152          98    console_driver.o         build/default/production/_ext/1360937237/console_driver.o
         148           0           0         148          94    __aeabi_fdiv.o           libm-fast-emfloat.a
         140           0           0         140          8c    _udivsi3.o               libgcc.a
         118           0           0         118          76    __pop_ptr.o              libc-musl.a
         118           0           0         118          76    __cvt_u.o                libc-musl.a
         104           0           8         112          70    plib_tc0.o               build/default/production/_ext/829342655/plib_tc0.o
         110           0           0         110          6e    __fmt_o.o                libc-musl.a
          72           8          28         108          6c    crtbegin.o               C:/Applications/Microchip/XC32/bin/bin/../../lib/gcc/pic32c/13.2.1/thumb/v6-m/nofp/crtbegin.o
         108           0           0         108          6c    plib_tcc1.o              build/default/production/_ext/60181570/plib_tcc1.o
         104           0           0         104          68    sys_int.o                build/default/production/_ext/1881668453/sys_int.o
         100           0           0         100          64    vsnprintf.o              libc-musl.a
          98           0           0          98          62    __aeabi_d2f.o            libm-fast-emfloat.a
          96           0           0          96          60    strchrnul.o              libc-size-musl.a
          94           0           0          94          5e    __libc_start_main.o      libc-musl.a
          86           0           0          86          56    __fmt_u.o                libc-musl.a
          82           0           4          86          56    data_init.o              libpic32c.a
          84           0           0          84          54    tasks.o                  build/default/production/_ext/1171490990/tasks.o
          80           0           0          80          50    plib_supc.o              build/default/production/_ext/1865616679/plib_supc.o
           0           0          80          80          50    libc.o                   libc-musl.a
          80           0           0          80          50    __fmt_s.o                libc-musl.a
          72           0           0          72          48    plib_wdt.o               build/default/production/_ext/60184501/plib_wdt.o
          64           0           8          72          48    plib_freqm.o             build/default/production/_ext/1987437027/plib_freqm.o
          68           0           0          68          44    sys_dma.o                build/default/production/_ext/14461671/sys_dma.o
          68           0           0          68          44    __aeabi_dcmple.o         libm-fast-emfloat.a
          68           0           0          68          44    _muldi3.o                libgcc.a
          68           0           0          68          44    atoi.o                   libc-musl.a
          68           0           0          68          44    __aeabi_f2d.o            libm-fast-emfloat.a
          68           0           0          68          44    plib_tcc0.o              build/default/production/_ext/60181570/plib_tcc0.o
          64           0           0          64          40    _aeabi_uldivmod.o        libgcc.a
          62           0           0          62          3e    __aeabi_dcmplt.o         libm-fast-emfloat.a
          62           0           0          62          3e    __aeabi_f2iz.o           libm-fast-emfloat.a
          62           0           0          62          3e    __aeabi_dcmpgt.o         libm-fast-emfloat.a
          60           0           0          60          3c    strstr.o                 libc-size-musl.a
          60           0           0          60          3c    plib_pdec.o              build/default/production/_ext/1865510628/plib_pdec.o
          60           0           0          60          3c    _clzsi2.o                libgcc.a
          54           0           0          54          36    __pop_float.o            libc-musl.a
          52           0           0          52          34    __aeabi_d2iz.o           libm-fast-emfloat.a
          46           0           0          46          2e    __aeabi_d2uiz.o          libm-fast-emfloat.a
          46           0           0          46          2e    __aeabi_dcmpeq.o         libm-fast-emfloat.a
          38           0           0          38          26    __aeabi_i2f.o            libm-fast-emfloat.a
          36           0           0          36          24    plib_ac.o                build/default/production/_ext/829343244/plib_ac.o
          36           0           0          36          24    __aeabi_f2uiz.o          libm-fast-emfloat.a
          32           0           3          35          23    fan_driver.o             build/default/production/_ext/1360937237/fan_driver.o
          32           0           1          33          21    stcc4_driver.o           build/default/production/_ext/1360937237/stcc4_driver.o
          30           0           0          30          1e    pic32_data_init_copy.o   libpic32c.a
          30           0           0          30          1e    __aeabi_ui2f.o           libm-fast-emfloat.a
          28           0           0          28          1c    plib_ccl.o               build/default/production/_ext/60165242/plib_ccl.o
          28           0           0          28          1c    plib_dac.o               build/default/production/_ext/60166132/plib_dac.o
          24           0           0          24          18    _ashldi3.o               libgcc.a
          24           0           0          24          18    strlen.o                 libc-size-musl.a
          24           0           0          24          18    _lshrdi3.o               libgcc.a
          24           0           0          24          18    vfprintf.o               libc-musl.a
          24           0           0          24          18    _clzdi2.o                libgcc.a
          22           0           0          22          16    sprintf.o                libc-musl.a
          20           0           0          20          14    strchr.o                 libc-size-musl.a
          20           0           0          20          14    memcpy.o                 libc-size-musl.a
          20           0           0          20          14    stpcpy.o                 libc-size-musl.a
          20           0           0          20          14    memset.o                 libc-size-musl.a
          20           0           0          20          14    vsprintf.o               libc-musl.a
          20           0           0          20          14    _thumb1_case_uqi.o       libgcc.a
          18           0           0          18          12    pic32_data_init_clear.o  libpic32c.a
          18           0           0          18          12    plib_evsys.o             build/default/production/_ext/1986646378/plib_evsys.o
          16           0           0          16          10    plib_pm.o                build/default/production/_ext/829342769/plib_pm.o
          16           0           0          16          10    __aeabi_fsub.o           libm-fast-emfloat.a
          16           0           0          16          10    crtn.o                   C:/Applications/Microchip/XC32/bin/bin/../../lib/gcc/pic32c/13.2.1/thumb/v6-m/nofp/crtn.o
          16           0           0          16          10    fma.o                    libm-fast-emfloat.a
          16           0           0          16          10    __aeabi_dsub.o           libm-fast-emfloat.a
          14           0           0          14           e    main.o                   build/default/production/_ext/1360937237/main.o
          14           0           0          14           e    toupper.o                libc-musl.a
          14           0           0          14           e    tolower.o                libc-musl.a
          12           0           0          12           c    strcpy.o                 libc-size-musl.a
          12           0           0          12           c    plib_rstc.o              build/default/production/_ext/1865585090/plib_rstc.o
          12           0           0          12           c    plib_nvmctrl.o           build/default/production/_ext/1593096446/plib_nvmctrl.o
           8           0           0           8           8    plib_port.o              build/default/production/_ext/1865521619/plib_port.o
           8           0           0           8           8    crti.o                   C:/Applications/Microchip/XC32/bin/bin/../../lib/gcc/pic32c/13.2.1/thumb/v6-m/nofp/crti.o
           4           0           0           4           4    _dvmd_tls.o              libgcc.a
           4           0           0           4           4    exceptions.o             build/default/production/_ext/1171490990/exceptions.o
           0           0           4           4           4    __environ.o              libc-musl.a
           0           0           4           4           4    __errno_location.o       libc-musl.a
--------------------------------------------------------------------------------
       40352         490       44582       85424       14db0    dist/default/production/PIC32CMxxxxJH01_DRIVER.X.production.elf


Discarded input sections

 .text          0x00000000        0x0 C:/Applications/Microchip/XC32/bin/bin/../../lib/gcc/pic32c/13.2.1/thumb/v6-m/nofp/crti.o
 .data          0x00000000        0x0 C:/Applications/Microchip/XC32/bin/bin/../../lib/gcc/pic32c/13.2.1/thumb/v6-m/nofp/crti.o
 .bss           0x00000000        0x0 C:/Applications/Microchip/XC32/bin/bin/../../lib/gcc/pic32c/13.2.1/thumb/v6-m/nofp/crti.o
 .xc_stack_usage.hdr
                0x00000000        0xe C:/Applications/Microchip/XC32/bin/bin/../../lib/gcc/pic32c/13.2.1/thumb/v6-m/nofp/crti.o
 .xc_stack_usage
                0x00000000       0x26 C:/Applications/Microchip/XC32/bin/bin/../../lib/gcc/pic32c/13.2.1/thumb/v6-m/nofp/crti.o
 .data          0x00000000        0x4 C:/Applications/Microchip/XC32/bin/bin/../../lib/gcc/pic32c/13.2.1/thumb/v6-m/nofp/crtbegin.o
 .rodata        0x00000000       0x24 C:/Applications/Microchip/XC32/bin/bin/../../lib/gcc/pic32c/13.2.1/thumb/v6-m/nofp/crtbegin.o
 .xc_stack_usage
                0x00000000       0x3c C:/Applications/Microchip/XC32/bin/bin/../../lib/gcc/pic32c/13.2.1/thumb/v6-m/nofp/crtbegin.o
 .xc_stack_usage.hdr
                0x00000000        0xe C:/Applications/Microchip/XC32/bin/bin/../../lib/gcc/pic32c/13.2.1/thumb/v6-m/nofp/crtbegin.o
 .text          0x00000000        0x0 build/default/production/_ext/158385033/drv_i2c.o
 .data          0x00000000        0x0 build/default/production/_ext/158385033/drv_i2c.o
 .bss           0x00000000        0x0 build/default/production/_ext/158385033/drv_i2c.o
 .text.DRV_I2C_Status
                0x00000000       0x14 build/default/production/_ext/158385033/drv_i2c.o
 .text.DRV_I2C_TransferEventHandlerSet
                0x00000000       0x38 build/default/production/_ext/158385033/drv_i2c.o
 .text.DRV_I2C_TransferSetup
                0x00000000       0x1e build/default/production/_ext/158385033/drv_i2c.o
 .text.DRV_I2C_ErrorGet
                0x00000000       0x54 build/default/production/_ext/158385033/drv_i2c.o
 .text.DRV_I2C_QueuePurge
                0x00000000       0x7c build/default/production/_ext/158385033/drv_i2c.o
 .text          0x00000000        0x0 build/default/production/_ext/2070931557/drv_spi.o
 .data          0x00000000        0x0 build/default/production/_ext/2070931557/drv_spi.o
 .bss           0x00000000        0x0 build/default/production/_ext/2070931557/drv_spi.o
 .text.DRV_SPI_Status
                0x00000000       0x14 build/default/production/_ext/2070931557/drv_spi.o
 .text.DRV_SPI_TransferEventHandlerSet
                0x00000000       0x34 build/default/production/_ext/2070931557/drv_spi.o
 .text.DRV_SPI_TransferSetup
                0x00000000       0x2e build/default/production/_ext/2070931557/drv_spi.o
 .text.DRV_SPI_ReadTransferAdd
                0x00000000       0x16 build/default/production/_ext/2070931557/drv_spi.o
 .text.DRV_SPI_Lock
                0x00000000       0xd0 build/default/production/_ext/2070931557/drv_spi.o
 .text          0x00000000        0x0 build/default/production/_ext/869808652/drv_usart.o
 .data          0x00000000        0x0 build/default/production/_ext/869808652/drv_usart.o
 .bss           0x00000000        0x0 build/default/production/_ext/869808652/drv_usart.o
 .text.lDRV_USART_GetTransferObj
                0x00000000       0x32 build/default/production/_ext/869808652/drv_usart.o
 .text.lDRV_USART_ReadAbort
                0x00000000       0x3a build/default/production/_ext/869808652/drv_usart.o
 .text.lDRV_USART_QueuePurge
                0x00000000       0x4c build/default/production/_ext/869808652/drv_usart.o
 .text.DRV_USART_Status
                0x00000000       0x14 build/default/production/_ext/869808652/drv_usart.o
 .text.DRV_USART_ErrorGet
                0x00000000       0x3a build/default/production/_ext/869808652/drv_usart.o
 .text.DRV_USART_SerialSetup
                0x00000000       0xb8 build/default/production/_ext/869808652/drv_usart.o
 .text.DRV_USART_BufferEventHandlerSet
                0x00000000       0x38 build/default/production/_ext/869808652/drv_usart.o
 .text.DRV_USART_BufferCompletedBytesGet
                0x00000000       0x68 build/default/production/_ext/869808652/drv_usart.o
 .text.DRV_USART_WriteQueuePurge
                0x00000000        0xa build/default/production/_ext/869808652/drv_usart.o
 .text.DRV_USART_ReadQueuePurge
                0x00000000        0xa build/default/production/_ext/869808652/drv_usart.o
 .text.DRV_USART_ReadAbort
                0x00000000       0x44 build/default/production/_ext/869808652/drv_usart.o
 .text          0x00000000        0x0 build/default/production/_ext/829343244/plib_ac.o
 .data          0x00000000        0x0 build/default/production/_ext/829343244/plib_ac.o
 .bss           0x00000000        0x0 build/default/production/_ext/829343244/plib_ac.o
 .text.AC_Start
                0x00000000       0x14 build/default/production/_ext/829343244/plib_ac.o
 .text.AC_SetVddScalar
                0x00000000       0x10 build/default/production/_ext/829343244/plib_ac.o
 .text.AC_SwapInputs
                0x00000000       0x38 build/default/production/_ext/829343244/plib_ac.o
 .text.AC_ChannelSelect
                0x00000000       0x44 build/default/production/_ext/829343244/plib_ac.o
 .text.AC_StatusGet
                0x00000000       0x28 build/default/production/_ext/829343244/plib_ac.o
 .text.AC_CallbackRegister
                0x00000000        0xc build/default/production/_ext/829343244/plib_ac.o
 .bss.acObj     0x00000000        0xc build/default/production/_ext/829343244/plib_ac.o
 .text          0x00000000        0x0 build/default/production/_ext/60163342/plib_adc0.o
 .data          0x00000000        0x0 build/default/production/_ext/60163342/plib_adc0.o
 .bss           0x00000000        0x0 build/default/production/_ext/60163342/plib_adc0.o
 .text.ADC0_Disable
                0x00000000       0x1c build/default/production/_ext/60163342/plib_adc0.o
 .text.ADC0_ChannelSelect
                0x00000000       0x18 build/default/production/_ext/60163342/plib_adc0.o
 .text.ADC0_ConversionSequenceIsFinished
                0x00000000       0x10 build/default/production/_ext/60163342/plib_adc0.o
 .text.ADC0_ComparisonWindowSet
                0x00000000       0x20 build/default/production/_ext/60163342/plib_adc0.o
 .text.ADC0_WindowModeSet
                0x00000000       0x24 build/default/production/_ext/60163342/plib_adc0.o
 .text.ADC0_InterruptsClear
                0x00000000        0xc build/default/production/_ext/60163342/plib_adc0.o
 .text.ADC0_InterruptsEnable
                0x00000000        0xc build/default/production/_ext/60163342/plib_adc0.o
 .text.ADC0_InterruptsDisable
                0x00000000        0xc build/default/production/_ext/60163342/plib_adc0.o
 .text          0x00000000        0x0 build/default/production/_ext/60165182/plib_can0.o
 .data          0x00000000        0x0 build/default/production/_ext/60165182/plib_can0.o
 .bss           0x00000000        0x0 build/default/production/_ext/60165182/plib_can0.o
 .text.CAN0_TxFifoFreeLevelGet
                0x00000000       0x10 build/default/production/_ext/60165182/plib_can0.o
 .text.CAN0_TxBufferIsBusy
                0x00000000       0x14 build/default/production/_ext/60165182/plib_can0.o
 .text.CAN0_TxEventFifoRead
                0x00000000       0x70 build/default/production/_ext/60165182/plib_can0.o
 .text.CAN0_TxEventFifoFillLevelGet
                0x00000000       0x10 build/default/production/_ext/60165182/plib_can0.o
 .text.CAN0_SleepModeEnter
                0x00000000       0x1c build/default/production/_ext/60165182/plib_can0.o
 .text.CAN0_SleepModeExit
                0x00000000       0x30 build/default/production/_ext/60165182/plib_can0.o
 .text.CAN0_BitTimingCalculationGet
                0x00000000       0xf0 build/default/production/_ext/60165182/plib_can0.o
 .text.CAN0_BitTimingSet
                0x00000000      0x100 build/default/production/_ext/60165182/plib_can0.o
 .text          0x00000000        0x0 build/default/production/_ext/60165242/plib_ccl.o
 .data          0x00000000        0x0 build/default/production/_ext/60165242/plib_ccl.o
 .bss           0x00000000        0x0 build/default/production/_ext/60165242/plib_ccl.o
 .text          0x00000000        0x0 build/default/production/_ext/1984496892/plib_clock.o
 .data          0x00000000        0x0 build/default/production/_ext/1984496892/plib_clock.o
 .bss           0x00000000        0x0 build/default/production/_ext/1984496892/plib_clock.o
 .text          0x00000000        0x0 build/default/production/_ext/60166132/plib_dac.o
 .data          0x00000000        0x0 build/default/production/_ext/60166132/plib_dac.o
 .bss           0x00000000        0x0 build/default/production/_ext/60166132/plib_dac.o
 .text.DAC_DataWrite
                0x00000000       0x18 build/default/production/_ext/60166132/plib_dac.o
 .text.DAC_IsReady
                0x00000000       0x10 build/default/production/_ext/60166132/plib_dac.o
 .text          0x00000000        0x0 build/default/production/_ext/1985337713/plib_divas.o
 .data          0x00000000        0x0 build/default/production/_ext/1985337713/plib_divas.o
 .bss           0x00000000        0x0 build/default/production/_ext/1985337713/plib_divas.o
 .text.DIVAS_SquareRoot
                0x00000000       0x2a build/default/production/_ext/1985337713/plib_divas.o
 .text.DIVAS_DivSigned
                0x00000000       0x38 build/default/production/_ext/1985337713/plib_divas.o
 .text.DIVAS_DivUnsigned
                0x00000000       0x36 build/default/production/_ext/1985337713/plib_divas.o
 .text.DIVAS_DivmodSigned
                0x00000000       0x3a build/default/production/_ext/1985337713/plib_divas.o
 .text.DIVAS_DivmodUnsigned
                0x00000000       0x38 build/default/production/_ext/1985337713/plib_divas.o
 .debug_info    0x00000000      0x7a6 build/default/production/_ext/1985337713/plib_divas.o
 .debug_abbrev  0x00000000      0x1fd build/default/production/_ext/1985337713/plib_divas.o
 .debug_loc     0x00000000      0x4a4 build/default/production/_ext/1985337713/plib_divas.o
 .debug_aranges
                0x00000000       0x40 build/default/production/_ext/1985337713/plib_divas.o
 .debug_ranges  0x00000000       0x30 build/default/production/_ext/1985337713/plib_divas.o
 .debug_line    0x00000000      0x52b build/default/production/_ext/1985337713/plib_divas.o
 .debug_str     0x00000000      0x484 build/default/production/_ext/1985337713/plib_divas.o
 .comment       0x00000000       0x36 build/default/production/_ext/1985337713/plib_divas.o
 .debug_frame   0x00000000       0x94 build/default/production/_ext/1985337713/plib_divas.o
 .ARM.attributes
                0x00000000       0x2c build/default/production/_ext/1985337713/plib_divas.o
 .text          0x00000000        0x0 build/default/production/_ext/1865161661/plib_dmac.o
 .data          0x00000000        0x0 build/default/production/_ext/1865161661/plib_dmac.o
 .bss           0x00000000        0x0 build/default/production/_ext/1865161661/plib_dmac.o
 .text.DMAC_ChannelIsBusy
                0x00000000       0x38 build/default/production/_ext/1865161661/plib_dmac.o
 .text.DMAC_ChannelTransferStatusGet
                0x00000000       0x28 build/default/production/_ext/1865161661/plib_dmac.o
 .text.DMAC_ChannelDisable
                0x00000000       0x3c build/default/production/_ext/1865161661/plib_dmac.o
 .text.DMAC_ChannelGetTransferredCount
                0x00000000       0x1c build/default/production/_ext/1865161661/plib_dmac.o
 .text.DMAC_ChannelSuspend
                0x00000000       0x28 build/default/production/_ext/1865161661/plib_dmac.o
 .text.DMAC_ChannelResume
                0x00000000       0x28 build/default/production/_ext/1865161661/plib_dmac.o
 .text.DMAC_CRCDisable
                0x00000000       0x14 build/default/production/_ext/1865161661/plib_dmac.o
 .text.DMAC_ChannelCRCSetup
                0x00000000       0x3c build/default/production/_ext/1865161661/plib_dmac.o
 .text.DMAC_CRCRead
                0x00000000        0xc build/default/production/_ext/1865161661/plib_dmac.o
 .text.DMAC_CRCCalculate
                0x00000000       0x88 build/default/production/_ext/1865161661/plib_dmac.o
 .text          0x00000000        0x0 build/default/production/_ext/60167341/plib_eic.o
 .data          0x00000000        0x0 build/default/production/_ext/60167341/plib_eic.o
 .bss           0x00000000        0x0 build/default/production/_ext/60167341/plib_eic.o
 .text.EIC_InterruptEnable
                0x00000000       0x10 build/default/production/_ext/60167341/plib_eic.o
 .text.EIC_InterruptDisable
                0x00000000       0x10 build/default/production/_ext/60167341/plib_eic.o
 .text          0x00000000        0x0 build/default/production/_ext/1986646378/plib_evsys.o
 .data          0x00000000        0x0 build/default/production/_ext/1986646378/plib_evsys.o
 .bss           0x00000000        0x0 build/default/production/_ext/1986646378/plib_evsys.o
 .text.EVSYS_GeneratorEnable
                0x00000000       0x18 build/default/production/_ext/1986646378/plib_evsys.o
 .text.EVSYS_GeneratorDisable
                0x00000000       0x14 build/default/production/_ext/1986646378/plib_evsys.o
 .text.EVSYS_UserEnable
                0x00000000       0x12 build/default/production/_ext/1986646378/plib_evsys.o
 .text.EVSYS_UserDisable
                0x00000000        0xe build/default/production/_ext/1986646378/plib_evsys.o
 .text          0x00000000        0x0 build/default/production/_ext/1987437027/plib_freqm.o
 .data          0x00000000        0x0 build/default/production/_ext/1987437027/plib_freqm.o
 .bss           0x00000000        0x0 build/default/production/_ext/1987437027/plib_freqm.o
 .text.FREQM_MeasurementStart
                0x00000000       0x1c build/default/production/_ext/1987437027/plib_freqm.o
 .text.FREQM_IsBusy
                0x00000000       0x10 build/default/production/_ext/1987437027/plib_freqm.o
 .text.FREQM_ErrorGet
                0x00000000       0x14 build/default/production/_ext/1987437027/plib_freqm.o
 .text.FREQM_FrequencyGet
                0x00000000       0x20 build/default/production/_ext/1987437027/plib_freqm.o
 .text.FREQM_CallbackRegister
                0x00000000        0xc build/default/production/_ext/1987437027/plib_freqm.o
 .text          0x00000000        0x0 build/default/production/_ext/1865468468/plib_nvic.o
 .data          0x00000000        0x0 build/default/production/_ext/1865468468/plib_nvic.o
 .bss           0x00000000        0x0 build/default/production/_ext/1865468468/plib_nvic.o
 .text.NVIC_INT_Enable
                0x00000000        0x8 build/default/production/_ext/1865468468/plib_nvic.o
 .text.NVIC_INT_SourceDisable
                0x00000000       0x3c build/default/production/_ext/1865468468/plib_nvic.o
 .text.NVIC_INT_SourceRestore
                0x00000000       0x1c build/default/production/_ext/1865468468/plib_nvic.o
 .text          0x00000000        0x0 build/default/production/_ext/1593096446/plib_nvmctrl.o
 .data          0x00000000        0x0 build/default/production/_ext/1593096446/plib_nvmctrl.o
 .bss           0x00000000        0x0 build/default/production/_ext/1593096446/plib_nvmctrl.o
 .text.NVMCTRL_CacheInvalidate
                0x00000000       0x10 build/default/production/_ext/1593096446/plib_nvmctrl.o
 .text.NVMCTRL_DATA_FLASH_Read
                0x00000000       0x10 build/default/production/_ext/1593096446/plib_nvmctrl.o
 .text.NVMCTRL_DATA_FLASH_PageWrite
                0x00000000       0x28 build/default/production/_ext/1593096446/plib_nvmctrl.o
 .text.NVMCTRL_DATA_FLASH_RowErase
                0x00000000       0x18 build/default/production/_ext/1593096446/plib_nvmctrl.o
 .text.NVMCTRL_Read
                0x00000000       0x10 build/default/production/_ext/1593096446/plib_nvmctrl.o
 .text.NVMCTRL_PageBufferWrite
                0x00000000       0x16 build/default/production/_ext/1593096446/plib_nvmctrl.o
 .text.NVMCTRL_PageBufferCommit
                0x00000000       0x2c build/default/production/_ext/1593096446/plib_nvmctrl.o
 .text.NVMCTRL_PageWrite
                0x00000000       0x28 build/default/production/_ext/1593096446/plib_nvmctrl.o
 .text.NVMCTRL_RowErase
                0x00000000       0x18 build/default/production/_ext/1593096446/plib_nvmctrl.o
 .text.NVMCTRL_USER_ROW_PageWrite
                0x00000000       0x38 build/default/production/_ext/1593096446/plib_nvmctrl.o
 .text.NVMCTRL_USER_ROW_RowErase
                0x00000000       0x2c build/default/production/_ext/1593096446/plib_nvmctrl.o
 .text.NVMCTRL_ErrorGet
                0x00000000       0x28 build/default/production/_ext/1593096446/plib_nvmctrl.o
 .text.NVMCTRL_IsBusy
                0x00000000       0x14 build/default/production/_ext/1593096446/plib_nvmctrl.o
 .text.NVMCTRL_RegionLock
                0x00000000       0x14 build/default/production/_ext/1593096446/plib_nvmctrl.o
 .text.NVMCTRL_RegionUnlock
                0x00000000       0x14 build/default/production/_ext/1593096446/plib_nvmctrl.o
 .text.NVMCTRL_InterruptFlagGet
                0x00000000       0x14 build/default/production/_ext/1593096446/plib_nvmctrl.o
 .text.NVMCTRL_SecurityBitSet
                0x00000000       0x10 build/default/production/_ext/1593096446/plib_nvmctrl.o
 .text.NVMCTRL_ChipEraseHardLockSet
                0x00000000       0x10 build/default/production/_ext/1593096446/plib_nvmctrl.o
 .text          0x00000000        0x0 build/default/production/_ext/1865510628/plib_pdec.o
 .data          0x00000000        0x0 build/default/production/_ext/1865510628/plib_pdec.o
 .bss           0x00000000        0x0 build/default/production/_ext/1865510628/plib_pdec.o
 .text.PDEC_QDECStart
                0x00000000       0x1c build/default/production/_ext/1865510628/plib_pdec.o
 .text.PDEC_QDECStop
                0x00000000       0x1c build/default/production/_ext/1865510628/plib_pdec.o
 .text.PDEC_QDECPositionGet
                0x00000000       0x28 build/default/production/_ext/1865510628/plib_pdec.o
 .text.PDEC_QDECRevolutionsGet
                0x00000000       0x2c build/default/production/_ext/1865510628/plib_pdec.o
 .text.PDEC_QDECAngleGet
                0x00000000       0x28 build/default/production/_ext/1865510628/plib_pdec.o
 .text.PDEC_QDECStatusGet
                0x00000000       0x10 build/default/production/_ext/1865510628/plib_pdec.o
 .text          0x00000000        0x0 build/default/production/_ext/829342769/plib_pm.o
 .data          0x00000000        0x0 build/default/production/_ext/829342769/plib_pm.o
 .bss           0x00000000        0x0 build/default/production/_ext/829342769/plib_pm.o
 .text.PM_IdleModeEnter
                0x00000000       0x18 build/default/production/_ext/829342769/plib_pm.o
 .text.PM_StandbyModeEnter
                0x00000000       0x18 build/default/production/_ext/829342769/plib_pm.o
 .text          0x00000000        0x0 build/default/production/_ext/1865521619/plib_port.o
 .data          0x00000000        0x0 build/default/production/_ext/1865521619/plib_port.o
 .bss           0x00000000        0x0 build/default/production/_ext/1865521619/plib_port.o
 .text.PORT_GroupRead
                0x00000000        0x4 build/default/production/_ext/1865521619/plib_port.o
 .text.PORT_GroupWrite
                0x00000000        0xc build/default/production/_ext/1865521619/plib_port.o
 .text.PORT_GroupLatchRead
                0x00000000        0x4 build/default/production/_ext/1865521619/plib_port.o
 .text.PORT_GroupToggle
                0x00000000        0x4 build/default/production/_ext/1865521619/plib_port.o
 .text.PORT_GroupInputEnable
                0x00000000       0x2a build/default/production/_ext/1865521619/plib_port.o
 .text.PORT_GroupOutputEnable
                0x00000000        0x4 build/default/production/_ext/1865521619/plib_port.o
 .text.PORT_PinPeripheralFunctionConfig
                0x00000000       0x48 build/default/production/_ext/1865521619/plib_port.o
 .text.PORT_PinGPIOConfig
                0x00000000       0x1e build/default/production/_ext/1865521619/plib_port.o
 .text          0x00000000        0x0 build/default/production/_ext/1865585090/plib_rstc.o
 .data          0x00000000        0x0 build/default/production/_ext/1865585090/plib_rstc.o
 .bss           0x00000000        0x0 build/default/production/_ext/1865585090/plib_rstc.o
 .text          0x00000000        0x0 build/default/production/_ext/60180175/plib_rtc_clock.o
 .data          0x00000000        0x0 build/default/production/_ext/60180175/plib_rtc_clock.o
 .bss           0x00000000        0x0 build/default/production/_ext/60180175/plib_rtc_clock.o
 .text.RTC_RTCCTimeSet
                0x00000000       0x3c build/default/production/_ext/60180175/plib_rtc_clock.o
 .text.RTC_RTCCClockSyncEnable
                0x00000000       0x1c build/default/production/_ext/60180175/plib_rtc_clock.o
 .text.RTC_RTCCClockSyncDisable
                0x00000000       0x1c build/default/production/_ext/60180175/plib_rtc_clock.o
 .text.RTC_RTCCAlarmSet
                0x00000000       0x54 build/default/production/_ext/60180175/plib_rtc_clock.o
 .text          0x00000000        0x0 build/default/production/_ext/508257091/plib_sercom3_i2c_master.o
 .data          0x00000000        0x0 build/default/production/_ext/508257091/plib_sercom3_i2c_master.o
 .bss           0x00000000        0x0 build/default/production/_ext/508257091/plib_sercom3_i2c_master.o
 .text.SERCOM3_I2C_BusScan
                0x00000000       0x98 build/default/production/_ext/508257091/plib_sercom3_i2c_master.o
 .text.SERCOM3_I2C_IsBusy
                0x00000000       0x28 build/default/production/_ext/508257091/plib_sercom3_i2c_master.o
 .text          0x00000000        0x0 build/default/production/_ext/17022449/plib_sercom2_spi_master.o
 .data          0x00000000        0x0 build/default/production/_ext/17022449/plib_sercom2_spi_master.o
 .bss           0x00000000        0x0 build/default/production/_ext/17022449/plib_sercom2_spi_master.o
 .text.SERCOM2_SPI_IsBusy
                0x00000000       0x28 build/default/production/_ext/17022449/plib_sercom2_spi_master.o
 .text.SERCOM2_SPI_Write
                0x00000000        0xc build/default/production/_ext/17022449/plib_sercom2_spi_master.o
 .text.SERCOM2_SPI_Read
                0x00000000       0x10 build/default/production/_ext/17022449/plib_sercom2_spi_master.o
 .text          0x00000000        0x0 build/default/production/_ext/504274921/plib_sercom1_usart.o
 .data          0x00000000        0x0 build/default/production/_ext/504274921/plib_sercom1_usart.o
 .bss           0x00000000        0x0 build/default/production/_ext/504274921/plib_sercom1_usart.o
 .text.SERCOM1_USART_FrequencyGet
                0x00000000        0x8 build/default/production/_ext/504274921/plib_sercom1_usart.o
 .text.SERCOM1_USART_SerialSetup
                0x00000000      0x160 build/default/production/_ext/504274921/plib_sercom1_usart.o
 .text.SERCOM1_USART_Enable
                0x00000000       0x20 build/default/production/_ext/504274921/plib_sercom1_usart.o
 .text.SERCOM1_USART_Disable
                0x00000000       0x20 build/default/production/_ext/504274921/plib_sercom1_usart.o
 .text.SERCOM1_USART_ErrorGet
                0x00000000       0x10 build/default/production/_ext/504274921/plib_sercom1_usart.o
 .text.SERCOM1_USART_ReadBufferSizeGet
                0x00000000        0xc build/default/production/_ext/504274921/plib_sercom1_usart.o
 .text.SERCOM1_USART_ReadNotificationEnable
                0x00000000       0x18 build/default/production/_ext/504274921/plib_sercom1_usart.o
 .text.SERCOM1_USART_ReadThresholdSet
                0x00000000       0x10 build/default/production/_ext/504274921/plib_sercom1_usart.o
 .text.SERCOM1_USART_ReadCallbackRegister
                0x00000000        0xc build/default/production/_ext/504274921/plib_sercom1_usart.o
 .text.SERCOM1_USART_TransmitComplete
                0x00000000       0x10 build/default/production/_ext/504274921/plib_sercom1_usart.o
 .text.SERCOM1_USART_WriteBufferSizeGet
                0x00000000        0xc build/default/production/_ext/504274921/plib_sercom1_usart.o
 .text.SERCOM1_USART_WriteNotificationEnable
                0x00000000       0x14 build/default/production/_ext/504274921/plib_sercom1_usart.o
 .text.SERCOM1_USART_WriteThresholdSet
                0x00000000       0x10 build/default/production/_ext/504274921/plib_sercom1_usart.o
 .text.SERCOM1_USART_WriteCallbackRegister
                0x00000000        0xc build/default/production/_ext/504274921/plib_sercom1_usart.o
 .text          0x00000000        0x0 build/default/production/_ext/504274921/plib_sercom0_usart.o
 .data          0x00000000        0x0 build/default/production/_ext/504274921/plib_sercom0_usart.o
 .bss           0x00000000        0x0 build/default/production/_ext/504274921/plib_sercom0_usart.o
 .text.SERCOM0_USART_FrequencyGet
                0x00000000        0x8 build/default/production/_ext/504274921/plib_sercom0_usart.o
 .text.SERCOM0_USART_Enable
                0x00000000       0x20 build/default/production/_ext/504274921/plib_sercom0_usart.o
 .text.SERCOM0_USART_Disable
                0x00000000       0x20 build/default/production/_ext/504274921/plib_sercom0_usart.o
 .text.SERCOM0_USART_TransmitterEnable
                0x00000000       0x18 build/default/production/_ext/504274921/plib_sercom0_usart.o
 .text.SERCOM0_USART_TransmitterDisable
                0x00000000       0x1c build/default/production/_ext/504274921/plib_sercom0_usart.o
 .text.SERCOM0_USART_TransmitComplete
                0x00000000       0x10 build/default/production/_ext/504274921/plib_sercom0_usart.o
 .text.SERCOM0_USART_ReceiverEnable
                0x00000000       0x18 build/default/production/_ext/504274921/plib_sercom0_usart.o
 .text.SERCOM0_USART_ReceiverDisable
                0x00000000       0x1c build/default/production/_ext/504274921/plib_sercom0_usart.o
 .text          0x00000000        0x0 build/default/production/_ext/1865616679/plib_supc.o
 .data          0x00000000        0x0 build/default/production/_ext/1865616679/plib_supc.o
 .bss           0x00000000        0x0 build/default/production/_ext/1865616679/plib_supc.o
 .text          0x00000000        0x0 build/default/production/_ext/1827571544/plib_systick.o
 .data          0x00000000        0x0 build/default/production/_ext/1827571544/plib_systick.o
 .bss           0x00000000        0x0 build/default/production/_ext/1827571544/plib_systick.o
 .text.SYSTICK_TimerRestart
                0x00000000       0x1c build/default/production/_ext/1827571544/plib_systick.o
 .text.SYSTICK_TimerPeriodGet
                0x00000000        0xc build/default/production/_ext/1827571544/plib_systick.o
 .text.SYSTICK_TimerCounterGet
                0x00000000        0xc build/default/production/_ext/1827571544/plib_systick.o
 .text.SYSTICK_DelayUs
                0x00000000       0x3c build/default/production/_ext/1827571544/plib_systick.o
 .text.SYSTICK_GetTickCounter
                0x00000000        0xc build/default/production/_ext/1827571544/plib_systick.o
 .text.SYSTICK_StartTimeOut
                0x00000000       0x24 build/default/production/_ext/1827571544/plib_systick.o
 .text.SYSTICK_ResetTimeOut
                0x00000000        0xc build/default/production/_ext/1827571544/plib_systick.o
 .text.SYSTICK_IsTimeoutReached
                0x00000000       0x18 build/default/production/_ext/1827571544/plib_systick.o
 .text          0x00000000        0x0 build/default/production/_ext/829342655/plib_tc0.o
 .data          0x00000000        0x0 build/default/production/_ext/829342655/plib_tc0.o
 .bss           0x00000000        0x0 build/default/production/_ext/829342655/plib_tc0.o
 .text.TC0_CaptureStart
                0x00000000       0x1c build/default/production/_ext/829342655/plib_tc0.o
 .text.TC0_CaptureStop
                0x00000000       0x1c build/default/production/_ext/829342655/plib_tc0.o
 .text.TC0_CaptureFrequencyGet
                0x00000000        0x8 build/default/production/_ext/829342655/plib_tc0.o
 .text.TC0_CaptureCommandSet
                0x00000000       0x18 build/default/production/_ext/829342655/plib_tc0.o
 .text.TC0_Capture16bitChannel0Get
                0x00000000        0xc build/default/production/_ext/829342655/plib_tc0.o
 .text.TC0_Capture16bitChannel1Get
                0x00000000        0xc build/default/production/_ext/829342655/plib_tc0.o
 .text.TC0_CaptureCallbackRegister
                0x00000000        0xc build/default/production/_ext/829342655/plib_tc0.o
 .text          0x00000000        0x0 build/default/production/_ext/60181570/plib_tcc1.o
 .data          0x00000000        0x0 build/default/production/_ext/60181570/plib_tcc1.o
 .bss           0x00000000        0x0 build/default/production/_ext/60181570/plib_tcc1.o
 .text.TCC1_PWM24bitPeriodSet
                0x00000000       0x1c build/default/production/_ext/60181570/plib_tcc1.o
 .text.TCC1_PWM24bitPeriodGet
                0x00000000       0x18 build/default/production/_ext/60181570/plib_tcc1.o
 .text.TCC1_PWMPatternSet
                0x00000000       0x20 build/default/production/_ext/60181570/plib_tcc1.o
 .text.TCC1_PWM24bitCounterGet
                0x00000000       0x28 build/default/production/_ext/60181570/plib_tcc1.o
 .text.TCC1_PWM24bitCounterSet
                0x00000000       0x18 build/default/production/_ext/60181570/plib_tcc1.o
 .text.TCC1_PWMForceUpdate
                0x00000000       0x1c build/default/production/_ext/60181570/plib_tcc1.o
 .text.TCC1_PWMPeriodInterruptEnable
                0x00000000        0xc build/default/production/_ext/60181570/plib_tcc1.o
 .text.TCC1_PWMPeriodInterruptDisable
                0x00000000        0xc build/default/production/_ext/60181570/plib_tcc1.o
 .text.TCC1_PWMInterruptStatusGet
                0x00000000       0x10 build/default/production/_ext/60181570/plib_tcc1.o
 .text          0x00000000        0x0 build/default/production/_ext/60181570/plib_tcc0.o
 .data          0x00000000        0x0 build/default/production/_ext/60181570/plib_tcc0.o
 .bss           0x00000000        0x0 build/default/production/_ext/60181570/plib_tcc0.o
 .text.TCC0_PWMStart
                0x00000000       0x1c build/default/production/_ext/60181570/plib_tcc0.o
 .text.TCC0_PWMStop
                0x00000000       0x1c build/default/production/_ext/60181570/plib_tcc0.o
 .text.TCC0_PWM24bitPeriodSet
                0x00000000       0x1c build/default/production/_ext/60181570/plib_tcc0.o
 .text.TCC0_PWM24bitPeriodGet
                0x00000000       0x18 build/default/production/_ext/60181570/plib_tcc0.o
 .text.TCC0_PWMDeadTimeSet
                0x00000000       0x1c build/default/production/_ext/60181570/plib_tcc0.o
 .text.TCC0_PWMPatternSet
                0x00000000       0x20 build/default/production/_ext/60181570/plib_tcc0.o
 .text.TCC0_PWM24bitCounterGet
                0x00000000       0x28 build/default/production/_ext/60181570/plib_tcc0.o
 .text.TCC0_PWM24bitCounterSet
                0x00000000       0x18 build/default/production/_ext/60181570/plib_tcc0.o
 .text.TCC0_PWMForceUpdate
                0x00000000       0x1c build/default/production/_ext/60181570/plib_tcc0.o
 .text.TCC0_PWMPeriodInterruptEnable
                0x00000000        0xc build/default/production/_ext/60181570/plib_tcc0.o
 .text.TCC0_PWMPeriodInterruptDisable
                0x00000000        0xc build/default/production/_ext/60181570/plib_tcc0.o
 .text.TCC0_PWMInterruptStatusGet
                0x00000000       0x10 build/default/production/_ext/60181570/plib_tcc0.o
 .text          0x00000000        0x0 build/default/production/_ext/60184501/plib_wdt.o
 .data          0x00000000        0x0 build/default/production/_ext/60184501/plib_wdt.o
 .bss           0x00000000        0x0 build/default/production/_ext/60184501/plib_wdt.o
 .text.WDT_Disable
                0x00000000       0x20 build/default/production/_ext/60184501/plib_wdt.o
 .text.WDT_EnableWindowMode
                0x00000000       0x34 build/default/production/_ext/60184501/plib_wdt.o
 .text.WDT_DisableWindowMode
                0x00000000       0x34 build/default/production/_ext/60184501/plib_wdt.o
 .text.WDT_IsEnabled
                0x00000000       0x14 build/default/production/_ext/60184501/plib_wdt.o
 .text.WDT_IsAlwaysOn
                0x00000000        0xc build/default/production/_ext/60184501/plib_wdt.o
 .text.WDT_IsWindowModeEnabled
                0x00000000       0x10 build/default/production/_ext/60184501/plib_wdt.o
 .text.WDT_ClearWithSync
                0x00000000       0x1c build/default/production/_ext/60184501/plib_wdt.o
 .text          0x00000000        0x0 build/default/production/_ext/163028504/xc32_monitor.o
 .data          0x00000000        0x0 build/default/production/_ext/163028504/xc32_monitor.o
 .bss           0x00000000        0x0 build/default/production/_ext/163028504/xc32_monitor.o
 .text.read     0x00000000        0x6 build/default/production/_ext/163028504/xc32_monitor.o
 .text.write    0x00000000        0x6 build/default/production/_ext/163028504/xc32_monitor.o
 .debug_info    0x00000000       0xf5 build/default/production/_ext/163028504/xc32_monitor.o
 .debug_abbrev  0x00000000       0xb2 build/default/production/_ext/163028504/xc32_monitor.o
 .debug_loc     0x00000000       0x56 build/default/production/_ext/163028504/xc32_monitor.o
 .debug_aranges
                0x00000000       0x28 build/default/production/_ext/163028504/xc32_monitor.o
 .debug_ranges  0x00000000       0x18 build/default/production/_ext/163028504/xc32_monitor.o
 .debug_line    0x00000000       0xd2 build/default/production/_ext/163028504/xc32_monitor.o
 .debug_str     0x00000000      0x29d build/default/production/_ext/163028504/xc32_monitor.o
 .comment       0x00000000       0x36 build/default/production/_ext/163028504/xc32_monitor.o
 .debug_frame   0x00000000       0x30 build/default/production/_ext/163028504/xc32_monitor.o
 .ARM.attributes
                0x00000000       0x2c build/default/production/_ext/163028504/xc32_monitor.o
 .text          0x00000000        0x0 build/default/production/_ext/1832805299/sys_console_uart.o
 .data          0x00000000        0x0 build/default/production/_ext/1832805299/sys_console_uart.o
 .bss           0x00000000        0x0 build/default/production/_ext/1832805299/sys_console_uart.o
 .text          0x00000000        0x0 build/default/production/_ext/1832805299/sys_console.o
 .data          0x00000000        0x0 build/default/production/_ext/1832805299/sys_console.o
 .bss           0x00000000        0x0 build/default/production/_ext/1832805299/sys_console.o
 .text.SYS_CONSOLE_Status
                0x00000000       0x54 build/default/production/_ext/1832805299/sys_console.o
 .text.SYS_CONSOLE_HandleGet
                0x00000000        0x8 build/default/production/_ext/1832805299/sys_console.o
 .text.SYS_CONSOLE_DeviceGet
                0x00000000       0x1c build/default/production/_ext/1832805299/sys_console.o
 .text.SYS_CONSOLE_Tasks
                0x00000000       0x2c build/default/production/_ext/1832805299/sys_console.o
 .text.SYS_CONSOLE_Read
                0x00000000       0x38 build/default/production/_ext/1832805299/sys_console.o
 .text.SYS_CONSOLE_ReadFreeBufferCountGet
                0x00000000       0x38 build/default/production/_ext/1832805299/sys_console.o
 .text.SYS_CONSOLE_ReadCountGet
                0x00000000       0x38 build/default/production/_ext/1832805299/sys_console.o
 .text.SYS_CONSOLE_Write
                0x00000000       0x38 build/default/production/_ext/1832805299/sys_console.o
 .text.SYS_CONSOLE_WriteFreeBufferCountGet
                0x00000000       0x38 build/default/production/_ext/1832805299/sys_console.o
 .text.SYS_CONSOLE_WriteCountGet
                0x00000000       0x38 build/default/production/_ext/1832805299/sys_console.o
 .text.SYS_CONSOLE_Flush
                0x00000000       0x34 build/default/production/_ext/1832805299/sys_console.o
 .text          0x00000000        0x0 build/default/production/_ext/14461671/sys_dma.o
 .data          0x00000000        0x0 build/default/production/_ext/14461671/sys_dma.o
 .bss           0x00000000        0x0 build/default/production/_ext/14461671/sys_dma.o
 .text          0x00000000        0x0 build/default/production/_ext/1881668453/sys_int.o
 .data          0x00000000        0x0 build/default/production/_ext/1881668453/sys_int.o
 .bss           0x00000000        0x0 build/default/production/_ext/1881668453/sys_int.o
 .text.SYS_INT_Enable
                0x00000000        0x8 build/default/production/_ext/1881668453/sys_int.o
 .text          0x00000000        0x0 build/default/production/_ext/101884895/sys_time.o
 .data          0x00000000        0x0 build/default/production/_ext/101884895/sys_time.o
 .bss           0x00000000        0x0 build/default/production/_ext/101884895/sys_time.o
 .text.SYS_TIME_Deinitialize
                0x00000000       0x34 build/default/production/_ext/101884895/sys_time.o
 .text.SYS_TIME_Status
                0x00000000       0x18 build/default/production/_ext/101884895/sys_time.o
 .text.SYS_TIME_FrequencyGet
                0x00000000        0xc build/default/production/_ext/101884895/sys_time.o
 .text.SYS_TIME_Counter64Get
                0x00000000       0x1c build/default/production/_ext/101884895/sys_time.o
 .text.SYS_TIME_CounterGet
                0x00000000        0x8 build/default/production/_ext/101884895/sys_time.o
 .text.SYS_TIME_CounterSet
                0x00000000       0x1c build/default/production/_ext/101884895/sys_time.o
 .text.SYS_TIME_CountToUS
                0x00000000       0x3c build/default/production/_ext/101884895/sys_time.o
 .text.SYS_TIME_CountToMS
                0x00000000       0x20 build/default/production/_ext/101884895/sys_time.o
 .text.SYS_TIME_USToCount
                0x00000000       0x24 build/default/production/_ext/101884895/sys_time.o
 .text.SYS_TIME_MSToCount
                0x00000000       0x20 build/default/production/_ext/101884895/sys_time.o
 .text.SYS_TIME_TimerCreate
                0x00000000       0x20 build/default/production/_ext/101884895/sys_time.o
 .text.SYS_TIME_TimerReload
                0x00000000       0x88 build/default/production/_ext/101884895/sys_time.o
 .text.SYS_TIME_TimerCounterGet
                0x00000000       0x70 build/default/production/_ext/101884895/sys_time.o
 .text.SYS_TIME_TimerPeriodHasExpired
                0x00000000       0x2a build/default/production/_ext/101884895/sys_time.o
 .text.SYS_TIME_DelayUS
                0x00000000       0x58 build/default/production/_ext/101884895/sys_time.o
 .text.SYS_TIME_DelayMS
                0x00000000       0x54 build/default/production/_ext/101884895/sys_time.o
 .text.SYS_TIME_DelayIsComplete
                0x00000000       0x18 build/default/production/_ext/101884895/sys_time.o
 .text.SYS_TIME_CallbackRegisterUS
                0x00000000       0x5c build/default/production/_ext/101884895/sys_time.o
 .text          0x00000000        0x0 build/default/production/_ext/1171490990/tasks.o
 .data          0x00000000        0x0 build/default/production/_ext/1171490990/tasks.o
 .bss           0x00000000        0x0 build/default/production/_ext/1171490990/tasks.o
 .text          0x00000000        0x0 build/default/production/_ext/1171490990/initialization.o
 .data          0x00000000        0x0 build/default/production/_ext/1171490990/initialization.o
 .bss           0x00000000        0x0 build/default/production/_ext/1171490990/initialization.o
 .text          0x00000000        0x0 build/default/production/_ext/1171490990/interrupts.o
 .data          0x00000000        0x0 build/default/production/_ext/1171490990/interrupts.o
 .bss           0x00000000        0x0 build/default/production/_ext/1171490990/interrupts.o
 .text          0x00000000        0x0 build/default/production/_ext/1171490990/exceptions.o
 .data          0x00000000        0x0 build/default/production/_ext/1171490990/exceptions.o
 .bss           0x00000000        0x0 build/default/production/_ext/1171490990/exceptions.o
 .text          0x00000000        0x0 build/default/production/_ext/1171490990/startup_xc32.o
 .data          0x00000000        0x0 build/default/production/_ext/1171490990/startup_xc32.o
 .bss           0x00000000        0x0 build/default/production/_ext/1171490990/startup_xc32.o
 .text          0x00000000        0x0 build/default/production/_ext/1171490990/libc_syscalls.o
 .data          0x00000000        0x0 build/default/production/_ext/1171490990/libc_syscalls.o
 .bss           0x00000000        0x0 build/default/production/_ext/1171490990/libc_syscalls.o
 .text._exit    0x00000000        0x2 build/default/production/_ext/1171490990/libc_syscalls.o
 .debug_info    0x00000000       0xaa build/default/production/_ext/1171490990/libc_syscalls.o
 .debug_abbrev  0x00000000       0x5d build/default/production/_ext/1171490990/libc_syscalls.o
 .debug_loc     0x00000000       0x15 build/default/production/_ext/1171490990/libc_syscalls.o
 .debug_aranges
                0x00000000       0x20 build/default/production/_ext/1171490990/libc_syscalls.o
 .debug_ranges  0x00000000       0x10 build/default/production/_ext/1171490990/libc_syscalls.o
 .debug_line    0x00000000       0x5e build/default/production/_ext/1171490990/libc_syscalls.o
 .debug_str     0x00000000      0x2d1 build/default/production/_ext/1171490990/libc_syscalls.o
 .comment       0x00000000       0x36 build/default/production/_ext/1171490990/libc_syscalls.o
 .debug_frame   0x00000000       0x20 build/default/production/_ext/1171490990/libc_syscalls.o
 .ARM.attributes
                0x00000000       0x2c build/default/production/_ext/1171490990/libc_syscalls.o
 .text          0x00000000        0x0 build/default/production/_ext/1360937237/can0_driver.o
 .data          0x00000000        0x0 build/default/production/_ext/1360937237/can0_driver.o
 .bss           0x00000000        0x0 build/default/production/_ext/1360937237/can0_driver.o
 .text.CAN0_DRIVER_Get_Task_Start_Status
                0x00000000        0xc build/default/production/_ext/1360937237/can0_driver.o
 .text.CAN0_DRIVER_Set_DLC
                0x00000000       0x38 build/default/production/_ext/1360937237/can0_driver.o
 .text.CAN0_DRIVER_Set_Received_Data
                0x00000000        0xc build/default/production/_ext/1360937237/can0_driver.o
 .text.CAN0_DRIVER_Set_Transmited_Data
                0x00000000       0x48 build/default/production/_ext/1360937237/can0_driver.o
 .text          0x00000000        0x0 build/default/production/_ext/1360937237/sht4x_driver.o
 .data          0x00000000        0x0 build/default/production/_ext/1360937237/sht4x_driver.o
 .bss           0x00000000        0x0 build/default/production/_ext/1360937237/sht4x_driver.o
 .text.SHT4X_DRIVER_Get_Task_Start_Status
                0x00000000        0xc build/default/production/_ext/1360937237/sht4x_driver.o
 .text.SHT4X_DRIVER_Set_Task_Start_Status
                0x00000000        0xc build/default/production/_ext/1360937237/sht4x_driver.o
 .text.SHT4X_DRIVER_Get_Task_Completed_Status
                0x00000000        0xc build/default/production/_ext/1360937237/sht4x_driver.o
 .text.SHT4X_DRIVER_Set_Task_Completed_Status
                0x00000000        0xc build/default/production/_ext/1360937237/sht4x_driver.o
 .text.SHT4X_DRIVER_Read_Serial_Number
                0x00000000       0x30 build/default/production/_ext/1360937237/sht4x_driver.o
 .text.SHT4X_DRIVER_Store_Serial_Number
                0x00000000       0x24 build/default/production/_ext/1360937237/sht4x_driver.o
 .text.SHT4X_DRIVER_Soft_Reset
                0x00000000       0x24 build/default/production/_ext/1360937237/sht4x_driver.o
 .rodata.SHT4X_DRIVER_Print_Data.str1.4
                0x00000000       0x42 build/default/production/_ext/1360937237/sht4x_driver.o
 .text.SHT4X_DRIVER_Print_Data
                0x00000000       0x48 build/default/production/_ext/1360937237/sht4x_driver.o
 .text          0x00000000        0x0 build/default/production/_ext/1360937237/rstc_driver.o
 .data          0x00000000        0x0 build/default/production/_ext/1360937237/rstc_driver.o
 .bss           0x00000000        0x0 build/default/production/_ext/1360937237/rstc_driver.o
 .text.RSTC_DRIVER_Get_Task_Start_Status
                0x00000000        0xc build/default/production/_ext/1360937237/rstc_driver.o
 .text.RSTC_DRIVER_Set_Task_Start_Status
                0x00000000        0xc build/default/production/_ext/1360937237/rstc_driver.o
 .text.RSTC_DRIVER_Get_Task_Completed_Status
                0x00000000        0xc build/default/production/_ext/1360937237/rstc_driver.o
 .text.RSTC_DRIVER_Set_Task_Completed_Status
                0x00000000        0xc build/default/production/_ext/1360937237/rstc_driver.o
 .text          0x00000000        0x0 build/default/production/_ext/1360937237/ad9954_driver.o
 .data          0x00000000        0x0 build/default/production/_ext/1360937237/ad9954_driver.o
 .bss           0x00000000        0x0 build/default/production/_ext/1360937237/ad9954_driver.o
 .text.AD9954_DRIVER_Get_Task_Start_Status
                0x00000000        0xc build/default/production/_ext/1360937237/ad9954_driver.o
 .text.AD9954_DRIVER_Set_Task_Start_Status
                0x00000000        0xc build/default/production/_ext/1360937237/ad9954_driver.o
 .text.AD9954_DRIVER_Get_Task_Completed_Status
                0x00000000        0xc build/default/production/_ext/1360937237/ad9954_driver.o
 .text.AD9954_DRIVER_Set_Task_Completed_Status
                0x00000000        0xc build/default/production/_ext/1360937237/ad9954_driver.o
 .text.AD9954_DRIVER_Get_CFR1_Register
                0x00000000       0x2c build/default/production/_ext/1360937237/ad9954_driver.o
 .text.AD9954_DRIVER_Store_CFR1_Register
                0x00000000       0x24 build/default/production/_ext/1360937237/ad9954_driver.o
 .text.AD9954_DRIVER_Get_CFR2_Register
                0x00000000       0x2c build/default/production/_ext/1360937237/ad9954_driver.o
 .text.AD9954_DRIVER_Store_CFR2_Register
                0x00000000       0x18 build/default/production/_ext/1360937237/ad9954_driver.o
 .text.AD9954_DRIVER_Set_CFR2_Register
                0x00000000       0x28 build/default/production/_ext/1360937237/ad9954_driver.o
 .text.AD9954_DRIVER_Get_ASF_Register
                0x00000000       0x2c build/default/production/_ext/1360937237/ad9954_driver.o
 .text.AD9954_DRIVER_Store_ASF_Register
                0x00000000       0x18 build/default/production/_ext/1360937237/ad9954_driver.o
 .text.AD9954_DRIVER_Set_ASF_Register
                0x00000000       0x28 build/default/production/_ext/1360937237/ad9954_driver.o
 .text.AD9954_DRIVER_Get_ARR_Register
                0x00000000       0x2c build/default/production/_ext/1360937237/ad9954_driver.o
 .text.AD9954_DRIVER_Store_ARR_Register
                0x00000000       0x14 build/default/production/_ext/1360937237/ad9954_driver.o
 .text.AD9954_DRIVER_Set_ARR_Register
                0x00000000       0x24 build/default/production/_ext/1360937237/ad9954_driver.o
 .text.AD9954_DRIVER_Get_FTW0_Register
                0x00000000       0x2c build/default/production/_ext/1360937237/ad9954_driver.o
 .text.AD9954_DRIVER_Store_FTW0_Register
                0x00000000       0x24 build/default/production/_ext/1360937237/ad9954_driver.o
 .text.AD9954_DRIVER_Get_POW0_Register
                0x00000000       0x2c build/default/production/_ext/1360937237/ad9954_driver.o
 .text.AD9954_DRIVER_Store_POW0_Register
                0x00000000       0x18 build/default/production/_ext/1360937237/ad9954_driver.o
 .text.AD9954_DRIVER_Set_POW0_Register
                0x00000000       0x28 build/default/production/_ext/1360937237/ad9954_driver.o
 .text.AD9954_DRIVER_Get_FTW1_Register
                0x00000000       0x2c build/default/production/_ext/1360937237/ad9954_driver.o
 .text.AD9954_DRIVER_Store_FTW1_Register
                0x00000000       0x24 build/default/production/_ext/1360937237/ad9954_driver.o
 .text.AD9954_DRIVER_Get_RSCW0_Register
                0x00000000       0x2c build/default/production/_ext/1360937237/ad9954_driver.o
 .text.AD9954_DRIVER_Store_RSCW0_Register
                0x00000000       0x28 build/default/production/_ext/1360937237/ad9954_driver.o
 .text.AD9954_DRIVER_Set_RSCW0_Register
                0x00000000       0x38 build/default/production/_ext/1360937237/ad9954_driver.o
 .text.AD9954_DRIVER_Get_RSCW1_Register
                0x00000000       0x2c build/default/production/_ext/1360937237/ad9954_driver.o
 .text.AD9954_DRIVER_Store_RSCW1_Register
                0x00000000       0x28 build/default/production/_ext/1360937237/ad9954_driver.o
 .text.AD9954_DRIVER_Set_RSCW1_Register
                0x00000000       0x38 build/default/production/_ext/1360937237/ad9954_driver.o
 .text.AD9954_DRIVER_Get_RSCW2_Register
                0x00000000       0x2c build/default/production/_ext/1360937237/ad9954_driver.o
 .text.AD9954_DRIVER_Store_RSCW2_Register
                0x00000000       0x28 build/default/production/_ext/1360937237/ad9954_driver.o
 .text.AD9954_DRIVER_Set_RSCW2_Register
                0x00000000       0x38 build/default/production/_ext/1360937237/ad9954_driver.o
 .text.AD9954_DRIVER_Get_RSCW3_Register
                0x00000000       0x2c build/default/production/_ext/1360937237/ad9954_driver.o
 .text.AD9954_DRIVER_Store_RSCW3_Register
                0x00000000       0x28 build/default/production/_ext/1360937237/ad9954_driver.o
 .text.AD9954_DRIVER_Set_RSCW3_Register
                0x00000000       0x38 build/default/production/_ext/1360937237/ad9954_driver.o
 .text.AD9954_DRIVER_Get_NLSCW_Register
                0x00000000       0x2c build/default/production/_ext/1360937237/ad9954_driver.o
 .text.AD9954_DRIVER_Store_NLSCW_Register
                0x00000000       0x28 build/default/production/_ext/1360937237/ad9954_driver.o
 .text.AD9954_DRIVER_Get_PLSCW_Register
                0x00000000       0x2c build/default/production/_ext/1360937237/ad9954_driver.o
 .text.AD9954_DRIVER_Store_PLSCW_Register
                0x00000000       0x28 build/default/production/_ext/1360937237/ad9954_driver.o
 .text.AD9954_DRIVER_Set_PLSCW_Register
                0x00000000       0x38 build/default/production/_ext/1360937237/ad9954_driver.o
 .text.AD9954_DRIVER_Set_Frequency
                0x00000000       0x28 build/default/production/_ext/1360937237/ad9954_driver.o
 .text.AD9954_DRIVER_Set_Linear_Sweep
                0x00000000       0x30 build/default/production/_ext/1360937237/ad9954_driver.o
 .bss.ad9954_settingsData
                0x00000000        0xc build/default/production/_ext/1360937237/ad9954_driver.o
 .bss.ad9954_ddsData
                0x00000000       0x48 build/default/production/_ext/1360937237/ad9954_driver.o
 .text          0x00000000        0x0 build/default/production/_ext/1360937237/rtc_driver.o
 .data          0x00000000        0x0 build/default/production/_ext/1360937237/rtc_driver.o
 .bss           0x00000000        0x0 build/default/production/_ext/1360937237/rtc_driver.o
 .text.RTC_DRIVER_Get_Task_Start_Status
                0x00000000       0x10 build/default/production/_ext/1360937237/rtc_driver.o
 .text.RTC_DRIVER_Set_Task_Start_Status
                0x00000000        0xc build/default/production/_ext/1360937237/rtc_driver.o
 .text.RTC_DRIVER_Get_Task_Completed_Status
                0x00000000       0x10 build/default/production/_ext/1360937237/rtc_driver.o
 .text.RTC_DRIVER_Set_Task_Completed_Status
                0x00000000        0xc build/default/production/_ext/1360937237/rtc_driver.o
 .text.RTC_DRIVER_Get_Alarm_Status
                0x00000000       0x10 build/default/production/_ext/1360937237/rtc_driver.o
 .text.RTC_DRIVER_Set_Alarm_Status
                0x00000000        0xc build/default/production/_ext/1360937237/rtc_driver.o
 .text.RTC_DRIVER_Set_Init_Time
                0x00000000       0x24 build/default/production/_ext/1360937237/rtc_driver.o
 .text.RTC_DRIVER_Set_Alarm_Time
                0x00000000       0x20 build/default/production/_ext/1360937237/rtc_driver.o
 .text          0x00000000        0x0 build/default/production/_ext/1360937237/mcp9808_driver.o
 .data          0x00000000        0x0 build/default/production/_ext/1360937237/mcp9808_driver.o
 .bss           0x00000000        0x0 build/default/production/_ext/1360937237/mcp9808_driver.o
 .text.MCP9808_DRIVER_Get_Task_Start_Status
                0x00000000        0xc build/default/production/_ext/1360937237/mcp9808_driver.o
 .text.MCP9808_DRIVER_Set_Task_Start_Status
                0x00000000        0xc build/default/production/_ext/1360937237/mcp9808_driver.o
 .text.MCP9808_DRIVER_Get_Task_Completed_Status
                0x00000000        0xc build/default/production/_ext/1360937237/mcp9808_driver.o
 .text.MCP9808_DRIVER_Set_Task_Completed_Status
                0x00000000        0xc build/default/production/_ext/1360937237/mcp9808_driver.o
 .text.MCP9808_DRIVER_Get_Alert_Status
                0x00000000        0xc build/default/production/_ext/1360937237/mcp9808_driver.o
 .text.MCP9808_DRIVER_Set_Alert_Status
                0x00000000        0xc build/default/production/_ext/1360937237/mcp9808_driver.o
 .text.MCP9808_DRIVER_Get_Sensor_Config
                0x00000000       0x30 build/default/production/_ext/1360937237/mcp9808_driver.o
 .text.MCP9808_DRIVER_Store_Sensor_Config
                0x00000000       0x18 build/default/production/_ext/1360937237/mcp9808_driver.o
 .text.MCP9808_DRIVER_Set_Sensor_Config
                0x00000000       0x30 build/default/production/_ext/1360937237/mcp9808_driver.o
 .text.MCP9808_DRIVER_Get_Result_Resolution
                0x00000000       0x30 build/default/production/_ext/1360937237/mcp9808_driver.o
 .text.MCP9808_DRIVER_Store_Result_Resolution
                0x00000000       0x14 build/default/production/_ext/1360937237/mcp9808_driver.o
 .rodata.MCP9808_DRIVER_Print_Data.str1.4
                0x00000000       0x51 build/default/production/_ext/1360937237/mcp9808_driver.o
 .text.MCP9808_DRIVER_Print_Data
                0x00000000       0x44 build/default/production/_ext/1360937237/mcp9808_driver.o
 .text          0x00000000        0x0 build/default/production/_ext/1360937237/bme690_driver.o
 .data          0x00000000        0x0 build/default/production/_ext/1360937237/bme690_driver.o
 .bss           0x00000000        0x0 build/default/production/_ext/1360937237/bme690_driver.o
 .text.BME690_DRIVER_Get_Task_Start_Status
                0x00000000        0xc build/default/production/_ext/1360937237/bme690_driver.o
 .text.BME690_DRIVER_Set_Task_Start_Status
                0x00000000        0xc build/default/production/_ext/1360937237/bme690_driver.o
 .text.BME690_DRIVER_Get_Task_Completed_Status
                0x00000000        0xc build/default/production/_ext/1360937237/bme690_driver.o
 .text.BME690_DRIVER_Set_Task_Completed_Status
                0x00000000        0xc build/default/production/_ext/1360937237/bme690_driver.o
 .text.BME690_DRIVER_Set_I2C_Address
                0x00000000        0xc build/default/production/_ext/1360937237/bme690_driver.o
 .text.BME690_DRIVER_Get_VARIANT_ID_Data
                0x00000000       0x30 build/default/production/_ext/1360937237/bme690_driver.o
 .text.BME690_DRIVER_Store_VARIANT_ID_Data
                0x00000000       0x14 build/default/production/_ext/1360937237/bme690_driver.o
 .text.BME690_DRIVER_Get_CHIP_ID_Data
                0x00000000       0x30 build/default/production/_ext/1360937237/bme690_driver.o
 .text.BME690_DRIVER_Store_CHIP_ID_Data
                0x00000000       0x14 build/default/production/_ext/1360937237/bme690_driver.o
 .text.BME690_DRIVER_Set_CONFIG_Data
                0x00000000       0x28 build/default/production/_ext/1360937237/bme690_driver.o
 .text.BME690_DRIVER_Get_CONFIG_Data
                0x00000000       0x30 build/default/production/_ext/1360937237/bme690_driver.o
 .text.BME690_DRIVER_Store_CONFIG_Data
                0x00000000       0x14 build/default/production/_ext/1360937237/bme690_driver.o
 .text.BME690_DRIVER_Set_CTRL_MEAS_Data
                0x00000000       0x28 build/default/production/_ext/1360937237/bme690_driver.o
 .text.BME690_DRIVER_Get_CTRL_MEAS_Data
                0x00000000       0x30 build/default/production/_ext/1360937237/bme690_driver.o
 .text.BME690_DRIVER_Store_CTRL_MEAS_Data
                0x00000000       0x14 build/default/production/_ext/1360937237/bme690_driver.o
 .text.BME690_DRIVER_Set_CTRL_HUM_Data
                0x00000000       0x28 build/default/production/_ext/1360937237/bme690_driver.o
 .text.BME690_DRIVER_Get_CTRL_HUM_Data
                0x00000000       0x30 build/default/production/_ext/1360937237/bme690_driver.o
 .text.BME690_DRIVER_Store_CTRL_HUM_Data
                0x00000000       0x14 build/default/production/_ext/1360937237/bme690_driver.o
 .text.BME690_DRIVER_Set_CTRL_GAS_1_Data
                0x00000000       0x28 build/default/production/_ext/1360937237/bme690_driver.o
 .text.BME690_DRIVER_Get_CTRL_GAS_1_Data
                0x00000000       0x30 build/default/production/_ext/1360937237/bme690_driver.o
 .text.BME690_DRIVER_Store_CTRL_GAS_1_Data
                0x00000000       0x14 build/default/production/_ext/1360937237/bme690_driver.o
 .text.BME690_DRIVER_Set_CTRL_GAS_0_Data
                0x00000000       0x28 build/default/production/_ext/1360937237/bme690_driver.o
 .text.BME690_DRIVER_Get_CTRL_GAS_0_Data
                0x00000000       0x30 build/default/production/_ext/1360937237/bme690_driver.o
 .text.BME690_DRIVER_Store_CTRL_GAS_0_Data
                0x00000000       0x14 build/default/production/_ext/1360937237/bme690_driver.o
 .text.BME690_DRIVER_Get_T_MSB_Data
                0x00000000       0x38 build/default/production/_ext/1360937237/bme690_driver.o
 .text.BME690_DRIVER_Store_T_MSB_Data
                0x00000000       0x14 build/default/production/_ext/1360937237/bme690_driver.o
 .text.BME690_DRIVER_Get_T_LSB_Data
                0x00000000       0x38 build/default/production/_ext/1360937237/bme690_driver.o
 .text.BME690_DRIVER_Store_T_LSB_Data
                0x00000000       0x14 build/default/production/_ext/1360937237/bme690_driver.o
 .text.BME690_DRIVER_Get_T_XLSB_Data
                0x00000000       0x38 build/default/production/_ext/1360937237/bme690_driver.o
 .text.BME690_DRIVER_Store_T_XLSB_Data
                0x00000000       0x14 build/default/production/_ext/1360937237/bme690_driver.o
 .text.BME690_DRIVER_Get_H_MSB_Data
                0x00000000       0x38 build/default/production/_ext/1360937237/bme690_driver.o
 .text.BME690_DRIVER_Store_H_MSB_Data
                0x00000000       0x14 build/default/production/_ext/1360937237/bme690_driver.o
 .text.BME690_DRIVER_Get_H_LSB_Data
                0x00000000       0x38 build/default/production/_ext/1360937237/bme690_driver.o
 .text.BME690_DRIVER_Store_H_LSB_Data
                0x00000000       0x14 build/default/production/_ext/1360937237/bme690_driver.o
 .text.BME690_DRIVER_Get_G_MSB_Data
                0x00000000       0x38 build/default/production/_ext/1360937237/bme690_driver.o
 .text.BME690_DRIVER_Store_G_MSB_Data
                0x00000000       0x14 build/default/production/_ext/1360937237/bme690_driver.o
 .text.BME690_DRIVER_Get_G_LSB_Data
                0x00000000       0x38 build/default/production/_ext/1360937237/bme690_driver.o
 .text.BME690_DRIVER_Store_G_LSB_Data
                0x00000000       0x14 build/default/production/_ext/1360937237/bme690_driver.o
 .text.BME690_DRIVER_Get_P_MSB_Data
                0x00000000       0x38 build/default/production/_ext/1360937237/bme690_driver.o
 .text.BME690_DRIVER_Store_P_MSB_Data
                0x00000000       0x14 build/default/production/_ext/1360937237/bme690_driver.o
 .text.BME690_DRIVER_Get_P_LSB_Data
                0x00000000       0x38 build/default/production/_ext/1360937237/bme690_driver.o
 .text.BME690_DRIVER_Store_P_LSB_Data
                0x00000000       0x14 build/default/production/_ext/1360937237/bme690_driver.o
 .text.BME690_DRIVER_Get_P_XLSB_Data
                0x00000000       0x38 build/default/production/_ext/1360937237/bme690_driver.o
 .text.BME690_DRIVER_Store_P_XLSB_Data
                0x00000000       0x14 build/default/production/_ext/1360937237/bme690_driver.o
 .text.BME690_DRIVER_Get_SUB_MEAS_INDEX_Data
                0x00000000       0x38 build/default/production/_ext/1360937237/bme690_driver.o
 .text.BME690_DRIVER_Store_SUB_MEAS_INDEX_Data
                0x00000000       0x14 build/default/production/_ext/1360937237/bme690_driver.o
 .text.BME690_DRIVER_Get_MEAS_STATUS_Data
                0x00000000       0x38 build/default/production/_ext/1360937237/bme690_driver.o
 .text.BME690_DRIVER_Store_MEAS_STATUS_Data
                0x00000000       0x14 build/default/production/_ext/1360937237/bme690_driver.o
 .text.BME690_DRIVER_Get_PAR_T1_CAL_LSB_Data
                0x00000000        0x2 build/default/production/_ext/1360937237/bme690_driver.o
 .text.BME690_DRIVER_Store_PAR_T1_CAL_LSB_Data
                0x00000000        0x2 build/default/production/_ext/1360937237/bme690_driver.o
 .text.BME690_DRIVER_Get_PAR_T1_CAL_MSB_Data
                0x00000000        0x2 build/default/production/_ext/1360937237/bme690_driver.o
 .text.BME690_DRIVER_Store_PAR_T1_CAL_MSB_Data
                0x00000000        0x2 build/default/production/_ext/1360937237/bme690_driver.o
 .text.BME690_DRIVER_Get_PAR_T2_CAL_LSB_Data
                0x00000000        0x2 build/default/production/_ext/1360937237/bme690_driver.o
 .text.BME690_DRIVER_Store_PAR_T2_CAL_LSB_Data
                0x00000000        0x2 build/default/production/_ext/1360937237/bme690_driver.o
 .text.BME690_DRIVER_Get_PAR_T2_CAL_MSB_Data
                0x00000000        0x2 build/default/production/_ext/1360937237/bme690_driver.o
 .text.BME690_DRIVER_Store_PAR_T2_CAL_MSB_Data
                0x00000000        0x2 build/default/production/_ext/1360937237/bme690_driver.o
 .text.BME690_DRIVER_Get_PAR_T3_CAL_LSB_Data
                0x00000000        0x2 build/default/production/_ext/1360937237/bme690_driver.o
 .text.BME690_DRIVER_Store_PAR_T3_CAL_LSB_Data
                0x00000000        0x2 build/default/production/_ext/1360937237/bme690_driver.o
 .text.BME690_DRIVER_Get_PAR_H1_CAL_LSB_Data
                0x00000000        0x2 build/default/production/_ext/1360937237/bme690_driver.o
 .text.BME690_DRIVER_Store_PAR_H1_CAL_LSB_Data
                0x00000000        0x2 build/default/production/_ext/1360937237/bme690_driver.o
 .text.BME690_DRIVER_Get_PAR_H1_CAL_MSB_Data
                0x00000000        0x2 build/default/production/_ext/1360937237/bme690_driver.o
 .text.BME690_DRIVER_Store_PAR_H1_CAL_MSB_Data
                0x00000000        0x2 build/default/production/_ext/1360937237/bme690_driver.o
 .text.BME690_DRIVER_Get_PAR_H2_CAL_LSB_Data
                0x00000000        0x2 build/default/production/_ext/1360937237/bme690_driver.o
 .text.BME690_DRIVER_Store_PAR_H2_CAL_LSB_Data
                0x00000000        0x2 build/default/production/_ext/1360937237/bme690_driver.o
 .text.BME690_DRIVER_Get_PAR_H3_CAL_LSB_Data
                0x00000000        0x2 build/default/production/_ext/1360937237/bme690_driver.o
 .text.BME690_DRIVER_Store_PAR_H3_CAL_LSB_Data
                0x00000000        0x2 build/default/production/_ext/1360937237/bme690_driver.o
 .text.BME690_DRIVER_Get_PAR_H4_CAL_LSB_Data
                0x00000000        0x2 build/default/production/_ext/1360937237/bme690_driver.o
 .text.BME690_DRIVER_Store_PAR_H4_CAL_LSB_Data
                0x00000000        0x2 build/default/production/_ext/1360937237/bme690_driver.o
 .text.BME690_DRIVER_Get_PAR_H5_CAL_LSB_Data
                0x00000000        0x2 build/default/production/_ext/1360937237/bme690_driver.o
 .text.BME690_DRIVER_Store_PAR_H5_CAL_LSB_Data
                0x00000000        0x2 build/default/production/_ext/1360937237/bme690_driver.o
 .text.BME690_DRIVER_Get_PAR_H5_CAL_MSB_Data
                0x00000000        0x2 build/default/production/_ext/1360937237/bme690_driver.o
 .text.BME690_DRIVER_Store_PAR_H5_CAL_MSB_Data
                0x00000000        0x2 build/default/production/_ext/1360937237/bme690_driver.o
 .text.BME690_DRIVER_Get_PAR_H6_CAL_LSB_Data
                0x00000000        0x2 build/default/production/_ext/1360937237/bme690_driver.o
 .text.BME690_DRIVER_Store_PAR_H6_CAL_LSB_Data
                0x00000000        0x2 build/default/production/_ext/1360937237/bme690_driver.o
 .text.BME690_DRIVER_Get_PAR_P1_CAL_LSB_Data
                0x00000000        0x2 build/default/production/_ext/1360937237/bme690_driver.o
 .text.BME690_DRIVER_Store_PAR_P1_CAL_LSB_Data
                0x00000000        0x2 build/default/production/_ext/1360937237/bme690_driver.o
 .text.BME690_DRIVER_Get_PAR_P1_CAL_MSB_Data
                0x00000000        0x2 build/default/production/_ext/1360937237/bme690_driver.o
 .text.BME690_DRIVER_Store_PAR_P1_CAL_MSB_Data
                0x00000000        0x2 build/default/production/_ext/1360937237/bme690_driver.o
 .text.BME690_DRIVER_Get_PAR_P2_CAL_LSB_Data
                0x00000000        0x2 build/default/production/_ext/1360937237/bme690_driver.o
 .text.BME690_DRIVER_Store_PAR_P2_CAL_LSB_Data
                0x00000000        0x2 build/default/production/_ext/1360937237/bme690_driver.o
 .text.BME690_DRIVER_Get_PAR_P2_CAL_MSB_Data
                0x00000000        0x2 build/default/production/_ext/1360937237/bme690_driver.o
 .text.BME690_DRIVER_Store_PAR_P2_CAL_MSB_Data
                0x00000000        0x2 build/default/production/_ext/1360937237/bme690_driver.o
 .text.BME690_DRIVER_Get_PAR_P3_CAL_LSB_Data
                0x00000000        0x2 build/default/production/_ext/1360937237/bme690_driver.o
 .text.BME690_DRIVER_Store_PAR_P3_CAL_LSB_Data
                0x00000000        0x2 build/default/production/_ext/1360937237/bme690_driver.o
 .text.BME690_DRIVER_Get_PAR_P4_CAL_LSB_Data
                0x00000000        0x2 build/default/production/_ext/1360937237/bme690_driver.o
 .text.BME690_DRIVER_Store_PAR_P4_CAL_LSB_Data
                0x00000000        0x2 build/default/production/_ext/1360937237/bme690_driver.o
 .text.BME690_DRIVER_Get_PAR_P5_CAL_LSB_Data
                0x00000000        0x2 build/default/production/_ext/1360937237/bme690_driver.o
 .text.BME690_DRIVER_Store_PAR_P5_CAL_LSB_Data
                0x00000000        0x2 build/default/production/_ext/1360937237/bme690_driver.o
 .text.BME690_DRIVER_Get_PAR_P5_CAL_MSB_Data
                0x00000000        0x2 build/default/production/_ext/1360937237/bme690_driver.o
 .text.BME690_DRIVER_Store_PAR_P5_CAL_MSB_Data
                0x00000000        0x2 build/default/production/_ext/1360937237/bme690_driver.o
 .text.BME690_DRIVER_Get_PAR_P6_CAL_LSB_Data
                0x00000000        0x2 build/default/production/_ext/1360937237/bme690_driver.o
 .text.BME690_DRIVER_Store_PAR_P6_CAL_LSB_Data
                0x00000000        0x2 build/default/production/_ext/1360937237/bme690_driver.o
 .text.BME690_DRIVER_Get_PAR_P6_CAL_MSB_Data
                0x00000000        0x2 build/default/production/_ext/1360937237/bme690_driver.o
 .text.BME690_DRIVER_Store_PAR_P6_CAL_MSB_Data
                0x00000000        0x2 build/default/production/_ext/1360937237/bme690_driver.o
 .text.BME690_DRIVER_Get_PAR_P7_CAL_LSB_Data
                0x00000000        0x2 build/default/production/_ext/1360937237/bme690_driver.o
 .text.BME690_DRIVER_Store_PAR_P7_CAL_LSB_Data
                0x00000000        0x2 build/default/production/_ext/1360937237/bme690_driver.o
 .text.BME690_DRIVER_Get_PAR_P8_CAL_LSB_Data
                0x00000000        0x2 build/default/production/_ext/1360937237/bme690_driver.o
 .text.BME690_DRIVER_Store_PAR_P8_CAL_LSB_Data
                0x00000000        0x2 build/default/production/_ext/1360937237/bme690_driver.o
 .text.BME690_DRIVER_Get_PAR_P9_CAL_LSB_Data
                0x00000000        0x2 build/default/production/_ext/1360937237/bme690_driver.o
 .text.BME690_DRIVER_Store_PAR_P9_CAL_LSB_Data
                0x00000000        0x2 build/default/production/_ext/1360937237/bme690_driver.o
 .text.BME690_DRIVER_Get_PAR_P9_CAL_MSB_Data
                0x00000000        0x2 build/default/production/_ext/1360937237/bme690_driver.o
 .text.BME690_DRIVER_Store_PAR_P9_CAL_MSB_Data
                0x00000000        0x2 build/default/production/_ext/1360937237/bme690_driver.o
 .text.BME690_DRIVER_Get_PAR_P10_CAL_LSB_Data
                0x00000000        0x2 build/default/production/_ext/1360937237/bme690_driver.o
 .text.BME690_DRIVER_Store_PAR_P10_CAL_LSB_Data
                0x00000000        0x2 build/default/production/_ext/1360937237/bme690_driver.o
 .text.BME690_DRIVER_Get_PAR_P11_CAL_LSB_Data
                0x00000000        0x2 build/default/production/_ext/1360937237/bme690_driver.o
 .text.BME690_DRIVER_Store_PAR_P11_CAL_LSB_Data
                0x00000000        0x2 build/default/production/_ext/1360937237/bme690_driver.o
 .text.BME690_DRIVER_Get_PAR_G1_CAL_LSB_Data
                0x00000000        0x2 build/default/production/_ext/1360937237/bme690_driver.o
 .text.BME690_DRIVER_Store_PAR_G1_CAL_LSB_Data
                0x00000000        0x2 build/default/production/_ext/1360937237/bme690_driver.o
 .text.BME690_DRIVER_Get_PAR_G2_CAL_LSB_Data
                0x00000000        0x2 build/default/production/_ext/1360937237/bme690_driver.o
 .text.BME690_DRIVER_Store_PAR_G2_CAL_LSB_Data
                0x00000000        0x2 build/default/production/_ext/1360937237/bme690_driver.o
 .text.BME690_DRIVER_Get_PAR_G2_CAL_MSB_Data
                0x00000000        0x2 build/default/production/_ext/1360937237/bme690_driver.o
 .text.BME690_DRIVER_Store_PAR_G2_CAL_MSB_Data
                0x00000000        0x2 build/default/production/_ext/1360937237/bme690_driver.o
 .text.BME690_DRIVER_Get_PAR_G3_CAL_LSB_Data
                0x00000000        0x2 build/default/production/_ext/1360937237/bme690_driver.o
 .text.BME690_DRIVER_Store_PAR_G3_CAL_LSB_Data
                0x00000000        0x2 build/default/production/_ext/1360937237/bme690_driver.o
 .text.BME690_DRIVER_Set_Calibration_Registers
                0x00000000        0x2 build/default/production/_ext/1360937237/bme690_driver.o
 .text.BME690_DRIVER_Set_Measure_Registers
                0x00000000       0x9c build/default/production/_ext/1360937237/bme690_driver.o
 .rodata.BME690_DRIVER_Print_Data.str1.4
                0x00000000       0x2d build/default/production/_ext/1360937237/bme690_driver.o
 .text.BME690_DRIVER_Print_Data
                0x00000000       0x40 build/default/production/_ext/1360937237/bme690_driver.o
 .bss.bme690_calData
                0x00000000       0x2a build/default/production/_ext/1360937237/bme690_driver.o
 .bss.bme690_sensorData
                0x00000000       0x48 build/default/production/_ext/1360937237/bme690_driver.o
 .bss.bme690_regData
                0x00000000       0x24 build/default/production/_ext/1360937237/bme690_driver.o
 .text          0x00000000        0x0 build/default/production/_ext/1360937237/fcm360w_driver.o
 .data          0x00000000        0x0 build/default/production/_ext/1360937237/fcm360w_driver.o
 .bss           0x00000000        0x0 build/default/production/_ext/1360937237/fcm360w_driver.o
 .text.FCM360W_DRIVER_Get_Task_Start_Status
                0x00000000        0xc build/default/production/_ext/1360937237/fcm360w_driver.o
 .text.FCM360W_DRIVER_Set_Task_Start_Status
                0x00000000        0xc build/default/production/_ext/1360937237/fcm360w_driver.o
 .text.FCM360W_DRIVER_Get_Task_Completed_Status
                0x00000000        0xc build/default/production/_ext/1360937237/fcm360w_driver.o
 .text.FCM360W_DRIVER_Set_Task_Completed_Status
                0x00000000        0xc build/default/production/_ext/1360937237/fcm360w_driver.o
 .text.FCM360W_DRIVER_Set_Module_Response_Status
                0x00000000        0xc build/default/production/_ext/1360937237/fcm360w_driver.o
 .text          0x00000000        0x0 build/default/production/_ext/1360937237/console_driver.o
 .data          0x00000000        0x0 build/default/production/_ext/1360937237/console_driver.o
 .bss           0x00000000        0x0 build/default/production/_ext/1360937237/console_driver.o
 .text.CONSOLE_DRIVER_Get_Task_Start_Status
                0x00000000        0xc build/default/production/_ext/1360937237/console_driver.o
 .text          0x00000000        0x0 build/default/production/_ext/1360937237/hdc302x_driver.o
 .data          0x00000000        0x0 build/default/production/_ext/1360937237/hdc302x_driver.o
 .bss           0x00000000        0x0 build/default/production/_ext/1360937237/hdc302x_driver.o
 .text.HDC302X_DRIVER_Get_Task_Start_Status
                0x00000000        0xc build/default/production/_ext/1360937237/hdc302x_driver.o
 .text.HDC302X_DRIVER_Get_Alert_Status
                0x00000000        0xc build/default/production/_ext/1360937237/hdc302x_driver.o
 .text.HDC302X_DRIVER_Set_Alert_Status
                0x00000000        0xc build/default/production/_ext/1360937237/hdc302x_driver.o
 .text.HDC302X_DRIVER_Get_Offset_Values
                0x00000000       0x34 build/default/production/_ext/1360937237/hdc302x_driver.o
 .text.HDC302X_DRIVER_Store_Offset_Values
                0x00000000       0x18 build/default/production/_ext/1360937237/hdc302x_driver.o
 .text.HDC302X_DRIVER_Get_Set_High_Alert
                0x00000000       0x34 build/default/production/_ext/1360937237/hdc302x_driver.o
 .text.HDC302X_DRIVER_Store_Set_High_Alert
                0x00000000       0x18 build/default/production/_ext/1360937237/hdc302x_driver.o
 .text.HDC302X_DRIVER_Get_Clear_High_Alert
                0x00000000       0x34 build/default/production/_ext/1360937237/hdc302x_driver.o
 .text.HDC302X_DRIVER_Store_Clear_High_Alert
                0x00000000       0x18 build/default/production/_ext/1360937237/hdc302x_driver.o
 .text.HDC302X_DRIVER_Get_Set_Low_Alert
                0x00000000       0x34 build/default/production/_ext/1360937237/hdc302x_driver.o
 .text.HDC302X_DRIVER_Store_Set_Low_Alert
                0x00000000       0x18 build/default/production/_ext/1360937237/hdc302x_driver.o
 .text.HDC302X_DRIVER_Get_Clear_Low_Alert
                0x00000000       0x34 build/default/production/_ext/1360937237/hdc302x_driver.o
 .text.HDC302X_DRIVER_Store_Clear_Low_Alert
                0x00000000       0x18 build/default/production/_ext/1360937237/hdc302x_driver.o
 .text.HDC302X_DRIVER_Enter_Auto_Measurement_Mode
                0x00000000       0x30 build/default/production/_ext/1360937237/hdc302x_driver.o
 .text.HDC302X_DRIVER_Exit_Auto_Measurement_Mode
                0x00000000       0x30 build/default/production/_ext/1360937237/hdc302x_driver.o
 .text.HDC302X_DRIVER_Start_Manual_Measurement
                0x00000000       0x30 build/default/production/_ext/1360937237/hdc302x_driver.o
 .text.HDC302X_DRIVER_Get_Manual_Measure_Values
                0x00000000       0x20 build/default/production/_ext/1360937237/hdc302x_driver.o
 .text.HDC302X_DRIVER_Get_Auto_Measure_Values
                0x00000000       0x34 build/default/production/_ext/1360937237/hdc302x_driver.o
 .text.HDC302X_DRIVER_Store_Measurement_Values
                0x00000000       0x24 build/default/production/_ext/1360937237/hdc302x_driver.o
 .text.HDC302X_DRIVER_Get_Minimum_Temperature_Value
                0x00000000       0x34 build/default/production/_ext/1360937237/hdc302x_driver.o
 .text.HDC302X_DRIVER_Store_Minimum_Temperature_Value
                0x00000000       0x18 build/default/production/_ext/1360937237/hdc302x_driver.o
 .text.HDC302X_DRIVER_Get_Maximum_Temperature_Value
                0x00000000       0x30 build/default/production/_ext/1360937237/hdc302x_driver.o
 .text.HDC302X_DRIVER_Store_Maximum_Temperature_Value
                0x00000000       0x18 build/default/production/_ext/1360937237/hdc302x_driver.o
 .text.HDC302X_DRIVER_Get_Minimum_Humidity_Value
                0x00000000       0x34 build/default/production/_ext/1360937237/hdc302x_driver.o
 .text.HDC302X_DRIVER_Store_Minimum_Humidity_Value
                0x00000000       0x18 build/default/production/_ext/1360937237/hdc302x_driver.o
 .text.HDC302X_DRIVER_Get_Maximum_Humidity_Value
                0x00000000       0x34 build/default/production/_ext/1360937237/hdc302x_driver.o
 .text.HDC302X_DRIVER_Store_Maximum_Humidity_Value
                0x00000000       0x18 build/default/production/_ext/1360937237/hdc302x_driver.o
 .text.HDC302X_DRIVER_Calculation_Temperature
                0x00000000       0x48 build/default/production/_ext/1360937237/hdc302x_driver.o
 .text.HDC302X_DRIVER_Calculation_Humidity
                0x00000000       0x24 build/default/production/_ext/1360937237/hdc302x_driver.o
 .text.HDC302X_DRIVER_Get_Sensor_Status
                0x00000000       0x34 build/default/production/_ext/1360937237/hdc302x_driver.o
 .text.HDC302X_DRIVER_Store_Sensor_Status
                0x00000000       0x18 build/default/production/_ext/1360937237/hdc302x_driver.o
 .text.HDC302X_DRIVER_Get_NIST_3
                0x00000000       0x34 build/default/production/_ext/1360937237/hdc302x_driver.o
 .text.HDC302X_DRIVER_Store_NIST_3
                0x00000000       0x18 build/default/production/_ext/1360937237/hdc302x_driver.o
 .text.HDC302X_DRIVER_Get_NIST_2
                0x00000000       0x34 build/default/production/_ext/1360937237/hdc302x_driver.o
 .text.HDC302X_DRIVER_Store_NIST_2
                0x00000000       0x18 build/default/production/_ext/1360937237/hdc302x_driver.o
 .text.HDC302X_DRIVER_Get_NIST_1
                0x00000000       0x34 build/default/production/_ext/1360937237/hdc302x_driver.o
 .text.HDC302X_DRIVER_Store_NIST_1
                0x00000000       0x18 build/default/production/_ext/1360937237/hdc302x_driver.o
 .text.HDC302X_DRIVER_Soft_Reset
                0x00000000       0x28 build/default/production/_ext/1360937237/hdc302x_driver.o
 .text.HDC302X_DRIVER_Enable_Heater
                0x00000000       0x28 build/default/production/_ext/1360937237/hdc302x_driver.o
 .text.HDC302X_DRIVER_Disable_Heater
                0x00000000       0x28 build/default/production/_ext/1360937237/hdc302x_driver.o
 .text.HDC302X_DRIVER_Calculation_CRC
                0x00000000       0x40 build/default/production/_ext/1360937237/hdc302x_driver.o
 .text.HDC302X_DRIVER_Calculation_Array_CRC
                0x00000000       0x16 build/default/production/_ext/1360937237/hdc302x_driver.o
 .text.HDC302X_DRIVER_Set_Offset_Values
                0x00000000       0x40 build/default/production/_ext/1360937237/hdc302x_driver.o
 .text.HDC302X_DRIVER_Set_Set_High_Alert
                0x00000000       0x40 build/default/production/_ext/1360937237/hdc302x_driver.o
 .text.HDC302X_DRIVER_Set_Clear_High_Alert
                0x00000000       0x40 build/default/production/_ext/1360937237/hdc302x_driver.o
 .text.HDC302X_DRIVER_Set_Set_Low_Alert
                0x00000000       0x40 build/default/production/_ext/1360937237/hdc302x_driver.o
 .text.HDC302X_DRIVER_Set_Clear_Low_Alert
                0x00000000       0x40 build/default/production/_ext/1360937237/hdc302x_driver.o
 .text.HDC302X_DRIVER_Configuration_Heater
                0x00000000       0x38 build/default/production/_ext/1360937237/hdc302x_driver.o
 .text.HDC302X_DRIVER_Set_Offset_Code
                0x00000000       0x30 build/default/production/_ext/1360937237/hdc302x_driver.o
 .text.HDC302X_DRIVER_Set_Alert_Code
                0x00000000       0x28 build/default/production/_ext/1360937237/hdc302x_driver.o
 .bss.hdc302x_sensorSettings
                0x00000000        0xc build/default/production/_ext/1360937237/hdc302x_driver.o
 .text          0x00000000        0x0 build/default/production/_ext/1360937237/fan_driver.o
 .data          0x00000000        0x0 build/default/production/_ext/1360937237/fan_driver.o
 .bss           0x00000000        0x0 build/default/production/_ext/1360937237/fan_driver.o
 .text          0x00000000        0x0 build/default/production/_ext/1360937237/ntc_driver.o
 .data          0x00000000        0x0 build/default/production/_ext/1360937237/ntc_driver.o
 .bss           0x00000000        0x0 build/default/production/_ext/1360937237/ntc_driver.o
 .text.NTC_DRIVER_Get_Task_Start_Status
                0x00000000        0xc build/default/production/_ext/1360937237/ntc_driver.o
 .text.NTC_DRIVER_Set_Task_Start_Status
                0x00000000        0xc build/default/production/_ext/1360937237/ntc_driver.o
 .text.NTC_DRIVER_Get_Task_Completed_Status
                0x00000000        0xc build/default/production/_ext/1360937237/ntc_driver.o
 .text.NTC_DRIVER_Set_Task_Completed_Status
                0x00000000        0xc build/default/production/_ext/1360937237/ntc_driver.o
 .rodata.NTC_DRIVER_Print_Data.str1.4
                0x00000000       0x1c build/default/production/_ext/1360937237/ntc_driver.o
 .text.NTC_DRIVER_Print_Data
                0x00000000       0x24 build/default/production/_ext/1360937237/ntc_driver.o
 .text          0x00000000        0x0 build/default/production/_ext/1360937237/timer_driver.o
 .data          0x00000000        0x0 build/default/production/_ext/1360937237/timer_driver.o
 .bss           0x00000000        0x0 build/default/production/_ext/1360937237/timer_driver.o
 .text.TIMER_DRIVER_Get_Start_Up_TMR_Status
                0x00000000        0xc build/default/production/_ext/1360937237/timer_driver.o
 .text.TIMER_DRIVER_Set_Start_Up_TMR_Status
                0x00000000        0xc build/default/production/_ext/1360937237/timer_driver.o
 .text.TIMER_DRIVER_Start_Start_Up_TMR
                0x00000000       0x10 build/default/production/_ext/1360937237/timer_driver.o
 .text          0x00000000        0x0 build/default/production/_ext/1360937237/xm125_driver.o
 .data          0x00000000        0x0 build/default/production/_ext/1360937237/xm125_driver.o
 .bss           0x00000000        0x0 build/default/production/_ext/1360937237/xm125_driver.o
 .text.XM125_DRIVER_Get_Task_Start_Status
                0x00000000        0xc build/default/production/_ext/1360937237/xm125_driver.o
 .text.XM125_DRIVER_Set_Task_Start_Status
                0x00000000        0xc build/default/production/_ext/1360937237/xm125_driver.o
 .text.XM125_DRIVER_Get_Task_Completed_Status
                0x00000000        0xc build/default/production/_ext/1360937237/xm125_driver.o
 .text.XM125_DRIVER_Set_Task_Completed_Status
                0x00000000        0xc build/default/production/_ext/1360937237/xm125_driver.o
 .text.XM125_DRIVER_Get_Alert_Status
                0x00000000        0xc build/default/production/_ext/1360937237/xm125_driver.o
 .text.XM125_DRIVER_Set_Alert_Status
                0x00000000        0xc build/default/production/_ext/1360937237/xm125_driver.o
 .text.XM125_DRIVER_Set_I2C_Address
                0x00000000        0xc build/default/production/_ext/1360937237/xm125_driver.o
 .text          0x00000000        0x0 build/default/production/_ext/1360937237/ws281x_driver.o
 .data          0x00000000        0x0 build/default/production/_ext/1360937237/ws281x_driver.o
 .bss           0x00000000        0x0 build/default/production/_ext/1360937237/ws281x_driver.o
 .text.WS281X_DRIVER_Get_Task_Start_Status
                0x00000000        0xc build/default/production/_ext/1360937237/ws281x_driver.o
 .text.WS281X_DRIVER_Set_Task_Start_Status
                0x00000000        0xc build/default/production/_ext/1360937237/ws281x_driver.o
 .text.WS281X_DRIVER_Get_Task_Completed_Status
                0x00000000        0xc build/default/production/_ext/1360937237/ws281x_driver.o
 .text.WS281X_DRIVER_Set_Task_Completed_Status
                0x00000000        0xc build/default/production/_ext/1360937237/ws281x_driver.o
 .text.WS281X_DRIVER_Set_Color
                0x00000000       0x10 build/default/production/_ext/1360937237/ws281x_driver.o
 .rodata.WS281X_DRIVER_Print_Data.str1.4
                0x00000000       0x3d build/default/production/_ext/1360937237/ws281x_driver.o
 .text.WS281X_DRIVER_Print_Data
                0x00000000       0x20 build/default/production/_ext/1360937237/ws281x_driver.o
 .text          0x00000000        0x0 build/default/production/_ext/1360937237/vcnl4200_driver.o
 .data          0x00000000        0x0 build/default/production/_ext/1360937237/vcnl4200_driver.o
 .bss           0x00000000        0x0 build/default/production/_ext/1360937237/vcnl4200_driver.o
 .text.VCNL4200_DRIVER_Get_Task_Start_Status
                0x00000000        0xc build/default/production/_ext/1360937237/vcnl4200_driver.o
 .text.VCNL4200_DRIVER_Set_Task_Start_Status
                0x00000000        0xc build/default/production/_ext/1360937237/vcnl4200_driver.o
 .text.VCNL4200_DRIVER_Get_Task_Completed_Status
                0x00000000        0xc build/default/production/_ext/1360937237/vcnl4200_driver.o
 .text.VCNL4200_DRIVER_Set_Task_Completed_Status
                0x00000000        0xc build/default/production/_ext/1360937237/vcnl4200_driver.o
 .text.VCNL4200_DRIVER_Get_Alert_Status
                0x00000000        0xc build/default/production/_ext/1360937237/vcnl4200_driver.o
 .text.VCNL4200_DRIVER_Set_Alert_Status
                0x00000000        0xc build/default/production/_ext/1360937237/vcnl4200_driver.o
 .text.VCNL4200_DRIVER_Set_I2C_Address
                0x00000000        0xc build/default/production/_ext/1360937237/vcnl4200_driver.o
 .text.VCNL4200_DRIVER_Get_ALS_CFG
                0x00000000       0x30 build/default/production/_ext/1360937237/vcnl4200_driver.o
 .text.VCNL4200_DRIVER_Store_ALS_CFG
                0x00000000       0x14 build/default/production/_ext/1360937237/vcnl4200_driver.o
 .text.VCNL4200_DRIVER_Set_ALS_CFG
                0x00000000       0x2c build/default/production/_ext/1360937237/vcnl4200_driver.o
 .text.VCNL4200_DRIVER_Get_ALS_High_Alert
                0x00000000       0x30 build/default/production/_ext/1360937237/vcnl4200_driver.o
 .text.VCNL4200_DRIVER_Store_ALS_High_Alert
                0x00000000       0x18 build/default/production/_ext/1360937237/vcnl4200_driver.o
 .text.VCNL4200_DRIVER_Set_ALS_High_Alert
                0x00000000       0x2c build/default/production/_ext/1360937237/vcnl4200_driver.o
 .text.VCNL4200_DRIVER_Get_ALS_Low_Alert
                0x00000000       0x2c build/default/production/_ext/1360937237/vcnl4200_driver.o
 .text.VCNL4200_DRIVER_Store_ALS_Low_Alert
                0x00000000       0x18 build/default/production/_ext/1360937237/vcnl4200_driver.o
 .text.VCNL4200_DRIVER_Set_ALS_Low_Alert
                0x00000000       0x2c build/default/production/_ext/1360937237/vcnl4200_driver.o
 .text.VCNL4200_DRIVER_Get_PS_Cancellation
                0x00000000       0x30 build/default/production/_ext/1360937237/vcnl4200_driver.o
 .text.VCNL4200_DRIVER_Store_PS_Cancellation
                0x00000000       0x18 build/default/production/_ext/1360937237/vcnl4200_driver.o
 .text.VCNL4200_DRIVER_Set_PS_Cancellation
                0x00000000       0x2c build/default/production/_ext/1360937237/vcnl4200_driver.o
 .text.VCNL4200_DRIVER_Get_PS_High_Alert
                0x00000000       0x30 build/default/production/_ext/1360937237/vcnl4200_driver.o
 .text.VCNL4200_DRIVER_Store_PS_High_Alert
                0x00000000       0x18 build/default/production/_ext/1360937237/vcnl4200_driver.o
 .text.VCNL4200_DRIVER_Set_PS_High_Alert
                0x00000000       0x2c build/default/production/_ext/1360937237/vcnl4200_driver.o
 .text.VCNL4200_DRIVER_Get_PS_Low_Alert
                0x00000000       0x30 build/default/production/_ext/1360937237/vcnl4200_driver.o
 .text.VCNL4200_DRIVER_Store_PS_Low_Alert
                0x00000000       0x18 build/default/production/_ext/1360937237/vcnl4200_driver.o
 .text.VCNL4200_DRIVER_Set_PS_Low_Alert
                0x00000000       0x2c build/default/production/_ext/1360937237/vcnl4200_driver.o
 .text.VCNL4200_DRIVER_Get_PS_Data
                0x00000000       0x30 build/default/production/_ext/1360937237/vcnl4200_driver.o
 .text.VCNL4200_DRIVER_Store_PS_Data
                0x00000000       0x18 build/default/production/_ext/1360937237/vcnl4200_driver.o
 .text.VCNL4200_DRIVER_Get_ALS_Data
                0x00000000       0x30 build/default/production/_ext/1360937237/vcnl4200_driver.o
 .text.VCNL4200_DRIVER_Store_ALS_Data
                0x00000000       0x18 build/default/production/_ext/1360937237/vcnl4200_driver.o
 .text.VCNL4200_DRIVER_Get_White_Data
                0x00000000       0x30 build/default/production/_ext/1360937237/vcnl4200_driver.o
 .text.VCNL4200_DRIVER_Store_White_Data
                0x00000000       0x18 build/default/production/_ext/1360937237/vcnl4200_driver.o
 .text.VCNL4200_DRIVER_Get_INT_Flag
                0x00000000       0x30 build/default/production/_ext/1360937237/vcnl4200_driver.o
 .text.VCNL4200_DRIVER_Store_INT_Flag
                0x00000000       0x14 build/default/production/_ext/1360937237/vcnl4200_driver.o
 .bss.vcnl4200_sensorData
                0x00000000       0x20 build/default/production/_ext/1360937237/vcnl4200_driver.o
 .text          0x00000000        0x0 build/default/production/_ext/1360937237/sen63c_driver.o
 .data          0x00000000        0x0 build/default/production/_ext/1360937237/sen63c_driver.o
 .bss           0x00000000        0x0 build/default/production/_ext/1360937237/sen63c_driver.o
 .text.SEN63C_DRIVER_Get_Task_Start_Status
                0x00000000        0xc build/default/production/_ext/1360937237/sen63c_driver.o
 .text.SEN63C_DRIVER_Set_Task_Start_Status
                0x00000000        0xc build/default/production/_ext/1360937237/sen63c_driver.o
 .text.SEN63C_DRIVER_Get_Task_Completed_Status
                0x00000000        0xc build/default/production/_ext/1360937237/sen63c_driver.o
 .text.SEN63C_DRIVER_Set_Task_Completed_Status
                0x00000000        0xc build/default/production/_ext/1360937237/sen63c_driver.o
 .text.SEN63C_DRIVER_Set_I2C_Address
                0x00000000        0xc build/default/production/_ext/1360937237/sen63c_driver.o
 .text.SEN63C_DRIVER_Start_Measurement
                0x00000000       0x2c build/default/production/_ext/1360937237/sen63c_driver.o
 .text.SEN63C_DRIVER_Stop_Measurement
                0x00000000       0x2c build/default/production/_ext/1360937237/sen63c_driver.o
 .text.SEN63C_DRIVER_Get_Data_Ready_Status
                0x00000000       0x34 build/default/production/_ext/1360937237/sen63c_driver.o
 .text.SEN63C_DRIVER_Store_Data_Ready_Status
                0x00000000        0x2 build/default/production/_ext/1360937237/sen63c_driver.o
 .text.SEN63C_DRIVER_Read_Measured_Values
                0x00000000       0x38 build/default/production/_ext/1360937237/sen63c_driver.o
 .text.SEN63C_DRIVER_Store_Measured_Values
                0x00000000        0x2 build/default/production/_ext/1360937237/sen63c_driver.o
 .text.SEN63C_DRIVER_Read_Measured_Raw_Values
                0x00000000       0x38 build/default/production/_ext/1360937237/sen63c_driver.o
 .text.SEN63C_DRIVER_Store_Measured_Raw_Values
                0x00000000        0x2 build/default/production/_ext/1360937237/sen63c_driver.o
 .text.SEN63C_DRIVER_Read_Number_Concentration_Values
                0x00000000       0x38 build/default/production/_ext/1360937237/sen63c_driver.o
 .text.SEN63C_DRIVER_Store_Number_Concentration_Values
                0x00000000        0x2 build/default/production/_ext/1360937237/sen63c_driver.o
 .text.SEN63C_DRIVER_Get_Product_Name
                0x00000000       0x34 build/default/production/_ext/1360937237/sen63c_driver.o
 .text.SEN63C_DRIVER_Store_Product_Name
                0x00000000        0x2 build/default/production/_ext/1360937237/sen63c_driver.o
 .text.SEN63C_DRIVER_Get_Serial_Number
                0x00000000       0x34 build/default/production/_ext/1360937237/sen63c_driver.o
 .text.SEN63C_DRIVER_Store_Serial_Number
                0x00000000        0x2 build/default/production/_ext/1360937237/sen63c_driver.o
 .text.SEN63C_DRIVER_Read_Device_Status
                0x00000000       0x34 build/default/production/_ext/1360937237/sen63c_driver.o
 .text.SEN63C_DRIVER_Read_And_Clear_Device_Status
                0x00000000       0x38 build/default/production/_ext/1360937237/sen63c_driver.o
 .text.SEN63C_DRIVER_Store_Device_Status
                0x00000000       0x1c build/default/production/_ext/1360937237/sen63c_driver.o
 .text.SEN63C_DRIVER_Get_FW_Version
                0x00000000       0x38 build/default/production/_ext/1360937237/sen63c_driver.o
 .text.SEN63C_DRIVER_Store_FW_Version
                0x00000000       0x1c build/default/production/_ext/1360937237/sen63c_driver.o
 .text.SEN63C_DRIVER_Reset_Device
                0x00000000       0x2c build/default/production/_ext/1360937237/sen63c_driver.o
 .text.SEN63C_DRIVER_Start_Fan_Cleaning
                0x00000000       0x2c build/default/production/_ext/1360937237/sen63c_driver.o
 .text.SEN63C_DRIVER_Activate_Heater
                0x00000000       0x2c build/default/production/_ext/1360937237/sen63c_driver.o
 .text.SEN63C_DRIVER_Get_Heater_Measurement
                0x00000000       0x34 build/default/production/_ext/1360937237/sen63c_driver.o
 .text.SEN63C_DRIVER_Store_Heater_Measurement
                0x00000000       0x28 build/default/production/_ext/1360937237/sen63c_driver.o
 .text.SEN63C_DRIVER_Get_CO2_Sensor_Automatic_Self_Calibration
                0x00000000       0x34 build/default/production/_ext/1360937237/sen63c_driver.o
 .text.SEN63C_DRIVER_Store_CO2_Sensor_Automatic_Self_Calibration
                0x00000000        0x2 build/default/production/_ext/1360937237/sen63c_driver.o
 .text.SEN63C_DRIVER_Get_Ambient_Pressure
                0x00000000       0x38 build/default/production/_ext/1360937237/sen63c_driver.o
 .text.SEN63C_DRIVER_Store_Ambient_Pressure
                0x00000000        0x2 build/default/production/_ext/1360937237/sen63c_driver.o
 .text.SEN63C_DRIVER_Get_Sensor_Altitude
                0x00000000       0x38 build/default/production/_ext/1360937237/sen63c_driver.o
 .text.SEN63C_DRIVER_Store_Sensor_Altitude
                0x00000000        0x2 build/default/production/_ext/1360937237/sen63c_driver.o
 .text.SEN63C_DRIVER_Calculation_CRC
                0x00000000       0x40 build/default/production/_ext/1360937237/sen63c_driver.o
 .text.SEN63C_DRIVER_Calculation_Array_CRC
                0x00000000       0x16 build/default/production/_ext/1360937237/sen63c_driver.o
 .bss.sen63c_sensorData
                0x00000000       0x70 build/default/production/_ext/1360937237/sen63c_driver.o
 .text          0x00000000        0x0 build/default/production/_ext/1360937237/ssd1306_driver.o
 .data          0x00000000        0x0 build/default/production/_ext/1360937237/ssd1306_driver.o
 .bss           0x00000000        0x0 build/default/production/_ext/1360937237/ssd1306_driver.o
 .text.SSD1306_DRIVER_Get_Task_Start_Status
                0x00000000        0xc build/default/production/_ext/1360937237/ssd1306_driver.o
 .text.SSD1306_DRIVER_Set_Task_Start_Status
                0x00000000        0xc build/default/production/_ext/1360937237/ssd1306_driver.o
 .text.SSD1306_DRIVER_Get_Task_Completed_Status
                0x00000000        0xc build/default/production/_ext/1360937237/ssd1306_driver.o
 .text.SSD1306_DRIVER_Set_Task_Completed_Status
                0x00000000        0xc build/default/production/_ext/1360937237/ssd1306_driver.o
 .text.SSD1306_DRIVER_Select_Page
                0x00000000       0x1e build/default/production/_ext/1360937237/ssd1306_driver.o
 .text.SSD1306_DRIVER_Clear_Display
                0x00000000       0x14 build/default/production/_ext/1360937237/ssd1306_driver.o
 .text.SSD1306_DRIVER_Clear_Line
                0x00000000       0x1c build/default/production/_ext/1360937237/ssd1306_driver.o
 .text.SSD1306_DrawBitmap
                0x00000000       0x3e build/default/production/_ext/1360937237/ssd1306_driver.o
 .text          0x00000000        0x0 build/default/production/_ext/1360937237/app.o
 .data          0x00000000        0x0 build/default/production/_ext/1360937237/app.o
 .bss           0x00000000        0x0 build/default/production/_ext/1360937237/app.o
 .text.APP_Get_CAN0_Error_Status
                0x00000000        0xc build/default/production/_ext/1360937237/app.o
 .text.APP_Set_CAN0_Error_Status
                0x00000000        0xc build/default/production/_ext/1360937237/app.o
 .text.APP_Get_I2C_Error_Status
                0x00000000        0xc build/default/production/_ext/1360937237/app.o
 .text.APP_Set_I2C_Error_Status
                0x00000000        0xc build/default/production/_ext/1360937237/app.o
 .text.APP_Get_SPI_Error_Status
                0x00000000        0xc build/default/production/_ext/1360937237/app.o
 .text.APP_Set_SPI_Error_Status
                0x00000000        0xc build/default/production/_ext/1360937237/app.o
 .text.APP_Get_UART_Error_Status
                0x00000000        0xc build/default/production/_ext/1360937237/app.o
 .text.APP_Set_UART_Error_Status
                0x00000000        0xc build/default/production/_ext/1360937237/app.o
 .text          0x00000000        0x0 build/default/production/_ext/1360937237/main.o
 .data          0x00000000        0x0 build/default/production/_ext/1360937237/main.o
 .bss           0x00000000        0x0 build/default/production/_ext/1360937237/main.o
 .text          0x00000000        0x0 build/default/production/_ext/1360937237/stcc4_driver.o
 .data          0x00000000        0x0 build/default/production/_ext/1360937237/stcc4_driver.o
 .bss           0x00000000        0x0 build/default/production/_ext/1360937237/stcc4_driver.o
 .text          0x00000000        0x0 build/default/production/_ext/1360937237/bmp585_driver.o
 .data          0x00000000        0x0 build/default/production/_ext/1360937237/bmp585_driver.o
 .bss           0x00000000        0x0 build/default/production/_ext/1360937237/bmp585_driver.o
 .text.BMP585_DRIVER_Get_Task_Start_Status
                0x00000000        0xc build/default/production/_ext/1360937237/bmp585_driver.o
 .text.BMP585_DRIVER_Set_Task_Start_Status
                0x00000000        0xc build/default/production/_ext/1360937237/bmp585_driver.o
 .text.BMP585_DRIVER_Get_Task_Completed_Status
                0x00000000        0xc build/default/production/_ext/1360937237/bmp585_driver.o
 .text.BMP585_DRIVER_Set_Task_Completed_Status
                0x00000000        0xc build/default/production/_ext/1360937237/bmp585_driver.o
 .text.BMP585_DRIVER_Get_Alert_Status
                0x00000000        0xc build/default/production/_ext/1360937237/bmp585_driver.o
 .text.BMP585_DRIVER_Set_Alert_Status
                0x00000000        0xc build/default/production/_ext/1360937237/bmp585_driver.o
 .text.BMP585_DRIVER_Get_Chip_Status
                0x00000000       0x30 build/default/production/_ext/1360937237/bmp585_driver.o
 .text.BMP585_DRIVER_Store_Chip_Status
                0x00000000       0x14 build/default/production/_ext/1360937237/bmp585_driver.o
 .text.BMP585_DRIVER_Get_Drive_Config
                0x00000000       0x30 build/default/production/_ext/1360937237/bmp585_driver.o
 .text.BMP585_DRIVER_Store_Drive_Config
                0x00000000       0x14 build/default/production/_ext/1360937237/bmp585_driver.o
 .text.BMP585_DRIVER_Set_Drive_Config
                0x00000000       0x28 build/default/production/_ext/1360937237/bmp585_driver.o
 .text.BMP585_DRIVER_Get_INT_Config
                0x00000000       0x30 build/default/production/_ext/1360937237/bmp585_driver.o
 .text.BMP585_DRIVER_Store_INT_Config
                0x00000000       0x14 build/default/production/_ext/1360937237/bmp585_driver.o
 .text.BMP585_DRIVER_Set_INT_Config
                0x00000000       0x28 build/default/production/_ext/1360937237/bmp585_driver.o
 .text.BMP585_DRIVER_Get_INT_Source
                0x00000000       0x30 build/default/production/_ext/1360937237/bmp585_driver.o
 .text.BMP585_DRIVER_Store_INT_Source
                0x00000000       0x14 build/default/production/_ext/1360937237/bmp585_driver.o
 .text.BMP585_DRIVER_Get_FIFO_Config
                0x00000000       0x30 build/default/production/_ext/1360937237/bmp585_driver.o
 .text.BMP585_DRIVER_Store_FIFO_Config
                0x00000000       0x14 build/default/production/_ext/1360937237/bmp585_driver.o
 .text.BMP585_DRIVER_Set_FIFO_Config
                0x00000000       0x28 build/default/production/_ext/1360937237/bmp585_driver.o
 .text.BMP585_DRIVER_Get_FIFO_Count
                0x00000000       0x30 build/default/production/_ext/1360937237/bmp585_driver.o
 .text.BMP585_DRIVER_Store_FIFO_Count
                0x00000000       0x14 build/default/production/_ext/1360937237/bmp585_driver.o
 .text.BMP585_DRIVER_Get_FIFO_Select
                0x00000000       0x30 build/default/production/_ext/1360937237/bmp585_driver.o
 .text.BMP585_DRIVER_Store_FIFO_Select
                0x00000000       0x14 build/default/production/_ext/1360937237/bmp585_driver.o
 .text.BMP585_DRIVER_Set_FIFO_Select
                0x00000000       0x28 build/default/production/_ext/1360937237/bmp585_driver.o
 .text.BMP585_DRIVER_Get_Status
                0x00000000       0x30 build/default/production/_ext/1360937237/bmp585_driver.o
 .text.BMP585_DRIVER_Store_Status
                0x00000000       0x14 build/default/production/_ext/1360937237/bmp585_driver.o
 .text.BMP585_DRIVER_Get_FIFO_Data
                0x00000000       0x30 build/default/production/_ext/1360937237/bmp585_driver.o
 .text.BMP585_DRIVER_Store_FIFO_Data
                0x00000000       0x14 build/default/production/_ext/1360937237/bmp585_driver.o
 .text.BMP585_DRIVER_Get_NVM_Address
                0x00000000       0x30 build/default/production/_ext/1360937237/bmp585_driver.o
 .text.BMP585_DRIVER_Store_NVM_Address
                0x00000000       0x14 build/default/production/_ext/1360937237/bmp585_driver.o
 .text.BMP585_DRIVER_Set_NVM_Address
                0x00000000       0x28 build/default/production/_ext/1360937237/bmp585_driver.o
 .text.BMP585_DRIVER_Get_NVM_Data_LSB
                0x00000000       0x30 build/default/production/_ext/1360937237/bmp585_driver.o
 .text.BMP585_DRIVER_Store_NVM_Data_LSB
                0x00000000       0x14 build/default/production/_ext/1360937237/bmp585_driver.o
 .text.BMP585_DRIVER_Set_NVM_Data_LSB
                0x00000000       0x28 build/default/production/_ext/1360937237/bmp585_driver.o
 .text.BMP585_DRIVER_Get_NVM_Data_MSB
                0x00000000       0x30 build/default/production/_ext/1360937237/bmp585_driver.o
 .text.BMP585_DRIVER_Store_NVM_Data_MSB
                0x00000000       0x14 build/default/production/_ext/1360937237/bmp585_driver.o
 .text.BMP585_DRIVER_Set_NVM_Data_MSB
                0x00000000       0x28 build/default/production/_ext/1360937237/bmp585_driver.o
 .text.BMP585_DRIVER_Get_DSP_Config
                0x00000000       0x30 build/default/production/_ext/1360937237/bmp585_driver.o
 .text.BMP585_DRIVER_Store_DSP_Config
                0x00000000       0x14 build/default/production/_ext/1360937237/bmp585_driver.o
 .text.BMP585_DRIVER_Set_DSP_Config
                0x00000000       0x28 build/default/production/_ext/1360937237/bmp585_driver.o
 .text.BMP585_DRIVER_Get_DSP_IIR
                0x00000000       0x30 build/default/production/_ext/1360937237/bmp585_driver.o
 .text.BMP585_DRIVER_Store_DSP_IIR
                0x00000000       0x14 build/default/production/_ext/1360937237/bmp585_driver.o
 .text.BMP585_DRIVER_Set_DSP_IIR
                0x00000000       0x28 build/default/production/_ext/1360937237/bmp585_driver.o
 .text.BMP585_DRIVER_Get_OOR_P_LSB
                0x00000000       0x30 build/default/production/_ext/1360937237/bmp585_driver.o
 .text.BMP585_DRIVER_Store_OOR_P_LSB
                0x00000000       0x14 build/default/production/_ext/1360937237/bmp585_driver.o
 .text.BMP585_DRIVER_Set_OOR_P_LSB
                0x00000000       0x28 build/default/production/_ext/1360937237/bmp585_driver.o
 .text.BMP585_DRIVER_Get_OOR_P_MSB
                0x00000000       0x30 build/default/production/_ext/1360937237/bmp585_driver.o
 .text.BMP585_DRIVER_Store_OOR_P_MSB
                0x00000000       0x14 build/default/production/_ext/1360937237/bmp585_driver.o
 .text.BMP585_DRIVER_Set_OOR_P_MSB
                0x00000000       0x28 build/default/production/_ext/1360937237/bmp585_driver.o
 .text.BMP585_DRIVER_Get_OOR_Range
                0x00000000       0x30 build/default/production/_ext/1360937237/bmp585_driver.o
 .text.BMP585_DRIVER_Store_OOR_Range
                0x00000000       0x14 build/default/production/_ext/1360937237/bmp585_driver.o
 .text.BMP585_DRIVER_Set_OOR_Range
                0x00000000       0x28 build/default/production/_ext/1360937237/bmp585_driver.o
 .text.BMP585_DRIVER_Get_OOR_Config
                0x00000000       0x30 build/default/production/_ext/1360937237/bmp585_driver.o
 .text.BMP585_DRIVER_Store_OOR_Config
                0x00000000       0x14 build/default/production/_ext/1360937237/bmp585_driver.o
 .text.BMP585_DRIVER_Set_OOR_Config
                0x00000000       0x28 build/default/production/_ext/1360937237/bmp585_driver.o
 .text.BMP585_DRIVER_Get_OSR_Config
                0x00000000       0x30 build/default/production/_ext/1360937237/bmp585_driver.o
 .text.BMP585_DRIVER_Store_OSR_Config
                0x00000000       0x14 build/default/production/_ext/1360937237/bmp585_driver.o
 .text.BMP585_DRIVER_Get_ODR_Config
                0x00000000       0x30 build/default/production/_ext/1360937237/bmp585_driver.o
 .text.BMP585_DRIVER_Store_ODR_Config
                0x00000000       0x14 build/default/production/_ext/1360937237/bmp585_driver.o
 .text.BMP585_DRIVER_Get_OSR_Eff
                0x00000000       0x30 build/default/production/_ext/1360937237/bmp585_driver.o
 .text.BMP585_DRIVER_Store_OSR_Eff
                0x00000000       0x14 build/default/production/_ext/1360937237/bmp585_driver.o
 .text.BMP585_DRIVER_Set_OSR_Eff
                0x00000000       0x28 build/default/production/_ext/1360937237/bmp585_driver.o
 .rodata.BMP585_DRIVER_Print_Data.str1.4
                0x00000000       0x2a build/default/production/_ext/1360937237/bmp585_driver.o
 .text.BMP585_DRIVER_Print_Data
                0x00000000       0x40 build/default/production/_ext/1360937237/bmp585_driver.o
 .text          0x00000000        0x0 C:/Applications/Microchip/XC32/bin/bin/../../lib/gcc/pic32c/13.2.1/../../../../pic32c/lib/thumb/v6-m/nofp\libpic32c.a(data_init.o)
 .data          0x00000000        0x0 C:/Applications/Microchip/XC32/bin/bin/../../lib/gcc/pic32c/13.2.1/../../../../pic32c/lib/thumb/v6-m/nofp\libpic32c.a(data_init.o)
 .xc_stack_usage
                0x00000000       0x68 C:/Applications/Microchip/XC32/bin/bin/../../lib/gcc/pic32c/13.2.1/../../../../pic32c/lib/thumb/v6-m/nofp\libpic32c.a(data_init.o)
 .xc_stack_usage.hdr
                0x00000000        0xe C:/Applications/Microchip/XC32/bin/bin/../../lib/gcc/pic32c/13.2.1/../../../../pic32c/lib/thumb/v6-m/nofp\libpic32c.a(data_init.o)
 .text          0x00000000        0x0 C:/Applications/Microchip/XC32/bin/bin/../../lib/gcc/pic32c/13.2.1/../../../../pic32c/lib/thumb/v6-m/nofp\libc-size-musl.a(memcpy.o)
 .data          0x00000000        0x0 C:/Applications/Microchip/XC32/bin/bin/../../lib/gcc/pic32c/13.2.1/../../../../pic32c/lib/thumb/v6-m/nofp\libc-size-musl.a(memcpy.o)
 .bss           0x00000000        0x0 C:/Applications/Microchip/XC32/bin/bin/../../lib/gcc/pic32c/13.2.1/../../../../pic32c/lib/thumb/v6-m/nofp\libc-size-musl.a(memcpy.o)
 .xc_stack_usage
                0x00000000       0x14 C:/Applications/Microchip/XC32/bin/bin/../../lib/gcc/pic32c/13.2.1/../../../../pic32c/lib/thumb/v6-m/nofp\libc-size-musl.a(memcpy.o)
 .xc_stack_usage.hdr
                0x00000000        0xe C:/Applications/Microchip/XC32/bin/bin/../../lib/gcc/pic32c/13.2.1/../../../../pic32c/lib/thumb/v6-m/nofp\libc-size-musl.a(memcpy.o)
 .text          0x00000000        0x0 C:/Applications/Microchip/XC32/bin/bin/../../lib/gcc/pic32c/13.2.1/../../../../pic32c/lib/thumb/v6-m/nofp\libc-size-musl.a(memset.o)
 .data          0x00000000        0x0 C:/Applications/Microchip/XC32/bin/bin/../../lib/gcc/pic32c/13.2.1/../../../../pic32c/lib/thumb/v6-m/nofp\libc-size-musl.a(memset.o)
 .bss           0x00000000        0x0 C:/Applications/Microchip/XC32/bin/bin/../../lib/gcc/pic32c/13.2.1/../../../../pic32c/lib/thumb/v6-m/nofp\libc-size-musl.a(memset.o)
 .xc_stack_usage
                0x00000000       0x14 C:/Applications/Microchip/XC32/bin/bin/../../lib/gcc/pic32c/13.2.1/../../../../pic32c/lib/thumb/v6-m/nofp\libc-size-musl.a(memset.o)
 .xc_stack_usage.hdr
                0x00000000        0xe C:/Applications/Microchip/XC32/bin/bin/../../lib/gcc/pic32c/13.2.1/../../../../pic32c/lib/thumb/v6-m/nofp\libc-size-musl.a(memset.o)
 .text          0x00000000        0x0 C:/Applications/Microchip/XC32/bin/bin/../../lib/gcc/pic32c/13.2.1/../../../../pic32c/lib/thumb/v6-m/nofp\libc-size-musl.a(strlen.o)
 .data          0x00000000        0x0 C:/Applications/Microchip/XC32/bin/bin/../../lib/gcc/pic32c/13.2.1/../../../../pic32c/lib/thumb/v6-m/nofp\libc-size-musl.a(strlen.o)
 .bss           0x00000000        0x0 C:/Applications/Microchip/XC32/bin/bin/../../lib/gcc/pic32c/13.2.1/../../../../pic32c/lib/thumb/v6-m/nofp\libc-size-musl.a(strlen.o)
 .xc_stack_usage
                0x00000000       0x14 C:/Applications/Microchip/XC32/bin/bin/../../lib/gcc/pic32c/13.2.1/../../../../pic32c/lib/thumb/v6-m/nofp\libc-size-musl.a(strlen.o)
 .xc_stack_usage.hdr
                0x00000000        0xe C:/Applications/Microchip/XC32/bin/bin/../../lib/gcc/pic32c/13.2.1/../../../../pic32c/lib/thumb/v6-m/nofp\libc-size-musl.a(strlen.o)
 .text          0x00000000        0x0 C:/Applications/Microchip/XC32/bin/bin/../../lib/gcc/pic32c/13.2.1/../../../../pic32c/lib/thumb/v6-m/nofp\libc-size-musl.a(strstr.o)
 .data          0x00000000        0x0 C:/Applications/Microchip/XC32/bin/bin/../../lib/gcc/pic32c/13.2.1/../../../../pic32c/lib/thumb/v6-m/nofp\libc-size-musl.a(strstr.o)
 .bss           0x00000000        0x0 C:/Applications/Microchip/XC32/bin/bin/../../lib/gcc/pic32c/13.2.1/../../../../pic32c/lib/thumb/v6-m/nofp\libc-size-musl.a(strstr.o)
 .xc_stack_usage
                0x00000000       0x14 C:/Applications/Microchip/XC32/bin/bin/../../lib/gcc/pic32c/13.2.1/../../../../pic32c/lib/thumb/v6-m/nofp\libc-size-musl.a(strstr.o)
 .xc_stack_usage.hdr
                0x00000000        0xe C:/Applications/Microchip/XC32/bin/bin/../../lib/gcc/pic32c/13.2.1/../../../../pic32c/lib/thumb/v6-m/nofp\libc-size-musl.a(strstr.o)
 .text          0x00000000        0x0 C:/Applications/Microchip/XC32/bin/bin/../../lib/gcc/pic32c/13.2.1/../../../../pic32c/lib/thumb/v6-m/nofp\libc-size-musl.a(strchr.o)
 .data          0x00000000        0x0 C:/Applications/Microchip/XC32/bin/bin/../../lib/gcc/pic32c/13.2.1/../../../../pic32c/lib/thumb/v6-m/nofp\libc-size-musl.a(strchr.o)
 .bss           0x00000000        0x0 C:/Applications/Microchip/XC32/bin/bin/../../lib/gcc/pic32c/13.2.1/../../../../pic32c/lib/thumb/v6-m/nofp\libc-size-musl.a(strchr.o)
 .xc_stack_usage
                0x00000000       0x14 C:/Applications/Microchip/XC32/bin/bin/../../lib/gcc/pic32c/13.2.1/../../../../pic32c/lib/thumb/v6-m/nofp\libc-size-musl.a(strchr.o)
 .xc_stack_usage.hdr
                0x00000000        0xe C:/Applications/Microchip/XC32/bin/bin/../../lib/gcc/pic32c/13.2.1/../../../../pic32c/lib/thumb/v6-m/nofp\libc-size-musl.a(strchr.o)
 .text          0x00000000        0x0 C:/Applications/Microchip/XC32/bin/bin/../../lib/gcc/pic32c/13.2.1/../../../../pic32c/lib/thumb/v6-m/nofp\libc-size-musl.a(strchrnul.o)
 .data          0x00000000        0x0 C:/Applications/Microchip/XC32/bin/bin/../../lib/gcc/pic32c/13.2.1/../../../../pic32c/lib/thumb/v6-m/nofp\libc-size-musl.a(strchrnul.o)
 .bss           0x00000000        0x0 C:/Applications/Microchip/XC32/bin/bin/../../lib/gcc/pic32c/13.2.1/../../../../pic32c/lib/thumb/v6-m/nofp\libc-size-musl.a(strchrnul.o)
 .xc_stack_usage
                0x00000000       0x19 C:/Applications/Microchip/XC32/bin/bin/../../lib/gcc/pic32c/13.2.1/../../../../pic32c/lib/thumb/v6-m/nofp\libc-size-musl.a(strchrnul.o)
 .xc_stack_usage.hdr
                0x00000000        0xe C:/Applications/Microchip/XC32/bin/bin/../../lib/gcc/pic32c/13.2.1/../../../../pic32c/lib/thumb/v6-m/nofp\libc-size-musl.a(strchrnul.o)
 .text          0x00000000        0x0 C:/Applications/Microchip/XC32/bin/bin/../../lib/gcc/pic32c/13.2.1/../../../../pic32c/lib/thumb/v6-m/nofp\libc-musl.a(__libc_start_main.o)
 .data          0x00000000        0x0 C:/Applications/Microchip/XC32/bin/bin/../../lib/gcc/pic32c/13.2.1/../../../../pic32c/lib/thumb/v6-m/nofp\libc-musl.a(__libc_start_main.o)
 .bss           0x00000000        0x0 C:/Applications/Microchip/XC32/bin/bin/../../lib/gcc/pic32c/13.2.1/../../../../pic32c/lib/thumb/v6-m/nofp\libc-musl.a(__libc_start_main.o)
 .xc_stack_usage
                0x00000000       0x34 C:/Applications/Microchip/XC32/bin/bin/../../lib/gcc/pic32c/13.2.1/../../../../pic32c/lib/thumb/v6-m/nofp\libc-musl.a(__libc_start_main.o)
 .xc_stack_usage.hdr
                0x00000000        0xe C:/Applications/Microchip/XC32/bin/bin/../../lib/gcc/pic32c/13.2.1/../../../../pic32c/lib/thumb/v6-m/nofp\libc-musl.a(__libc_start_main.o)
 .text          0x00000000        0x0 C:/Applications/Microchip/XC32/bin/bin/../../lib/gcc/pic32c/13.2.1/../../../../pic32c/lib/thumb/v6-m/nofp\libc-musl.a(libc.o)
 .data          0x00000000        0x0 C:/Applications/Microchip/XC32/bin/bin/../../lib/gcc/pic32c/13.2.1/../../../../pic32c/lib/thumb/v6-m/nofp\libc-musl.a(libc.o)
 .xc_stack_usage.hdr
                0x00000000        0xe C:/Applications/Microchip/XC32/bin/bin/../../lib/gcc/pic32c/13.2.1/../../../../pic32c/lib/thumb/v6-m/nofp\libc-musl.a(libc.o)
 .text          0x00000000        0x0 C:/Applications/Microchip/XC32/bin/bin/../../lib/gcc/pic32c/13.2.1/../../../../pic32c/lib/thumb/v6-m/nofp\libc-musl.a(vsnprintf.o)
 .data          0x00000000        0x0 C:/Applications/Microchip/XC32/bin/bin/../../lib/gcc/pic32c/13.2.1/../../../../pic32c/lib/thumb/v6-m/nofp\libc-musl.a(vsnprintf.o)
 .bss           0x00000000        0x0 C:/Applications/Microchip/XC32/bin/bin/../../lib/gcc/pic32c/13.2.1/../../../../pic32c/lib/thumb/v6-m/nofp\libc-musl.a(vsnprintf.o)
 .xc_stack_usage
                0x00000000       0x17 C:/Applications/Microchip/XC32/bin/bin/../../lib/gcc/pic32c/13.2.1/../../../../pic32c/lib/thumb/v6-m/nofp\libc-musl.a(vsnprintf.o)
 .xc_stack_usage.hdr
                0x00000000        0xe C:/Applications/Microchip/XC32/bin/bin/../../lib/gcc/pic32c/13.2.1/../../../../pic32c/lib/thumb/v6-m/nofp\libc-musl.a(vsnprintf.o)
 .text          0x00000000        0x0 C:/Applications/Microchip/XC32/bin/bin/../../lib/gcc/pic32c/13.2.1/../../../../pic32c/lib/thumb/v6-m/nofp\libc-musl.a(sprintf.o)
 .data          0x00000000        0x0 C:/Applications/Microchip/XC32/bin/bin/../../lib/gcc/pic32c/13.2.1/../../../../pic32c/lib/thumb/v6-m/nofp\libc-musl.a(sprintf.o)
 .bss           0x00000000        0x0 C:/Applications/Microchip/XC32/bin/bin/../../lib/gcc/pic32c/13.2.1/../../../../pic32c/lib/thumb/v6-m/nofp\libc-musl.a(sprintf.o)
 .xc_stack_usage
                0x00000000       0x15 C:/Applications/Microchip/XC32/bin/bin/../../lib/gcc/pic32c/13.2.1/../../../../pic32c/lib/thumb/v6-m/nofp\libc-musl.a(sprintf.o)
 .xc_stack_usage.hdr
                0x00000000        0xe C:/Applications/Microchip/XC32/bin/bin/../../lib/gcc/pic32c/13.2.1/../../../../pic32c/lib/thumb/v6-m/nofp\libc-musl.a(sprintf.o)
 .text          0x00000000        0x0 C:/Applications/Microchip/XC32/bin/bin/../../lib/gcc/pic32c/13.2.1/../../../../pic32c/lib/thumb/v6-m/nofp\libc-musl.a(vsprintf.o)
 .data          0x00000000        0x0 C:/Applications/Microchip/XC32/bin/bin/../../lib/gcc/pic32c/13.2.1/../../../../pic32c/lib/thumb/v6-m/nofp\libc-musl.a(vsprintf.o)
 .bss           0x00000000        0x0 C:/Applications/Microchip/XC32/bin/bin/../../lib/gcc/pic32c/13.2.1/../../../../pic32c/lib/thumb/v6-m/nofp\libc-musl.a(vsprintf.o)
 .xc_stack_usage
                0x00000000       0x16 C:/Applications/Microchip/XC32/bin/bin/../../lib/gcc/pic32c/13.2.1/../../../../pic32c/lib/thumb/v6-m/nofp\libc-musl.a(vsprintf.o)
 .xc_stack_usage.hdr
                0x00000000        0xe C:/Applications/Microchip/XC32/bin/bin/../../lib/gcc/pic32c/13.2.1/../../../../pic32c/lib/thumb/v6-m/nofp\libc-musl.a(vsprintf.o)
 .text          0x00000000        0x0 C:/Applications/Microchip/XC32/bin/bin/../../lib/gcc/pic32c/13.2.1/../../../../pic32c/lib/thumb/v6-m/nofp\libc-musl.a(__environ.o)
 .data          0x00000000        0x0 C:/Applications/Microchip/XC32/bin/bin/../../lib/gcc/pic32c/13.2.1/../../../../pic32c/lib/thumb/v6-m/nofp\libc-musl.a(__environ.o)
 .xc_stack_usage.hdr
                0x00000000        0xe C:/Applications/Microchip/XC32/bin/bin/../../lib/gcc/pic32c/13.2.1/../../../../pic32c/lib/thumb/v6-m/nofp\libc-musl.a(__environ.o)
 .text          0x00000000        0x0 C:/Applications/Microchip/XC32/bin/bin/../../lib/gcc/pic32c/13.2.1/../../../../pic32c/lib/thumb/v6-m/nofp\libc-musl.a(__errno_location.o)
 .data          0x00000000        0x0 C:/Applications/Microchip/XC32/bin/bin/../../lib/gcc/pic32c/13.2.1/../../../../pic32c/lib/thumb/v6-m/nofp\libc-musl.a(__errno_location.o)
 .xc_stack_usage.hdr
                0x00000000        0xe C:/Applications/Microchip/XC32/bin/bin/../../lib/gcc/pic32c/13.2.1/../../../../pic32c/lib/thumb/v6-m/nofp\libc-musl.a(__errno_location.o)
 .text          0x00000000        0x0 C:/Applications/Microchip/XC32/bin/bin/../../lib/gcc/pic32c/13.2.1/../../../../pic32c/lib/thumb/v6-m/nofp\libc-musl.a(vfprintf.o)
 .data          0x00000000        0x0 C:/Applications/Microchip/XC32/bin/bin/../../lib/gcc/pic32c/13.2.1/../../../../pic32c/lib/thumb/v6-m/nofp\libc-musl.a(vfprintf.o)
 .bss           0x00000000        0x0 C:/Applications/Microchip/XC32/bin/bin/../../lib/gcc/pic32c/13.2.1/../../../../pic32c/lib/thumb/v6-m/nofp\libc-musl.a(vfprintf.o)
 .xc_stack_usage
                0x00000000       0x38 C:/Applications/Microchip/XC32/bin/bin/../../lib/gcc/pic32c/13.2.1/../../../../pic32c/lib/thumb/v6-m/nofp\libc-musl.a(vfprintf.o)
 __xc_reference_data
                0x00000000        0x8 C:/Applications/Microchip/XC32/bin/bin/../../lib/gcc/pic32c/13.2.1/../../../../pic32c/lib/thumb/v6-m/nofp\libc-musl.a(vfprintf.o)
 .xc_stack_usage.hdr
                0x00000000        0xe C:/Applications/Microchip/XC32/bin/bin/../../lib/gcc/pic32c/13.2.1/../../../../pic32c/lib/thumb/v6-m/nofp\libc-musl.a(vfprintf.o)
 .text          0x00000000        0x0 C:/Applications/Microchip/XC32/bin/bin/../../lib/gcc/pic32c/13.2.1/../../../../pic32c/lib/thumb/v6-m/nofp\libc-musl.a(__io_fmt_needed.o)
 .data          0x00000000        0x0 C:/Applications/Microchip/XC32/bin/bin/../../lib/gcc/pic32c/13.2.1/../../../../pic32c/lib/thumb/v6-m/nofp\libc-musl.a(__io_fmt_needed.o)
 .bss           0x00000000        0x0 C:/Applications/Microchip/XC32/bin/bin/../../lib/gcc/pic32c/13.2.1/../../../../pic32c/lib/thumb/v6-m/nofp\libc-musl.a(__io_fmt_needed.o)
 .xc_stack_usage
                0x00000000       0x1d C:/Applications/Microchip/XC32/bin/bin/../../lib/gcc/pic32c/13.2.1/../../../../pic32c/lib/thumb/v6-m/nofp\libc-musl.a(__io_fmt_needed.o)
 __xc_reference_data
                0x00000000       0x54 C:/Applications/Microchip/XC32/bin/bin/../../lib/gcc/pic32c/13.2.1/../../../../pic32c/lib/thumb/v6-m/nofp\libc-musl.a(__io_fmt_needed.o)
 .xc_stack_usage.hdr
                0x00000000        0xe C:/Applications/Microchip/XC32/bin/bin/../../lib/gcc/pic32c/13.2.1/../../../../pic32c/lib/thumb/v6-m/nofp\libc-musl.a(__io_fmt_needed.o)
 .debug_info    0x00000000      0x197 C:/Applications/Microchip/XC32/bin/bin/../../lib/gcc/pic32c/13.2.1/../../../../pic32c/lib/thumb/v6-m/nofp\libc-musl.a(__io_fmt_needed.o)
 .debug_abbrev  0x00000000       0x69 C:/Applications/Microchip/XC32/bin/bin/../../lib/gcc/pic32c/13.2.1/../../../../pic32c/lib/thumb/v6-m/nofp\libc-musl.a(__io_fmt_needed.o)
 .debug_loc     0x00000000       0x20 C:/Applications/Microchip/XC32/bin/bin/../../lib/gcc/pic32c/13.2.1/../../../../pic32c/lib/thumb/v6-m/nofp\libc-musl.a(__io_fmt_needed.o)
 .debug_aranges
                0x00000000       0x20 C:/Applications/Microchip/XC32/bin/bin/../../lib/gcc/pic32c/13.2.1/../../../../pic32c/lib/thumb/v6-m/nofp\libc-musl.a(__io_fmt_needed.o)
 .debug_ranges  0x00000000       0x10 C:/Applications/Microchip/XC32/bin/bin/../../lib/gcc/pic32c/13.2.1/../../../../pic32c/lib/thumb/v6-m/nofp\libc-musl.a(__io_fmt_needed.o)
 .debug_line    0x00000000       0x99 C:/Applications/Microchip/XC32/bin/bin/../../lib/gcc/pic32c/13.2.1/../../../../pic32c/lib/thumb/v6-m/nofp\libc-musl.a(__io_fmt_needed.o)
 .debug_str     0x00000000      0x349 C:/Applications/Microchip/XC32/bin/bin/../../lib/gcc/pic32c/13.2.1/../../../../pic32c/lib/thumb/v6-m/nofp\libc-musl.a(__io_fmt_needed.o)
 .comment       0x00000000       0x36 C:/Applications/Microchip/XC32/bin/bin/../../lib/gcc/pic32c/13.2.1/../../../../pic32c/lib/thumb/v6-m/nofp\libc-musl.a(__io_fmt_needed.o)
 .note.GNU-stack
                0x00000000        0x0 C:/Applications/Microchip/XC32/bin/bin/../../lib/gcc/pic32c/13.2.1/../../../../pic32c/lib/thumb/v6-m/nofp\libc-musl.a(__io_fmt_needed.o)
 .debug_frame   0x00000000       0x28 C:/Applications/Microchip/XC32/bin/bin/../../lib/gcc/pic32c/13.2.1/../../../../pic32c/lib/thumb/v6-m/nofp\libc-musl.a(__io_fmt_needed.o)
 .ARM.attributes
                0x00000000       0x2e C:/Applications/Microchip/XC32/bin/bin/../../lib/gcc/pic32c/13.2.1/../../../../pic32c/lib/thumb/v6-m/nofp\libc-musl.a(__io_fmt_needed.o)
 .text          0x00000000        0x0 C:/Applications/Microchip/XC32/bin/bin/../../lib/gcc/pic32c/13.2.1/../../../../pic32c/lib/thumb/v6-m/nofp\libc-musl.a(__pop_float.o)
 .data          0x00000000        0x0 C:/Applications/Microchip/XC32/bin/bin/../../lib/gcc/pic32c/13.2.1/../../../../pic32c/lib/thumb/v6-m/nofp\libc-musl.a(__pop_float.o)
 .bss           0x00000000        0x0 C:/Applications/Microchip/XC32/bin/bin/../../lib/gcc/pic32c/13.2.1/../../../../pic32c/lib/thumb/v6-m/nofp\libc-musl.a(__pop_float.o)
 .xc_stack_usage
                0x00000000       0x19 C:/Applications/Microchip/XC32/bin/bin/../../lib/gcc/pic32c/13.2.1/../../../../pic32c/lib/thumb/v6-m/nofp\libc-musl.a(__pop_float.o)
 .xc_stack_usage.hdr
                0x00000000        0xe C:/Applications/Microchip/XC32/bin/bin/../../lib/gcc/pic32c/13.2.1/../../../../pic32c/lib/thumb/v6-m/nofp\libc-musl.a(__pop_float.o)
 .text          0x00000000        0x0 C:/Applications/Microchip/XC32/bin/bin/../../lib/gcc/pic32c/13.2.1/../../../../pic32c/lib/thumb/v6-m/nofp\libc-musl.a(__pop_int.o)
 .data          0x00000000        0x0 C:/Applications/Microchip/XC32/bin/bin/../../lib/gcc/pic32c/13.2.1/../../../../pic32c/lib/thumb/v6-m/nofp\libc-musl.a(__pop_int.o)
 .bss           0x00000000        0x0 C:/Applications/Microchip/XC32/bin/bin/../../lib/gcc/pic32c/13.2.1/../../../../pic32c/lib/thumb/v6-m/nofp\libc-musl.a(__pop_int.o)
 .xc_stack_usage
                0x00000000       0x17 C:/Applications/Microchip/XC32/bin/bin/../../lib/gcc/pic32c/13.2.1/../../../../pic32c/lib/thumb/v6-m/nofp\libc-musl.a(__pop_int.o)
 .xc_stack_usage.hdr
                0x00000000        0xe C:/Applications/Microchip/XC32/bin/bin/../../lib/gcc/pic32c/13.2.1/../../../../pic32c/lib/thumb/v6-m/nofp\libc-musl.a(__pop_int.o)
 .text          0x00000000        0x0 C:/Applications/Microchip/XC32/bin/bin/../../lib/gcc/pic32c/13.2.1/../../../../pic32c/lib/thumb/v6-m/nofp\libc-musl.a(__pop_ptr.o)
 .data          0x00000000        0x0 C:/Applications/Microchip/XC32/bin/bin/../../lib/gcc/pic32c/13.2.1/../../../../pic32c/lib/thumb/v6-m/nofp\libc-musl.a(__pop_ptr.o)
 .bss           0x00000000        0x0 C:/Applications/Microchip/XC32/bin/bin/../../lib/gcc/pic32c/13.2.1/../../../../pic32c/lib/thumb/v6-m/nofp\libc-musl.a(__pop_ptr.o)
 .xc_stack_usage
                0x00000000       0x17 C:/Applications/Microchip/XC32/bin/bin/../../lib/gcc/pic32c/13.2.1/../../../../pic32c/lib/thumb/v6-m/nofp\libc-musl.a(__pop_ptr.o)
 .xc_stack_usage.hdr
                0x00000000        0xe C:/Applications/Microchip/XC32/bin/bin/../../lib/gcc/pic32c/13.2.1/../../../../pic32c/lib/thumb/v6-m/nofp\libc-musl.a(__pop_ptr.o)
 .text          0x00000000        0x0 C:/Applications/Microchip/XC32/bin/bin/../../lib/gcc/pic32c/13.2.1/../../../../pic32c/lib/thumb/v6-m/nofp\libc-musl.a(__printf_core.o)
 .data          0x00000000        0x0 C:/Applications/Microchip/XC32/bin/bin/../../lib/gcc/pic32c/13.2.1/../../../../pic32c/lib/thumb/v6-m/nofp\libc-musl.a(__printf_core.o)
 .bss           0x00000000        0x0 C:/Applications/Microchip/XC32/bin/bin/../../lib/gcc/pic32c/13.2.1/../../../../pic32c/lib/thumb/v6-m/nofp\libc-musl.a(__printf_core.o)
 .xc_stack_usage
                0x00000000       0xaf C:/Applications/Microchip/XC32/bin/bin/../../lib/gcc/pic32c/13.2.1/../../../../pic32c/lib/thumb/v6-m/nofp\libc-musl.a(__printf_core.o)
 .text.__dummy_fmt3
                0x00000000        0x4 C:/Applications/Microchip/XC32/bin/bin/../../lib/gcc/pic32c/13.2.1/../../../../pic32c/lib/thumb/v6-m/nofp\libc-musl.a(__printf_core.o)
 .text.__dummy_fmt4
                0x00000000        0x4 C:/Applications/Microchip/XC32/bin/bin/../../lib/gcc/pic32c/13.2.1/../../../../pic32c/lib/thumb/v6-m/nofp\libc-musl.a(__printf_core.o)
 .text.__dummy_fmts
                0x00000000        0x4 C:/Applications/Microchip/XC32/bin/bin/../../lib/gcc/pic32c/13.2.1/../../../../pic32c/lib/thumb/v6-m/nofp\libc-musl.a(__printf_core.o)
 .xc_stack_usage.hdr
                0x00000000        0xe C:/Applications/Microchip/XC32/bin/bin/../../lib/gcc/pic32c/13.2.1/../../../../pic32c/lib/thumb/v6-m/nofp\libc-musl.a(__printf_core.o)
 .text          0x00000000        0x0 C:/Applications/Microchip/XC32/bin/bin/../../lib/gcc/pic32c/13.2.1/../../../../pic32c/lib/thumb/v6-m/nofp\libc-musl.a(atoi.o)
 .data          0x00000000        0x0 C:/Applications/Microchip/XC32/bin/bin/../../lib/gcc/pic32c/13.2.1/../../../../pic32c/lib/thumb/v6-m/nofp\libc-musl.a(atoi.o)
 .bss           0x00000000        0x0 C:/Applications/Microchip/XC32/bin/bin/../../lib/gcc/pic32c/13.2.1/../../../../pic32c/lib/thumb/v6-m/nofp\libc-musl.a(atoi.o)
 .xc_stack_usage
                0x00000000       0x12 C:/Applications/Microchip/XC32/bin/bin/../../lib/gcc/pic32c/13.2.1/../../../../pic32c/lib/thumb/v6-m/nofp\libc-musl.a(atoi.o)
 .xc_stack_usage.hdr
                0x00000000        0xe C:/Applications/Microchip/XC32/bin/bin/../../lib/gcc/pic32c/13.2.1/../../../../pic32c/lib/thumb/v6-m/nofp\libc-musl.a(atoi.o)
 .text          0x00000000        0x0 C:/Applications/Microchip/XC32/bin/bin/../../lib/gcc/pic32c/13.2.1/../../../../pic32c/lib/thumb/v6-m/nofp\libc-musl.a(tolower.o)
 .data          0x00000000        0x0 C:/Applications/Microchip/XC32/bin/bin/../../lib/gcc/pic32c/13.2.1/../../../../pic32c/lib/thumb/v6-m/nofp\libc-musl.a(tolower.o)
 .bss           0x00000000        0x0 C:/Applications/Microchip/XC32/bin/bin/../../lib/gcc/pic32c/13.2.1/../../../../pic32c/lib/thumb/v6-m/nofp\libc-musl.a(tolower.o)
 .xc_stack_usage
                0x00000000       0x2e C:/Applications/Microchip/XC32/bin/bin/../../lib/gcc/pic32c/13.2.1/../../../../pic32c/lib/thumb/v6-m/nofp\libc-musl.a(tolower.o)
 .text.__tolower_l
                0x00000000        0x8 C:/Applications/Microchip/XC32/bin/bin/../../lib/gcc/pic32c/13.2.1/../../../../pic32c/lib/thumb/v6-m/nofp\libc-musl.a(tolower.o)
 .xc_stack_usage.hdr
                0x00000000        0xe C:/Applications/Microchip/XC32/bin/bin/../../lib/gcc/pic32c/13.2.1/../../../../pic32c/lib/thumb/v6-m/nofp\libc-musl.a(tolower.o)
 .text          0x00000000        0x0 C:/Applications/Microchip/XC32/bin/bin/../../lib/gcc/pic32c/13.2.1/../../../../pic32c/lib/thumb/v6-m/nofp\libc-musl.a(__fmt_a.o)
 .data          0x00000000        0x0 C:/Applications/Microchip/XC32/bin/bin/../../lib/gcc/pic32c/13.2.1/../../../../pic32c/lib/thumb/v6-m/nofp\libc-musl.a(__fmt_a.o)
 .bss           0x00000000        0x0 C:/Applications/Microchip/XC32/bin/bin/../../lib/gcc/pic32c/13.2.1/../../../../pic32c/lib/thumb/v6-m/nofp\libc-musl.a(__fmt_a.o)
 .xc_stack_usage
                0x00000000       0x15 C:/Applications/Microchip/XC32/bin/bin/../../lib/gcc/pic32c/13.2.1/../../../../pic32c/lib/thumb/v6-m/nofp\libc-musl.a(__fmt_a.o)
 .xc_stack_usage.hdr
                0x00000000        0xe C:/Applications/Microchip/XC32/bin/bin/../../lib/gcc/pic32c/13.2.1/../../../../pic32c/lib/thumb/v6-m/nofp\libc-musl.a(__fmt_a.o)
 .text          0x00000000        0x0 C:/Applications/Microchip/XC32/bin/bin/../../lib/gcc/pic32c/13.2.1/../../../../pic32c/lib/thumb/v6-m/nofp\libc-musl.a(__fmt_d.o)
 .data          0x00000000        0x0 C:/Applications/Microchip/XC32/bin/bin/../../lib/gcc/pic32c/13.2.1/../../../../pic32c/lib/thumb/v6-m/nofp\libc-musl.a(__fmt_d.o)
 .bss           0x00000000        0x0 C:/Applications/Microchip/XC32/bin/bin/../../lib/gcc/pic32c/13.2.1/../../../../pic32c/lib/thumb/v6-m/nofp\libc-musl.a(__fmt_d.o)
 .xc_stack_usage
                0x00000000       0x15 C:/Applications/Microchip/XC32/bin/bin/../../lib/gcc/pic32c/13.2.1/../../../../pic32c/lib/thumb/v6-m/nofp\libc-musl.a(__fmt_d.o)
 .xc_stack_usage.hdr
                0x00000000        0xe C:/Applications/Microchip/XC32/bin/bin/../../lib/gcc/pic32c/13.2.1/../../../../pic32c/lib/thumb/v6-m/nofp\libc-musl.a(__fmt_d.o)
 .text          0x00000000        0x0 C:/Applications/Microchip/XC32/bin/bin/../../lib/gcc/pic32c/13.2.1/../../../../pic32c/lib/thumb/v6-m/nofp\libc-musl.a(__fmt_fp.o)
 .data          0x00000000        0x0 C:/Applications/Microchip/XC32/bin/bin/../../lib/gcc/pic32c/13.2.1/../../../../pic32c/lib/thumb/v6-m/nofp\libc-musl.a(__fmt_fp.o)
 .bss           0x00000000        0x0 C:/Applications/Microchip/XC32/bin/bin/../../lib/gcc/pic32c/13.2.1/../../../../pic32c/lib/thumb/v6-m/nofp\libc-musl.a(__fmt_fp.o)
 .xc_stack_usage
                0x00000000       0x16 C:/Applications/Microchip/XC32/bin/bin/../../lib/gcc/pic32c/13.2.1/../../../../pic32c/lib/thumb/v6-m/nofp\libc-musl.a(__fmt_fp.o)
 .xc_stack_usage.hdr
                0x00000000        0xe C:/Applications/Microchip/XC32/bin/bin/../../lib/gcc/pic32c/13.2.1/../../../../pic32c/lib/thumb/v6-m/nofp\libc-musl.a(__fmt_fp.o)
 .text          0x00000000        0x0 C:/Applications/Microchip/XC32/bin/bin/../../lib/gcc/pic32c/13.2.1/../../../../pic32c/lib/thumb/v6-m/nofp\libc-musl.a(__fmt_o.o)
 .data          0x00000000        0x0 C:/Applications/Microchip/XC32/bin/bin/../../lib/gcc/pic32c/13.2.1/../../../../pic32c/lib/thumb/v6-m/nofp\libc-musl.a(__fmt_o.o)
 .bss           0x00000000        0x0 C:/Applications/Microchip/XC32/bin/bin/../../lib/gcc/pic32c/13.2.1/../../../../pic32c/lib/thumb/v6-m/nofp\libc-musl.a(__fmt_o.o)
 .xc_stack_usage
                0x00000000       0x15 C:/Applications/Microchip/XC32/bin/bin/../../lib/gcc/pic32c/13.2.1/../../../../pic32c/lib/thumb/v6-m/nofp\libc-musl.a(__fmt_o.o)
 .xc_stack_usage.hdr
                0x00000000        0xe C:/Applications/Microchip/XC32/bin/bin/../../lib/gcc/pic32c/13.2.1/../../../../pic32c/lib/thumb/v6-m/nofp\libc-musl.a(__fmt_o.o)
 .text          0x00000000        0x0 C:/Applications/Microchip/XC32/bin/bin/../../lib/gcc/pic32c/13.2.1/../../../../pic32c/lib/thumb/v6-m/nofp\libc-musl.a(__fmt_s.o)
 .data          0x00000000        0x0 C:/Applications/Microchip/XC32/bin/bin/../../lib/gcc/pic32c/13.2.1/../../../../pic32c/lib/thumb/v6-m/nofp\libc-musl.a(__fmt_s.o)
 .bss           0x00000000        0x0 C:/Applications/Microchip/XC32/bin/bin/../../lib/gcc/pic32c/13.2.1/../../../../pic32c/lib/thumb/v6-m/nofp\libc-musl.a(__fmt_s.o)
 .xc_stack_usage
                0x00000000       0x15 C:/Applications/Microchip/XC32/bin/bin/../../lib/gcc/pic32c/13.2.1/../../../../pic32c/lib/thumb/v6-m/nofp\libc-musl.a(__fmt_s.o)
 .xc_stack_usage.hdr
                0x00000000        0xe C:/Applications/Microchip/XC32/bin/bin/../../lib/gcc/pic32c/13.2.1/../../../../pic32c/lib/thumb/v6-m/nofp\libc-musl.a(__fmt_s.o)
 .text          0x00000000        0x0 C:/Applications/Microchip/XC32/bin/bin/../../lib/gcc/pic32c/13.2.1/../../../../pic32c/lib/thumb/v6-m/nofp\libc-musl.a(__fmt_u.o)
 .data          0x00000000        0x0 C:/Applications/Microchip/XC32/bin/bin/../../lib/gcc/pic32c/13.2.1/../../../../pic32c/lib/thumb/v6-m/nofp\libc-musl.a(__fmt_u.o)
 .bss           0x00000000        0x0 C:/Applications/Microchip/XC32/bin/bin/../../lib/gcc/pic32c/13.2.1/../../../../pic32c/lib/thumb/v6-m/nofp\libc-musl.a(__fmt_u.o)
 .xc_stack_usage
                0x00000000       0x15 C:/Applications/Microchip/XC32/bin/bin/../../lib/gcc/pic32c/13.2.1/../../../../pic32c/lib/thumb/v6-m/nofp\libc-musl.a(__fmt_u.o)
 .xc_stack_usage.hdr
                0x00000000        0xe C:/Applications/Microchip/XC32/bin/bin/../../lib/gcc/pic32c/13.2.1/../../../../pic32c/lib/thumb/v6-m/nofp\libc-musl.a(__fmt_u.o)
 .text          0x00000000        0x0 C:/Applications/Microchip/XC32/bin/bin/../../lib/gcc/pic32c/13.2.1/../../../../pic32c/lib/thumb/v6-m/nofp\libc-musl.a(__fmt_x.o)
 .data          0x00000000        0x0 C:/Applications/Microchip/XC32/bin/bin/../../lib/gcc/pic32c/13.2.1/../../../../pic32c/lib/thumb/v6-m/nofp\libc-musl.a(__fmt_x.o)
 .bss           0x00000000        0x0 C:/Applications/Microchip/XC32/bin/bin/../../lib/gcc/pic32c/13.2.1/../../../../pic32c/lib/thumb/v6-m/nofp\libc-musl.a(__fmt_x.o)
 .xc_stack_usage
                0x00000000       0x15 C:/Applications/Microchip/XC32/bin/bin/../../lib/gcc/pic32c/13.2.1/../../../../pic32c/lib/thumb/v6-m/nofp\libc-musl.a(__fmt_x.o)
 .xc_stack_usage.hdr
                0x00000000        0xe C:/Applications/Microchip/XC32/bin/bin/../../lib/gcc/pic32c/13.2.1/../../../../pic32c/lib/thumb/v6-m/nofp\libc-musl.a(__fmt_x.o)
 .text          0x00000000        0x0 C:/Applications/Microchip/XC32/bin/bin/../../lib/gcc/pic32c/13.2.1/../../../../pic32c/lib/thumb/v6-m/nofp\libc-musl.a(toupper.o)
 .data          0x00000000        0x0 C:/Applications/Microchip/XC32/bin/bin/../../lib/gcc/pic32c/13.2.1/../../../../pic32c/lib/thumb/v6-m/nofp\libc-musl.a(toupper.o)
 .bss           0x00000000        0x0 C:/Applications/Microchip/XC32/bin/bin/../../lib/gcc/pic32c/13.2.1/../../../../pic32c/lib/thumb/v6-m/nofp\libc-musl.a(toupper.o)
 .xc_stack_usage
                0x00000000       0x2e C:/Applications/Microchip/XC32/bin/bin/../../lib/gcc/pic32c/13.2.1/../../../../pic32c/lib/thumb/v6-m/nofp\libc-musl.a(toupper.o)
 .text.__toupper_l
                0x00000000        0x8 C:/Applications/Microchip/XC32/bin/bin/../../lib/gcc/pic32c/13.2.1/../../../../pic32c/lib/thumb/v6-m/nofp\libc-musl.a(toupper.o)
 .xc_stack_usage.hdr
                0x00000000        0xe C:/Applications/Microchip/XC32/bin/bin/../../lib/gcc/pic32c/13.2.1/../../../../pic32c/lib/thumb/v6-m/nofp\libc-musl.a(toupper.o)
 .text          0x00000000        0x0 C:/Applications/Microchip/XC32/bin/bin/../../lib/gcc/pic32c/13.2.1/../../../../pic32c/lib/thumb/v6-m/nofp\libc-musl.a(__cvt_u.o)
 .data          0x00000000        0x0 C:/Applications/Microchip/XC32/bin/bin/../../lib/gcc/pic32c/13.2.1/../../../../pic32c/lib/thumb/v6-m/nofp\libc-musl.a(__cvt_u.o)
 .bss           0x00000000        0x0 C:/Applications/Microchip/XC32/bin/bin/../../lib/gcc/pic32c/13.2.1/../../../../pic32c/lib/thumb/v6-m/nofp\libc-musl.a(__cvt_u.o)
 .xc_stack_usage
                0x00000000       0x15 C:/Applications/Microchip/XC32/bin/bin/../../lib/gcc/pic32c/13.2.1/../../../../pic32c/lib/thumb/v6-m/nofp\libc-musl.a(__cvt_u.o)
 .xc_stack_usage.hdr
                0x00000000        0xe C:/Applications/Microchip/XC32/bin/bin/../../lib/gcc/pic32c/13.2.1/../../../../pic32c/lib/thumb/v6-m/nofp\libc-musl.a(__cvt_u.o)
 .xc_stack_usage.hdr
                0x00000000        0xe C:/Applications/Microchip/XC32/bin/bin/../../lib/gcc/pic32c/13.2.1/../../../../pic32c/lib/thumb/v6-m/nofp\libm-fast-emfloat.a(fma.o)
 .xc_stack_usage
                0x00000000       0x11 C:/Applications/Microchip/XC32/bin/bin/../../lib/gcc/pic32c/13.2.1/../../../../pic32c/lib/thumb/v6-m/nofp\libm-fast-emfloat.a(fma.o)
 .xc_stack_usage.hdr
                0x00000000        0xe C:/Applications/Microchip/XC32/bin/bin/../../lib/gcc/pic32c/13.2.1/../../../../pic32c/lib/thumb/v6-m/nofp\libm-fast-emfloat.a(floor.o)
 .xc_stack_usage
                0x00000000       0x13 C:/Applications/Microchip/XC32/bin/bin/../../lib/gcc/pic32c/13.2.1/../../../../pic32c/lib/thumb/v6-m/nofp\libm-fast-emfloat.a(floor.o)
 .xc_stack_usage.hdr
                0x00000000        0xe C:/Applications/Microchip/XC32/bin/bin/../../lib/gcc/pic32c/13.2.1/../../../../pic32c/lib/thumb/v6-m/nofp\libm-fast-emfloat.a(__aeabi_fadd.o)
 .xc_stack_usage
                0x00000000       0x41 C:/Applications/Microchip/XC32/bin/bin/../../lib/gcc/pic32c/13.2.1/../../../../pic32c/lib/thumb/v6-m/nofp\libm-fast-emfloat.a(__aeabi_fadd.o)
 .xc_stack_usage.hdr
                0x00000000        0xe C:/Applications/Microchip/XC32/bin/bin/../../lib/gcc/pic32c/13.2.1/../../../../pic32c/lib/thumb/v6-m/nofp\libm-fast-emfloat.a(__aeabi_dadd.o)
 .xc_stack_usage
                0x00000000       0x41 C:/Applications/Microchip/XC32/bin/bin/../../lib/gcc/pic32c/13.2.1/../../../../pic32c/lib/thumb/v6-m/nofp\libm-fast-emfloat.a(__aeabi_dadd.o)
 .xc_stack_usage.hdr
                0x00000000        0xe C:/Applications/Microchip/XC32/bin/bin/../../lib/gcc/pic32c/13.2.1/../../../../pic32c/lib/thumb/v6-m/nofp\libm-fast-emfloat.a(__aeabi_fsub.o)
 .xc_stack_usage
                0x00000000       0x1a C:/Applications/Microchip/XC32/bin/bin/../../lib/gcc/pic32c/13.2.1/../../../../pic32c/lib/thumb/v6-m/nofp\libm-fast-emfloat.a(__aeabi_fsub.o)
 .xc_stack_usage.hdr
                0x00000000        0xe C:/Applications/Microchip/XC32/bin/bin/../../lib/gcc/pic32c/13.2.1/../../../../pic32c/lib/thumb/v6-m/nofp\libm-fast-emfloat.a(__aeabi_dsub.o)
 .xc_stack_usage
                0x00000000       0x1a C:/Applications/Microchip/XC32/bin/bin/../../lib/gcc/pic32c/13.2.1/../../../../pic32c/lib/thumb/v6-m/nofp\libm-fast-emfloat.a(__aeabi_dsub.o)
 .xc_stack_usage.hdr
                0x00000000        0xe C:/Applications/Microchip/XC32/bin/bin/../../lib/gcc/pic32c/13.2.1/../../../../pic32c/lib/thumb/v6-m/nofp\libm-fast-emfloat.a(__aeabi_fmul.o)
 .xc_stack_usage
                0x00000000       0x1a C:/Applications/Microchip/XC32/bin/bin/../../lib/gcc/pic32c/13.2.1/../../../../pic32c/lib/thumb/v6-m/nofp\libm-fast-emfloat.a(__aeabi_fmul.o)
 .xc_stack_usage.hdr
                0x00000000        0xe C:/Applications/Microchip/XC32/bin/bin/../../lib/gcc/pic32c/13.2.1/../../../../pic32c/lib/thumb/v6-m/nofp\libm-fast-emfloat.a(__aeabi_dmul_aux.o)
 .xc_stack_usage
                0x00000000       0x38 C:/Applications/Microchip/XC32/bin/bin/../../lib/gcc/pic32c/13.2.1/../../../../pic32c/lib/thumb/v6-m/nofp\libm-fast-emfloat.a(__aeabi_dmul_aux.o)
 .xc_stack_usage.hdr
                0x00000000        0xe C:/Applications/Microchip/XC32/bin/bin/../../lib/gcc/pic32c/13.2.1/../../../../pic32c/lib/thumb/v6-m/nofp\libm-fast-emfloat.a(__aeabi_fdiv.o)
 .xc_stack_usage
                0x00000000       0x1a C:/Applications/Microchip/XC32/bin/bin/../../lib/gcc/pic32c/13.2.1/../../../../pic32c/lib/thumb/v6-m/nofp\libm-fast-emfloat.a(__aeabi_fdiv.o)
 .xc_stack_usage.hdr
                0x00000000        0xe C:/Applications/Microchip/XC32/bin/bin/../../lib/gcc/pic32c/13.2.1/../../../../pic32c/lib/thumb/v6-m/nofp\libm-fast-emfloat.a(__aeabi_ddiv.o)
 .xc_stack_usage
                0x00000000       0x1a C:/Applications/Microchip/XC32/bin/bin/../../lib/gcc/pic32c/13.2.1/../../../../pic32c/lib/thumb/v6-m/nofp\libm-fast-emfloat.a(__aeabi_ddiv.o)
 .xc_stack_usage.hdr
                0x00000000        0xe C:/Applications/Microchip/XC32/bin/bin/../../lib/gcc/pic32c/13.2.1/../../../../pic32c/lib/thumb/v6-m/nofp\libm-fast-emfloat.a(__aeabi_dcmple.o)
 .xc_stack_usage
                0x00000000       0x1c C:/Applications/Microchip/XC32/bin/bin/../../lib/gcc/pic32c/13.2.1/../../../../pic32c/lib/thumb/v6-m/nofp\libm-fast-emfloat.a(__aeabi_dcmple.o)
 .xc_stack_usage.hdr
                0x00000000        0xe C:/Applications/Microchip/XC32/bin/bin/../../lib/gcc/pic32c/13.2.1/../../../../pic32c/lib/thumb/v6-m/nofp\libm-fast-emfloat.a(__aeabi_dcmpeq.o)
 .xc_stack_usage
                0x00000000       0x1c C:/Applications/Microchip/XC32/bin/bin/../../lib/gcc/pic32c/13.2.1/../../../../pic32c/lib/thumb/v6-m/nofp\libm-fast-emfloat.a(__aeabi_dcmpeq.o)
 .xc_stack_usage.hdr
                0x00000000        0xe C:/Applications/Microchip/XC32/bin/bin/../../lib/gcc/pic32c/13.2.1/../../../../pic32c/lib/thumb/v6-m/nofp\libm-fast-emfloat.a(__aeabi_dcmpgt.o)
 .xc_stack_usage
                0x00000000       0x1c C:/Applications/Microchip/XC32/bin/bin/../../lib/gcc/pic32c/13.2.1/../../../../pic32c/lib/thumb/v6-m/nofp\libm-fast-emfloat.a(__aeabi_dcmpgt.o)
 .ARM.attributes
                0x00000000       0x1c C:/Applications/Microchip/XC32/bin/bin/../../lib/gcc/pic32c/13.2.1/../../../../pic32c/lib/thumb/v6-m/nofp\libm-fast-emfloat.a(__aeabi_fcmplt.o)
 .text.__aeabi_fcmplt
                0x00000000       0x2e C:/Applications/Microchip/XC32/bin/bin/../../lib/gcc/pic32c/13.2.1/../../../../pic32c/lib/thumb/v6-m/nofp\libm-fast-emfloat.a(__aeabi_fcmplt.o)
 .xc_stack_usage.hdr
                0x00000000        0xe C:/Applications/Microchip/XC32/bin/bin/../../lib/gcc/pic32c/13.2.1/../../../../pic32c/lib/thumb/v6-m/nofp\libm-fast-emfloat.a(__aeabi_fcmplt.o)
 .xc_stack_usage
                0x00000000       0x1c C:/Applications/Microchip/XC32/bin/bin/../../lib/gcc/pic32c/13.2.1/../../../../pic32c/lib/thumb/v6-m/nofp\libm-fast-emfloat.a(__aeabi_fcmplt.o)
 .xc_stack_usage.hdr
                0x00000000        0xe C:/Applications/Microchip/XC32/bin/bin/../../lib/gcc/pic32c/13.2.1/../../../../pic32c/lib/thumb/v6-m/nofp\libm-fast-emfloat.a(__aeabi_dcmplt.o)
 .xc_stack_usage
                0x00000000       0x1c C:/Applications/Microchip/XC32/bin/bin/../../lib/gcc/pic32c/13.2.1/../../../../pic32c/lib/thumb/v6-m/nofp\libm-fast-emfloat.a(__aeabi_dcmplt.o)
 .xc_stack_usage.hdr
                0x00000000        0xe C:/Applications/Microchip/XC32/bin/bin/../../lib/gcc/pic32c/13.2.1/../../../../pic32c/lib/thumb/v6-m/nofp\libm-fast-emfloat.a(__aeabi_f2iz.o)
 .xc_stack_usage
                0x00000000       0x1a C:/Applications/Microchip/XC32/bin/bin/../../lib/gcc/pic32c/13.2.1/../../../../pic32c/lib/thumb/v6-m/nofp\libm-fast-emfloat.a(__aeabi_f2iz.o)
 .xc_stack_usage.hdr
                0x00000000        0xe C:/Applications/Microchip/XC32/bin/bin/../../lib/gcc/pic32c/13.2.1/../../../../pic32c/lib/thumb/v6-m/nofp\libm-fast-emfloat.a(__aeabi_d2iz.o)
 .xc_stack_usage
                0x00000000       0x1a C:/Applications/Microchip/XC32/bin/bin/../../lib/gcc/pic32c/13.2.1/../../../../pic32c/lib/thumb/v6-m/nofp\libm-fast-emfloat.a(__aeabi_d2iz.o)
 .xc_stack_usage.hdr
                0x00000000        0xe C:/Applications/Microchip/XC32/bin/bin/../../lib/gcc/pic32c/13.2.1/../../../../pic32c/lib/thumb/v6-m/nofp\libm-fast-emfloat.a(__aeabi_f2uiz.o)
 .xc_stack_usage
                0x00000000       0x1b C:/Applications/Microchip/XC32/bin/bin/../../lib/gcc/pic32c/13.2.1/../../../../pic32c/lib/thumb/v6-m/nofp\libm-fast-emfloat.a(__aeabi_f2uiz.o)
 .xc_stack_usage.hdr
                0x00000000        0xe C:/Applications/Microchip/XC32/bin/bin/../../lib/gcc/pic32c/13.2.1/../../../../pic32c/lib/thumb/v6-m/nofp\libm-fast-emfloat.a(__aeabi_d2uiz.o)
 .xc_stack_usage
                0x00000000       0x43 C:/Applications/Microchip/XC32/bin/bin/../../lib/gcc/pic32c/13.2.1/../../../../pic32c/lib/thumb/v6-m/nofp\libm-fast-emfloat.a(__aeabi_d2uiz.o)
 .xc_stack_usage.hdr
                0x00000000        0xe C:/Applications/Microchip/XC32/bin/bin/../../lib/gcc/pic32c/13.2.1/../../../../pic32c/lib/thumb/v6-m/nofp\libm-fast-emfloat.a(__aeabi_i2f.o)
 .xc_stack_usage
                0x00000000       0x19 C:/Applications/Microchip/XC32/bin/bin/../../lib/gcc/pic32c/13.2.1/../../../../pic32c/lib/thumb/v6-m/nofp\libm-fast-emfloat.a(__aeabi_i2f.o)
 .ARM.attributes
                0x00000000       0x1c C:/Applications/Microchip/XC32/bin/bin/../../lib/gcc/pic32c/13.2.1/../../../../pic32c/lib/thumb/v6-m/nofp\libm-fast-emfloat.a(__aeabi_l2f.o)
 .text.__aeabi_l2f
                0x00000000       0x20 C:/Applications/Microchip/XC32/bin/bin/../../lib/gcc/pic32c/13.2.1/../../../../pic32c/lib/thumb/v6-m/nofp\libm-fast-emfloat.a(__aeabi_l2f.o)
 .xc_stack_usage.hdr
                0x00000000        0xe C:/Applications/Microchip/XC32/bin/bin/../../lib/gcc/pic32c/13.2.1/../../../../pic32c/lib/thumb/v6-m/nofp\libm-fast-emfloat.a(__aeabi_l2f.o)
 .xc_stack_usage
                0x00000000       0x19 C:/Applications/Microchip/XC32/bin/bin/../../lib/gcc/pic32c/13.2.1/../../../../pic32c/lib/thumb/v6-m/nofp\libm-fast-emfloat.a(__aeabi_l2f.o)
 .xc_stack_usage.hdr
                0x00000000        0xe C:/Applications/Microchip/XC32/bin/bin/../../lib/gcc/pic32c/13.2.1/../../../../pic32c/lib/thumb/v6-m/nofp\libm-fast-emfloat.a(__aeabi_ui2f.o)
 .xc_stack_usage
                0x00000000       0x1a C:/Applications/Microchip/XC32/bin/bin/../../lib/gcc/pic32c/13.2.1/../../../../pic32c/lib/thumb/v6-m/nofp\libm-fast-emfloat.a(__aeabi_ui2f.o)
 .ARM.attributes
                0x00000000       0x1c C:/Applications/Microchip/XC32/bin/bin/../../lib/gcc/pic32c/13.2.1/../../../../pic32c/lib/thumb/v6-m/nofp\libm-fast-emfloat.a(__aeabi_ul2f.o)
 .text.__aeabi_ul2f
                0x00000000       0x30 C:/Applications/Microchip/XC32/bin/bin/../../lib/gcc/pic32c/13.2.1/../../../../pic32c/lib/thumb/v6-m/nofp\libm-fast-emfloat.a(__aeabi_ul2f.o)
 .xc_stack_usage.hdr
                0x00000000        0xe C:/Applications/Microchip/XC32/bin/bin/../../lib/gcc/pic32c/13.2.1/../../../../pic32c/lib/thumb/v6-m/nofp\libm-fast-emfloat.a(__aeabi_ul2f.o)
 .xc_stack_usage
                0x00000000       0x1a C:/Applications/Microchip/XC32/bin/bin/../../lib/gcc/pic32c/13.2.1/../../../../pic32c/lib/thumb/v6-m/nofp\libm-fast-emfloat.a(__aeabi_ul2f.o)
 .xc_stack_usage.hdr
                0x00000000        0xe C:/Applications/Microchip/XC32/bin/bin/../../lib/gcc/pic32c/13.2.1/../../../../pic32c/lib/thumb/v6-m/nofp\libm-fast-emfloat.a(__aeabi_f2d.o)
 .xc_stack_usage
                0x00000000       0x19 C:/Applications/Microchip/XC32/bin/bin/../../lib/gcc/pic32c/13.2.1/../../../../pic32c/lib/thumb/v6-m/nofp\libm-fast-emfloat.a(__aeabi_f2d.o)
 .xc_stack_usage.hdr
                0x00000000        0xe C:/Applications/Microchip/XC32/bin/bin/../../lib/gcc/pic32c/13.2.1/../../../../pic32c/lib/thumb/v6-m/nofp\libm-fast-emfloat.a(__aeabi_d2f.o)
 .xc_stack_usage
                0x00000000       0x19 C:/Applications/Microchip/XC32/bin/bin/../../lib/gcc/pic32c/13.2.1/../../../../pic32c/lib/thumb/v6-m/nofp\libm-fast-emfloat.a(__aeabi_d2f.o)
 .text          0x00000000        0x0 C:/Applications/Microchip/XC32/bin/bin/../../lib/gcc/pic32c/13.2.1/../../../../pic32c/lib/thumb/v6-m/nofp\libc-size-musl.a(strcpy.o)
 .data          0x00000000        0x0 C:/Applications/Microchip/XC32/bin/bin/../../lib/gcc/pic32c/13.2.1/../../../../pic32c/lib/thumb/v6-m/nofp\libc-size-musl.a(strcpy.o)
 .bss           0x00000000        0x0 C:/Applications/Microchip/XC32/bin/bin/../../lib/gcc/pic32c/13.2.1/../../../../pic32c/lib/thumb/v6-m/nofp\libc-size-musl.a(strcpy.o)
 .xc_stack_usage
                0x00000000       0x14 C:/Applications/Microchip/XC32/bin/bin/../../lib/gcc/pic32c/13.2.1/../../../../pic32c/lib/thumb/v6-m/nofp\libc-size-musl.a(strcpy.o)
 .xc_stack_usage.hdr
                0x00000000        0xe C:/Applications/Microchip/XC32/bin/bin/../../lib/gcc/pic32c/13.2.1/../../../../pic32c/lib/thumb/v6-m/nofp\libc-size-musl.a(strcpy.o)
 .text          0x00000000        0x0 C:/Applications/Microchip/XC32/bin/bin/../../lib/gcc/pic32c/13.2.1/../../../../pic32c/lib/thumb/v6-m/nofp\libc-size-musl.a(stpcpy.o)
 .data          0x00000000        0x0 C:/Applications/Microchip/XC32/bin/bin/../../lib/gcc/pic32c/13.2.1/../../../../pic32c/lib/thumb/v6-m/nofp\libc-size-musl.a(stpcpy.o)
 .bss           0x00000000        0x0 C:/Applications/Microchip/XC32/bin/bin/../../lib/gcc/pic32c/13.2.1/../../../../pic32c/lib/thumb/v6-m/nofp\libc-size-musl.a(stpcpy.o)
 .xc_stack_usage
                0x00000000       0x14 C:/Applications/Microchip/XC32/bin/bin/../../lib/gcc/pic32c/13.2.1/../../../../pic32c/lib/thumb/v6-m/nofp\libc-size-musl.a(stpcpy.o)
 .xc_stack_usage.hdr
                0x00000000        0xe C:/Applications/Microchip/XC32/bin/bin/../../lib/gcc/pic32c/13.2.1/../../../../pic32c/lib/thumb/v6-m/nofp\libc-size-musl.a(stpcpy.o)
 .data          0x00000000        0x0 C:/Applications/Microchip/XC32/bin/bin/../../lib/gcc/pic32c/13.2.1/thumb/v6-m/nofp\libgcc.a(_thumb1_case_uqi.o)
 .bss           0x00000000        0x0 C:/Applications/Microchip/XC32/bin/bin/../../lib/gcc/pic32c/13.2.1/thumb/v6-m/nofp\libgcc.a(_thumb1_case_uqi.o)
 .xc_stack_usage.hdr
                0x00000000        0xe C:/Applications/Microchip/XC32/bin/bin/../../lib/gcc/pic32c/13.2.1/thumb/v6-m/nofp\libgcc.a(_thumb1_case_uqi.o)
 .xc_stack_usage
                0x00000000       0x23 C:/Applications/Microchip/XC32/bin/bin/../../lib/gcc/pic32c/13.2.1/thumb/v6-m/nofp\libgcc.a(_thumb1_case_uqi.o)
 .data          0x00000000        0x0 C:/Applications/Microchip/XC32/bin/bin/../../lib/gcc/pic32c/13.2.1/thumb/v6-m/nofp\libgcc.a(_udivsi3.o)
 .bss           0x00000000        0x0 C:/Applications/Microchip/XC32/bin/bin/../../lib/gcc/pic32c/13.2.1/thumb/v6-m/nofp\libgcc.a(_udivsi3.o)
 .xc_stack_usage.hdr
                0x00000000        0xe C:/Applications/Microchip/XC32/bin/bin/../../lib/gcc/pic32c/13.2.1/thumb/v6-m/nofp\libgcc.a(_udivsi3.o)
 .xc_stack_usage
                0x00000000       0x35 C:/Applications/Microchip/XC32/bin/bin/../../lib/gcc/pic32c/13.2.1/thumb/v6-m/nofp\libgcc.a(_udivsi3.o)
 .data          0x00000000        0x0 C:/Applications/Microchip/XC32/bin/bin/../../lib/gcc/pic32c/13.2.1/thumb/v6-m/nofp\libgcc.a(_divsi3.o)
 .bss           0x00000000        0x0 C:/Applications/Microchip/XC32/bin/bin/../../lib/gcc/pic32c/13.2.1/thumb/v6-m/nofp\libgcc.a(_divsi3.o)
 .xc_stack_usage.hdr
                0x00000000        0xe C:/Applications/Microchip/XC32/bin/bin/../../lib/gcc/pic32c/13.2.1/thumb/v6-m/nofp\libgcc.a(_divsi3.o)
 .xc_stack_usage
                0x00000000       0x33 C:/Applications/Microchip/XC32/bin/bin/../../lib/gcc/pic32c/13.2.1/thumb/v6-m/nofp\libgcc.a(_divsi3.o)
 .data          0x00000000        0x0 C:/Applications/Microchip/XC32/bin/bin/../../lib/gcc/pic32c/13.2.1/thumb/v6-m/nofp\libgcc.a(_dvmd_tls.o)
 .bss           0x00000000        0x0 C:/Applications/Microchip/XC32/bin/bin/../../lib/gcc/pic32c/13.2.1/thumb/v6-m/nofp\libgcc.a(_dvmd_tls.o)
 .xc_stack_usage.hdr
                0x00000000        0xe C:/Applications/Microchip/XC32/bin/bin/../../lib/gcc/pic32c/13.2.1/thumb/v6-m/nofp\libgcc.a(_dvmd_tls.o)
 .xc_stack_usage
                0x00000000       0x36 C:/Applications/Microchip/XC32/bin/bin/../../lib/gcc/pic32c/13.2.1/thumb/v6-m/nofp\libgcc.a(_dvmd_tls.o)
 .data          0x00000000        0x0 C:/Applications/Microchip/XC32/bin/bin/../../lib/gcc/pic32c/13.2.1/thumb/v6-m/nofp\libgcc.a(_aeabi_uldivmod.o)
 .bss           0x00000000        0x0 C:/Applications/Microchip/XC32/bin/bin/../../lib/gcc/pic32c/13.2.1/thumb/v6-m/nofp\libgcc.a(_aeabi_uldivmod.o)
 .xc_stack_usage.hdr
                0x00000000        0xe C:/Applications/Microchip/XC32/bin/bin/../../lib/gcc/pic32c/13.2.1/thumb/v6-m/nofp\libgcc.a(_aeabi_uldivmod.o)
 .xc_stack_usage
                0x00000000       0x1e C:/Applications/Microchip/XC32/bin/bin/../../lib/gcc/pic32c/13.2.1/thumb/v6-m/nofp\libgcc.a(_aeabi_uldivmod.o)
 .data          0x00000000        0x0 C:/Applications/Microchip/XC32/bin/bin/../../lib/gcc/pic32c/13.2.1/thumb/v6-m/nofp\libgcc.a(_muldi3.o)
 .bss           0x00000000        0x0 C:/Applications/Microchip/XC32/bin/bin/../../lib/gcc/pic32c/13.2.1/thumb/v6-m/nofp\libgcc.a(_muldi3.o)
 .xc_stack_usage
                0x00000000       0x16 C:/Applications/Microchip/XC32/bin/bin/../../lib/gcc/pic32c/13.2.1/thumb/v6-m/nofp\libgcc.a(_muldi3.o)
 .xc_stack_usage.hdr
                0x00000000        0xe C:/Applications/Microchip/XC32/bin/bin/../../lib/gcc/pic32c/13.2.1/thumb/v6-m/nofp\libgcc.a(_muldi3.o)
 .data          0x00000000        0x0 C:/Applications/Microchip/XC32/bin/bin/../../lib/gcc/pic32c/13.2.1/thumb/v6-m/nofp\libgcc.a(_udivmoddi4.o)
 .bss           0x00000000        0x0 C:/Applications/Microchip/XC32/bin/bin/../../lib/gcc/pic32c/13.2.1/thumb/v6-m/nofp\libgcc.a(_udivmoddi4.o)
 .xc_stack_usage
                0x00000000       0x1a C:/Applications/Microchip/XC32/bin/bin/../../lib/gcc/pic32c/13.2.1/thumb/v6-m/nofp\libgcc.a(_udivmoddi4.o)
 .ARM.extab     0x00000000        0x0 C:/Applications/Microchip/XC32/bin/bin/../../lib/gcc/pic32c/13.2.1/thumb/v6-m/nofp\libgcc.a(_udivmoddi4.o)
 .xc_stack_usage.hdr
                0x00000000        0xe C:/Applications/Microchip/XC32/bin/bin/../../lib/gcc/pic32c/13.2.1/thumb/v6-m/nofp\libgcc.a(_udivmoddi4.o)
 .data          0x00000000        0x0 C:/Applications/Microchip/XC32/bin/bin/../../lib/gcc/pic32c/13.2.1/thumb/v6-m/nofp\libgcc.a(_lshrdi3.o)
 .bss           0x00000000        0x0 C:/Applications/Microchip/XC32/bin/bin/../../lib/gcc/pic32c/13.2.1/thumb/v6-m/nofp\libgcc.a(_lshrdi3.o)
 .xc_stack_usage.hdr
                0x00000000        0xe C:/Applications/Microchip/XC32/bin/bin/../../lib/gcc/pic32c/13.2.1/thumb/v6-m/nofp\libgcc.a(_lshrdi3.o)
 .xc_stack_usage
                0x00000000       0x17 C:/Applications/Microchip/XC32/bin/bin/../../lib/gcc/pic32c/13.2.1/thumb/v6-m/nofp\libgcc.a(_lshrdi3.o)
 .data          0x00000000        0x0 C:/Applications/Microchip/XC32/bin/bin/../../lib/gcc/pic32c/13.2.1/thumb/v6-m/nofp\libgcc.a(_ashldi3.o)
 .bss           0x00000000        0x0 C:/Applications/Microchip/XC32/bin/bin/../../lib/gcc/pic32c/13.2.1/thumb/v6-m/nofp\libgcc.a(_ashldi3.o)
 .xc_stack_usage.hdr
                0x00000000        0xe C:/Applications/Microchip/XC32/bin/bin/../../lib/gcc/pic32c/13.2.1/thumb/v6-m/nofp\libgcc.a(_ashldi3.o)
 .xc_stack_usage
                0x00000000       0x17 C:/Applications/Microchip/XC32/bin/bin/../../lib/gcc/pic32c/13.2.1/thumb/v6-m/nofp\libgcc.a(_ashldi3.o)
 .data          0x00000000        0x0 C:/Applications/Microchip/XC32/bin/bin/../../lib/gcc/pic32c/13.2.1/thumb/v6-m/nofp\libgcc.a(_clzdi2.o)
 .bss           0x00000000        0x0 C:/Applications/Microchip/XC32/bin/bin/../../lib/gcc/pic32c/13.2.1/thumb/v6-m/nofp\libgcc.a(_clzdi2.o)
 .xc_stack_usage.hdr
                0x00000000        0xe C:/Applications/Microchip/XC32/bin/bin/../../lib/gcc/pic32c/13.2.1/thumb/v6-m/nofp\libgcc.a(_clzdi2.o)
 .xc_stack_usage
                0x00000000       0x16 C:/Applications/Microchip/XC32/bin/bin/../../lib/gcc/pic32c/13.2.1/thumb/v6-m/nofp\libgcc.a(_clzdi2.o)
 .data          0x00000000        0x0 C:/Applications/Microchip/XC32/bin/bin/../../lib/gcc/pic32c/13.2.1/thumb/v6-m/nofp\libgcc.a(_clzsi2.o)
 .bss           0x00000000        0x0 C:/Applications/Microchip/XC32/bin/bin/../../lib/gcc/pic32c/13.2.1/thumb/v6-m/nofp\libgcc.a(_clzsi2.o)
 .xc_stack_usage.hdr
                0x00000000        0xe C:/Applications/Microchip/XC32/bin/bin/../../lib/gcc/pic32c/13.2.1/thumb/v6-m/nofp\libgcc.a(_clzsi2.o)
 .xc_stack_usage
                0x00000000       0x16 C:/Applications/Microchip/XC32/bin/bin/../../lib/gcc/pic32c/13.2.1/thumb/v6-m/nofp\libgcc.a(_clzsi2.o)
 .text          0x00000000        0x0 C:/Applications/Microchip/XC32/bin/bin/../../lib/gcc/pic32c/13.2.1/thumb/v6-m/nofp/crtend.o
 .data          0x00000000        0x0 C:/Applications/Microchip/XC32/bin/bin/../../lib/gcc/pic32c/13.2.1/thumb/v6-m/nofp/crtend.o
 .bss           0x00000000        0x0 C:/Applications/Microchip/XC32/bin/bin/../../lib/gcc/pic32c/13.2.1/thumb/v6-m/nofp/crtend.o
 .rodata        0x00000000       0x24 C:/Applications/Microchip/XC32/bin/bin/../../lib/gcc/pic32c/13.2.1/thumb/v6-m/nofp/crtend.o
 .eh_frame      0x00000000        0x4 C:/Applications/Microchip/XC32/bin/bin/../../lib/gcc/pic32c/13.2.1/thumb/v6-m/nofp/crtend.o
 .xc_stack_usage.hdr
                0x00000000        0xe C:/Applications/Microchip/XC32/bin/bin/../../lib/gcc/pic32c/13.2.1/thumb/v6-m/nofp/crtend.o
 .comment       0x00000000       0x36 C:/Applications/Microchip/XC32/bin/bin/../../lib/gcc/pic32c/13.2.1/thumb/v6-m/nofp/crtend.o
 .ARM.attributes
                0x00000000       0x2c C:/Applications/Microchip/XC32/bin/bin/../../lib/gcc/pic32c/13.2.1/thumb/v6-m/nofp/crtend.o
 .text          0x00000000        0x0 C:/Applications/Microchip/XC32/bin/bin/../../lib/gcc/pic32c/13.2.1/thumb/v6-m/nofp/crtn.o
 .data          0x00000000        0x0 C:/Applications/Microchip/XC32/bin/bin/../../lib/gcc/pic32c/13.2.1/thumb/v6-m/nofp/crtn.o
 .bss           0x00000000        0x0 C:/Applications/Microchip/XC32/bin/bin/../../lib/gcc/pic32c/13.2.1/thumb/v6-m/nofp/crtn.o
 .xc_stack_usage.hdr
                0x00000000        0xe C:/Applications/Microchip/XC32/bin/bin/../../lib/gcc/pic32c/13.2.1/thumb/v6-m/nofp/crtn.o
 .text          0x00000000        0x0 C:/Applications/Microchip/XC32/bin/bin/../../lib/gcc/pic32c/13.2.1/../../../../pic32c/lib/thumb/v6-m/nofp\libpic32c.a(pic32_data_init_clear.o)
 .data          0x00000000        0x0 C:/Applications/Microchip/XC32/bin/bin/../../lib/gcc/pic32c/13.2.1/../../../../pic32c/lib/thumb/v6-m/nofp\libpic32c.a(pic32_data_init_clear.o)
 .bss           0x00000000        0x0 C:/Applications/Microchip/XC32/bin/bin/../../lib/gcc/pic32c/13.2.1/../../../../pic32c/lib/thumb/v6-m/nofp\libpic32c.a(pic32_data_init_clear.o)
 .xc_stack_usage
                0x00000000       0x1b C:/Applications/Microchip/XC32/bin/bin/../../lib/gcc/pic32c/13.2.1/../../../../pic32c/lib/thumb/v6-m/nofp\libpic32c.a(pic32_data_init_clear.o)
 .xc_stack_usage.hdr
                0x00000000        0xe C:/Applications/Microchip/XC32/bin/bin/../../lib/gcc/pic32c/13.2.1/../../../../pic32c/lib/thumb/v6-m/nofp\libpic32c.a(pic32_data_init_clear.o)
 .text          0x00000000        0x0 C:/Applications/Microchip/XC32/bin/bin/../../lib/gcc/pic32c/13.2.1/../../../../pic32c/lib/thumb/v6-m/nofp\libpic32c.a(pic32_data_init_copy.o)
 .data          0x00000000        0x0 C:/Applications/Microchip/XC32/bin/bin/../../lib/gcc/pic32c/13.2.1/../../../../pic32c/lib/thumb/v6-m/nofp\libpic32c.a(pic32_data_init_copy.o)
 .bss           0x00000000        0x0 C:/Applications/Microchip/XC32/bin/bin/../../lib/gcc/pic32c/13.2.1/../../../../pic32c/lib/thumb/v6-m/nofp\libpic32c.a(pic32_data_init_copy.o)
 .xc_stack_usage
                0x00000000       0x1a C:/Applications/Microchip/XC32/bin/bin/../../lib/gcc/pic32c/13.2.1/../../../../pic32c/lib/thumb/v6-m/nofp\libpic32c.a(pic32_data_init_copy.o)
 .xc_stack_usage.hdr
                0x00000000        0xe C:/Applications/Microchip/XC32/bin/bin/../../lib/gcc/pic32c/13.2.1/../../../../pic32c/lib/thumb/v6-m/nofp\libpic32c.a(pic32_data_init_copy.o)

Memory Configuration

Name             Origin             Length             Attributes
rom              0x00000000         0x00080000         xrl
ram              0x20000000         0x00010000         xw!r
config_00804000  0x00804000         0x00000004
config_00804004  0x00804004         0x00000004
*default*        0x00000000         0xffffffff

Linker script and memory map

LOAD C:/Applications/Microchip/XC32/bin/bin/../../lib/gcc/pic32c/13.2.1/thumb/v6-m/nofp/crti.o
LOAD C:/Applications/Microchip/XC32/bin/bin/../../lib/gcc/pic32c/13.2.1/thumb/v6-m/nofp/crtbegin.o
LOAD build/default/production/_ext/158385033/drv_i2c.o
LOAD build/default/production/_ext/2070931557/drv_spi.o
LOAD build/default/production/_ext/869808652/drv_usart.o
LOAD build/default/production/_ext/829343244/plib_ac.o
LOAD build/default/production/_ext/60163342/plib_adc0.o
LOAD build/default/production/_ext/60165182/plib_can0.o
LOAD build/default/production/_ext/60165242/plib_ccl.o
LOAD build/default/production/_ext/1984496892/plib_clock.o
LOAD build/default/production/_ext/60166132/plib_dac.o
LOAD build/default/production/_ext/1985337713/plib_divas.o
LOAD build/default/production/_ext/1865161661/plib_dmac.o
LOAD build/default/production/_ext/60167341/plib_eic.o
LOAD build/default/production/_ext/1986646378/plib_evsys.o
LOAD build/default/production/_ext/1987437027/plib_freqm.o
LOAD build/default/production/_ext/1865468468/plib_nvic.o
LOAD build/default/production/_ext/1593096446/plib_nvmctrl.o
LOAD build/default/production/_ext/1865510628/plib_pdec.o
LOAD build/default/production/_ext/829342769/plib_pm.o
LOAD build/default/production/_ext/1865521619/plib_port.o
LOAD build/default/production/_ext/1865585090/plib_rstc.o
LOAD build/default/production/_ext/60180175/plib_rtc_clock.o
LOAD build/default/production/_ext/508257091/plib_sercom3_i2c_master.o
LOAD build/default/production/_ext/17022449/plib_sercom2_spi_master.o
LOAD build/default/production/_ext/504274921/plib_sercom1_usart.o
LOAD build/default/production/_ext/504274921/plib_sercom0_usart.o
LOAD build/default/production/_ext/1865616679/plib_supc.o
LOAD build/default/production/_ext/1827571544/plib_systick.o
LOAD build/default/production/_ext/829342655/plib_tc0.o
LOAD build/default/production/_ext/60181570/plib_tcc1.o
LOAD build/default/production/_ext/60181570/plib_tcc0.o
LOAD build/default/production/_ext/60184501/plib_wdt.o
LOAD build/default/production/_ext/163028504/xc32_monitor.o
LOAD build/default/production/_ext/1832805299/sys_console_uart.o
LOAD build/default/production/_ext/1832805299/sys_console.o
LOAD build/default/production/_ext/14461671/sys_dma.o
LOAD build/default/production/_ext/1881668453/sys_int.o
LOAD build/default/production/_ext/101884895/sys_time.o
LOAD build/default/production/_ext/1171490990/tasks.o
LOAD build/default/production/_ext/1171490990/initialization.o
LOAD build/default/production/_ext/1171490990/interrupts.o
LOAD build/default/production/_ext/1171490990/exceptions.o
LOAD build/default/production/_ext/1171490990/startup_xc32.o
LOAD build/default/production/_ext/1171490990/libc_syscalls.o
LOAD build/default/production/_ext/1360937237/can0_driver.o
LOAD build/default/production/_ext/1360937237/sht4x_driver.o
LOAD build/default/production/_ext/1360937237/rstc_driver.o
LOAD build/default/production/_ext/1360937237/ad9954_driver.o
LOAD build/default/production/_ext/1360937237/rtc_driver.o
LOAD build/default/production/_ext/1360937237/mcp9808_driver.o
LOAD build/default/production/_ext/1360937237/bme690_driver.o
LOAD build/default/production/_ext/1360937237/fcm360w_driver.o
LOAD build/default/production/_ext/1360937237/console_driver.o
LOAD build/default/production/_ext/1360937237/hdc302x_driver.o
LOAD build/default/production/_ext/1360937237/fan_driver.o
LOAD build/default/production/_ext/1360937237/ntc_driver.o
LOAD build/default/production/_ext/1360937237/timer_driver.o
LOAD build/default/production/_ext/1360937237/xm125_driver.o
LOAD build/default/production/_ext/1360937237/ws281x_driver.o
LOAD build/default/production/_ext/1360937237/vcnl4200_driver.o
LOAD build/default/production/_ext/1360937237/sen63c_driver.o
LOAD build/default/production/_ext/1360937237/ssd1306_driver.o
LOAD build/default/production/_ext/1360937237/app.o
LOAD build/default/production/_ext/1360937237/main.o
LOAD build/default/production/_ext/1360937237/stcc4_driver.o
LOAD build/default/production/_ext/1360937237/bmp585_driver.o
                0x00000001                        __MPLAB_BUILD = 0x1
                0x00080000                        __rom_end = (ORIGIN (rom) + LENGTH (rom))
                0x20010000                        __ram_end = (ORIGIN (ram) + LENGTH (ram))

.config_00804000
                0x00804000        0x4
 *(.config_00804000)
 .config_00804000
                0x00804000        0x4 build/default/production/_ext/1171490990/initialization.o
                0x00804000                __config_00804000

.config_00804004
                0x00804004        0x4
 *(.config_00804004)
 .config_00804004
                0x00804004        0x4 build/default/production/_ext/1171490990/initialization.o
                0x00804004                __config_00804004

.vectors        0x00000000       0xc0
                0x00000000                        . = ALIGN (0x4)
                0x00000000                        _sfixed = .
 *(.vectors .vectors.* .vectors_default .vectors_default.*)
 .vectors       0x00000000       0xc0 build/default/production/_ext/1171490990/interrupts.o
                0x00000000                exception_table
 *(.isr_vector)
 *(.reset*)
 *(.after_vectors)

.text           0x000000c0       0x20
                0x000000c0                        . = ALIGN (0x4)
 *(.glue_7t)
 .glue_7t       0x000000c0        0x0 linker stubs
 *(.glue_7)
 .glue_7        0x000000c0        0x0 linker stubs
 *(.gnu.linkonce.r.*)
 *(.ARM.extab* .gnu.linkonce.armextab.*)
                0x000000c0                        . = ALIGN (0x4)
 *(.init)
 .init          0x000000c0        0x4 C:/Applications/Microchip/XC32/bin/bin/../../lib/gcc/pic32c/13.2.1/thumb/v6-m/nofp/crti.o
                0x000000c0                _init
 .init          0x000000c4        0x8 C:/Applications/Microchip/XC32/bin/bin/../../lib/gcc/pic32c/13.2.1/thumb/v6-m/nofp/crtn.o
                0x000000cc                        . = ALIGN (0x4)
                0x000000cc                        __preinit_array_start = .
 *(.preinit_array)
                0x000000cc                        __preinit_array_end = .
                0x000000cc                        . = ALIGN (0x4)
                0x000000cc                        __init_array_start = .
 *(SORT_BY_NAME(.init_array.*))
 *(.init_array)
 .init_array    0x000000cc        0x4 C:/Applications/Microchip/XC32/bin/bin/../../lib/gcc/pic32c/13.2.1/thumb/v6-m/nofp/crtbegin.o
                0x000000d0                        __init_array_end = .
                0x000000d0                        . = ALIGN (0x4)
 *crtbegin.o(.ctors)
 *(EXCLUDE_FILE(*crtend.o) .ctors)
 *(SORT_BY_NAME(.ctors.*))
 *crtend.o(.ctors)
                0x000000d0                        . = ALIGN (0x4)
 *(.fini)
 .fini          0x000000d0        0x4 C:/Applications/Microchip/XC32/bin/bin/../../lib/gcc/pic32c/13.2.1/thumb/v6-m/nofp/crti.o
                0x000000d0                _fini
 .fini          0x000000d4        0x8 C:/Applications/Microchip/XC32/bin/bin/../../lib/gcc/pic32c/13.2.1/thumb/v6-m/nofp/crtn.o
                0x000000dc                        . = ALIGN (0x4)
                0x000000dc                        __fini_array_start = .
 *(.fini_array)
 .fini_array    0x000000dc        0x4 C:/Applications/Microchip/XC32/bin/bin/../../lib/gcc/pic32c/13.2.1/thumb/v6-m/nofp/crtbegin.o
 *(SORT_BY_NAME(.fini_array.*))
                0x000000e0                        __fini_array_end = .
 *crtbegin.o(.dtors)
 *(EXCLUDE_FILE(*crtend.o) .dtors)
 *(SORT_BY_NAME(.dtors.*))
 *crtend.o(.dtors)
                0x000000e0                        . = ALIGN (0x4)
                0x000000e0                        _efixed = .
                [!provide]                        PROVIDE (__exidx_start = .)

.ARM.exidx      0x000000e0        0x8
 *(.ARM.exidx* .gnu.linkonce.armexidx.*)
 .ARM.exidx     0x000000e0        0x8 C:/Applications/Microchip/XC32/bin/bin/../../lib/gcc/pic32c/13.2.1/thumb/v6-m/nofp\libgcc.a(_udivmoddi4.o)
                [!provide]                        PROVIDE (__exidx_end = .)
                0x000000e8                        . = ALIGN (0x4)
                0x000000e8                        _etext = .

.bss            0x20000000        0x0
                0x20000000                        . = ALIGN (0x4)
                0x20000000                        __bss_start__ = .
                0x20000000                        _sbss = .
                0x20000000                        _szero = .
 *(COMMON)
                0x20000000                        . = ALIGN (0x4)
                0x20000000                        __bss_end__ = .
                0x20000000                        _ebss = .
                0x20000000                        _ezero = .
                0x20000000                        . = ALIGN (0x4)
                0x20000000                        _end = .
                0x2000ffff                        _ram_end_ = ((ORIGIN (ram) + LENGTH (ram)) - 0x1)
                0x00000200                        _min_heap_size = 0x200
START GROUP
LOAD C:/Applications/Microchip/XC32/bin/bin/../../lib/gcc/pic32c/13.2.1/../../../../pic32c/lib/thumb/v6-m/nofp\libpic32c.a
LOAD C:/Applications/Microchip/XC32/bin/bin/../../lib/gcc/pic32c/13.2.1/../../../../pic32c/lib/thumb/v6-m/nofp\libc-size-musl.a
LOAD C:/Applications/Microchip/XC32/bin/bin/../../lib/gcc/pic32c/13.2.1/../../../../pic32c/lib/thumb/v6-m/nofp\liblmalloc-musl.a
LOAD C:/Applications/Microchip/XC32/bin/bin/../../lib/gcc/pic32c/13.2.1/../../../../pic32c/lib/thumb/v6-m/nofp\libc-musl.a
LOAD C:/Applications/Microchip/XC32/bin/bin/../../lib/gcc/pic32c/13.2.1/../../../../pic32c/lib/thumb/v6-m/nofp\libm-fast-emfloat.a
LOAD C:/Applications/Microchip/XC32/bin/bin/../../lib/gcc/pic32c/13.2.1/../../../../pic32c/lib/thumb/v6-m/nofp\libm-musl.a
END GROUP
LOAD C:/Applications/Microchip/XC32/bin/bin/../../lib/gcc/pic32c/13.2.1/thumb/v6-m/nofp\libgcc.a
LOAD C:/Applications/Microchip/XC32/bin/bin/../../lib/gcc/pic32c/13.2.1/thumb/v6-m/nofp/crtend.o
LOAD C:/Applications/Microchip/XC32/bin/bin/../../lib/gcc/pic32c/13.2.1/thumb/v6-m/nofp/crtn.o
OUTPUT(dist/default/production/PIC32CMxxxxJH01_DRIVER.X.production.elf elf32-littlearm)
LOAD linker stubs
LOAD data_init

.note           0x00000000      0xb28
 .note          0x00000000       0x18 C:/Applications/Microchip/XC32/bin/bin/../../lib/gcc/pic32c/13.2.1/thumb/v6-m/nofp/crti.o
 .note          0x00000018       0x18 C:/Applications/Microchip/XC32/bin/bin/../../lib/gcc/pic32c/13.2.1/thumb/v6-m/nofp/crtbegin.o
 .note          0x00000030       0x18 build/default/production/_ext/158385033/drv_i2c.o
 .note          0x00000048       0x18 build/default/production/_ext/2070931557/drv_spi.o
 .note          0x00000060       0x18 build/default/production/_ext/869808652/drv_usart.o
 .note          0x00000078       0x18 build/default/production/_ext/829343244/plib_ac.o
 .note          0x00000090       0x18 build/default/production/_ext/60163342/plib_adc0.o
 .note          0x000000a8       0x18 build/default/production/_ext/60165182/plib_can0.o
 .note          0x000000c0       0x18 build/default/production/_ext/60165242/plib_ccl.o
 .note          0x000000d8       0x18 build/default/production/_ext/1984496892/plib_clock.o
 .note          0x000000f0       0x18 build/default/production/_ext/60166132/plib_dac.o
 .note          0x00000108       0x18 build/default/production/_ext/1985337713/plib_divas.o
 .note          0x00000120       0x18 build/default/production/_ext/1865161661/plib_dmac.o
 .note          0x00000138       0x18 build/default/production/_ext/60167341/plib_eic.o
 .note          0x00000150       0x18 build/default/production/_ext/1986646378/plib_evsys.o
 .note          0x00000168       0x18 build/default/production/_ext/1987437027/plib_freqm.o
 .note          0x00000180       0x18 build/default/production/_ext/1865468468/plib_nvic.o
 .note          0x00000198       0x18 build/default/production/_ext/1593096446/plib_nvmctrl.o
 .note          0x000001b0       0x18 build/default/production/_ext/1865510628/plib_pdec.o
 .note          0x000001c8       0x18 build/default/production/_ext/829342769/plib_pm.o
 .note          0x000001e0       0x18 build/default/production/_ext/1865521619/plib_port.o
 .note          0x000001f8       0x18 build/default/production/_ext/1865585090/plib_rstc.o
 .note          0x00000210       0x18 build/default/production/_ext/60180175/plib_rtc_clock.o
 .note          0x00000228       0x18 build/default/production/_ext/508257091/plib_sercom3_i2c_master.o
 .note          0x00000240       0x18 build/default/production/_ext/17022449/plib_sercom2_spi_master.o
 .note          0x00000258       0x18 build/default/production/_ext/504274921/plib_sercom1_usart.o
 .note          0x00000270       0x18 build/default/production/_ext/504274921/plib_sercom0_usart.o
 .note          0x00000288       0x18 build/default/production/_ext/1865616679/plib_supc.o
 .note          0x000002a0       0x18 build/default/production/_ext/1827571544/plib_systick.o
 .note          0x000002b8       0x18 build/default/production/_ext/829342655/plib_tc0.o
 .note          0x000002d0       0x18 build/default/production/_ext/60181570/plib_tcc1.o
 .note          0x000002e8       0x18 build/default/production/_ext/60181570/plib_tcc0.o
 .note          0x00000300       0x18 build/default/production/_ext/60184501/plib_wdt.o
 .note          0x00000318       0x18 build/default/production/_ext/163028504/xc32_monitor.o
 .note          0x00000330       0x18 build/default/production/_ext/1832805299/sys_console_uart.o
 .note          0x00000348       0x18 build/default/production/_ext/1832805299/sys_console.o
 .note          0x00000360       0x18 build/default/production/_ext/14461671/sys_dma.o
 .note          0x00000378       0x18 build/default/production/_ext/1881668453/sys_int.o
 .note          0x00000390       0x18 build/default/production/_ext/101884895/sys_time.o
 .note          0x000003a8       0x18 build/default/production/_ext/1171490990/tasks.o
 .note          0x000003c0       0x78 build/default/production/_ext/1171490990/initialization.o
 .note          0x00000438       0x18 build/default/production/_ext/1171490990/interrupts.o
 .note          0x00000450       0x18 build/default/production/_ext/1171490990/exceptions.o
 .note          0x00000468       0x18 build/default/production/_ext/1171490990/startup_xc32.o
 .note          0x00000480       0x18 build/default/production/_ext/1171490990/libc_syscalls.o
 .note          0x00000498       0x18 build/default/production/_ext/1360937237/can0_driver.o
 .note          0x000004b0       0x18 build/default/production/_ext/1360937237/sht4x_driver.o
 .note          0x000004c8       0x18 build/default/production/_ext/1360937237/rstc_driver.o
 .note          0x000004e0       0x18 build/default/production/_ext/1360937237/ad9954_driver.o
 .note          0x000004f8       0x18 build/default/production/_ext/1360937237/rtc_driver.o
 .note          0x00000510       0x18 build/default/production/_ext/1360937237/mcp9808_driver.o
 .note          0x00000528       0x18 build/default/production/_ext/1360937237/bme690_driver.o
 .note          0x00000540       0x18 build/default/production/_ext/1360937237/fcm360w_driver.o
 .note          0x00000558       0x18 build/default/production/_ext/1360937237/console_driver.o
 .note          0x00000570       0x18 build/default/production/_ext/1360937237/hdc302x_driver.o
 .note          0x00000588       0x18 build/default/production/_ext/1360937237/fan_driver.o
 .note          0x000005a0       0x18 build/default/production/_ext/1360937237/ntc_driver.o
 .note          0x000005b8       0x18 build/default/production/_ext/1360937237/timer_driver.o
 .note          0x000005d0       0x18 build/default/production/_ext/1360937237/xm125_driver.o
 .note          0x000005e8       0x18 build/default/production/_ext/1360937237/ws281x_driver.o
 .note          0x00000600       0x18 build/default/production/_ext/1360937237/vcnl4200_driver.o
 .note          0x00000618       0x18 build/default/production/_ext/1360937237/sen63c_driver.o
 .note          0x00000630       0x18 build/default/production/_ext/1360937237/ssd1306_driver.o
 .note          0x00000648       0x18 build/default/production/_ext/1360937237/app.o
 .note          0x00000660       0x18 build/default/production/_ext/1360937237/main.o
 .note          0x00000678       0x18 build/default/production/_ext/1360937237/stcc4_driver.o
 .note          0x00000690       0x18 build/default/production/_ext/1360937237/bmp585_driver.o
 .note          0x000006a8       0x18 C:/Applications/Microchip/XC32/bin/bin/../../lib/gcc/pic32c/13.2.1/../../../../pic32c/lib/thumb/v6-m/nofp\libpic32c.a(data_init.o)
 .note          0x000006c0       0x18 C:/Applications/Microchip/XC32/bin/bin/../../lib/gcc/pic32c/13.2.1/../../../../pic32c/lib/thumb/v6-m/nofp\libc-size-musl.a(memcpy.o)
 .note          0x000006d8       0x18 C:/Applications/Microchip/XC32/bin/bin/../../lib/gcc/pic32c/13.2.1/../../../../pic32c/lib/thumb/v6-m/nofp\libc-size-musl.a(memset.o)
 .note          0x000006f0       0x18 C:/Applications/Microchip/XC32/bin/bin/../../lib/gcc/pic32c/13.2.1/../../../../pic32c/lib/thumb/v6-m/nofp\libc-size-musl.a(strlen.o)
 .note          0x00000708       0x18 C:/Applications/Microchip/XC32/bin/bin/../../lib/gcc/pic32c/13.2.1/../../../../pic32c/lib/thumb/v6-m/nofp\libc-size-musl.a(strstr.o)
 .note          0x00000720       0x18 C:/Applications/Microchip/XC32/bin/bin/../../lib/gcc/pic32c/13.2.1/../../../../pic32c/lib/thumb/v6-m/nofp\libc-size-musl.a(strchr.o)
 .note          0x00000738       0x18 C:/Applications/Microchip/XC32/bin/bin/../../lib/gcc/pic32c/13.2.1/../../../../pic32c/lib/thumb/v6-m/nofp\libc-size-musl.a(strchrnul.o)
 .note          0x00000750       0x18 C:/Applications/Microchip/XC32/bin/bin/../../lib/gcc/pic32c/13.2.1/../../../../pic32c/lib/thumb/v6-m/nofp\libc-musl.a(__libc_start_main.o)
 .note          0x00000768       0x18 C:/Applications/Microchip/XC32/bin/bin/../../lib/gcc/pic32c/13.2.1/../../../../pic32c/lib/thumb/v6-m/nofp\libc-musl.a(libc.o)
 .note          0x00000780       0x18 C:/Applications/Microchip/XC32/bin/bin/../../lib/gcc/pic32c/13.2.1/../../../../pic32c/lib/thumb/v6-m/nofp\libc-musl.a(vsnprintf.o)
 .note          0x00000798       0x18 C:/Applications/Microchip/XC32/bin/bin/../../lib/gcc/pic32c/13.2.1/../../../../pic32c/lib/thumb/v6-m/nofp\libc-musl.a(sprintf.o)
 .note          0x000007b0       0x18 C:/Applications/Microchip/XC32/bin/bin/../../lib/gcc/pic32c/13.2.1/../../../../pic32c/lib/thumb/v6-m/nofp\libc-musl.a(vsprintf.o)
 .note          0x000007c8       0x18 C:/Applications/Microchip/XC32/bin/bin/../../lib/gcc/pic32c/13.2.1/../../../../pic32c/lib/thumb/v6-m/nofp\libc-musl.a(__environ.o)
 .note          0x000007e0       0x18 C:/Applications/Microchip/XC32/bin/bin/../../lib/gcc/pic32c/13.2.1/../../../../pic32c/lib/thumb/v6-m/nofp\libc-musl.a(__errno_location.o)
 .note          0x000007f8       0x18 C:/Applications/Microchip/XC32/bin/bin/../../lib/gcc/pic32c/13.2.1/../../../../pic32c/lib/thumb/v6-m/nofp\libc-musl.a(vfprintf.o)
 .note          0x00000810       0x18 C:/Applications/Microchip/XC32/bin/bin/../../lib/gcc/pic32c/13.2.1/../../../../pic32c/lib/thumb/v6-m/nofp\libc-musl.a(__io_fmt_needed.o)
 .note          0x00000828       0x18 C:/Applications/Microchip/XC32/bin/bin/../../lib/gcc/pic32c/13.2.1/../../../../pic32c/lib/thumb/v6-m/nofp\libc-musl.a(__pop_float.o)
 .note          0x00000840       0x18 C:/Applications/Microchip/XC32/bin/bin/../../lib/gcc/pic32c/13.2.1/../../../../pic32c/lib/thumb/v6-m/nofp\libc-musl.a(__pop_int.o)
 .note          0x00000858       0x18 C:/Applications/Microchip/XC32/bin/bin/../../lib/gcc/pic32c/13.2.1/../../../../pic32c/lib/thumb/v6-m/nofp\libc-musl.a(__pop_ptr.o)
 .note          0x00000870       0x18 C:/Applications/Microchip/XC32/bin/bin/../../lib/gcc/pic32c/13.2.1/../../../../pic32c/lib/thumb/v6-m/nofp\libc-musl.a(__printf_core.o)
 .note          0x00000888       0x18 C:/Applications/Microchip/XC32/bin/bin/../../lib/gcc/pic32c/13.2.1/../../../../pic32c/lib/thumb/v6-m/nofp\libc-musl.a(atoi.o)
 .note          0x000008a0       0x18 C:/Applications/Microchip/XC32/bin/bin/../../lib/gcc/pic32c/13.2.1/../../../../pic32c/lib/thumb/v6-m/nofp\libc-musl.a(tolower.o)
 .note          0x000008b8       0x18 C:/Applications/Microchip/XC32/bin/bin/../../lib/gcc/pic32c/13.2.1/../../../../pic32c/lib/thumb/v6-m/nofp\libc-musl.a(__fmt_a.o)
 .note          0x000008d0       0x18 C:/Applications/Microchip/XC32/bin/bin/../../lib/gcc/pic32c/13.2.1/../../../../pic32c/lib/thumb/v6-m/nofp\libc-musl.a(__fmt_d.o)
 .note          0x000008e8       0x18 C:/Applications/Microchip/XC32/bin/bin/../../lib/gcc/pic32c/13.2.1/../../../../pic32c/lib/thumb/v6-m/nofp\libc-musl.a(__fmt_fp.o)
 .note          0x00000900       0x18 C:/Applications/Microchip/XC32/bin/bin/../../lib/gcc/pic32c/13.2.1/../../../../pic32c/lib/thumb/v6-m/nofp\libc-musl.a(__fmt_o.o)
 .note          0x00000918       0x18 C:/Applications/Microchip/XC32/bin/bin/../../lib/gcc/pic32c/13.2.1/../../../../pic32c/lib/thumb/v6-m/nofp\libc-musl.a(__fmt_s.o)
 .note          0x00000930       0x18 C:/Applications/Microchip/XC32/bin/bin/../../lib/gcc/pic32c/13.2.1/../../../../pic32c/lib/thumb/v6-m/nofp\libc-musl.a(__fmt_u.o)
 .note          0x00000948       0x18 C:/Applications/Microchip/XC32/bin/bin/../../lib/gcc/pic32c/13.2.1/../../../../pic32c/lib/thumb/v6-m/nofp\libc-musl.a(__fmt_x.o)
 .note          0x00000960       0x18 C:/Applications/Microchip/XC32/bin/bin/../../lib/gcc/pic32c/13.2.1/../../../../pic32c/lib/thumb/v6-m/nofp\libc-musl.a(toupper.o)
 .note          0x00000978       0x18 C:/Applications/Microchip/XC32/bin/bin/../../lib/gcc/pic32c/13.2.1/../../../../pic32c/lib/thumb/v6-m/nofp\libc-musl.a(__cvt_u.o)
 .note          0x00000990       0x18 C:/Applications/Microchip/XC32/bin/bin/../../lib/gcc/pic32c/13.2.1/../../../../pic32c/lib/thumb/v6-m/nofp\libc-size-musl.a(strcpy.o)
 .note          0x000009a8       0x18 C:/Applications/Microchip/XC32/bin/bin/../../lib/gcc/pic32c/13.2.1/../../../../pic32c/lib/thumb/v6-m/nofp\libc-size-musl.a(stpcpy.o)
 .note          0x000009c0       0x18 C:/Applications/Microchip/XC32/bin/bin/../../lib/gcc/pic32c/13.2.1/thumb/v6-m/nofp\libgcc.a(_thumb1_case_uqi.o)
 .note          0x000009d8       0x18 C:/Applications/Microchip/XC32/bin/bin/../../lib/gcc/pic32c/13.2.1/thumb/v6-m/nofp\libgcc.a(_udivsi3.o)
 .note          0x000009f0       0x18 C:/Applications/Microchip/XC32/bin/bin/../../lib/gcc/pic32c/13.2.1/thumb/v6-m/nofp\libgcc.a(_divsi3.o)
 .note          0x00000a08       0x18 C:/Applications/Microchip/XC32/bin/bin/../../lib/gcc/pic32c/13.2.1/thumb/v6-m/nofp\libgcc.a(_dvmd_tls.o)
 .note          0x00000a20       0x18 C:/Applications/Microchip/XC32/bin/bin/../../lib/gcc/pic32c/13.2.1/thumb/v6-m/nofp\libgcc.a(_aeabi_uldivmod.o)
 .note          0x00000a38       0x18 C:/Applications/Microchip/XC32/bin/bin/../../lib/gcc/pic32c/13.2.1/thumb/v6-m/nofp\libgcc.a(_muldi3.o)
 .note          0x00000a50       0x18 C:/Applications/Microchip/XC32/bin/bin/../../lib/gcc/pic32c/13.2.1/thumb/v6-m/nofp\libgcc.a(_udivmoddi4.o)
 .note          0x00000a68       0x18 C:/Applications/Microchip/XC32/bin/bin/../../lib/gcc/pic32c/13.2.1/thumb/v6-m/nofp\libgcc.a(_lshrdi3.o)
 .note          0x00000a80       0x18 C:/Applications/Microchip/XC32/bin/bin/../../lib/gcc/pic32c/13.2.1/thumb/v6-m/nofp\libgcc.a(_ashldi3.o)
 .note          0x00000a98       0x18 C:/Applications/Microchip/XC32/bin/bin/../../lib/gcc/pic32c/13.2.1/thumb/v6-m/nofp\libgcc.a(_clzdi2.o)
 .note          0x00000ab0       0x18 C:/Applications/Microchip/XC32/bin/bin/../../lib/gcc/pic32c/13.2.1/thumb/v6-m/nofp\libgcc.a(_clzsi2.o)
 .note          0x00000ac8       0x18 C:/Applications/Microchip/XC32/bin/bin/../../lib/gcc/pic32c/13.2.1/thumb/v6-m/nofp/crtend.o
 .note          0x00000ae0       0x18 C:/Applications/Microchip/XC32/bin/bin/../../lib/gcc/pic32c/13.2.1/thumb/v6-m/nofp/crtn.o
 .note          0x00000af8       0x18 C:/Applications/Microchip/XC32/bin/bin/../../lib/gcc/pic32c/13.2.1/../../../../pic32c/lib/thumb/v6-m/nofp\libpic32c.a(pic32_data_init_clear.o)
 .note          0x00000b10       0x18 C:/Applications/Microchip/XC32/bin/bin/../../lib/gcc/pic32c/13.2.1/../../../../pic32c/lib/thumb/v6-m/nofp\libpic32c.a(pic32_data_init_copy.o)

.ARM.attributes
                0x00000000       0x2a
 .ARM.attributes
                0x00000000       0x1e C:/Applications/Microchip/XC32/bin/bin/../../lib/gcc/pic32c/13.2.1/thumb/v6-m/nofp/crti.o
 .ARM.attributes
                0x0000001e       0x2c C:/Applications/Microchip/XC32/bin/bin/../../lib/gcc/pic32c/13.2.1/thumb/v6-m/nofp/crtbegin.o
 .ARM.attributes
                0x0000004a       0x2c build/default/production/_ext/158385033/drv_i2c.o
 .ARM.attributes
                0x00000076       0x2c build/default/production/_ext/2070931557/drv_spi.o
 .ARM.attributes
                0x000000a2       0x2c build/default/production/_ext/869808652/drv_usart.o
 .ARM.attributes
                0x000000ce       0x2c build/default/production/_ext/829343244/plib_ac.o
 .ARM.attributes
                0x000000fa       0x2c build/default/production/_ext/60163342/plib_adc0.o
 .ARM.attributes
                0x00000126       0x2c build/default/production/_ext/60165182/plib_can0.o
 .ARM.attributes
                0x00000152       0x2c build/default/production/_ext/60165242/plib_ccl.o
 .ARM.attributes
                0x0000017e       0x2c build/default/production/_ext/1984496892/plib_clock.o
 .ARM.attributes
                0x000001aa       0x2c build/default/production/_ext/60166132/plib_dac.o
 .ARM.attributes
                0x000001d6       0x2c build/default/production/_ext/1865161661/plib_dmac.o
 .ARM.attributes
                0x00000202       0x2c build/default/production/_ext/60167341/plib_eic.o
 .ARM.attributes
                0x0000022e       0x2c build/default/production/_ext/1986646378/plib_evsys.o
 .ARM.attributes
                0x0000025a       0x2c build/default/production/_ext/1987437027/plib_freqm.o
 .ARM.attributes
                0x00000286       0x2c build/default/production/_ext/1865468468/plib_nvic.o
 .ARM.attributes
                0x000002b2       0x2c build/default/production/_ext/1593096446/plib_nvmctrl.o
 .ARM.attributes
                0x000002de       0x2c build/default/production/_ext/1865510628/plib_pdec.o
 .ARM.attributes
                0x0000030a       0x2c build/default/production/_ext/829342769/plib_pm.o
 .ARM.attributes
                0x00000336       0x2c build/default/production/_ext/1865521619/plib_port.o
 .ARM.attributes
                0x00000362       0x2c build/default/production/_ext/1865585090/plib_rstc.o
 .ARM.attributes
                0x0000038e       0x2c build/default/production/_ext/60180175/plib_rtc_clock.o
 .ARM.attributes
                0x000003ba       0x2c build/default/production/_ext/508257091/plib_sercom3_i2c_master.o
 .ARM.attributes
                0x000003e6       0x2c build/default/production/_ext/17022449/plib_sercom2_spi_master.o
 .ARM.attributes
                0x00000412       0x2c build/default/production/_ext/504274921/plib_sercom1_usart.o
 .ARM.attributes
                0x0000043e       0x2c build/default/production/_ext/504274921/plib_sercom0_usart.o
 .ARM.attributes
                0x0000046a       0x2c build/default/production/_ext/1865616679/plib_supc.o
 .ARM.attributes
                0x00000496       0x2c build/default/production/_ext/1827571544/plib_systick.o
 .ARM.attributes
                0x000004c2       0x2c build/default/production/_ext/829342655/plib_tc0.o
 .ARM.attributes
                0x000004ee       0x2c build/default/production/_ext/60181570/plib_tcc1.o
 .ARM.attributes
                0x0000051a       0x2c build/default/production/_ext/60181570/plib_tcc0.o
 .ARM.attributes
                0x00000546       0x2c build/default/production/_ext/60184501/plib_wdt.o
 .ARM.attributes
                0x00000572       0x2c build/default/production/_ext/1832805299/sys_console_uart.o
 .ARM.attributes
                0x0000059e       0x2c build/default/production/_ext/1832805299/sys_console.o
 .ARM.attributes
                0x000005ca       0x2c build/default/production/_ext/14461671/sys_dma.o
 .ARM.attributes
                0x000005f6       0x2c build/default/production/_ext/1881668453/sys_int.o
 .ARM.attributes
                0x00000622       0x2c build/default/production/_ext/101884895/sys_time.o
 .ARM.attributes
                0x0000064e       0x2c build/default/production/_ext/1171490990/tasks.o
 .ARM.attributes
                0x0000067a       0x2c build/default/production/_ext/1171490990/initialization.o
 .ARM.attributes
                0x000006a6       0x2c build/default/production/_ext/1171490990/interrupts.o
 .ARM.attributes
                0x000006d2       0x2c build/default/production/_ext/1171490990/exceptions.o
 .ARM.attributes
                0x000006fe       0x2c build/default/production/_ext/1171490990/startup_xc32.o
 .ARM.attributes
                0x0000072a       0x2c build/default/production/_ext/1360937237/can0_driver.o
 .ARM.attributes
                0x00000756       0x2c build/default/production/_ext/1360937237/sht4x_driver.o
 .ARM.attributes
                0x00000782       0x2c build/default/production/_ext/1360937237/rstc_driver.o
 .ARM.attributes
                0x000007ae       0x2c build/default/production/_ext/1360937237/ad9954_driver.o
 .ARM.attributes
                0x000007da       0x2c build/default/production/_ext/1360937237/rtc_driver.o
 .ARM.attributes
                0x00000806       0x2c build/default/production/_ext/1360937237/mcp9808_driver.o
 .ARM.attributes
                0x00000832       0x2c build/default/production/_ext/1360937237/bme690_driver.o
 .ARM.attributes
                0x0000085e       0x2c build/default/production/_ext/1360937237/fcm360w_driver.o
 .ARM.attributes
                0x0000088a       0x2c build/default/production/_ext/1360937237/console_driver.o
 .ARM.attributes
                0x000008b6       0x2c build/default/production/_ext/1360937237/hdc302x_driver.o
 .ARM.attributes
                0x000008e2       0x2c build/default/production/_ext/1360937237/fan_driver.o
 .ARM.attributes
                0x0000090e       0x2c build/default/production/_ext/1360937237/ntc_driver.o
 .ARM.attributes
                0x0000093a       0x2c build/default/production/_ext/1360937237/timer_driver.o
 .ARM.attributes
                0x00000966       0x2c build/default/production/_ext/1360937237/xm125_driver.o
 .ARM.attributes
                0x00000992       0x2c build/default/production/_ext/1360937237/ws281x_driver.o
 .ARM.attributes
                0x000009be       0x2c build/default/production/_ext/1360937237/vcnl4200_driver.o
 .ARM.attributes
                0x000009ea       0x2c build/default/production/_ext/1360937237/sen63c_driver.o
 .ARM.attributes
                0x00000a16       0x2c build/default/production/_ext/1360937237/ssd1306_driver.o
 .ARM.attributes
                0x00000a42       0x2c build/default/production/_ext/1360937237/app.o
 .ARM.attributes
                0x00000a6e       0x2c build/default/production/_ext/1360937237/main.o
 .ARM.attributes
                0x00000a9a       0x2c build/default/production/_ext/1360937237/stcc4_driver.o
 .ARM.attributes
                0x00000ac6       0x2c build/default/production/_ext/1360937237/bmp585_driver.o
 .ARM.attributes
                0x00000af2       0x2c C:/Applications/Microchip/XC32/bin/bin/../../lib/gcc/pic32c/13.2.1/../../../../pic32c/lib/thumb/v6-m/nofp\libpic32c.a(data_init.o)
 .ARM.attributes
                0x00000b1e       0x2e C:/Applications/Microchip/XC32/bin/bin/../../lib/gcc/pic32c/13.2.1/../../../../pic32c/lib/thumb/v6-m/nofp\libc-size-musl.a(memcpy.o)
 .ARM.attributes
                0x00000b4c       0x2e C:/Applications/Microchip/XC32/bin/bin/../../lib/gcc/pic32c/13.2.1/../../../../pic32c/lib/thumb/v6-m/nofp\libc-size-musl.a(memset.o)
 .ARM.attributes
                0x00000b7a       0x2e C:/Applications/Microchip/XC32/bin/bin/../../lib/gcc/pic32c/13.2.1/../../../../pic32c/lib/thumb/v6-m/nofp\libc-size-musl.a(strlen.o)
 .ARM.attributes
                0x00000ba8       0x2e C:/Applications/Microchip/XC32/bin/bin/../../lib/gcc/pic32c/13.2.1/../../../../pic32c/lib/thumb/v6-m/nofp\libc-size-musl.a(strstr.o)
 .ARM.attributes
                0x00000bd6       0x2e C:/Applications/Microchip/XC32/bin/bin/../../lib/gcc/pic32c/13.2.1/../../../../pic32c/lib/thumb/v6-m/nofp\libc-size-musl.a(strchr.o)
 .ARM.attributes
                0x00000c04       0x2e C:/Applications/Microchip/XC32/bin/bin/../../lib/gcc/pic32c/13.2.1/../../../../pic32c/lib/thumb/v6-m/nofp\libc-size-musl.a(strchrnul.o)
 .ARM.attributes
                0x00000c32       0x2e C:/Applications/Microchip/XC32/bin/bin/../../lib/gcc/pic32c/13.2.1/../../../../pic32c/lib/thumb/v6-m/nofp\libc-musl.a(__libc_start_main.o)
 .ARM.attributes
                0x00000c60       0x2e C:/Applications/Microchip/XC32/bin/bin/../../lib/gcc/pic32c/13.2.1/../../../../pic32c/lib/thumb/v6-m/nofp\libc-musl.a(libc.o)
 .ARM.attributes
                0x00000c8e       0x2e C:/Applications/Microchip/XC32/bin/bin/../../lib/gcc/pic32c/13.2.1/../../../../pic32c/lib/thumb/v6-m/nofp\libc-musl.a(vsnprintf.o)
 .ARM.attributes
                0x00000cbc       0x2e C:/Applications/Microchip/XC32/bin/bin/../../lib/gcc/pic32c/13.2.1/../../../../pic32c/lib/thumb/v6-m/nofp\libc-musl.a(sprintf.o)
 .ARM.attributes
                0x00000cea       0x2e C:/Applications/Microchip/XC32/bin/bin/../../lib/gcc/pic32c/13.2.1/../../../../pic32c/lib/thumb/v6-m/nofp\libc-musl.a(vsprintf.o)
 .ARM.attributes
                0x00000d18       0x2e C:/Applications/Microchip/XC32/bin/bin/../../lib/gcc/pic32c/13.2.1/../../../../pic32c/lib/thumb/v6-m/nofp\libc-musl.a(__environ.o)
 .ARM.attributes
                0x00000d46       0x2e C:/Applications/Microchip/XC32/bin/bin/../../lib/gcc/pic32c/13.2.1/../../../../pic32c/lib/thumb/v6-m/nofp\libc-musl.a(__errno_location.o)
 .ARM.attributes
                0x00000d74       0x2e C:/Applications/Microchip/XC32/bin/bin/../../lib/gcc/pic32c/13.2.1/../../../../pic32c/lib/thumb/v6-m/nofp\libc-musl.a(vfprintf.o)
 .ARM.attributes
                0x00000da2       0x2e C:/Applications/Microchip/XC32/bin/bin/../../lib/gcc/pic32c/13.2.1/../../../../pic32c/lib/thumb/v6-m/nofp\libc-musl.a(__pop_float.o)
 .ARM.attributes
                0x00000dd0       0x2e C:/Applications/Microchip/XC32/bin/bin/../../lib/gcc/pic32c/13.2.1/../../../../pic32c/lib/thumb/v6-m/nofp\libc-musl.a(__pop_int.o)
 .ARM.attributes
                0x00000dfe       0x2e C:/Applications/Microchip/XC32/bin/bin/../../lib/gcc/pic32c/13.2.1/../../../../pic32c/lib/thumb/v6-m/nofp\libc-musl.a(__pop_ptr.o)
 .ARM.attributes
                0x00000e2c       0x2e C:/Applications/Microchip/XC32/bin/bin/../../lib/gcc/pic32c/13.2.1/../../../../pic32c/lib/thumb/v6-m/nofp\libc-musl.a(__printf_core.o)
 .ARM.attributes
                0x00000e5a       0x2e C:/Applications/Microchip/XC32/bin/bin/../../lib/gcc/pic32c/13.2.1/../../../../pic32c/lib/thumb/v6-m/nofp\libc-musl.a(atoi.o)
 .ARM.attributes
                0x00000e88       0x2e C:/Applications/Microchip/XC32/bin/bin/../../lib/gcc/pic32c/13.2.1/../../../../pic32c/lib/thumb/v6-m/nofp\libc-musl.a(tolower.o)
 .ARM.attributes
                0x00000eb6       0x2e C:/Applications/Microchip/XC32/bin/bin/../../lib/gcc/pic32c/13.2.1/../../../../pic32c/lib/thumb/v6-m/nofp\libc-musl.a(__fmt_a.o)
 .ARM.attributes
                0x00000ee4       0x2e C:/Applications/Microchip/XC32/bin/bin/../../lib/gcc/pic32c/13.2.1/../../../../pic32c/lib/thumb/v6-m/nofp\libc-musl.a(__fmt_d.o)
 .ARM.attributes
                0x00000f12       0x2e C:/Applications/Microchip/XC32/bin/bin/../../lib/gcc/pic32c/13.2.1/../../../../pic32c/lib/thumb/v6-m/nofp\libc-musl.a(__fmt_fp.o)
 .ARM.attributes
                0x00000f40       0x2e C:/Applications/Microchip/XC32/bin/bin/../../lib/gcc/pic32c/13.2.1/../../../../pic32c/lib/thumb/v6-m/nofp\libc-musl.a(__fmt_o.o)
 .ARM.attributes
                0x00000f6e       0x2e C:/Applications/Microchip/XC32/bin/bin/../../lib/gcc/pic32c/13.2.1/../../../../pic32c/lib/thumb/v6-m/nofp\libc-musl.a(__fmt_s.o)
 .ARM.attributes
                0x00000f9c       0x2e C:/Applications/Microchip/XC32/bin/bin/../../lib/gcc/pic32c/13.2.1/../../../../pic32c/lib/thumb/v6-m/nofp\libc-musl.a(__fmt_u.o)
 .ARM.attributes
                0x00000fca       0x2e C:/Applications/Microchip/XC32/bin/bin/../../lib/gcc/pic32c/13.2.1/../../../../pic32c/lib/thumb/v6-m/nofp\libc-musl.a(__fmt_x.o)
 .ARM.attributes
                0x00000ff8       0x2e C:/Applications/Microchip/XC32/bin/bin/../../lib/gcc/pic32c/13.2.1/../../../../pic32c/lib/thumb/v6-m/nofp\libc-musl.a(toupper.o)
 .ARM.attributes
                0x00001026       0x2e C:/Applications/Microchip/XC32/bin/bin/../../lib/gcc/pic32c/13.2.1/../../../../pic32c/lib/thumb/v6-m/nofp\libc-musl.a(__cvt_u.o)
 .ARM.attributes
                0x00001054       0x2c C:/Applications/Microchip/XC32/bin/bin/../../lib/gcc/pic32c/13.2.1/../../../../pic32c/lib/thumb/v6-m/nofp\libm-fast-emfloat.a(fma.o)
 .ARM.attributes
                0x00001080       0x2c C:/Applications/Microchip/XC32/bin/bin/../../lib/gcc/pic32c/13.2.1/../../../../pic32c/lib/thumb/v6-m/nofp\libm-fast-emfloat.a(floor.o)
 .ARM.attributes
                0x000010ac       0x1c C:/Applications/Microchip/XC32/bin/bin/../../lib/gcc/pic32c/13.2.1/../../../../pic32c/lib/thumb/v6-m/nofp\libm-fast-emfloat.a(__aeabi_fadd.o)
 .ARM.attributes
                0x000010c8       0x1c C:/Applications/Microchip/XC32/bin/bin/../../lib/gcc/pic32c/13.2.1/../../../../pic32c/lib/thumb/v6-m/nofp\libm-fast-emfloat.a(__aeabi_dadd.o)
 .ARM.attributes
                0x000010e4       0x1c C:/Applications/Microchip/XC32/bin/bin/../../lib/gcc/pic32c/13.2.1/../../../../pic32c/lib/thumb/v6-m/nofp\libm-fast-emfloat.a(__aeabi_fsub.o)
 .ARM.attributes
                0x00001100       0x1c C:/Applications/Microchip/XC32/bin/bin/../../lib/gcc/pic32c/13.2.1/../../../../pic32c/lib/thumb/v6-m/nofp\libm-fast-emfloat.a(__aeabi_dsub.o)
 .ARM.attributes
                0x0000111c       0x1c C:/Applications/Microchip/XC32/bin/bin/../../lib/gcc/pic32c/13.2.1/../../../../pic32c/lib/thumb/v6-m/nofp\libm-fast-emfloat.a(__aeabi_fmul.o)
 .ARM.attributes
                0x00001138       0x1c C:/Applications/Microchip/XC32/bin/bin/../../lib/gcc/pic32c/13.2.1/../../../../pic32c/lib/thumb/v6-m/nofp\libm-fast-emfloat.a(__aeabi_dmul_aux.o)
 .ARM.attributes
                0x00001154       0x1c C:/Applications/Microchip/XC32/bin/bin/../../lib/gcc/pic32c/13.2.1/../../../../pic32c/lib/thumb/v6-m/nofp\libm-fast-emfloat.a(__aeabi_fdiv.o)
 .ARM.attributes
                0x00001170       0x1c C:/Applications/Microchip/XC32/bin/bin/../../lib/gcc/pic32c/13.2.1/../../../../pic32c/lib/thumb/v6-m/nofp\libm-fast-emfloat.a(__aeabi_ddiv.o)
 .ARM.attributes
                0x0000118c       0x1c C:/Applications/Microchip/XC32/bin/bin/../../lib/gcc/pic32c/13.2.1/../../../../pic32c/lib/thumb/v6-m/nofp\libm-fast-emfloat.a(__aeabi_dcmple.o)
 .ARM.attributes
                0x000011a8       0x1c C:/Applications/Microchip/XC32/bin/bin/../../lib/gcc/pic32c/13.2.1/../../../../pic32c/lib/thumb/v6-m/nofp\libm-fast-emfloat.a(__aeabi_dcmpeq.o)
 .ARM.attributes
                0x000011c4       0x1c C:/Applications/Microchip/XC32/bin/bin/../../lib/gcc/pic32c/13.2.1/../../../../pic32c/lib/thumb/v6-m/nofp\libm-fast-emfloat.a(__aeabi_dcmpgt.o)
 .ARM.attributes
                0x000011e0       0x1c C:/Applications/Microchip/XC32/bin/bin/../../lib/gcc/pic32c/13.2.1/../../../../pic32c/lib/thumb/v6-m/nofp\libm-fast-emfloat.a(__aeabi_dcmplt.o)
 .ARM.attributes
                0x000011fc       0x1c C:/Applications/Microchip/XC32/bin/bin/../../lib/gcc/pic32c/13.2.1/../../../../pic32c/lib/thumb/v6-m/nofp\libm-fast-emfloat.a(__aeabi_f2iz.o)
 .ARM.attributes
                0x00001218       0x1c C:/Applications/Microchip/XC32/bin/bin/../../lib/gcc/pic32c/13.2.1/../../../../pic32c/lib/thumb/v6-m/nofp\libm-fast-emfloat.a(__aeabi_d2iz.o)
 .ARM.attributes
                0x00001234       0x1c C:/Applications/Microchip/XC32/bin/bin/../../lib/gcc/pic32c/13.2.1/../../../../pic32c/lib/thumb/v6-m/nofp\libm-fast-emfloat.a(__aeabi_f2uiz.o)
 .ARM.attributes
                0x00001250       0x1c C:/Applications/Microchip/XC32/bin/bin/../../lib/gcc/pic32c/13.2.1/../../../../pic32c/lib/thumb/v6-m/nofp\libm-fast-emfloat.a(__aeabi_d2uiz.o)
 .ARM.attributes
                0x0000126c       0x1c C:/Applications/Microchip/XC32/bin/bin/../../lib/gcc/pic32c/13.2.1/../../../../pic32c/lib/thumb/v6-m/nofp\libm-fast-emfloat.a(__aeabi_i2f.o)
 .ARM.attributes
                0x00001288       0x1c C:/Applications/Microchip/XC32/bin/bin/../../lib/gcc/pic32c/13.2.1/../../../../pic32c/lib/thumb/v6-m/nofp\libm-fast-emfloat.a(__aeabi_ui2f.o)
 .ARM.attributes
                0x000012a4       0x1c C:/Applications/Microchip/XC32/bin/bin/../../lib/gcc/pic32c/13.2.1/../../../../pic32c/lib/thumb/v6-m/nofp\libm-fast-emfloat.a(__aeabi_f2d.o)
 .ARM.attributes
                0x000012c0       0x1c C:/Applications/Microchip/XC32/bin/bin/../../lib/gcc/pic32c/13.2.1/../../../../pic32c/lib/thumb/v6-m/nofp\libm-fast-emfloat.a(__aeabi_d2f.o)
 .ARM.attributes
                0x000012dc       0x2e C:/Applications/Microchip/XC32/bin/bin/../../lib/gcc/pic32c/13.2.1/../../../../pic32c/lib/thumb/v6-m/nofp\libc-size-musl.a(strcpy.o)
 .ARM.attributes
                0x0000130a       0x2e C:/Applications/Microchip/XC32/bin/bin/../../lib/gcc/pic32c/13.2.1/../../../../pic32c/lib/thumb/v6-m/nofp\libc-size-musl.a(stpcpy.o)
 .ARM.attributes
                0x00001338       0x1e C:/Applications/Microchip/XC32/bin/bin/../../lib/gcc/pic32c/13.2.1/thumb/v6-m/nofp\libgcc.a(_thumb1_case_uqi.o)
 .ARM.attributes
                0x00001356       0x1e C:/Applications/Microchip/XC32/bin/bin/../../lib/gcc/pic32c/13.2.1/thumb/v6-m/nofp\libgcc.a(_udivsi3.o)
 .ARM.attributes
                0x00001374       0x1e C:/Applications/Microchip/XC32/bin/bin/../../lib/gcc/pic32c/13.2.1/thumb/v6-m/nofp\libgcc.a(_divsi3.o)
 .ARM.attributes
                0x00001392       0x1e C:/Applications/Microchip/XC32/bin/bin/../../lib/gcc/pic32c/13.2.1/thumb/v6-m/nofp\libgcc.a(_dvmd_tls.o)
 .ARM.attributes
                0x000013b0       0x1e C:/Applications/Microchip/XC32/bin/bin/../../lib/gcc/pic32c/13.2.1/thumb/v6-m/nofp\libgcc.a(_aeabi_uldivmod.o)
 .ARM.attributes
                0x000013ce       0x2c C:/Applications/Microchip/XC32/bin/bin/../../lib/gcc/pic32c/13.2.1/thumb/v6-m/nofp\libgcc.a(_muldi3.o)
 .ARM.attributes
                0x000013fa       0x2c C:/Applications/Microchip/XC32/bin/bin/../../lib/gcc/pic32c/13.2.1/thumb/v6-m/nofp\libgcc.a(_udivmoddi4.o)
 .ARM.attributes
                0x00001426       0x1e C:/Applications/Microchip/XC32/bin/bin/../../lib/gcc/pic32c/13.2.1/thumb/v6-m/nofp\libgcc.a(_lshrdi3.o)
 .ARM.attributes
                0x00001444       0x1e C:/Applications/Microchip/XC32/bin/bin/../../lib/gcc/pic32c/13.2.1/thumb/v6-m/nofp\libgcc.a(_ashldi3.o)
 .ARM.attributes
                0x00001462       0x1e C:/Applications/Microchip/XC32/bin/bin/../../lib/gcc/pic32c/13.2.1/thumb/v6-m/nofp\libgcc.a(_clzdi2.o)
 .ARM.attributes
                0x00001480       0x1e C:/Applications/Microchip/XC32/bin/bin/../../lib/gcc/pic32c/13.2.1/thumb/v6-m/nofp\libgcc.a(_clzsi2.o)
 .ARM.attributes
                0x0000149e       0x1e C:/Applications/Microchip/XC32/bin/bin/../../lib/gcc/pic32c/13.2.1/thumb/v6-m/nofp/crtn.o
 .ARM.attributes
                0x000014bc       0x2c C:/Applications/Microchip/XC32/bin/bin/../../lib/gcc/pic32c/13.2.1/../../../../pic32c/lib/thumb/v6-m/nofp\libpic32c.a(pic32_data_init_clear.o)
 .ARM.attributes
                0x000014e8       0x2c C:/Applications/Microchip/XC32/bin/bin/../../lib/gcc/pic32c/13.2.1/../../../../pic32c/lib/thumb/v6-m/nofp\libpic32c.a(pic32_data_init_copy.o)

.comment        0x00000000       0x35
 .comment       0x00000000       0x35 C:/Applications/Microchip/XC32/bin/bin/../../lib/gcc/pic32c/13.2.1/thumb/v6-m/nofp/crtbegin.o
                                 0x36 (size before relaxing)
 .comment       0x00000035       0x36 build/default/production/_ext/158385033/drv_i2c.o
 .comment       0x00000035       0x36 build/default/production/_ext/2070931557/drv_spi.o
 .comment       0x00000035       0x36 build/default/production/_ext/869808652/drv_usart.o
 .comment       0x00000035       0x36 build/default/production/_ext/829343244/plib_ac.o
 .comment       0x00000035       0x36 build/default/production/_ext/60163342/plib_adc0.o
 .comment       0x00000035       0x36 build/default/production/_ext/60165182/plib_can0.o
 .comment       0x00000035       0x36 build/default/production/_ext/60165242/plib_ccl.o
 .comment       0x00000035       0x36 build/default/production/_ext/1984496892/plib_clock.o
 .comment       0x00000035       0x36 build/default/production/_ext/60166132/plib_dac.o
 .comment       0x00000035       0x36 build/default/production/_ext/1865161661/plib_dmac.o
 .comment       0x00000035       0x36 build/default/production/_ext/60167341/plib_eic.o
 .comment       0x00000035       0x36 build/default/production/_ext/1986646378/plib_evsys.o
 .comment       0x00000035       0x36 build/default/production/_ext/1987437027/plib_freqm.o
 .comment       0x00000035       0x36 build/default/production/_ext/1865468468/plib_nvic.o
 .comment       0x00000035       0x36 build/default/production/_ext/1593096446/plib_nvmctrl.o
 .comment       0x00000035       0x36 build/default/production/_ext/1865510628/plib_pdec.o
 .comment       0x00000035       0x36 build/default/production/_ext/829342769/plib_pm.o
 .comment       0x00000035       0x36 build/default/production/_ext/1865521619/plib_port.o
 .comment       0x00000035       0x36 build/default/production/_ext/1865585090/plib_rstc.o
 .comment       0x00000035       0x36 build/default/production/_ext/60180175/plib_rtc_clock.o
 .comment       0x00000035       0x36 build/default/production/_ext/508257091/plib_sercom3_i2c_master.o
 .comment       0x00000035       0x36 build/default/production/_ext/17022449/plib_sercom2_spi_master.o
 .comment       0x00000035       0x36 build/default/production/_ext/504274921/plib_sercom1_usart.o
 .comment       0x00000035       0x36 build/default/production/_ext/504274921/plib_sercom0_usart.o
 .comment       0x00000035       0x36 build/default/production/_ext/1865616679/plib_supc.o
 .comment       0x00000035       0x36 build/default/production/_ext/1827571544/plib_systick.o
 .comment       0x00000035       0x36 build/default/production/_ext/829342655/plib_tc0.o
 .comment       0x00000035       0x36 build/default/production/_ext/60181570/plib_tcc1.o
 .comment       0x00000035       0x36 build/default/production/_ext/60181570/plib_tcc0.o
 .comment       0x00000035       0x36 build/default/production/_ext/60184501/plib_wdt.o
 .comment       0x00000035       0x36 build/default/production/_ext/1832805299/sys_console_uart.o
 .comment       0x00000035       0x36 build/default/production/_ext/1832805299/sys_console.o
 .comment       0x00000035       0x36 build/default/production/_ext/14461671/sys_dma.o
 .comment       0x00000035       0x36 build/default/production/_ext/1881668453/sys_int.o
 .comment       0x00000035       0x36 build/default/production/_ext/101884895/sys_time.o
 .comment       0x00000035       0x36 build/default/production/_ext/1171490990/tasks.o
 .comment       0x00000035       0x36 build/default/production/_ext/1171490990/initialization.o
 .comment       0x00000035       0x36 build/default/production/_ext/1171490990/interrupts.o
 .comment       0x00000035       0x36 build/default/production/_ext/1171490990/exceptions.o
 .comment       0x00000035       0x36 build/default/production/_ext/1171490990/startup_xc32.o
 .comment       0x00000035       0x36 build/default/production/_ext/1360937237/can0_driver.o
 .comment       0x00000035       0x36 build/default/production/_ext/1360937237/sht4x_driver.o
 .comment       0x00000035       0x36 build/default/production/_ext/1360937237/rstc_driver.o
 .comment       0x00000035       0x36 build/default/production/_ext/1360937237/ad9954_driver.o
 .comment       0x00000035       0x36 build/default/production/_ext/1360937237/rtc_driver.o
 .comment       0x00000035       0x36 build/default/production/_ext/1360937237/mcp9808_driver.o
 .comment       0x00000035       0x36 build/default/production/_ext/1360937237/bme690_driver.o
 .comment       0x00000035       0x36 build/default/production/_ext/1360937237/fcm360w_driver.o
 .comment       0x00000035       0x36 build/default/production/_ext/1360937237/console_driver.o
 .comment       0x00000035       0x36 build/default/production/_ext/1360937237/hdc302x_driver.o
 .comment       0x00000035       0x36 build/default/production/_ext/1360937237/fan_driver.o
 .comment       0x00000035       0x36 build/default/production/_ext/1360937237/ntc_driver.o
 .comment       0x00000035       0x36 build/default/production/_ext/1360937237/timer_driver.o
 .comment       0x00000035       0x36 build/default/production/_ext/1360937237/xm125_driver.o
 .comment       0x00000035       0x36 build/default/production/_ext/1360937237/ws281x_driver.o
 .comment       0x00000035       0x36 build/default/production/_ext/1360937237/vcnl4200_driver.o
 .comment       0x00000035       0x36 build/default/production/_ext/1360937237/sen63c_driver.o
 .comment       0x00000035       0x36 build/default/production/_ext/1360937237/ssd1306_driver.o
 .comment       0x00000035       0x36 build/default/production/_ext/1360937237/app.o
 .comment       0x00000035       0x36 build/default/production/_ext/1360937237/main.o
 .comment       0x00000035       0x36 build/default/production/_ext/1360937237/stcc4_driver.o
 .comment       0x00000035       0x36 build/default/production/_ext/1360937237/bmp585_driver.o
 .comment       0x00000035       0x36 C:/Applications/Microchip/XC32/bin/bin/../../lib/gcc/pic32c/13.2.1/../../../../pic32c/lib/thumb/v6-m/nofp\libpic32c.a(data_init.o)
 .comment       0x00000035       0x36 C:/Applications/Microchip/XC32/bin/bin/../../lib/gcc/pic32c/13.2.1/../../../../pic32c/lib/thumb/v6-m/nofp\libc-size-musl.a(memcpy.o)
 .comment       0x00000035       0x36 C:/Applications/Microchip/XC32/bin/bin/../../lib/gcc/pic32c/13.2.1/../../../../pic32c/lib/thumb/v6-m/nofp\libc-size-musl.a(memset.o)
 .comment       0x00000035       0x36 C:/Applications/Microchip/XC32/bin/bin/../../lib/gcc/pic32c/13.2.1/../../../../pic32c/lib/thumb/v6-m/nofp\libc-size-musl.a(strlen.o)
 .comment       0x00000035       0x36 C:/Applications/Microchip/XC32/bin/bin/../../lib/gcc/pic32c/13.2.1/../../../../pic32c/lib/thumb/v6-m/nofp\libc-size-musl.a(strstr.o)
 .comment       0x00000035       0x36 C:/Applications/Microchip/XC32/bin/bin/../../lib/gcc/pic32c/13.2.1/../../../../pic32c/lib/thumb/v6-m/nofp\libc-size-musl.a(strchr.o)
 .comment       0x00000035       0x36 C:/Applications/Microchip/XC32/bin/bin/../../lib/gcc/pic32c/13.2.1/../../../../pic32c/lib/thumb/v6-m/nofp\libc-size-musl.a(strchrnul.o)
 .comment       0x00000035       0x36 C:/Applications/Microchip/XC32/bin/bin/../../lib/gcc/pic32c/13.2.1/../../../../pic32c/lib/thumb/v6-m/nofp\libc-musl.a(__libc_start_main.o)
 .comment       0x00000035       0x36 C:/Applications/Microchip/XC32/bin/bin/../../lib/gcc/pic32c/13.2.1/../../../../pic32c/lib/thumb/v6-m/nofp\libc-musl.a(libc.o)
 .comment       0x00000035       0x36 C:/Applications/Microchip/XC32/bin/bin/../../lib/gcc/pic32c/13.2.1/../../../../pic32c/lib/thumb/v6-m/nofp\libc-musl.a(vsnprintf.o)
 .comment       0x00000035       0x36 C:/Applications/Microchip/XC32/bin/bin/../../lib/gcc/pic32c/13.2.1/../../../../pic32c/lib/thumb/v6-m/nofp\libc-musl.a(sprintf.o)
 .comment       0x00000035       0x36 C:/Applications/Microchip/XC32/bin/bin/../../lib/gcc/pic32c/13.2.1/../../../../pic32c/lib/thumb/v6-m/nofp\libc-musl.a(vsprintf.o)
 .comment       0x00000035       0x36 C:/Applications/Microchip/XC32/bin/bin/../../lib/gcc/pic32c/13.2.1/../../../../pic32c/lib/thumb/v6-m/nofp\libc-musl.a(__environ.o)
 .comment       0x00000035       0x36 C:/Applications/Microchip/XC32/bin/bin/../../lib/gcc/pic32c/13.2.1/../../../../pic32c/lib/thumb/v6-m/nofp\libc-musl.a(__errno_location.o)
 .comment       0x00000035       0x36 C:/Applications/Microchip/XC32/bin/bin/../../lib/gcc/pic32c/13.2.1/../../../../pic32c/lib/thumb/v6-m/nofp\libc-musl.a(vfprintf.o)
 .comment       0x00000035       0x36 C:/Applications/Microchip/XC32/bin/bin/../../lib/gcc/pic32c/13.2.1/../../../../pic32c/lib/thumb/v6-m/nofp\libc-musl.a(__pop_float.o)
 .comment       0x00000035       0x36 C:/Applications/Microchip/XC32/bin/bin/../../lib/gcc/pic32c/13.2.1/../../../../pic32c/lib/thumb/v6-m/nofp\libc-musl.a(__pop_int.o)
 .comment       0x00000035       0x36 C:/Applications/Microchip/XC32/bin/bin/../../lib/gcc/pic32c/13.2.1/../../../../pic32c/lib/thumb/v6-m/nofp\libc-musl.a(__pop_ptr.o)
 .comment       0x00000035       0x36 C:/Applications/Microchip/XC32/bin/bin/../../lib/gcc/pic32c/13.2.1/../../../../pic32c/lib/thumb/v6-m/nofp\libc-musl.a(__printf_core.o)
 .comment       0x00000035       0x36 C:/Applications/Microchip/XC32/bin/bin/../../lib/gcc/pic32c/13.2.1/../../../../pic32c/lib/thumb/v6-m/nofp\libc-musl.a(atoi.o)
 .comment       0x00000035       0x36 C:/Applications/Microchip/XC32/bin/bin/../../lib/gcc/pic32c/13.2.1/../../../../pic32c/lib/thumb/v6-m/nofp\libc-musl.a(tolower.o)
 .comment       0x00000035       0x36 C:/Applications/Microchip/XC32/bin/bin/../../lib/gcc/pic32c/13.2.1/../../../../pic32c/lib/thumb/v6-m/nofp\libc-musl.a(__fmt_a.o)
 .comment       0x00000035       0x36 C:/Applications/Microchip/XC32/bin/bin/../../lib/gcc/pic32c/13.2.1/../../../../pic32c/lib/thumb/v6-m/nofp\libc-musl.a(__fmt_d.o)
 .comment       0x00000035       0x36 C:/Applications/Microchip/XC32/bin/bin/../../lib/gcc/pic32c/13.2.1/../../../../pic32c/lib/thumb/v6-m/nofp\libc-musl.a(__fmt_fp.o)
 .comment       0x00000035       0x36 C:/Applications/Microchip/XC32/bin/bin/../../lib/gcc/pic32c/13.2.1/../../../../pic32c/lib/thumb/v6-m/nofp\libc-musl.a(__fmt_o.o)
 .comment       0x00000035       0x36 C:/Applications/Microchip/XC32/bin/bin/../../lib/gcc/pic32c/13.2.1/../../../../pic32c/lib/thumb/v6-m/nofp\libc-musl.a(__fmt_s.o)
 .comment       0x00000035       0x36 C:/Applications/Microchip/XC32/bin/bin/../../lib/gcc/pic32c/13.2.1/../../../../pic32c/lib/thumb/v6-m/nofp\libc-musl.a(__fmt_u.o)
 .comment       0x00000035       0x36 C:/Applications/Microchip/XC32/bin/bin/../../lib/gcc/pic32c/13.2.1/../../../../pic32c/lib/thumb/v6-m/nofp\libc-musl.a(__fmt_x.o)
 .comment       0x00000035       0x36 C:/Applications/Microchip/XC32/bin/bin/../../lib/gcc/pic32c/13.2.1/../../../../pic32c/lib/thumb/v6-m/nofp\libc-musl.a(toupper.o)
 .comment       0x00000035       0x36 C:/Applications/Microchip/XC32/bin/bin/../../lib/gcc/pic32c/13.2.1/../../../../pic32c/lib/thumb/v6-m/nofp\libc-musl.a(__cvt_u.o)
 .comment       0x00000035       0x36 C:/Applications/Microchip/XC32/bin/bin/../../lib/gcc/pic32c/13.2.1/../../../../pic32c/lib/thumb/v6-m/nofp\libm-fast-emfloat.a(fma.o)
 .comment       0x00000035       0x36 C:/Applications/Microchip/XC32/bin/bin/../../lib/gcc/pic32c/13.2.1/../../../../pic32c/lib/thumb/v6-m/nofp\libm-fast-emfloat.a(floor.o)
 .comment       0x00000035       0x36 C:/Applications/Microchip/XC32/bin/bin/../../lib/gcc/pic32c/13.2.1/../../../../pic32c/lib/thumb/v6-m/nofp\libc-size-musl.a(strcpy.o)
 .comment       0x00000035       0x36 C:/Applications/Microchip/XC32/bin/bin/../../lib/gcc/pic32c/13.2.1/../../../../pic32c/lib/thumb/v6-m/nofp\libc-size-musl.a(stpcpy.o)
 .comment       0x00000035       0x36 C:/Applications/Microchip/XC32/bin/bin/../../lib/gcc/pic32c/13.2.1/thumb/v6-m/nofp\libgcc.a(_muldi3.o)
 .comment       0x00000035       0x36 C:/Applications/Microchip/XC32/bin/bin/../../lib/gcc/pic32c/13.2.1/thumb/v6-m/nofp\libgcc.a(_udivmoddi4.o)
 .comment       0x00000035       0x36 C:/Applications/Microchip/XC32/bin/bin/../../lib/gcc/pic32c/13.2.1/../../../../pic32c/lib/thumb/v6-m/nofp\libpic32c.a(pic32_data_init_clear.o)
 .comment       0x00000035       0x36 C:/Applications/Microchip/XC32/bin/bin/../../lib/gcc/pic32c/13.2.1/../../../../pic32c/lib/thumb/v6-m/nofp\libpic32c.a(pic32_data_init_copy.o)

.debug_info     0x00000000    0x32356
 .debug_info    0x00000000     0x1f3f build/default/production/_ext/158385033/drv_i2c.o
 .debug_info    0x00001f3f     0x2a05 build/default/production/_ext/2070931557/drv_spi.o
 .debug_info    0x00004944     0x2a81 build/default/production/_ext/869808652/drv_usart.o
 .debug_info    0x000073c5      0x4e6 build/default/production/_ext/829343244/plib_ac.o
 .debug_info    0x000078ab      0x6c3 build/default/production/_ext/60163342/plib_adc0.o
 .debug_info    0x00007f6e     0x142f build/default/production/_ext/60165182/plib_can0.o
 .debug_info    0x0000939d      0x17b build/default/production/_ext/60165242/plib_ccl.o
 .debug_info    0x00009518      0x6c6 build/default/production/_ext/1984496892/plib_clock.o
 .debug_info    0x00009bde      0x24b build/default/production/_ext/60166132/plib_dac.o
 .debug_info    0x00009e29      0xc0d build/default/production/_ext/1865161661/plib_dmac.o
 .debug_info    0x0000aa36      0x3c0 build/default/production/_ext/60167341/plib_eic.o
 .debug_info    0x0000adf6      0x2ca build/default/production/_ext/1986646378/plib_evsys.o
 .debug_info    0x0000b0c0      0x3d2 build/default/production/_ext/1987437027/plib_freqm.o
 .debug_info    0x0000b492      0xb29 build/default/production/_ext/1865468468/plib_nvic.o
 .debug_info    0x0000bfbb      0x868 build/default/production/_ext/1593096446/plib_nvmctrl.o
 .debug_info    0x0000c823      0x378 build/default/production/_ext/1865510628/plib_pdec.o
 .debug_info    0x0000cb9b      0x175 build/default/production/_ext/829342769/plib_pm.o
 .debug_info    0x0000cd10      0x5f8 build/default/production/_ext/1865521619/plib_port.o
 .debug_info    0x0000d308       0xf3 build/default/production/_ext/1865585090/plib_rstc.o
 .debug_info    0x0000d3fb      0x895 build/default/production/_ext/60180175/plib_rtc_clock.o
 .debug_info    0x0000dc90     0x139d build/default/production/_ext/508257091/plib_sercom3_i2c_master.o
 .debug_info    0x0000f02d      0xf3c build/default/production/_ext/17022449/plib_sercom2_spi_master.o
 .debug_info    0x0000ff69     0x188a build/default/production/_ext/504274921/plib_sercom1_usart.o
 .debug_info    0x000117f3     0x1283 build/default/production/_ext/504274921/plib_sercom0_usart.o
 .debug_info    0x00012a76      0x186 build/default/production/_ext/1865616679/plib_supc.o
 .debug_info    0x00012bfc      0x6fb build/default/production/_ext/1827571544/plib_systick.o
 .debug_info    0x000132f7      0x7c2 build/default/production/_ext/829342655/plib_tc0.o
 .debug_info    0x00013ab9      0x4e6 build/default/production/_ext/60181570/plib_tcc1.o
 .debug_info    0x00013f9f      0x529 build/default/production/_ext/60181570/plib_tcc0.o
 .debug_info    0x000144c8      0x27f build/default/production/_ext/60184501/plib_wdt.o
 .debug_info    0x00014747      0xdbb build/default/production/_ext/1832805299/sys_console_uart.o
 .debug_info    0x00015502      0xcc7 build/default/production/_ext/1832805299/sys_console.o
 .debug_info    0x000161c9      0x31a build/default/production/_ext/14461671/sys_dma.o
 .debug_info    0x000164e3      0x5a9 build/default/production/_ext/1881668453/sys_int.o
 .debug_info    0x00016a8c     0x1aa7 build/default/production/_ext/101884895/sys_time.o
 .debug_info    0x00018533      0x23e build/default/production/_ext/1171490990/tasks.o
 .debug_info    0x00018771     0x343d build/default/production/_ext/1171490990/initialization.o
 .debug_info    0x0001bbae      0x526 build/default/production/_ext/1171490990/interrupts.o
 .debug_info    0x0001c0d4       0xc1 build/default/production/_ext/1171490990/exceptions.o
 .debug_info    0x0001c195      0x31f build/default/production/_ext/1171490990/startup_xc32.o
 .debug_info    0x0001c4b4      0xe34 build/default/production/_ext/1360937237/can0_driver.o
 .debug_info    0x0001d2e8      0xabc build/default/production/_ext/1360937237/sht4x_driver.o
 .debug_info    0x0001dda4      0x539 build/default/production/_ext/1360937237/rstc_driver.o
 .debug_info    0x0001e2dd     0x1528 build/default/production/_ext/1360937237/ad9954_driver.o
 .debug_info    0x0001f805      0x722 build/default/production/_ext/1360937237/rtc_driver.o
 .debug_info    0x0001ff27      0xd95 build/default/production/_ext/1360937237/mcp9808_driver.o
 .debug_info    0x00020cbc     0x1eaa build/default/production/_ext/1360937237/bme690_driver.o
 .debug_info    0x00022b66      0x7ea build/default/production/_ext/1360937237/fcm360w_driver.o
 .debug_info    0x00023350      0x34e build/default/production/_ext/1360937237/console_driver.o
 .debug_info    0x0002369e     0x183f build/default/production/_ext/1360937237/hdc302x_driver.o
 .debug_info    0x00024edd      0x18e build/default/production/_ext/1360937237/fan_driver.o
 .debug_info    0x0002506b      0x4d6 build/default/production/_ext/1360937237/ntc_driver.o
 .debug_info    0x00025541      0x619 build/default/production/_ext/1360937237/timer_driver.o
 .debug_info    0x00025b5a      0x5d3 build/default/production/_ext/1360937237/xm125_driver.o
 .debug_info    0x0002612d      0x8a9 build/default/production/_ext/1360937237/ws281x_driver.o
 .debug_info    0x000269d6     0x1028 build/default/production/_ext/1360937237/vcnl4200_driver.o
 .debug_info    0x000279fe     0x104f build/default/production/_ext/1360937237/sen63c_driver.o
 .debug_info    0x00028a4d     0x13cf build/default/production/_ext/1360937237/ssd1306_driver.o
 .debug_info    0x00029e1c      0x594 build/default/production/_ext/1360937237/app.o
 .debug_info    0x0002a3b0       0xed build/default/production/_ext/1360937237/main.o
 .debug_info    0x0002a49d      0x13a build/default/production/_ext/1360937237/stcc4_driver.o
 .debug_info    0x0002a5d7     0x214a build/default/production/_ext/1360937237/bmp585_driver.o
 .debug_info    0x0002c721      0x212 C:/Applications/Microchip/XC32/bin/bin/../../lib/gcc/pic32c/13.2.1/../../../../pic32c/lib/thumb/v6-m/nofp\libpic32c.a(data_init.o)
 .debug_info    0x0002c933       0xed C:/Applications/Microchip/XC32/bin/bin/../../lib/gcc/pic32c/13.2.1/../../../../pic32c/lib/thumb/v6-m/nofp\libc-size-musl.a(memcpy.o)
 .debug_info    0x0002ca20       0xc2 C:/Applications/Microchip/XC32/bin/bin/../../lib/gcc/pic32c/13.2.1/../../../../pic32c/lib/thumb/v6-m/nofp\libc-size-musl.a(memset.o)
 .debug_info    0x0002cae2       0xab C:/Applications/Microchip/XC32/bin/bin/../../lib/gcc/pic32c/13.2.1/../../../../pic32c/lib/thumb/v6-m/nofp\libc-size-musl.a(strlen.o)
 .debug_info    0x0002cb8d       0xc7 C:/Applications/Microchip/XC32/bin/bin/../../lib/gcc/pic32c/13.2.1/../../../../pic32c/lib/thumb/v6-m/nofp\libc-size-musl.a(strstr.o)
 .debug_info    0x0002cc54       0xeb C:/Applications/Microchip/XC32/bin/bin/../../lib/gcc/pic32c/13.2.1/../../../../pic32c/lib/thumb/v6-m/nofp\libc-size-musl.a(strchr.o)
 .debug_info    0x0002cd3f      0x13a C:/Applications/Microchip/XC32/bin/bin/../../lib/gcc/pic32c/13.2.1/../../../../pic32c/lib/thumb/v6-m/nofp\libc-size-musl.a(strchrnul.o)
 .debug_info    0x0002ce79      0x2fb C:/Applications/Microchip/XC32/bin/bin/../../lib/gcc/pic32c/13.2.1/../../../../pic32c/lib/thumb/v6-m/nofp\libc-musl.a(__libc_start_main.o)
 .debug_info    0x0002d174      0x276 C:/Applications/Microchip/XC32/bin/bin/../../lib/gcc/pic32c/13.2.1/../../../../pic32c/lib/thumb/v6-m/nofp\libc-musl.a(libc.o)
 .debug_info    0x0002d3ea      0x45b C:/Applications/Microchip/XC32/bin/bin/../../lib/gcc/pic32c/13.2.1/../../../../pic32c/lib/thumb/v6-m/nofp\libc-musl.a(vsnprintf.o)
 .debug_info    0x0002d845      0x140 C:/Applications/Microchip/XC32/bin/bin/../../lib/gcc/pic32c/13.2.1/../../../../pic32c/lib/thumb/v6-m/nofp\libc-musl.a(sprintf.o)
 .debug_info    0x0002d985      0x14f C:/Applications/Microchip/XC32/bin/bin/../../lib/gcc/pic32c/13.2.1/../../../../pic32c/lib/thumb/v6-m/nofp\libc-musl.a(vsprintf.o)
 .debug_info    0x0002dad4       0x97 C:/Applications/Microchip/XC32/bin/bin/../../lib/gcc/pic32c/13.2.1/../../../../pic32c/lib/thumb/v6-m/nofp\libc-musl.a(__environ.o)
 .debug_info    0x0002db6b       0x5b C:/Applications/Microchip/XC32/bin/bin/../../lib/gcc/pic32c/13.2.1/../../../../pic32c/lib/thumb/v6-m/nofp\libc-musl.a(__errno_location.o)
 .debug_info    0x0002dbc6      0x42c C:/Applications/Microchip/XC32/bin/bin/../../lib/gcc/pic32c/13.2.1/../../../../pic32c/lib/thumb/v6-m/nofp\libc-musl.a(vfprintf.o)
 .debug_info    0x0002dff2      0x163 C:/Applications/Microchip/XC32/bin/bin/../../lib/gcc/pic32c/13.2.1/../../../../pic32c/lib/thumb/v6-m/nofp\libc-musl.a(__pop_float.o)
 .debug_info    0x0002e155      0x183 C:/Applications/Microchip/XC32/bin/bin/../../lib/gcc/pic32c/13.2.1/../../../../pic32c/lib/thumb/v6-m/nofp\libc-musl.a(__pop_int.o)
 .debug_info    0x0002e2d8      0x18d C:/Applications/Microchip/XC32/bin/bin/../../lib/gcc/pic32c/13.2.1/../../../../pic32c/lib/thumb/v6-m/nofp\libc-musl.a(__pop_ptr.o)
 .debug_info    0x0002e465      0xb26 C:/Applications/Microchip/XC32/bin/bin/../../lib/gcc/pic32c/13.2.1/../../../../pic32c/lib/thumb/v6-m/nofp\libc-musl.a(__printf_core.o)
 .debug_info    0x0002ef8b       0xf4 C:/Applications/Microchip/XC32/bin/bin/../../lib/gcc/pic32c/13.2.1/../../../../pic32c/lib/thumb/v6-m/nofp\libc-musl.a(atoi.o)
 .debug_info    0x0002f07f      0x13e C:/Applications/Microchip/XC32/bin/bin/../../lib/gcc/pic32c/13.2.1/../../../../pic32c/lib/thumb/v6-m/nofp\libc-musl.a(tolower.o)
 .debug_info    0x0002f1bd      0x7a3 C:/Applications/Microchip/XC32/bin/bin/../../lib/gcc/pic32c/13.2.1/../../../../pic32c/lib/thumb/v6-m/nofp\libc-musl.a(__fmt_a.o)
 .debug_info    0x0002f960      0x374 C:/Applications/Microchip/XC32/bin/bin/../../lib/gcc/pic32c/13.2.1/../../../../pic32c/lib/thumb/v6-m/nofp\libc-musl.a(__fmt_d.o)
 .debug_info    0x0002fcd4      0x80e C:/Applications/Microchip/XC32/bin/bin/../../lib/gcc/pic32c/13.2.1/../../../../pic32c/lib/thumb/v6-m/nofp\libc-musl.a(__fmt_fp.o)
 .debug_info    0x000304e2      0x345 C:/Applications/Microchip/XC32/bin/bin/../../lib/gcc/pic32c/13.2.1/../../../../pic32c/lib/thumb/v6-m/nofp\libc-musl.a(__fmt_o.o)
 .debug_info    0x00030827      0x31e C:/Applications/Microchip/XC32/bin/bin/../../lib/gcc/pic32c/13.2.1/../../../../pic32c/lib/thumb/v6-m/nofp\libc-musl.a(__fmt_s.o)
 .debug_info    0x00030b45      0x345 C:/Applications/Microchip/XC32/bin/bin/../../lib/gcc/pic32c/13.2.1/../../../../pic32c/lib/thumb/v6-m/nofp\libc-musl.a(__fmt_u.o)
 .debug_info    0x00030e8a      0x35f C:/Applications/Microchip/XC32/bin/bin/../../lib/gcc/pic32c/13.2.1/../../../../pic32c/lib/thumb/v6-m/nofp\libc-musl.a(__fmt_x.o)
 .debug_info    0x000311e9      0x13e C:/Applications/Microchip/XC32/bin/bin/../../lib/gcc/pic32c/13.2.1/../../../../pic32c/lib/thumb/v6-m/nofp\libc-musl.a(toupper.o)
 .debug_info    0x00031327      0x1e3 C:/Applications/Microchip/XC32/bin/bin/../../lib/gcc/pic32c/13.2.1/../../../../pic32c/lib/thumb/v6-m/nofp\libc-musl.a(__cvt_u.o)
 .debug_info    0x0003150a       0xdd C:/Applications/Microchip/XC32/bin/bin/../../lib/gcc/pic32c/13.2.1/../../../../pic32c/lib/thumb/v6-m/nofp\libc-size-musl.a(strcpy.o)
 .debug_info    0x000315e7       0xb3 C:/Applications/Microchip/XC32/bin/bin/../../lib/gcc/pic32c/13.2.1/../../../../pic32c/lib/thumb/v6-m/nofp\libc-size-musl.a(stpcpy.o)
 .debug_info    0x0003169a       0x35 C:/Applications/Microchip/XC32/bin/bin/../../lib/gcc/pic32c/13.2.1/thumb/v6-m/nofp\libgcc.a(_thumb1_case_uqi.o)
 .debug_info    0x000316cf       0x51 C:/Applications/Microchip/XC32/bin/bin/../../lib/gcc/pic32c/13.2.1/thumb/v6-m/nofp\libgcc.a(_udivsi3.o)
 .debug_info    0x00031720       0x51 C:/Applications/Microchip/XC32/bin/bin/../../lib/gcc/pic32c/13.2.1/thumb/v6-m/nofp\libgcc.a(_divsi3.o)
 .debug_info    0x00031771       0x41 C:/Applications/Microchip/XC32/bin/bin/../../lib/gcc/pic32c/13.2.1/thumb/v6-m/nofp\libgcc.a(_dvmd_tls.o)
 .debug_info    0x000317b2       0x35 C:/Applications/Microchip/XC32/bin/bin/../../lib/gcc/pic32c/13.2.1/thumb/v6-m/nofp\libgcc.a(_aeabi_uldivmod.o)
 .debug_info    0x000317e7      0x44f C:/Applications/Microchip/XC32/bin/bin/../../lib/gcc/pic32c/13.2.1/thumb/v6-m/nofp\libgcc.a(_muldi3.o)
 .debug_info    0x00031c36      0x3fc C:/Applications/Microchip/XC32/bin/bin/../../lib/gcc/pic32c/13.2.1/thumb/v6-m/nofp\libgcc.a(_udivmoddi4.o)
 .debug_info    0x00032032       0x43 C:/Applications/Microchip/XC32/bin/bin/../../lib/gcc/pic32c/13.2.1/thumb/v6-m/nofp\libgcc.a(_lshrdi3.o)
 .debug_info    0x00032075       0x43 C:/Applications/Microchip/XC32/bin/bin/../../lib/gcc/pic32c/13.2.1/thumb/v6-m/nofp\libgcc.a(_ashldi3.o)
 .debug_info    0x000320b8       0x26 C:/Applications/Microchip/XC32/bin/bin/../../lib/gcc/pic32c/13.2.1/thumb/v6-m/nofp\libgcc.a(_clzdi2.o)
 .debug_info    0x000320de       0x35 C:/Applications/Microchip/XC32/bin/bin/../../lib/gcc/pic32c/13.2.1/thumb/v6-m/nofp\libgcc.a(_clzsi2.o)
 .debug_info    0x00032113      0x117 C:/Applications/Microchip/XC32/bin/bin/../../lib/gcc/pic32c/13.2.1/../../../../pic32c/lib/thumb/v6-m/nofp\libpic32c.a(pic32_data_init_clear.o)
 .debug_info    0x0003222a      0x12c C:/Applications/Microchip/XC32/bin/bin/../../lib/gcc/pic32c/13.2.1/../../../../pic32c/lib/thumb/v6-m/nofp\libpic32c.a(pic32_data_init_copy.o)

.debug_abbrev   0x00000000     0xb4c1
 .debug_abbrev  0x00000000      0x4d4 build/default/production/_ext/158385033/drv_i2c.o
 .debug_abbrev  0x000004d4      0x547 build/default/production/_ext/2070931557/drv_spi.o
 .debug_abbrev  0x00000a1b      0x580 build/default/production/_ext/869808652/drv_usart.o
 .debug_abbrev  0x00000f9b      0x1a2 build/default/production/_ext/829343244/plib_ac.o
 .debug_abbrev  0x0000113d      0x1e1 build/default/production/_ext/60163342/plib_adc0.o
 .debug_abbrev  0x0000131e      0x340 build/default/production/_ext/60165182/plib_can0.o
 .debug_abbrev  0x0000165e       0xa4 build/default/production/_ext/60165242/plib_ccl.o
 .debug_abbrev  0x00001702      0x1ab build/default/production/_ext/1984496892/plib_clock.o
 .debug_abbrev  0x000018ad       0xf0 build/default/production/_ext/60166132/plib_dac.o
 .debug_abbrev  0x0000199d      0x2b9 build/default/production/_ext/1865161661/plib_dmac.o
 .debug_abbrev  0x00001c56      0x181 build/default/production/_ext/60167341/plib_eic.o
 .debug_abbrev  0x00001dd7       0xe5 build/default/production/_ext/1986646378/plib_evsys.o
 .debug_abbrev  0x00001ebc      0x1c4 build/default/production/_ext/1987437027/plib_freqm.o
 .debug_abbrev  0x00002080      0x268 build/default/production/_ext/1865468468/plib_nvic.o
 .debug_abbrev  0x000022e8      0x21e build/default/production/_ext/1593096446/plib_nvmctrl.o
 .debug_abbrev  0x00002506       0xf2 build/default/production/_ext/1865510628/plib_pdec.o
 .debug_abbrev  0x000025f8       0xa4 build/default/production/_ext/829342769/plib_pm.o
 .debug_abbrev  0x0000269c      0x1e8 build/default/production/_ext/1865521619/plib_port.o
 .debug_abbrev  0x00002884       0x94 build/default/production/_ext/1865585090/plib_rstc.o
 .debug_abbrev  0x00002918      0x1ed build/default/production/_ext/60180175/plib_rtc_clock.o
 .debug_abbrev  0x00002b05      0x3c2 build/default/production/_ext/508257091/plib_sercom3_i2c_master.o
 .debug_abbrev  0x00002ec7      0x28f build/default/production/_ext/17022449/plib_sercom2_spi_master.o
 .debug_abbrev  0x00003156      0x428 build/default/production/_ext/504274921/plib_sercom1_usart.o
 .debug_abbrev  0x0000357e      0x315 build/default/production/_ext/504274921/plib_sercom0_usart.o
 .debug_abbrev  0x00003893       0xb8 build/default/production/_ext/1865616679/plib_supc.o
 .debug_abbrev  0x0000394b      0x244 build/default/production/_ext/1827571544/plib_systick.o
 .debug_abbrev  0x00003b8f      0x1be build/default/production/_ext/829342655/plib_tc0.o
 .debug_abbrev  0x00003d4d      0x122 build/default/production/_ext/60181570/plib_tcc1.o
 .debug_abbrev  0x00003e6f      0x122 build/default/production/_ext/60181570/plib_tcc0.o
 .debug_abbrev  0x00003f91       0xed build/default/production/_ext/60184501/plib_wdt.o
 .debug_abbrev  0x0000407e      0x2e9 build/default/production/_ext/1832805299/sys_console_uart.o
 .debug_abbrev  0x00004367      0x3da build/default/production/_ext/1832805299/sys_console.o
 .debug_abbrev  0x00004741      0x121 build/default/production/_ext/14461671/sys_dma.o
 .debug_abbrev  0x00004862      0x2b9 build/default/production/_ext/1881668453/sys_int.o
 .debug_abbrev  0x00004b1b      0x536 build/default/production/_ext/101884895/sys_time.o
 .debug_abbrev  0x00005051       0x77 build/default/production/_ext/1171490990/tasks.o
 .debug_abbrev  0x000050c8      0x2f8 build/default/production/_ext/1171490990/initialization.o
 .debug_abbrev  0x000053c0      0x11d build/default/production/_ext/1171490990/interrupts.o
 .debug_abbrev  0x000054dd       0x49 build/default/production/_ext/1171490990/exceptions.o
 .debug_abbrev  0x00005526      0x190 build/default/production/_ext/1171490990/startup_xc32.o
 .debug_abbrev  0x000056b6      0x408 build/default/production/_ext/1360937237/can0_driver.o
 .debug_abbrev  0x00005abe      0x2a0 build/default/production/_ext/1360937237/sht4x_driver.o
 .debug_abbrev  0x00005d5e      0x240 build/default/production/_ext/1360937237/rstc_driver.o
 .debug_abbrev  0x00005f9e      0x2e5 build/default/production/_ext/1360937237/ad9954_driver.o
 .debug_abbrev  0x00006283      0x2ba build/default/production/_ext/1360937237/rtc_driver.o
 .debug_abbrev  0x0000653d      0x2bf build/default/production/_ext/1360937237/mcp9808_driver.o
 .debug_abbrev  0x000067fc      0x336 build/default/production/_ext/1360937237/bme690_driver.o
 .debug_abbrev  0x00006b32      0x2ff build/default/production/_ext/1360937237/fcm360w_driver.o
 .debug_abbrev  0x00006e31      0x227 build/default/production/_ext/1360937237/console_driver.o
 .debug_abbrev  0x00007058      0x350 build/default/production/_ext/1360937237/hdc302x_driver.o
 .debug_abbrev  0x000073a8       0xc3 build/default/production/_ext/1360937237/fan_driver.o
 .debug_abbrev  0x0000746b      0x274 build/default/production/_ext/1360937237/ntc_driver.o
 .debug_abbrev  0x000076df      0x17c build/default/production/_ext/1360937237/timer_driver.o
 .debug_abbrev  0x0000785b      0x262 build/default/production/_ext/1360937237/xm125_driver.o
 .debug_abbrev  0x00007abd      0x2ca build/default/production/_ext/1360937237/ws281x_driver.o
 .debug_abbrev  0x00007d87      0x2c4 build/default/production/_ext/1360937237/vcnl4200_driver.o
 .debug_abbrev  0x0000804b      0x331 build/default/production/_ext/1360937237/sen63c_driver.o
 .debug_abbrev  0x0000837c      0x333 build/default/production/_ext/1360937237/ssd1306_driver.o
 .debug_abbrev  0x000086af      0x1f2 build/default/production/_ext/1360937237/app.o
 .debug_abbrev  0x000088a1       0xa2 build/default/production/_ext/1360937237/main.o
 .debug_abbrev  0x00008943       0xdd build/default/production/_ext/1360937237/stcc4_driver.o
 .debug_abbrev  0x00008a20      0x31d build/default/production/_ext/1360937237/bmp585_driver.o
 .debug_abbrev  0x00008d3d      0x156 C:/Applications/Microchip/XC32/bin/bin/../../lib/gcc/pic32c/13.2.1/../../../../pic32c/lib/thumb/v6-m/nofp\libpic32c.a(data_init.o)
 .debug_abbrev  0x00008e93       0xbb C:/Applications/Microchip/XC32/bin/bin/../../lib/gcc/pic32c/13.2.1/../../../../pic32c/lib/thumb/v6-m/nofp\libc-size-musl.a(memcpy.o)
 .debug_abbrev  0x00008f4e       0xa2 C:/Applications/Microchip/XC32/bin/bin/../../lib/gcc/pic32c/13.2.1/../../../../pic32c/lib/thumb/v6-m/nofp\libc-size-musl.a(memset.o)
 .debug_abbrev  0x00008ff0       0x91 C:/Applications/Microchip/XC32/bin/bin/../../lib/gcc/pic32c/13.2.1/../../../../pic32c/lib/thumb/v6-m/nofp\libc-size-musl.a(strlen.o)
 .debug_abbrev  0x00009081       0xa2 C:/Applications/Microchip/XC32/bin/bin/../../lib/gcc/pic32c/13.2.1/../../../../pic32c/lib/thumb/v6-m/nofp\libc-size-musl.a(strstr.o)
 .debug_abbrev  0x00009123       0xb5 C:/Applications/Microchip/XC32/bin/bin/../../lib/gcc/pic32c/13.2.1/../../../../pic32c/lib/thumb/v6-m/nofp\libc-size-musl.a(strchr.o)
 .debug_abbrev  0x000091d8       0xc4 C:/Applications/Microchip/XC32/bin/bin/../../lib/gcc/pic32c/13.2.1/../../../../pic32c/lib/thumb/v6-m/nofp\libc-size-musl.a(strchrnul.o)
 .debug_abbrev  0x0000929c      0x133 C:/Applications/Microchip/XC32/bin/bin/../../lib/gcc/pic32c/13.2.1/../../../../pic32c/lib/thumb/v6-m/nofp\libc-musl.a(__libc_start_main.o)
 .debug_abbrev  0x000093cf       0xd4 C:/Applications/Microchip/XC32/bin/bin/../../lib/gcc/pic32c/13.2.1/../../../../pic32c/lib/thumb/v6-m/nofp\libc-musl.a(libc.o)
 .debug_abbrev  0x000094a3      0x198 C:/Applications/Microchip/XC32/bin/bin/../../lib/gcc/pic32c/13.2.1/../../../../pic32c/lib/thumb/v6-m/nofp\libc-musl.a(vsnprintf.o)
 .debug_abbrev  0x0000963b      0x10e C:/Applications/Microchip/XC32/bin/bin/../../lib/gcc/pic32c/13.2.1/../../../../pic32c/lib/thumb/v6-m/nofp\libc-musl.a(sprintf.o)
 .debug_abbrev  0x00009749       0xd3 C:/Applications/Microchip/XC32/bin/bin/../../lib/gcc/pic32c/13.2.1/../../../../pic32c/lib/thumb/v6-m/nofp\libc-musl.a(vsprintf.o)
 .debug_abbrev  0x0000981c       0x62 C:/Applications/Microchip/XC32/bin/bin/../../lib/gcc/pic32c/13.2.1/../../../../pic32c/lib/thumb/v6-m/nofp\libc-musl.a(__environ.o)
 .debug_abbrev  0x0000987e       0x39 C:/Applications/Microchip/XC32/bin/bin/../../lib/gcc/pic32c/13.2.1/../../../../pic32c/lib/thumb/v6-m/nofp\libc-musl.a(__errno_location.o)
 .debug_abbrev  0x000098b7      0x1a1 C:/Applications/Microchip/XC32/bin/bin/../../lib/gcc/pic32c/13.2.1/../../../../pic32c/lib/thumb/v6-m/nofp\libc-musl.a(vfprintf.o)
 .debug_abbrev  0x00009a58       0xdc C:/Applications/Microchip/XC32/bin/bin/../../lib/gcc/pic32c/13.2.1/../../../../pic32c/lib/thumb/v6-m/nofp\libc-musl.a(__pop_float.o)
 .debug_abbrev  0x00009b34       0xdc C:/Applications/Microchip/XC32/bin/bin/../../lib/gcc/pic32c/13.2.1/../../../../pic32c/lib/thumb/v6-m/nofp\libc-musl.a(__pop_int.o)
 .debug_abbrev  0x00009c10       0xdc C:/Applications/Microchip/XC32/bin/bin/../../lib/gcc/pic32c/13.2.1/../../../../pic32c/lib/thumb/v6-m/nofp\libc-musl.a(__pop_ptr.o)
 .debug_abbrev  0x00009cec      0x324 C:/Applications/Microchip/XC32/bin/bin/../../lib/gcc/pic32c/13.2.1/../../../../pic32c/lib/thumb/v6-m/nofp\libc-musl.a(__printf_core.o)
 .debug_abbrev  0x0000a010       0xc6 C:/Applications/Microchip/XC32/bin/bin/../../lib/gcc/pic32c/13.2.1/../../../../pic32c/lib/thumb/v6-m/nofp\libc-musl.a(atoi.o)
 .debug_abbrev  0x0000a0d6       0xf4 C:/Applications/Microchip/XC32/bin/bin/../../lib/gcc/pic32c/13.2.1/../../../../pic32c/lib/thumb/v6-m/nofp\libc-musl.a(tolower.o)
 .debug_abbrev  0x0000a1ca      0x1eb C:/Applications/Microchip/XC32/bin/bin/../../lib/gcc/pic32c/13.2.1/../../../../pic32c/lib/thumb/v6-m/nofp\libc-musl.a(__fmt_a.o)
 .debug_abbrev  0x0000a3b5      0x16b C:/Applications/Microchip/XC32/bin/bin/../../lib/gcc/pic32c/13.2.1/../../../../pic32c/lib/thumb/v6-m/nofp\libc-musl.a(__fmt_d.o)
 .debug_abbrev  0x0000a520      0x1ee C:/Applications/Microchip/XC32/bin/bin/../../lib/gcc/pic32c/13.2.1/../../../../pic32c/lib/thumb/v6-m/nofp\libc-musl.a(__fmt_fp.o)
 .debug_abbrev  0x0000a70e      0x16b C:/Applications/Microchip/XC32/bin/bin/../../lib/gcc/pic32c/13.2.1/../../../../pic32c/lib/thumb/v6-m/nofp\libc-musl.a(__fmt_o.o)
 .debug_abbrev  0x0000a879      0x16f C:/Applications/Microchip/XC32/bin/bin/../../lib/gcc/pic32c/13.2.1/../../../../pic32c/lib/thumb/v6-m/nofp\libc-musl.a(__fmt_s.o)
 .debug_abbrev  0x0000a9e8      0x16b C:/Applications/Microchip/XC32/bin/bin/../../lib/gcc/pic32c/13.2.1/../../../../pic32c/lib/thumb/v6-m/nofp\libc-musl.a(__fmt_u.o)
 .debug_abbrev  0x0000ab53      0x15a C:/Applications/Microchip/XC32/bin/bin/../../lib/gcc/pic32c/13.2.1/../../../../pic32c/lib/thumb/v6-m/nofp\libc-musl.a(__fmt_x.o)
 .debug_abbrev  0x0000acad       0xf4 C:/Applications/Microchip/XC32/bin/bin/../../lib/gcc/pic32c/13.2.1/../../../../pic32c/lib/thumb/v6-m/nofp\libc-musl.a(toupper.o)
 .debug_abbrev  0x0000ada1      0x10c C:/Applications/Microchip/XC32/bin/bin/../../lib/gcc/pic32c/13.2.1/../../../../pic32c/lib/thumb/v6-m/nofp\libc-musl.a(__cvt_u.o)
 .debug_abbrev  0x0000aead       0xb5 C:/Applications/Microchip/XC32/bin/bin/../../lib/gcc/pic32c/13.2.1/../../../../pic32c/lib/thumb/v6-m/nofp\libc-size-musl.a(strcpy.o)
 .debug_abbrev  0x0000af62       0x6e C:/Applications/Microchip/XC32/bin/bin/../../lib/gcc/pic32c/13.2.1/../../../../pic32c/lib/thumb/v6-m/nofp\libc-size-musl.a(stpcpy.o)
 .debug_abbrev  0x0000afd0       0x21 C:/Applications/Microchip/XC32/bin/bin/../../lib/gcc/pic32c/13.2.1/thumb/v6-m/nofp\libgcc.a(_thumb1_case_uqi.o)
 .debug_abbrev  0x0000aff1       0x21 C:/Applications/Microchip/XC32/bin/bin/../../lib/gcc/pic32c/13.2.1/thumb/v6-m/nofp\libgcc.a(_udivsi3.o)
 .debug_abbrev  0x0000b012       0x21 C:/Applications/Microchip/XC32/bin/bin/../../lib/gcc/pic32c/13.2.1/thumb/v6-m/nofp\libgcc.a(_divsi3.o)
 .debug_abbrev  0x0000b033       0x1f C:/Applications/Microchip/XC32/bin/bin/../../lib/gcc/pic32c/13.2.1/thumb/v6-m/nofp\libgcc.a(_dvmd_tls.o)
 .debug_abbrev  0x0000b052       0x21 C:/Applications/Microchip/XC32/bin/bin/../../lib/gcc/pic32c/13.2.1/thumb/v6-m/nofp\libgcc.a(_aeabi_uldivmod.o)
 .debug_abbrev  0x0000b073      0x15d C:/Applications/Microchip/XC32/bin/bin/../../lib/gcc/pic32c/13.2.1/thumb/v6-m/nofp\libgcc.a(_muldi3.o)
 .debug_abbrev  0x0000b1d0      0x11c C:/Applications/Microchip/XC32/bin/bin/../../lib/gcc/pic32c/13.2.1/thumb/v6-m/nofp\libgcc.a(_udivmoddi4.o)
 .debug_abbrev  0x0000b2ec       0x21 C:/Applications/Microchip/XC32/bin/bin/../../lib/gcc/pic32c/13.2.1/thumb/v6-m/nofp\libgcc.a(_lshrdi3.o)
 .debug_abbrev  0x0000b30d       0x21 C:/Applications/Microchip/XC32/bin/bin/../../lib/gcc/pic32c/13.2.1/thumb/v6-m/nofp\libgcc.a(_ashldi3.o)
 .debug_abbrev  0x0000b32e       0x14 C:/Applications/Microchip/XC32/bin/bin/../../lib/gcc/pic32c/13.2.1/thumb/v6-m/nofp\libgcc.a(_clzdi2.o)
 .debug_abbrev  0x0000b342       0x21 C:/Applications/Microchip/XC32/bin/bin/../../lib/gcc/pic32c/13.2.1/thumb/v6-m/nofp\libgcc.a(_clzsi2.o)
 .debug_abbrev  0x0000b363       0xa5 C:/Applications/Microchip/XC32/bin/bin/../../lib/gcc/pic32c/13.2.1/../../../../pic32c/lib/thumb/v6-m/nofp\libpic32c.a(pic32_data_init_clear.o)
 .debug_abbrev  0x0000b408       0xb9 C:/Applications/Microchip/XC32/bin/bin/../../lib/gcc/pic32c/13.2.1/../../../../pic32c/lib/thumb/v6-m/nofp\libpic32c.a(pic32_data_init_copy.o)

.debug_loc      0x00000000    0x1cd46
 .debug_loc     0x00000000     0x1dcc build/default/production/_ext/158385033/drv_i2c.o
 .debug_loc     0x00001dcc     0x274c build/default/production/_ext/2070931557/drv_spi.o
 .debug_loc     0x00004518     0x2b58 build/default/production/_ext/869808652/drv_usart.o
 .debug_loc     0x00007070      0x150 build/default/production/_ext/829343244/plib_ac.o
 .debug_loc     0x000071c0      0x1d7 build/default/production/_ext/60163342/plib_adc0.o
 .debug_loc     0x00007397      0xeae build/default/production/_ext/60165182/plib_can0.o
 .debug_loc     0x00008245       0x6f build/default/production/_ext/1984496892/plib_clock.o
 .debug_loc     0x000082b4       0x2b build/default/production/_ext/60166132/plib_dac.o
 .debug_loc     0x000082df      0xc0c build/default/production/_ext/1865161661/plib_dmac.o
 .debug_loc     0x00008eeb       0xda build/default/production/_ext/60167341/plib_eic.o
 .debug_loc     0x00008fc5      0x104 build/default/production/_ext/1986646378/plib_evsys.o
 .debug_loc     0x000090c9      0x15a build/default/production/_ext/1987437027/plib_freqm.o
 .debug_loc     0x00009223      0x3db build/default/production/_ext/1865468468/plib_nvic.o
 .debug_loc     0x000095fe      0x725 build/default/production/_ext/1593096446/plib_nvmctrl.o
 .debug_loc     0x00009d23       0x15 build/default/production/_ext/1865510628/plib_pdec.o
 .debug_loc     0x00009d38      0x2b8 build/default/production/_ext/1865521619/plib_port.o
 .debug_loc     0x00009ff0      0x1f8 build/default/production/_ext/60180175/plib_rtc_clock.o
 .debug_loc     0x0000a1e8      0xce6 build/default/production/_ext/508257091/plib_sercom3_i2c_master.o
 .debug_loc     0x0000aece      0x6e2 build/default/production/_ext/17022449/plib_sercom2_spi_master.o
 .debug_loc     0x0000b5b0      0xeba build/default/production/_ext/504274921/plib_sercom1_usart.o
 .debug_loc     0x0000c46a      0x8e6 build/default/production/_ext/504274921/plib_sercom0_usart.o
 .debug_loc     0x0000cd50       0x39 build/default/production/_ext/1865616679/plib_supc.o
 .debug_loc     0x0000cd89      0x509 build/default/production/_ext/1827571544/plib_systick.o
 .debug_loc     0x0000d292       0x7a build/default/production/_ext/829342655/plib_tc0.o
 .debug_loc     0x0000d30c      0x13d build/default/production/_ext/60181570/plib_tcc1.o
 .debug_loc     0x0000d449      0x193 build/default/production/_ext/60181570/plib_tcc0.o
 .debug_loc     0x0000d5dc      0xbf1 build/default/production/_ext/1832805299/sys_console_uart.o
 .debug_loc     0x0000e1cd      0xdc2 build/default/production/_ext/1832805299/sys_console.o
 .debug_loc     0x0000ef8f      0x197 build/default/production/_ext/14461671/sys_dma.o
 .debug_loc     0x0000f126      0x161 build/default/production/_ext/1881668453/sys_int.o
 .debug_loc     0x0000f287     0x208d build/default/production/_ext/101884895/sys_time.o
 .debug_loc     0x00011314       0x20 build/default/production/_ext/1171490990/tasks.o
 .debug_loc     0x00011334       0x4b build/default/production/_ext/1171490990/initialization.o
 .debug_loc     0x0001137f       0x40 build/default/production/_ext/1171490990/interrupts.o
 .debug_loc     0x000113bf       0x6b build/default/production/_ext/1171490990/startup_xc32.o
 .debug_loc     0x0001142a      0x42e build/default/production/_ext/1360937237/can0_driver.o
 .debug_loc     0x00011858      0x334 build/default/production/_ext/1360937237/sht4x_driver.o
 .debug_loc     0x00011b8c      0x173 build/default/production/_ext/1360937237/rstc_driver.o
 .debug_loc     0x00011cff     0x1042 build/default/production/_ext/1360937237/ad9954_driver.o
 .debug_loc     0x00012d41      0x1b2 build/default/production/_ext/1360937237/rtc_driver.o
 .debug_loc     0x00012ef3      0x498 build/default/production/_ext/1360937237/mcp9808_driver.o
 .debug_loc     0x0001338b      0xd8c build/default/production/_ext/1360937237/bme690_driver.o
 .debug_loc     0x00014117       0xfa build/default/production/_ext/1360937237/fcm360w_driver.o
 .debug_loc     0x00014211       0x36 build/default/production/_ext/1360937237/console_driver.o
 .debug_loc     0x00014247     0x10d2 build/default/production/_ext/1360937237/hdc302x_driver.o
 .debug_loc     0x00015319      0x124 build/default/production/_ext/1360937237/ntc_driver.o
 .debug_loc     0x0001543d      0x120 build/default/production/_ext/1360937237/timer_driver.o
 .debug_loc     0x0001555d       0x82 build/default/production/_ext/1360937237/xm125_driver.o
 .debug_loc     0x000155df      0x2c4 build/default/production/_ext/1360937237/ws281x_driver.o
 .debug_loc     0x000158a3      0x992 build/default/production/_ext/1360937237/vcnl4200_driver.o
 .debug_loc     0x00016235      0x9b9 build/default/production/_ext/1360937237/sen63c_driver.o
 .debug_loc     0x00016bee      0x5bb build/default/production/_ext/1360937237/ssd1306_driver.o
 .debug_loc     0x000171a9       0x40 build/default/production/_ext/1360937237/app.o
 .debug_loc     0x000171e9       0x20 build/default/production/_ext/1360937237/main.o
 .debug_loc     0x00017209       0x16 build/default/production/_ext/1360937237/stcc4_driver.o
 .debug_loc     0x0001721f     0x15ac build/default/production/_ext/1360937237/bmp585_driver.o
 .debug_loc     0x000187cb      0x113 C:/Applications/Microchip/XC32/bin/bin/../../lib/gcc/pic32c/13.2.1/../../../../pic32c/lib/thumb/v6-m/nofp\libpic32c.a(data_init.o)
 .debug_loc     0x000188de      0x12d C:/Applications/Microchip/XC32/bin/bin/../../lib/gcc/pic32c/13.2.1/../../../../pic32c/lib/thumb/v6-m/nofp\libc-size-musl.a(memcpy.o)
 .debug_loc     0x00018a0b       0xe5 C:/Applications/Microchip/XC32/bin/bin/../../lib/gcc/pic32c/13.2.1/../../../../pic32c/lib/thumb/v6-m/nofp\libc-size-musl.a(memset.o)
 .debug_loc     0x00018af0       0x93 C:/Applications/Microchip/XC32/bin/bin/../../lib/gcc/pic32c/13.2.1/../../../../pic32c/lib/thumb/v6-m/nofp\libc-size-musl.a(strlen.o)
 .debug_loc     0x00018b83       0xc1 C:/Applications/Microchip/XC32/bin/bin/../../lib/gcc/pic32c/13.2.1/../../../../pic32c/lib/thumb/v6-m/nofp\libc-size-musl.a(strstr.o)
 .debug_loc     0x00018c44       0x98 C:/Applications/Microchip/XC32/bin/bin/../../lib/gcc/pic32c/13.2.1/../../../../pic32c/lib/thumb/v6-m/nofp\libc-size-musl.a(strchr.o)
 .debug_loc     0x00018cdc       0xdb C:/Applications/Microchip/XC32/bin/bin/../../lib/gcc/pic32c/13.2.1/../../../../pic32c/lib/thumb/v6-m/nofp\libc-size-musl.a(strchrnul.o)
 .debug_loc     0x00018db7       0x5e C:/Applications/Microchip/XC32/bin/bin/../../lib/gcc/pic32c/13.2.1/../../../../pic32c/lib/thumb/v6-m/nofp\libc-musl.a(__libc_start_main.o)
 .debug_loc     0x00018e15      0x120 C:/Applications/Microchip/XC32/bin/bin/../../lib/gcc/pic32c/13.2.1/../../../../pic32c/lib/thumb/v6-m/nofp\libc-musl.a(vsnprintf.o)
 .debug_loc     0x00018f35       0x6c C:/Applications/Microchip/XC32/bin/bin/../../lib/gcc/pic32c/13.2.1/../../../../pic32c/lib/thumb/v6-m/nofp\libc-musl.a(sprintf.o)
 .debug_loc     0x00018fa1       0x98 C:/Applications/Microchip/XC32/bin/bin/../../lib/gcc/pic32c/13.2.1/../../../../pic32c/lib/thumb/v6-m/nofp\libc-musl.a(vsprintf.o)
 .debug_loc     0x00019039       0xdc C:/Applications/Microchip/XC32/bin/bin/../../lib/gcc/pic32c/13.2.1/../../../../pic32c/lib/thumb/v6-m/nofp\libc-musl.a(vfprintf.o)
 .debug_loc     0x00019115       0xfb C:/Applications/Microchip/XC32/bin/bin/../../lib/gcc/pic32c/13.2.1/../../../../pic32c/lib/thumb/v6-m/nofp\libc-musl.a(__pop_float.o)
 .debug_loc     0x00019210      0x374 C:/Applications/Microchip/XC32/bin/bin/../../lib/gcc/pic32c/13.2.1/../../../../pic32c/lib/thumb/v6-m/nofp\libc-musl.a(__pop_int.o)
 .debug_loc     0x00019584      0x1a1 C:/Applications/Microchip/XC32/bin/bin/../../lib/gcc/pic32c/13.2.1/../../../../pic32c/lib/thumb/v6-m/nofp\libc-musl.a(__pop_ptr.o)
 .debug_loc     0x00019725      0x68c C:/Applications/Microchip/XC32/bin/bin/../../lib/gcc/pic32c/13.2.1/../../../../pic32c/lib/thumb/v6-m/nofp\libc-musl.a(__printf_core.o)
 .debug_loc     0x00019db1       0xbc C:/Applications/Microchip/XC32/bin/bin/../../lib/gcc/pic32c/13.2.1/../../../../pic32c/lib/thumb/v6-m/nofp\libc-musl.a(atoi.o)
 .debug_loc     0x00019e6d       0xa1 C:/Applications/Microchip/XC32/bin/bin/../../lib/gcc/pic32c/13.2.1/../../../../pic32c/lib/thumb/v6-m/nofp\libc-musl.a(tolower.o)
 .debug_loc     0x00019f0e      0xd70 C:/Applications/Microchip/XC32/bin/bin/../../lib/gcc/pic32c/13.2.1/../../../../pic32c/lib/thumb/v6-m/nofp\libc-musl.a(__fmt_a.o)
 .debug_loc     0x0001ac7e      0x2b3 C:/Applications/Microchip/XC32/bin/bin/../../lib/gcc/pic32c/13.2.1/../../../../pic32c/lib/thumb/v6-m/nofp\libc-musl.a(__fmt_d.o)
 .debug_loc     0x0001af31      0xc86 C:/Applications/Microchip/XC32/bin/bin/../../lib/gcc/pic32c/13.2.1/../../../../pic32c/lib/thumb/v6-m/nofp\libc-musl.a(__fmt_fp.o)
 .debug_loc     0x0001bbb7      0x13e C:/Applications/Microchip/XC32/bin/bin/../../lib/gcc/pic32c/13.2.1/../../../../pic32c/lib/thumb/v6-m/nofp\libc-musl.a(__fmt_o.o)
 .debug_loc     0x0001bcf5      0x150 C:/Applications/Microchip/XC32/bin/bin/../../lib/gcc/pic32c/13.2.1/../../../../pic32c/lib/thumb/v6-m/nofp\libc-musl.a(__fmt_s.o)
 .debug_loc     0x0001be45      0x13e C:/Applications/Microchip/XC32/bin/bin/../../lib/gcc/pic32c/13.2.1/../../../../pic32c/lib/thumb/v6-m/nofp\libc-musl.a(__fmt_u.o)
 .debug_loc     0x0001bf83      0x3d5 C:/Applications/Microchip/XC32/bin/bin/../../lib/gcc/pic32c/13.2.1/../../../../pic32c/lib/thumb/v6-m/nofp\libc-musl.a(__fmt_x.o)
 .debug_loc     0x0001c358       0xa1 C:/Applications/Microchip/XC32/bin/bin/../../lib/gcc/pic32c/13.2.1/../../../../pic32c/lib/thumb/v6-m/nofp\libc-musl.a(toupper.o)
 .debug_loc     0x0001c3f9      0x1d9 C:/Applications/Microchip/XC32/bin/bin/../../lib/gcc/pic32c/13.2.1/../../../../pic32c/lib/thumb/v6-m/nofp\libc-musl.a(__cvt_u.o)
 .debug_loc     0x0001c5d2       0x7a C:/Applications/Microchip/XC32/bin/bin/../../lib/gcc/pic32c/13.2.1/../../../../pic32c/lib/thumb/v6-m/nofp\libc-size-musl.a(strcpy.o)
 .debug_loc     0x0001c64c       0xb5 C:/Applications/Microchip/XC32/bin/bin/../../lib/gcc/pic32c/13.2.1/../../../../pic32c/lib/thumb/v6-m/nofp\libc-size-musl.a(stpcpy.o)
 .debug_loc     0x0001c701      0x12d C:/Applications/Microchip/XC32/bin/bin/../../lib/gcc/pic32c/13.2.1/thumb/v6-m/nofp\libgcc.a(_muldi3.o)
 .debug_loc     0x0001c82e      0x28a C:/Applications/Microchip/XC32/bin/bin/../../lib/gcc/pic32c/13.2.1/thumb/v6-m/nofp\libgcc.a(_udivmoddi4.o)
 .debug_loc     0x0001cab8       0xf7 C:/Applications/Microchip/XC32/bin/bin/../../lib/gcc/pic32c/13.2.1/../../../../pic32c/lib/thumb/v6-m/nofp\libpic32c.a(pic32_data_init_clear.o)
 .debug_loc     0x0001cbaf      0x197 C:/Applications/Microchip/XC32/bin/bin/../../lib/gcc/pic32c/13.2.1/../../../../pic32c/lib/thumb/v6-m/nofp\libpic32c.a(pic32_data_init_copy.o)

.debug_aranges  0x00000000     0x29b8
 .debug_aranges
                0x00000000       0xc0 build/default/production/_ext/158385033/drv_i2c.o
 .debug_aranges
                0x000000c0       0xb8 build/default/production/_ext/2070931557/drv_spi.o
 .debug_aranges
                0x00000178      0x110 build/default/production/_ext/869808652/drv_usart.o
 .debug_aranges
                0x00000288       0x50 build/default/production/_ext/829343244/plib_ac.o
 .debug_aranges
                0x000002d8       0x88 build/default/production/_ext/60163342/plib_adc0.o
 .debug_aranges
                0x00000360       0xa0 build/default/production/_ext/60165182/plib_can0.o
 .debug_aranges
                0x00000400       0x20 build/default/production/_ext/60165242/plib_ccl.o
 .debug_aranges
                0x00000420       0x30 build/default/production/_ext/1984496892/plib_clock.o
 .debug_aranges
                0x00000450       0x30 build/default/production/_ext/60166132/plib_dac.o
 .debug_aranges
                0x00000480       0x98 build/default/production/_ext/1865161661/plib_dmac.o
 .debug_aranges
                0x00000518       0x40 build/default/production/_ext/60167341/plib_eic.o
 .debug_aranges
                0x00000558       0x40 build/default/production/_ext/1986646378/plib_evsys.o
 .debug_aranges
                0x00000598       0x50 build/default/production/_ext/1987437027/plib_freqm.o
 .debug_aranges
                0x000005e8       0x48 build/default/production/_ext/1865468468/plib_nvic.o
 .debug_aranges
                0x00000630       0xb0 build/default/production/_ext/1593096446/plib_nvmctrl.o
 .debug_aranges
                0x000006e0       0x50 build/default/production/_ext/1865510628/plib_pdec.o
 .debug_aranges
                0x00000730       0x30 build/default/production/_ext/829342769/plib_pm.o
 .debug_aranges
                0x00000760       0x68 build/default/production/_ext/1865521619/plib_port.o
 .debug_aranges
                0x000007c8       0x20 build/default/production/_ext/1865585090/plib_rstc.o
 .debug_aranges
                0x000007e8       0x58 build/default/production/_ext/60180175/plib_rtc_clock.o
 .debug_aranges
                0x00000840       0x78 build/default/production/_ext/508257091/plib_sercom3_i2c_master.o
 .debug_aranges
                0x000008b8       0x60 build/default/production/_ext/17022449/plib_sercom2_spi_master.o
 .debug_aranges
                0x00000918       0xe8 build/default/production/_ext/504274921/plib_sercom1_usart.o
 .debug_aranges
                0x00000a00       0xe0 build/default/production/_ext/504274921/plib_sercom0_usart.o
 .debug_aranges
                0x00000ae0       0x20 build/default/production/_ext/1865616679/plib_supc.o
 .debug_aranges
                0x00000b00       0xb0 build/default/production/_ext/1827571544/plib_systick.o
 .debug_aranges
                0x00000bb0       0x60 build/default/production/_ext/829342655/plib_tc0.o
 .debug_aranges
                0x00000c10       0x78 build/default/production/_ext/60181570/plib_tcc1.o
 .debug_aranges
                0x00000c88       0x80 build/default/production/_ext/60181570/plib_tcc0.o
 .debug_aranges
                0x00000d08       0x68 build/default/production/_ext/60184501/plib_wdt.o
 .debug_aranges
                0x00000d70       0x68 build/default/production/_ext/1832805299/sys_console_uart.o
 .debug_aranges
                0x00000dd8       0x88 build/default/production/_ext/1832805299/sys_console.o
 .debug_aranges
                0x00000e60       0x28 build/default/production/_ext/14461671/sys_dma.o
 .debug_aranges
                0x00000e88       0x40 build/default/production/_ext/1881668453/sys_int.o
 .debug_aranges
                0x00000ec8      0x108 build/default/production/_ext/101884895/sys_time.o
 .debug_aranges
                0x00000fd0       0x20 build/default/production/_ext/1171490990/tasks.o
 .debug_aranges
                0x00000ff0       0x20 build/default/production/_ext/1171490990/initialization.o
 .debug_aranges
                0x00001010       0x30 build/default/production/_ext/1171490990/interrupts.o
 .debug_aranges
                0x00001040       0x28 build/default/production/_ext/1171490990/exceptions.o
 .debug_aranges
                0x00001068       0x28 build/default/production/_ext/1171490990/startup_xc32.o
 .debug_aranges
                0x00001090       0x78 build/default/production/_ext/1360937237/can0_driver.o
 .debug_aranges
                0x00001108       0x98 build/default/production/_ext/1360937237/sht4x_driver.o
 .debug_aranges
                0x000011a0       0x50 build/default/production/_ext/1360937237/rstc_driver.o
 .debug_aranges
                0x000011f0      0x190 build/default/production/_ext/1360937237/ad9954_driver.o
 .debug_aranges
                0x00001380       0x88 build/default/production/_ext/1360937237/rtc_driver.o
 .debug_aranges
                0x00001408       0xd8 build/default/production/_ext/1360937237/mcp9808_driver.o
 .debug_aranges
                0x000014e0      0x3d8 build/default/production/_ext/1360937237/bme690_driver.o
 .debug_aranges
                0x000018b8       0x68 build/default/production/_ext/1360937237/fcm360w_driver.o
 .debug_aranges
                0x00001920       0x48 build/default/production/_ext/1360937237/console_driver.o
 .debug_aranges
                0x00001968      0x1e8 build/default/production/_ext/1360937237/hdc302x_driver.o
 .debug_aranges
                0x00001b50       0x28 build/default/production/_ext/1360937237/fan_driver.o
 .debug_aranges
                0x00001b78       0x60 build/default/production/_ext/1360937237/ntc_driver.o
 .debug_aranges
                0x00001bd8       0xc0 build/default/production/_ext/1360937237/timer_driver.o
 .debug_aranges
                0x00001c98       0x68 build/default/production/_ext/1360937237/xm125_driver.o
 .debug_aranges
                0x00001d00       0x70 build/default/production/_ext/1360937237/ws281x_driver.o
 .debug_aranges
                0x00001d70      0x138 build/default/production/_ext/1360937237/vcnl4200_driver.o
 .debug_aranges
                0x00001ea8      0x150 build/default/production/_ext/1360937237/sen63c_driver.o
 .debug_aranges
                0x00001ff8       0x90 build/default/production/_ext/1360937237/ssd1306_driver.o
 .debug_aranges
                0x00002088       0x68 build/default/production/_ext/1360937237/app.o
 .debug_aranges
                0x000020f0       0x20 build/default/production/_ext/1360937237/main.o
 .debug_aranges
                0x00002110       0x28 build/default/production/_ext/1360937237/stcc4_driver.o
 .debug_aranges
                0x00002138      0x298 build/default/production/_ext/1360937237/bmp585_driver.o
 .debug_aranges
                0x000023d0       0x30 C:/Applications/Microchip/XC32/bin/bin/../../lib/gcc/pic32c/13.2.1/../../../../pic32c/lib/thumb/v6-m/nofp\libpic32c.a(data_init.o)
 .debug_aranges
                0x00002400       0x20 C:/Applications/Microchip/XC32/bin/bin/../../lib/gcc/pic32c/13.2.1/../../../../pic32c/lib/thumb/v6-m/nofp\libc-size-musl.a(memcpy.o)
 .debug_aranges
                0x00002420       0x20 C:/Applications/Microchip/XC32/bin/bin/../../lib/gcc/pic32c/13.2.1/../../../../pic32c/lib/thumb/v6-m/nofp\libc-size-musl.a(memset.o)
 .debug_aranges
                0x00002440       0x20 C:/Applications/Microchip/XC32/bin/bin/../../lib/gcc/pic32c/13.2.1/../../../../pic32c/lib/thumb/v6-m/nofp\libc-size-musl.a(strlen.o)
 .debug_aranges
                0x00002460       0x20 C:/Applications/Microchip/XC32/bin/bin/../../lib/gcc/pic32c/13.2.1/../../../../pic32c/lib/thumb/v6-m/nofp\libc-size-musl.a(strstr.o)
 .debug_aranges
                0x00002480       0x20 C:/Applications/Microchip/XC32/bin/bin/../../lib/gcc/pic32c/13.2.1/../../../../pic32c/lib/thumb/v6-m/nofp\libc-size-musl.a(strchr.o)
 .debug_aranges
                0x000024a0       0x20 C:/Applications/Microchip/XC32/bin/bin/../../lib/gcc/pic32c/13.2.1/../../../../pic32c/lib/thumb/v6-m/nofp\libc-size-musl.a(strchrnul.o)
 .debug_aranges
                0x000024c0       0x28 C:/Applications/Microchip/XC32/bin/bin/../../lib/gcc/pic32c/13.2.1/../../../../pic32c/lib/thumb/v6-m/nofp\libc-musl.a(__libc_start_main.o)
 .debug_aranges
                0x000024e8       0x18 C:/Applications/Microchip/XC32/bin/bin/../../lib/gcc/pic32c/13.2.1/../../../../pic32c/lib/thumb/v6-m/nofp\libc-musl.a(libc.o)
 .debug_aranges
                0x00002500       0x20 C:/Applications/Microchip/XC32/bin/bin/../../lib/gcc/pic32c/13.2.1/../../../../pic32c/lib/thumb/v6-m/nofp\libc-musl.a(vsnprintf.o)
 .debug_aranges
                0x00002520       0x20 C:/Applications/Microchip/XC32/bin/bin/../../lib/gcc/pic32c/13.2.1/../../../../pic32c/lib/thumb/v6-m/nofp\libc-musl.a(sprintf.o)
 .debug_aranges
                0x00002540       0x20 C:/Applications/Microchip/XC32/bin/bin/../../lib/gcc/pic32c/13.2.1/../../../../pic32c/lib/thumb/v6-m/nofp\libc-musl.a(vsprintf.o)
 .debug_aranges
                0x00002560       0x18 C:/Applications/Microchip/XC32/bin/bin/../../lib/gcc/pic32c/13.2.1/../../../../pic32c/lib/thumb/v6-m/nofp\libc-musl.a(__environ.o)
 .debug_aranges
                0x00002578       0x18 C:/Applications/Microchip/XC32/bin/bin/../../lib/gcc/pic32c/13.2.1/../../../../pic32c/lib/thumb/v6-m/nofp\libc-musl.a(__errno_location.o)
 .debug_aranges
                0x00002590       0x28 C:/Applications/Microchip/XC32/bin/bin/../../lib/gcc/pic32c/13.2.1/../../../../pic32c/lib/thumb/v6-m/nofp\libc-musl.a(vfprintf.o)
 .debug_aranges
                0x000025b8       0x20 C:/Applications/Microchip/XC32/bin/bin/../../lib/gcc/pic32c/13.2.1/../../../../pic32c/lib/thumb/v6-m/nofp\libc-musl.a(__pop_float.o)
 .debug_aranges
                0x000025d8       0x20 C:/Applications/Microchip/XC32/bin/bin/../../lib/gcc/pic32c/13.2.1/../../../../pic32c/lib/thumb/v6-m/nofp\libc-musl.a(__pop_int.o)
 .debug_aranges
                0x000025f8       0x20 C:/Applications/Microchip/XC32/bin/bin/../../lib/gcc/pic32c/13.2.1/../../../../pic32c/lib/thumb/v6-m/nofp\libc-musl.a(__pop_ptr.o)
 .debug_aranges
                0x00002618       0x50 C:/Applications/Microchip/XC32/bin/bin/../../lib/gcc/pic32c/13.2.1/../../../../pic32c/lib/thumb/v6-m/nofp\libc-musl.a(__printf_core.o)
 .debug_aranges
                0x00002668       0x20 C:/Applications/Microchip/XC32/bin/bin/../../lib/gcc/pic32c/13.2.1/../../../../pic32c/lib/thumb/v6-m/nofp\libc-musl.a(atoi.o)
 .debug_aranges
                0x00002688       0x28 C:/Applications/Microchip/XC32/bin/bin/../../lib/gcc/pic32c/13.2.1/../../../../pic32c/lib/thumb/v6-m/nofp\libc-musl.a(tolower.o)
 .debug_aranges
                0x000026b0       0x20 C:/Applications/Microchip/XC32/bin/bin/../../lib/gcc/pic32c/13.2.1/../../../../pic32c/lib/thumb/v6-m/nofp\libc-musl.a(__fmt_a.o)
 .debug_aranges
                0x000026d0       0x20 C:/Applications/Microchip/XC32/bin/bin/../../lib/gcc/pic32c/13.2.1/../../../../pic32c/lib/thumb/v6-m/nofp\libc-musl.a(__fmt_d.o)
 .debug_aranges
                0x000026f0       0x20 C:/Applications/Microchip/XC32/bin/bin/../../lib/gcc/pic32c/13.2.1/../../../../pic32c/lib/thumb/v6-m/nofp\libc-musl.a(__fmt_fp.o)
 .debug_aranges
                0x00002710       0x20 C:/Applications/Microchip/XC32/bin/bin/../../lib/gcc/pic32c/13.2.1/../../../../pic32c/lib/thumb/v6-m/nofp\libc-musl.a(__fmt_o.o)
 .debug_aranges
                0x00002730       0x20 C:/Applications/Microchip/XC32/bin/bin/../../lib/gcc/pic32c/13.2.1/../../../../pic32c/lib/thumb/v6-m/nofp\libc-musl.a(__fmt_s.o)
 .debug_aranges
                0x00002750       0x20 C:/Applications/Microchip/XC32/bin/bin/../../lib/gcc/pic32c/13.2.1/../../../../pic32c/lib/thumb/v6-m/nofp\libc-musl.a(__fmt_u.o)
 .debug_aranges
                0x00002770       0x20 C:/Applications/Microchip/XC32/bin/bin/../../lib/gcc/pic32c/13.2.1/../../../../pic32c/lib/thumb/v6-m/nofp\libc-musl.a(__fmt_x.o)
 .debug_aranges
                0x00002790       0x28 C:/Applications/Microchip/XC32/bin/bin/../../lib/gcc/pic32c/13.2.1/../../../../pic32c/lib/thumb/v6-m/nofp\libc-musl.a(toupper.o)
 .debug_aranges
                0x000027b8       0x20 C:/Applications/Microchip/XC32/bin/bin/../../lib/gcc/pic32c/13.2.1/../../../../pic32c/lib/thumb/v6-m/nofp\libc-musl.a(__cvt_u.o)
 .debug_aranges
                0x000027d8       0x20 C:/Applications/Microchip/XC32/bin/bin/../../lib/gcc/pic32c/13.2.1/../../../../pic32c/lib/thumb/v6-m/nofp\libc-size-musl.a(strcpy.o)
 .debug_aranges
                0x000027f8       0x20 C:/Applications/Microchip/XC32/bin/bin/../../lib/gcc/pic32c/13.2.1/../../../../pic32c/lib/thumb/v6-m/nofp\libc-size-musl.a(stpcpy.o)
 .debug_aranges
                0x00002818       0x20 C:/Applications/Microchip/XC32/bin/bin/../../lib/gcc/pic32c/13.2.1/thumb/v6-m/nofp\libgcc.a(_thumb1_case_uqi.o)
 .debug_aranges
                0x00002838       0x20 C:/Applications/Microchip/XC32/bin/bin/../../lib/gcc/pic32c/13.2.1/thumb/v6-m/nofp\libgcc.a(_udivsi3.o)
 .debug_aranges
                0x00002858       0x20 C:/Applications/Microchip/XC32/bin/bin/../../lib/gcc/pic32c/13.2.1/thumb/v6-m/nofp\libgcc.a(_divsi3.o)
 .debug_aranges
                0x00002878       0x20 C:/Applications/Microchip/XC32/bin/bin/../../lib/gcc/pic32c/13.2.1/thumb/v6-m/nofp\libgcc.a(_dvmd_tls.o)
 .debug_aranges
                0x00002898       0x20 C:/Applications/Microchip/XC32/bin/bin/../../lib/gcc/pic32c/13.2.1/thumb/v6-m/nofp\libgcc.a(_aeabi_uldivmod.o)
 .debug_aranges
                0x000028b8       0x20 C:/Applications/Microchip/XC32/bin/bin/../../lib/gcc/pic32c/13.2.1/thumb/v6-m/nofp\libgcc.a(_muldi3.o)
 .debug_aranges
                0x000028d8       0x20 C:/Applications/Microchip/XC32/bin/bin/../../lib/gcc/pic32c/13.2.1/thumb/v6-m/nofp\libgcc.a(_udivmoddi4.o)
 .debug_aranges
                0x000028f8       0x20 C:/Applications/Microchip/XC32/bin/bin/../../lib/gcc/pic32c/13.2.1/thumb/v6-m/nofp\libgcc.a(_lshrdi3.o)
 .debug_aranges
                0x00002918       0x20 C:/Applications/Microchip/XC32/bin/bin/../../lib/gcc/pic32c/13.2.1/thumb/v6-m/nofp\libgcc.a(_ashldi3.o)
 .debug_aranges
                0x00002938       0x20 C:/Applications/Microchip/XC32/bin/bin/../../lib/gcc/pic32c/13.2.1/thumb/v6-m/nofp\libgcc.a(_clzdi2.o)
 .debug_aranges
                0x00002958       0x20 C:/Applications/Microchip/XC32/bin/bin/../../lib/gcc/pic32c/13.2.1/thumb/v6-m/nofp\libgcc.a(_clzsi2.o)
 .debug_aranges
                0x00002978       0x20 C:/Applications/Microchip/XC32/bin/bin/../../lib/gcc/pic32c/13.2.1/../../../../pic32c/lib/thumb/v6-m/nofp\libpic32c.a(pic32_data_init_clear.o)
 .debug_aranges
                0x00002998       0x20 C:/Applications/Microchip/XC32/bin/bin/../../lib/gcc/pic32c/13.2.1/../../../../pic32c/lib/thumb/v6-m/nofp\libpic32c.a(pic32_data_init_copy.o)

.debug_ranges   0x00000000     0x2ac0
 .debug_ranges  0x00000000      0x180 build/default/production/_ext/158385033/drv_i2c.o
 .debug_ranges  0x00000180      0x1d0 build/default/production/_ext/2070931557/drv_spi.o
 .debug_ranges  0x00000350      0x258 build/default/production/_ext/869808652/drv_usart.o
 .debug_ranges  0x000005a8       0x40 build/default/production/_ext/829343244/plib_ac.o
 .debug_ranges  0x000005e8       0x78 build/default/production/_ext/60163342/plib_adc0.o
 .debug_ranges  0x00000660       0x90 build/default/production/_ext/60165182/plib_can0.o
 .debug_ranges  0x000006f0       0x10 build/default/production/_ext/60165242/plib_ccl.o
 .debug_ranges  0x00000700       0x20 build/default/production/_ext/1984496892/plib_clock.o
 .debug_ranges  0x00000720       0x20 build/default/production/_ext/60166132/plib_dac.o
 .debug_ranges  0x00000740       0xa0 build/default/production/_ext/1865161661/plib_dmac.o
 .debug_ranges  0x000007e0       0x30 build/default/production/_ext/60167341/plib_eic.o
 .debug_ranges  0x00000810       0x30 build/default/production/_ext/1986646378/plib_evsys.o
 .debug_ranges  0x00000840       0x58 build/default/production/_ext/1987437027/plib_freqm.o
 .debug_ranges  0x00000898       0x50 build/default/production/_ext/1865468468/plib_nvic.o
 .debug_ranges  0x000008e8       0xa0 build/default/production/_ext/1593096446/plib_nvmctrl.o
 .debug_ranges  0x00000988       0x40 build/default/production/_ext/1865510628/plib_pdec.o
 .debug_ranges  0x000009c8       0x20 build/default/production/_ext/829342769/plib_pm.o
 .debug_ranges  0x000009e8       0x58 build/default/production/_ext/1865521619/plib_port.o
 .debug_ranges  0x00000a40       0x10 build/default/production/_ext/1865585090/plib_rstc.o
 .debug_ranges  0x00000a50       0x48 build/default/production/_ext/60180175/plib_rtc_clock.o
 .debug_ranges  0x00000a98      0x130 build/default/production/_ext/508257091/plib_sercom3_i2c_master.o
 .debug_ranges  0x00000bc8       0x68 build/default/production/_ext/17022449/plib_sercom2_spi_master.o
 .debug_ranges  0x00000c30      0x1e0 build/default/production/_ext/504274921/plib_sercom1_usart.o
 .debug_ranges  0x00000e10      0x120 build/default/production/_ext/504274921/plib_sercom0_usart.o
 .debug_ranges  0x00000f30       0x10 build/default/production/_ext/1865616679/plib_supc.o
 .debug_ranges  0x00000f40       0xa0 build/default/production/_ext/1827571544/plib_systick.o
 .debug_ranges  0x00000fe0       0x50 build/default/production/_ext/829342655/plib_tc0.o
 .debug_ranges  0x00001030       0x68 build/default/production/_ext/60181570/plib_tcc1.o
 .debug_ranges  0x00001098       0x70 build/default/production/_ext/60181570/plib_tcc0.o
 .debug_ranges  0x00001108       0x58 build/default/production/_ext/60184501/plib_wdt.o
 .debug_ranges  0x00001160       0xe8 build/default/production/_ext/1832805299/sys_console_uart.o
 .debug_ranges  0x00001248       0x90 build/default/production/_ext/1832805299/sys_console.o
 .debug_ranges  0x000012d8       0x18 build/default/production/_ext/14461671/sys_dma.o
 .debug_ranges  0x000012f0       0x48 build/default/production/_ext/1881668453/sys_int.o
 .debug_ranges  0x00001338      0x188 build/default/production/_ext/101884895/sys_time.o
 .debug_ranges  0x000014c0       0x10 build/default/production/_ext/1171490990/tasks.o
 .debug_ranges  0x000014d0       0x10 build/default/production/_ext/1171490990/initialization.o
 .debug_ranges  0x000014e0       0x20 build/default/production/_ext/1171490990/interrupts.o
 .debug_ranges  0x00001500       0x18 build/default/production/_ext/1171490990/exceptions.o
 .debug_ranges  0x00001518       0x18 build/default/production/_ext/1171490990/startup_xc32.o
 .debug_ranges  0x00001530       0xc8 build/default/production/_ext/1360937237/can0_driver.o
 .debug_ranges  0x000015f8       0x88 build/default/production/_ext/1360937237/sht4x_driver.o
 .debug_ranges  0x00001680       0x40 build/default/production/_ext/1360937237/rstc_driver.o
 .debug_ranges  0x000016c0      0x180 build/default/production/_ext/1360937237/ad9954_driver.o
 .debug_ranges  0x00001840       0x78 build/default/production/_ext/1360937237/rtc_driver.o
 .debug_ranges  0x000018b8       0xc8 build/default/production/_ext/1360937237/mcp9808_driver.o
 .debug_ranges  0x00001980      0x3c8 build/default/production/_ext/1360937237/bme690_driver.o
 .debug_ranges  0x00001d48       0x58 build/default/production/_ext/1360937237/fcm360w_driver.o
 .debug_ranges  0x00001da0       0x38 build/default/production/_ext/1360937237/console_driver.o
 .debug_ranges  0x00001dd8      0x1f0 build/default/production/_ext/1360937237/hdc302x_driver.o
 .debug_ranges  0x00001fc8       0x18 build/default/production/_ext/1360937237/fan_driver.o
 .debug_ranges  0x00001fe0       0x50 build/default/production/_ext/1360937237/ntc_driver.o
 .debug_ranges  0x00002030       0xb0 build/default/production/_ext/1360937237/timer_driver.o
 .debug_ranges  0x000020e0       0x58 build/default/production/_ext/1360937237/xm125_driver.o
 .debug_ranges  0x00002138       0x98 build/default/production/_ext/1360937237/ws281x_driver.o
 .debug_ranges  0x000021d0      0x128 build/default/production/_ext/1360937237/vcnl4200_driver.o
 .debug_ranges  0x000022f8      0x158 build/default/production/_ext/1360937237/sen63c_driver.o
 .debug_ranges  0x00002450       0xb0 build/default/production/_ext/1360937237/ssd1306_driver.o
 .debug_ranges  0x00002500       0x58 build/default/production/_ext/1360937237/app.o
 .debug_ranges  0x00002558       0x10 build/default/production/_ext/1360937237/main.o
 .debug_ranges  0x00002568       0x18 build/default/production/_ext/1360937237/stcc4_driver.o
 .debug_ranges  0x00002580      0x288 build/default/production/_ext/1360937237/bmp585_driver.o
 .debug_ranges  0x00002808       0x20 C:/Applications/Microchip/XC32/bin/bin/../../lib/gcc/pic32c/13.2.1/../../../../pic32c/lib/thumb/v6-m/nofp\libpic32c.a(data_init.o)
 .debug_ranges  0x00002828       0x10 C:/Applications/Microchip/XC32/bin/bin/../../lib/gcc/pic32c/13.2.1/../../../../pic32c/lib/thumb/v6-m/nofp\libc-size-musl.a(memcpy.o)
 .debug_ranges  0x00002838       0x10 C:/Applications/Microchip/XC32/bin/bin/../../lib/gcc/pic32c/13.2.1/../../../../pic32c/lib/thumb/v6-m/nofp\libc-size-musl.a(memset.o)
 .debug_ranges  0x00002848       0x10 C:/Applications/Microchip/XC32/bin/bin/../../lib/gcc/pic32c/13.2.1/../../../../pic32c/lib/thumb/v6-m/nofp\libc-size-musl.a(strlen.o)
 .debug_ranges  0x00002858       0x10 C:/Applications/Microchip/XC32/bin/bin/../../lib/gcc/pic32c/13.2.1/../../../../pic32c/lib/thumb/v6-m/nofp\libc-size-musl.a(strstr.o)
 .debug_ranges  0x00002868       0x10 C:/Applications/Microchip/XC32/bin/bin/../../lib/gcc/pic32c/13.2.1/../../../../pic32c/lib/thumb/v6-m/nofp\libc-size-musl.a(strchr.o)
 .debug_ranges  0x00002878       0x10 C:/Applications/Microchip/XC32/bin/bin/../../lib/gcc/pic32c/13.2.1/../../../../pic32c/lib/thumb/v6-m/nofp\libc-size-musl.a(strchrnul.o)
 .debug_ranges  0x00002888       0x30 C:/Applications/Microchip/XC32/bin/bin/../../lib/gcc/pic32c/13.2.1/../../../../pic32c/lib/thumb/v6-m/nofp\libc-musl.a(__libc_start_main.o)
 .debug_ranges  0x000028b8       0x10 C:/Applications/Microchip/XC32/bin/bin/../../lib/gcc/pic32c/13.2.1/../../../../pic32c/lib/thumb/v6-m/nofp\libc-musl.a(vsnprintf.o)
 .debug_ranges  0x000028c8       0x10 C:/Applications/Microchip/XC32/bin/bin/../../lib/gcc/pic32c/13.2.1/../../../../pic32c/lib/thumb/v6-m/nofp\libc-musl.a(sprintf.o)
 .debug_ranges  0x000028d8       0x10 C:/Applications/Microchip/XC32/bin/bin/../../lib/gcc/pic32c/13.2.1/../../../../pic32c/lib/thumb/v6-m/nofp\libc-musl.a(vsprintf.o)
 .debug_ranges  0x000028e8       0x18 C:/Applications/Microchip/XC32/bin/bin/../../lib/gcc/pic32c/13.2.1/../../../../pic32c/lib/thumb/v6-m/nofp\libc-musl.a(vfprintf.o)
 .debug_ranges  0x00002900       0x10 C:/Applications/Microchip/XC32/bin/bin/../../lib/gcc/pic32c/13.2.1/../../../../pic32c/lib/thumb/v6-m/nofp\libc-musl.a(__pop_float.o)
 .debug_ranges  0x00002910       0x10 C:/Applications/Microchip/XC32/bin/bin/../../lib/gcc/pic32c/13.2.1/../../../../pic32c/lib/thumb/v6-m/nofp\libc-musl.a(__pop_int.o)
 .debug_ranges  0x00002920       0x10 C:/Applications/Microchip/XC32/bin/bin/../../lib/gcc/pic32c/13.2.1/../../../../pic32c/lib/thumb/v6-m/nofp\libc-musl.a(__pop_ptr.o)
 .debug_ranges  0x00002930       0x58 C:/Applications/Microchip/XC32/bin/bin/../../lib/gcc/pic32c/13.2.1/../../../../pic32c/lib/thumb/v6-m/nofp\libc-musl.a(__printf_core.o)
 .debug_ranges  0x00002988       0x10 C:/Applications/Microchip/XC32/bin/bin/../../lib/gcc/pic32c/13.2.1/../../../../pic32c/lib/thumb/v6-m/nofp\libc-musl.a(atoi.o)
 .debug_ranges  0x00002998       0x18 C:/Applications/Microchip/XC32/bin/bin/../../lib/gcc/pic32c/13.2.1/../../../../pic32c/lib/thumb/v6-m/nofp\libc-musl.a(tolower.o)
 .debug_ranges  0x000029b0       0x10 C:/Applications/Microchip/XC32/bin/bin/../../lib/gcc/pic32c/13.2.1/../../../../pic32c/lib/thumb/v6-m/nofp\libc-musl.a(__fmt_a.o)
 .debug_ranges  0x000029c0       0x10 C:/Applications/Microchip/XC32/bin/bin/../../lib/gcc/pic32c/13.2.1/../../../../pic32c/lib/thumb/v6-m/nofp\libc-musl.a(__fmt_d.o)
 .debug_ranges  0x000029d0       0x10 C:/Applications/Microchip/XC32/bin/bin/../../lib/gcc/pic32c/13.2.1/../../../../pic32c/lib/thumb/v6-m/nofp\libc-musl.a(__fmt_fp.o)
 .debug_ranges  0x000029e0       0x10 C:/Applications/Microchip/XC32/bin/bin/../../lib/gcc/pic32c/13.2.1/../../../../pic32c/lib/thumb/v6-m/nofp\libc-musl.a(__fmt_o.o)
 .debug_ranges  0x000029f0       0x10 C:/Applications/Microchip/XC32/bin/bin/../../lib/gcc/pic32c/13.2.1/../../../../pic32c/lib/thumb/v6-m/nofp\libc-musl.a(__fmt_s.o)
 .debug_ranges  0x00002a00       0x10 C:/Applications/Microchip/XC32/bin/bin/../../lib/gcc/pic32c/13.2.1/../../../../pic32c/lib/thumb/v6-m/nofp\libc-musl.a(__fmt_u.o)
 .debug_ranges  0x00002a10       0x10 C:/Applications/Microchip/XC32/bin/bin/../../lib/gcc/pic32c/13.2.1/../../../../pic32c/lib/thumb/v6-m/nofp\libc-musl.a(__fmt_x.o)
 .debug_ranges  0x00002a20       0x18 C:/Applications/Microchip/XC32/bin/bin/../../lib/gcc/pic32c/13.2.1/../../../../pic32c/lib/thumb/v6-m/nofp\libc-musl.a(toupper.o)
 .debug_ranges  0x00002a38       0x10 C:/Applications/Microchip/XC32/bin/bin/../../lib/gcc/pic32c/13.2.1/../../../../pic32c/lib/thumb/v6-m/nofp\libc-musl.a(__cvt_u.o)
 .debug_ranges  0x00002a48       0x10 C:/Applications/Microchip/XC32/bin/bin/../../lib/gcc/pic32c/13.2.1/../../../../pic32c/lib/thumb/v6-m/nofp\libc-size-musl.a(strcpy.o)
 .debug_ranges  0x00002a58       0x10 C:/Applications/Microchip/XC32/bin/bin/../../lib/gcc/pic32c/13.2.1/../../../../pic32c/lib/thumb/v6-m/nofp\libc-size-musl.a(stpcpy.o)
 .debug_ranges  0x00002a68       0x38 C:/Applications/Microchip/XC32/bin/bin/../../lib/gcc/pic32c/13.2.1/thumb/v6-m/nofp\libgcc.a(_muldi3.o)
 .debug_ranges  0x00002aa0       0x10 C:/Applications/Microchip/XC32/bin/bin/../../lib/gcc/pic32c/13.2.1/../../../../pic32c/lib/thumb/v6-m/nofp\libpic32c.a(pic32_data_init_clear.o)
 .debug_ranges  0x00002ab0       0x10 C:/Applications/Microchip/XC32/bin/bin/../../lib/gcc/pic32c/13.2.1/../../../../pic32c/lib/thumb/v6-m/nofp\libpic32c.a(pic32_data_init_copy.o)

.debug_line     0x00000000    0x1d2d5
 .debug_line    0x00000000     0x1057 build/default/production/_ext/158385033/drv_i2c.o
 .debug_line    0x00001057     0x1640 build/default/production/_ext/2070931557/drv_spi.o
 .debug_line    0x00002697     0x1583 build/default/production/_ext/869808652/drv_usart.o
 .debug_line    0x00003c1a      0x2ff build/default/production/_ext/829343244/plib_ac.o
 .debug_line    0x00003f19      0x4a4 build/default/production/_ext/60163342/plib_adc0.o
 .debug_line    0x000043bd      0xab8 build/default/production/_ext/60165182/plib_can0.o
 .debug_line    0x00004e75      0x129 build/default/production/_ext/60165242/plib_ccl.o
 .debug_line    0x00004f9e      0x5e9 build/default/production/_ext/1984496892/plib_clock.o
 .debug_line    0x00005587      0x18e build/default/production/_ext/60166132/plib_dac.o
 .debug_line    0x00005715      0x80e build/default/production/_ext/1865161661/plib_dmac.o
 .debug_line    0x00005f23      0x314 build/default/production/_ext/60167341/plib_eic.o
 .debug_line    0x00006237      0x191 build/default/production/_ext/1986646378/plib_evsys.o
 .debug_line    0x000063c8      0x263 build/default/production/_ext/1987437027/plib_freqm.o
 .debug_line    0x0000662b      0x651 build/default/production/_ext/1865468468/plib_nvic.o
 .debug_line    0x00006c7c      0x539 build/default/production/_ext/1593096446/plib_nvmctrl.o
 .debug_line    0x000071b5      0x3af build/default/production/_ext/1865510628/plib_pdec.o
 .debug_line    0x00007564      0x17a build/default/production/_ext/829342769/plib_pm.o
 .debug_line    0x000076de      0x2a3 build/default/production/_ext/1865521619/plib_port.o
 .debug_line    0x00007981       0xfa build/default/production/_ext/1865585090/plib_rstc.o
 .debug_line    0x00007a7b      0x4d5 build/default/production/_ext/60180175/plib_rtc_clock.o
 .debug_line    0x00007f50      0xb57 build/default/production/_ext/508257091/plib_sercom3_i2c_master.o
 .debug_line    0x00008aa7      0x88d build/default/production/_ext/17022449/plib_sercom2_spi_master.o
 .debug_line    0x00009334      0xe4a build/default/production/_ext/504274921/plib_sercom1_usart.o
 .debug_line    0x0000a17e      0xb14 build/default/production/_ext/504274921/plib_sercom0_usart.o
 .debug_line    0x0000ac92      0x180 build/default/production/_ext/1865616679/plib_supc.o
 .debug_line    0x0000ae12      0x510 build/default/production/_ext/1827571544/plib_systick.o
 .debug_line    0x0000b322      0x2f2 build/default/production/_ext/829342655/plib_tc0.o
 .debug_line    0x0000b614      0x432 build/default/production/_ext/60181570/plib_tcc1.o
 .debug_line    0x0000ba46      0x488 build/default/production/_ext/60181570/plib_tcc0.o
 .debug_line    0x0000bece      0x388 build/default/production/_ext/60184501/plib_wdt.o
 .debug_line    0x0000c256      0x62b build/default/production/_ext/1832805299/sys_console_uart.o
 .debug_line    0x0000c881      0x698 build/default/production/_ext/1832805299/sys_console.o
 .debug_line    0x0000cf19      0x143 build/default/production/_ext/14461671/sys_dma.o
 .debug_line    0x0000d05c      0x2d8 build/default/production/_ext/1881668453/sys_int.o
 .debug_line    0x0000d334      0xfb2 build/default/production/_ext/101884895/sys_time.o
 .debug_line    0x0000e2e6      0x1dc build/default/production/_ext/1171490990/tasks.o
 .debug_line    0x0000e4c2      0xbe0 build/default/production/_ext/1171490990/initialization.o
 .debug_line    0x0000f0a2      0x128 build/default/production/_ext/1171490990/interrupts.o
 .debug_line    0x0000f1ca       0x75 build/default/production/_ext/1171490990/exceptions.o
 .debug_line    0x0000f23f      0x278 build/default/production/_ext/1171490990/startup_xc32.o
 .debug_line    0x0000f4b7      0x6b6 build/default/production/_ext/1360937237/can0_driver.o
 .debug_line    0x0000fb6d      0x5b0 build/default/production/_ext/1360937237/sht4x_driver.o
 .debug_line    0x0001011d      0x454 build/default/production/_ext/1360937237/rstc_driver.o
 .debug_line    0x00010571      0xce9 build/default/production/_ext/1360937237/ad9954_driver.o
 .debug_line    0x0001125a      0x431 build/default/production/_ext/1360937237/rtc_driver.o
 .debug_line    0x0001168b      0x793 build/default/production/_ext/1360937237/mcp9808_driver.o
 .debug_line    0x00011e1e     0x1069 build/default/production/_ext/1360937237/bme690_driver.o
 .debug_line    0x00012e87      0x50f build/default/production/_ext/1360937237/fcm360w_driver.o
 .debug_line    0x00013396      0x242 build/default/production/_ext/1360937237/console_driver.o
 .debug_line    0x000135d8      0xd9a build/default/production/_ext/1360937237/hdc302x_driver.o
 .debug_line    0x00014372      0x104 build/default/production/_ext/1360937237/fan_driver.o
 .debug_line    0x00014476      0x2f7 build/default/production/_ext/1360937237/ntc_driver.o
 .debug_line    0x0001476d      0x39b build/default/production/_ext/1360937237/timer_driver.o
 .debug_line    0x00014b08      0x347 build/default/production/_ext/1360937237/xm125_driver.o
 .debug_line    0x00014e4f      0x449 build/default/production/_ext/1360937237/ws281x_driver.o
 .debug_line    0x00015298      0x802 build/default/production/_ext/1360937237/vcnl4200_driver.o
 .debug_line    0x00015a9a      0x82e build/default/production/_ext/1360937237/sen63c_driver.o
 .debug_line    0x000162c8      0xbf6 build/default/production/_ext/1360937237/ssd1306_driver.o
 .debug_line    0x00016ebe      0x34f build/default/production/_ext/1360937237/app.o
 .debug_line    0x0001720d       0x74 build/default/production/_ext/1360937237/main.o
 .debug_line    0x00017281       0x92 build/default/production/_ext/1360937237/stcc4_driver.o
 .debug_line    0x00017313     0x10db build/default/production/_ext/1360937237/bmp585_driver.o
 .debug_line    0x000183ee      0x165 C:/Applications/Microchip/XC32/bin/bin/../../lib/gcc/pic32c/13.2.1/../../../../pic32c/lib/thumb/v6-m/nofp\libpic32c.a(data_init.o)
 .debug_line    0x00018553      0x16c C:/Applications/Microchip/XC32/bin/bin/../../lib/gcc/pic32c/13.2.1/../../../../pic32c/lib/thumb/v6-m/nofp\libc-size-musl.a(memcpy.o)
 .debug_line    0x000186bf      0x160 C:/Applications/Microchip/XC32/bin/bin/../../lib/gcc/pic32c/13.2.1/../../../../pic32c/lib/thumb/v6-m/nofp\libc-size-musl.a(memset.o)
 .debug_line    0x0001881f      0x16c C:/Applications/Microchip/XC32/bin/bin/../../lib/gcc/pic32c/13.2.1/../../../../pic32c/lib/thumb/v6-m/nofp\libc-size-musl.a(strlen.o)
 .debug_line    0x0001898b      0x1e1 C:/Applications/Microchip/XC32/bin/bin/../../lib/gcc/pic32c/13.2.1/../../../../pic32c/lib/thumb/v6-m/nofp\libc-size-musl.a(strstr.o)
 .debug_line    0x00018b6c       0xb7 C:/Applications/Microchip/XC32/bin/bin/../../lib/gcc/pic32c/13.2.1/../../../../pic32c/lib/thumb/v6-m/nofp\libc-size-musl.a(strchr.o)
 .debug_line    0x00018c23      0x1f8 C:/Applications/Microchip/XC32/bin/bin/../../lib/gcc/pic32c/13.2.1/../../../../pic32c/lib/thumb/v6-m/nofp\libc-size-musl.a(strchrnul.o)
 .debug_line    0x00018e1b      0x1cb C:/Applications/Microchip/XC32/bin/bin/../../lib/gcc/pic32c/13.2.1/../../../../pic32c/lib/thumb/v6-m/nofp\libc-musl.a(__libc_start_main.o)
 .debug_line    0x00018fe6       0xb5 C:/Applications/Microchip/XC32/bin/bin/../../lib/gcc/pic32c/13.2.1/../../../../pic32c/lib/thumb/v6-m/nofp\libc-musl.a(libc.o)
 .debug_line    0x0001909b      0x2aa C:/Applications/Microchip/XC32/bin/bin/../../lib/gcc/pic32c/13.2.1/../../../../pic32c/lib/thumb/v6-m/nofp\libc-musl.a(vsnprintf.o)
 .debug_line    0x00019345      0x153 C:/Applications/Microchip/XC32/bin/bin/../../lib/gcc/pic32c/13.2.1/../../../../pic32c/lib/thumb/v6-m/nofp\libc-musl.a(sprintf.o)
 .debug_line    0x00019498      0x148 C:/Applications/Microchip/XC32/bin/bin/../../lib/gcc/pic32c/13.2.1/../../../../pic32c/lib/thumb/v6-m/nofp\libc-musl.a(vsprintf.o)
 .debug_line    0x000195e0       0xfb C:/Applications/Microchip/XC32/bin/bin/../../lib/gcc/pic32c/13.2.1/../../../../pic32c/lib/thumb/v6-m/nofp\libc-musl.a(__environ.o)
 .debug_line    0x000196db       0x9a C:/Applications/Microchip/XC32/bin/bin/../../lib/gcc/pic32c/13.2.1/../../../../pic32c/lib/thumb/v6-m/nofp\libc-musl.a(__errno_location.o)
 .debug_line    0x00019775      0x1e4 C:/Applications/Microchip/XC32/bin/bin/../../lib/gcc/pic32c/13.2.1/../../../../pic32c/lib/thumb/v6-m/nofp\libc-musl.a(vfprintf.o)
 .debug_line    0x00019959      0x180 C:/Applications/Microchip/XC32/bin/bin/../../lib/gcc/pic32c/13.2.1/../../../../pic32c/lib/thumb/v6-m/nofp\libc-musl.a(__pop_float.o)
 .debug_line    0x00019ad9      0x247 C:/Applications/Microchip/XC32/bin/bin/../../lib/gcc/pic32c/13.2.1/../../../../pic32c/lib/thumb/v6-m/nofp\libc-musl.a(__pop_int.o)
 .debug_line    0x00019d20      0x1c7 C:/Applications/Microchip/XC32/bin/bin/../../lib/gcc/pic32c/13.2.1/../../../../pic32c/lib/thumb/v6-m/nofp\libc-musl.a(__pop_ptr.o)
 .debug_line    0x00019ee7      0x76e C:/Applications/Microchip/XC32/bin/bin/../../lib/gcc/pic32c/13.2.1/../../../../pic32c/lib/thumb/v6-m/nofp\libc-musl.a(__printf_core.o)
 .debug_line    0x0001a655      0x186 C:/Applications/Microchip/XC32/bin/bin/../../lib/gcc/pic32c/13.2.1/../../../../pic32c/lib/thumb/v6-m/nofp\libc-musl.a(atoi.o)
 .debug_line    0x0001a7db      0x164 C:/Applications/Microchip/XC32/bin/bin/../../lib/gcc/pic32c/13.2.1/../../../../pic32c/lib/thumb/v6-m/nofp\libc-musl.a(tolower.o)
 .debug_line    0x0001a93f      0x7ab C:/Applications/Microchip/XC32/bin/bin/../../lib/gcc/pic32c/13.2.1/../../../../pic32c/lib/thumb/v6-m/nofp\libc-musl.a(__fmt_a.o)
 .debug_line    0x0001b0ea      0x234 C:/Applications/Microchip/XC32/bin/bin/../../lib/gcc/pic32c/13.2.1/../../../../pic32c/lib/thumb/v6-m/nofp\libc-musl.a(__fmt_d.o)
 .debug_line    0x0001b31e      0x791 C:/Applications/Microchip/XC32/bin/bin/../../lib/gcc/pic32c/13.2.1/../../../../pic32c/lib/thumb/v6-m/nofp\libc-musl.a(__fmt_fp.o)
 .debug_line    0x0001baaf      0x1c1 C:/Applications/Microchip/XC32/bin/bin/../../lib/gcc/pic32c/13.2.1/../../../../pic32c/lib/thumb/v6-m/nofp\libc-musl.a(__fmt_o.o)
 .debug_line    0x0001bc70      0x20e C:/Applications/Microchip/XC32/bin/bin/../../lib/gcc/pic32c/13.2.1/../../../../pic32c/lib/thumb/v6-m/nofp\libc-musl.a(__fmt_s.o)
 .debug_line    0x0001be7e      0x18a C:/Applications/Microchip/XC32/bin/bin/../../lib/gcc/pic32c/13.2.1/../../../../pic32c/lib/thumb/v6-m/nofp\libc-musl.a(__fmt_u.o)
 .debug_line    0x0001c008      0x32c C:/Applications/Microchip/XC32/bin/bin/../../lib/gcc/pic32c/13.2.1/../../../../pic32c/lib/thumb/v6-m/nofp\libc-musl.a(__fmt_x.o)
 .debug_line    0x0001c334      0x164 C:/Applications/Microchip/XC32/bin/bin/../../lib/gcc/pic32c/13.2.1/../../../../pic32c/lib/thumb/v6-m/nofp\libc-musl.a(toupper.o)
 .debug_line    0x0001c498      0x1e7 C:/Applications/Microchip/XC32/bin/bin/../../lib/gcc/pic32c/13.2.1/../../../../pic32c/lib/thumb/v6-m/nofp\libc-musl.a(__cvt_u.o)
 .debug_line    0x0001c67f       0xb2 C:/Applications/Microchip/XC32/bin/bin/../../lib/gcc/pic32c/13.2.1/../../../../pic32c/lib/thumb/v6-m/nofp\libc-size-musl.a(strcpy.o)
 .debug_line    0x0001c731      0x153 C:/Applications/Microchip/XC32/bin/bin/../../lib/gcc/pic32c/13.2.1/../../../../pic32c/lib/thumb/v6-m/nofp\libc-size-musl.a(stpcpy.o)
 .debug_line    0x0001c884       0x8d C:/Applications/Microchip/XC32/bin/bin/../../lib/gcc/pic32c/13.2.1/thumb/v6-m/nofp\libgcc.a(_thumb1_case_uqi.o)
 .debug_line    0x0001c911       0x9c C:/Applications/Microchip/XC32/bin/bin/../../lib/gcc/pic32c/13.2.1/thumb/v6-m/nofp\libgcc.a(_udivsi3.o)
 .debug_line    0x0001c9ad       0xaa C:/Applications/Microchip/XC32/bin/bin/../../lib/gcc/pic32c/13.2.1/thumb/v6-m/nofp\libgcc.a(_divsi3.o)
 .debug_line    0x0001ca57       0x85 C:/Applications/Microchip/XC32/bin/bin/../../lib/gcc/pic32c/13.2.1/thumb/v6-m/nofp\libgcc.a(_dvmd_tls.o)
 .debug_line    0x0001cadc       0x90 C:/Applications/Microchip/XC32/bin/bin/../../lib/gcc/pic32c/13.2.1/thumb/v6-m/nofp\libgcc.a(_aeabi_uldivmod.o)
 .debug_line    0x0001cb6c      0x132 C:/Applications/Microchip/XC32/bin/bin/../../lib/gcc/pic32c/13.2.1/thumb/v6-m/nofp\libgcc.a(_muldi3.o)
 .debug_line    0x0001cc9e      0x19b C:/Applications/Microchip/XC32/bin/bin/../../lib/gcc/pic32c/13.2.1/thumb/v6-m/nofp\libgcc.a(_udivmoddi4.o)
 .debug_line    0x0001ce39       0x90 C:/Applications/Microchip/XC32/bin/bin/../../lib/gcc/pic32c/13.2.1/thumb/v6-m/nofp\libgcc.a(_lshrdi3.o)
 .debug_line    0x0001cec9       0x90 C:/Applications/Microchip/XC32/bin/bin/../../lib/gcc/pic32c/13.2.1/thumb/v6-m/nofp\libgcc.a(_ashldi3.o)
 .debug_line    0x0001cf59       0x8f C:/Applications/Microchip/XC32/bin/bin/../../lib/gcc/pic32c/13.2.1/thumb/v6-m/nofp\libgcc.a(_clzdi2.o)
 .debug_line    0x0001cfe8       0x99 C:/Applications/Microchip/XC32/bin/bin/../../lib/gcc/pic32c/13.2.1/thumb/v6-m/nofp\libgcc.a(_clzsi2.o)
 .debug_line    0x0001d081      0x11e C:/Applications/Microchip/XC32/bin/bin/../../lib/gcc/pic32c/13.2.1/../../../../pic32c/lib/thumb/v6-m/nofp\libpic32c.a(pic32_data_init_clear.o)
 .debug_line    0x0001d19f      0x136 C:/Applications/Microchip/XC32/bin/bin/../../lib/gcc/pic32c/13.2.1/../../../../pic32c/lib/thumb/v6-m/nofp\libpic32c.a(pic32_data_init_copy.o)

.debug_str      0x00000000    0x136a8
 .debug_str     0x00000000    0x136a8 build/default/production/_ext/158385033/drv_i2c.o
                               0x11ef (size before relaxing)
 .debug_str     0x000136a8     0x1dc0 build/default/production/_ext/2070931557/drv_spi.o
 .debug_str     0x000136a8     0x1989 build/default/production/_ext/869808652/drv_usart.o
 .debug_str     0x000136a8      0x5ee build/default/production/_ext/829343244/plib_ac.o
 .debug_str     0x000136a8      0x84a build/default/production/_ext/60163342/plib_adc0.o
 .debug_str     0x000136a8      0xed8 build/default/production/_ext/60165182/plib_can0.o
 .debug_str     0x000136a8      0x333 build/default/production/_ext/60165242/plib_ccl.o
 .debug_str     0x000136a8      0x72a build/default/production/_ext/1984496892/plib_clock.o
 .debug_str     0x000136a8      0x3d4 build/default/production/_ext/60166132/plib_dac.o
 .debug_str     0x000136a8      0x949 build/default/production/_ext/1865161661/plib_dmac.o
 .debug_str     0x000136a8      0x4a3 build/default/production/_ext/60167341/plib_eic.o
 .debug_str     0x000136a8      0x3f9 build/default/production/_ext/1986646378/plib_evsys.o
 .debug_str     0x000136a8      0x4c7 build/default/production/_ext/1987437027/plib_freqm.o
 .debug_str     0x000136a8      0x68b build/default/production/_ext/1865468468/plib_nvic.o
 .debug_str     0x000136a8      0x6a9 build/default/production/_ext/1593096446/plib_nvmctrl.o
 .debug_str     0x000136a8      0x4a9 build/default/production/_ext/1865510628/plib_pdec.o
 .debug_str     0x000136a8      0x357 build/default/production/_ext/829342769/plib_pm.o
 .debug_str     0x000136a8      0x73a build/default/production/_ext/1865521619/plib_port.o
 .debug_str     0x000136a8      0x32e build/default/production/_ext/1865585090/plib_rstc.o
 .debug_str     0x000136a8      0x682 build/default/production/_ext/60180175/plib_rtc_clock.o
 .debug_str     0x000136a8      0x9f3 build/default/production/_ext/508257091/plib_sercom3_i2c_master.o
 .debug_str     0x000136a8      0x85a build/default/production/_ext/17022449/plib_sercom2_spi_master.o
 .debug_str     0x000136a8      0xe45 build/default/production/_ext/504274921/plib_sercom1_usart.o
 .debug_str     0x000136a8      0xb17 build/default/production/_ext/504274921/plib_sercom0_usart.o
 .debug_str     0x000136a8      0x377 build/default/production/_ext/1865616679/plib_supc.o
 .debug_str     0x000136a8      0x606 build/default/production/_ext/1827571544/plib_systick.o
 .debug_str     0x000136a8      0x5e9 build/default/production/_ext/829342655/plib_tc0.o
 .debug_str     0x000136a8      0x58b build/default/production/_ext/60181570/plib_tcc1.o
 .debug_str     0x000136a8      0x5ba build/default/production/_ext/60181570/plib_tcc0.o
 .debug_str     0x000136a8      0x428 build/default/production/_ext/60184501/plib_wdt.o
 .debug_str     0x000136a8      0xb38 build/default/production/_ext/1832805299/sys_console_uart.o
 .debug_str     0x000136a8      0xa8c build/default/production/_ext/1832805299/sys_console.o
 .debug_str     0x000136a8      0x680 build/default/production/_ext/14461671/sys_dma.o
 .debug_str     0x000136a8      0x639 build/default/production/_ext/1881668453/sys_int.o
 .debug_str     0x000136a8      0xe54 build/default/production/_ext/101884895/sys_time.o
 .debug_str     0x000136a8      0x45b build/default/production/_ext/1171490990/tasks.o
 .debug_str     0x000136a8     0x3239 build/default/production/_ext/1171490990/initialization.o
 .debug_str     0x000136a8      0x86c build/default/production/_ext/1171490990/interrupts.o
 .debug_str     0x000136a8      0x302 build/default/production/_ext/1171490990/exceptions.o
 .debug_str     0x000136a8      0x405 build/default/production/_ext/1171490990/startup_xc32.o
 .debug_str     0x000136a8      0xd6f build/default/production/_ext/1360937237/can0_driver.o
 .debug_str     0x000136a8      0xc43 build/default/production/_ext/1360937237/sht4x_driver.o
 .debug_str     0x000136a8      0x62d build/default/production/_ext/1360937237/rstc_driver.o
 .debug_str     0x000136a8     0x10dc build/default/production/_ext/1360937237/ad9954_driver.o
 .debug_str     0x000136a8      0x824 build/default/production/_ext/1360937237/rtc_driver.o
 .debug_str     0x000136a8      0xeeb build/default/production/_ext/1360937237/mcp9808_driver.o
 .debug_str     0x000136a8     0x1dff build/default/production/_ext/1360937237/bme690_driver.o
 .debug_str     0x000136a8      0xaa7 build/default/production/_ext/1360937237/fcm360w_driver.o
 .debug_str     0x000136a8      0x5b3 build/default/production/_ext/1360937237/console_driver.o
 .debug_str     0x000136a8     0x113f build/default/production/_ext/1360937237/hdc302x_driver.o
 .debug_str     0x000136a8      0x433 build/default/production/_ext/1360937237/fan_driver.o
 .debug_str     0x000136a8      0x6e4 build/default/production/_ext/1360937237/ntc_driver.o
 .debug_str     0x000136a8      0x74b build/default/production/_ext/1360937237/timer_driver.o
 .debug_str     0x000136a8      0xaa1 build/default/production/_ext/1360937237/xm125_driver.o
 .debug_str     0x000136a8      0x8cc build/default/production/_ext/1360937237/ws281x_driver.o
 .debug_str     0x000136a8      0xf9c build/default/production/_ext/1360937237/vcnl4200_driver.o
 .debug_str     0x000136a8     0x1012 build/default/production/_ext/1360937237/sen63c_driver.o
 .debug_str     0x000136a8     0x13ee build/default/production/_ext/1360937237/ssd1306_driver.o
 .debug_str     0x000136a8      0x7ce build/default/production/_ext/1360937237/app.o
 .debug_str     0x000136a8      0x2e2 build/default/production/_ext/1360937237/main.o
 .debug_str     0x000136a8      0x376 build/default/production/_ext/1360937237/stcc4_driver.o
 .debug_str     0x000136a8     0x1693 build/default/production/_ext/1360937237/bmp585_driver.o
 .debug_str     0x000136a8      0x2ef C:/Applications/Microchip/XC32/bin/bin/../../lib/gcc/pic32c/13.2.1/../../../../pic32c/lib/thumb/v6-m/nofp\libpic32c.a(data_init.o)
 .debug_str     0x000136a8      0x238 C:/Applications/Microchip/XC32/bin/bin/../../lib/gcc/pic32c/13.2.1/../../../../pic32c/lib/thumb/v6-m/nofp\libc-size-musl.a(memcpy.o)
 .debug_str     0x000136a8      0x23b C:/Applications/Microchip/XC32/bin/bin/../../lib/gcc/pic32c/13.2.1/../../../../pic32c/lib/thumb/v6-m/nofp\libc-size-musl.a(memset.o)
 .debug_str     0x000136a8      0x241 C:/Applications/Microchip/XC32/bin/bin/../../lib/gcc/pic32c/13.2.1/../../../../pic32c/lib/thumb/v6-m/nofp\libc-size-musl.a(strlen.o)
 .debug_str     0x000136a8      0x224 C:/Applications/Microchip/XC32/bin/bin/../../lib/gcc/pic32c/13.2.1/../../../../pic32c/lib/thumb/v6-m/nofp\libc-size-musl.a(strstr.o)
 .debug_str     0x000136a8      0x235 C:/Applications/Microchip/XC32/bin/bin/../../lib/gcc/pic32c/13.2.1/../../../../pic32c/lib/thumb/v6-m/nofp\libc-size-musl.a(strchr.o)
 .debug_str     0x000136a8      0x2a9 C:/Applications/Microchip/XC32/bin/bin/../../lib/gcc/pic32c/13.2.1/../../../../pic32c/lib/thumb/v6-m/nofp\libc-size-musl.a(strchrnul.o)
 .debug_str     0x000136a8      0x3dd C:/Applications/Microchip/XC32/bin/bin/../../lib/gcc/pic32c/13.2.1/../../../../pic32c/lib/thumb/v6-m/nofp\libc-musl.a(__libc_start_main.o)
 .debug_str     0x000136a8      0x348 C:/Applications/Microchip/XC32/bin/bin/../../lib/gcc/pic32c/13.2.1/../../../../pic32c/lib/thumb/v6-m/nofp\libc-musl.a(libc.o)
 .debug_str     0x000136a8      0x3a3 C:/Applications/Microchip/XC32/bin/bin/../../lib/gcc/pic32c/13.2.1/../../../../pic32c/lib/thumb/v6-m/nofp\libc-musl.a(vsnprintf.o)
 .debug_str     0x000136a8      0x262 C:/Applications/Microchip/XC32/bin/bin/../../lib/gcc/pic32c/13.2.1/../../../../pic32c/lib/thumb/v6-m/nofp\libc-musl.a(sprintf.o)
 .debug_str     0x000136a8      0x26c C:/Applications/Microchip/XC32/bin/bin/../../lib/gcc/pic32c/13.2.1/../../../../pic32c/lib/thumb/v6-m/nofp\libc-musl.a(vsprintf.o)
 .debug_str     0x000136a8      0x248 C:/Applications/Microchip/XC32/bin/bin/../../lib/gcc/pic32c/13.2.1/../../../../pic32c/lib/thumb/v6-m/nofp\libc-musl.a(__environ.o)
 .debug_str     0x000136a8      0x23c C:/Applications/Microchip/XC32/bin/bin/../../lib/gcc/pic32c/13.2.1/../../../../pic32c/lib/thumb/v6-m/nofp\libc-musl.a(__errno_location.o)
 .debug_str     0x000136a8      0x392 C:/Applications/Microchip/XC32/bin/bin/../../lib/gcc/pic32c/13.2.1/../../../../pic32c/lib/thumb/v6-m/nofp\libc-musl.a(vfprintf.o)
 .debug_str     0x000136a8      0x2d3 C:/Applications/Microchip/XC32/bin/bin/../../lib/gcc/pic32c/13.2.1/../../../../pic32c/lib/thumb/v6-m/nofp\libc-musl.a(__pop_float.o)
 .debug_str     0x000136a8      0x2de C:/Applications/Microchip/XC32/bin/bin/../../lib/gcc/pic32c/13.2.1/../../../../pic32c/lib/thumb/v6-m/nofp\libc-musl.a(__pop_int.o)
 .debug_str     0x000136a8      0x2e0 C:/Applications/Microchip/XC32/bin/bin/../../lib/gcc/pic32c/13.2.1/../../../../pic32c/lib/thumb/v6-m/nofp\libc-musl.a(__pop_ptr.o)
 .debug_str     0x000136a8      0x3fa C:/Applications/Microchip/XC32/bin/bin/../../lib/gcc/pic32c/13.2.1/../../../../pic32c/lib/thumb/v6-m/nofp\libc-musl.a(__printf_core.o)
 .debug_str     0x000136a8      0x22f C:/Applications/Microchip/XC32/bin/bin/../../lib/gcc/pic32c/13.2.1/../../../../pic32c/lib/thumb/v6-m/nofp\libc-musl.a(atoi.o)
 .debug_str     0x000136a8      0x273 C:/Applications/Microchip/XC32/bin/bin/../../lib/gcc/pic32c/13.2.1/../../../../pic32c/lib/thumb/v6-m/nofp\libc-musl.a(tolower.o)
 .debug_str     0x000136a8      0x3c2 C:/Applications/Microchip/XC32/bin/bin/../../lib/gcc/pic32c/13.2.1/../../../../pic32c/lib/thumb/v6-m/nofp\libc-musl.a(__fmt_a.o)
 .debug_str     0x000136a8      0x308 C:/Applications/Microchip/XC32/bin/bin/../../lib/gcc/pic32c/13.2.1/../../../../pic32c/lib/thumb/v6-m/nofp\libc-musl.a(__fmt_d.o)
 .debug_str     0x000136a8      0x3f4 C:/Applications/Microchip/XC32/bin/bin/../../lib/gcc/pic32c/13.2.1/../../../../pic32c/lib/thumb/v6-m/nofp\libc-musl.a(__fmt_fp.o)
 .debug_str     0x000136a8      0x308 C:/Applications/Microchip/XC32/bin/bin/../../lib/gcc/pic32c/13.2.1/../../../../pic32c/lib/thumb/v6-m/nofp\libc-musl.a(__fmt_o.o)
 .debug_str     0x000136a8      0x30c C:/Applications/Microchip/XC32/bin/bin/../../lib/gcc/pic32c/13.2.1/../../../../pic32c/lib/thumb/v6-m/nofp\libc-musl.a(__fmt_s.o)
 .debug_str     0x000136a8      0x308 C:/Applications/Microchip/XC32/bin/bin/../../lib/gcc/pic32c/13.2.1/../../../../pic32c/lib/thumb/v6-m/nofp\libc-musl.a(__fmt_u.o)
 .debug_str     0x000136a8      0x308 C:/Applications/Microchip/XC32/bin/bin/../../lib/gcc/pic32c/13.2.1/../../../../pic32c/lib/thumb/v6-m/nofp\libc-musl.a(__fmt_x.o)
 .debug_str     0x000136a8      0x273 C:/Applications/Microchip/XC32/bin/bin/../../lib/gcc/pic32c/13.2.1/../../../../pic32c/lib/thumb/v6-m/nofp\libc-musl.a(toupper.o)
 .debug_str     0x000136a8      0x2d5 C:/Applications/Microchip/XC32/bin/bin/../../lib/gcc/pic32c/13.2.1/../../../../pic32c/lib/thumb/v6-m/nofp\libc-musl.a(__cvt_u.o)
 .debug_str     0x000136a8      0x237 C:/Applications/Microchip/XC32/bin/bin/../../lib/gcc/pic32c/13.2.1/../../../../pic32c/lib/thumb/v6-m/nofp\libc-size-musl.a(strcpy.o)
 .debug_str     0x000136a8      0x24b C:/Applications/Microchip/XC32/bin/bin/../../lib/gcc/pic32c/13.2.1/../../../../pic32c/lib/thumb/v6-m/nofp\libc-size-musl.a(stpcpy.o)
 .debug_str     0x000136a8       0xe3 C:/Applications/Microchip/XC32/bin/bin/../../lib/gcc/pic32c/13.2.1/thumb/v6-m/nofp\libgcc.a(_thumb1_case_uqi.o)
 .debug_str     0x000136a8       0xf6 C:/Applications/Microchip/XC32/bin/bin/../../lib/gcc/pic32c/13.2.1/thumb/v6-m/nofp\libgcc.a(_udivsi3.o)
 .debug_str     0x000136a8       0xf3 C:/Applications/Microchip/XC32/bin/bin/../../lib/gcc/pic32c/13.2.1/thumb/v6-m/nofp\libgcc.a(_divsi3.o)
 .debug_str     0x000136a8       0xe9 C:/Applications/Microchip/XC32/bin/bin/../../lib/gcc/pic32c/13.2.1/thumb/v6-m/nofp\libgcc.a(_dvmd_tls.o)
 .debug_str     0x000136a8       0xde C:/Applications/Microchip/XC32/bin/bin/../../lib/gcc/pic32c/13.2.1/thumb/v6-m/nofp\libgcc.a(_aeabi_uldivmod.o)
 .debug_str     0x000136a8      0x6fa C:/Applications/Microchip/XC32/bin/bin/../../lib/gcc/pic32c/13.2.1/thumb/v6-m/nofp\libgcc.a(_muldi3.o)
 .debug_str     0x000136a8      0x6ea C:/Applications/Microchip/XC32/bin/bin/../../lib/gcc/pic32c/13.2.1/thumb/v6-m/nofp\libgcc.a(_udivmoddi4.o)
 .debug_str     0x000136a8       0xe4 C:/Applications/Microchip/XC32/bin/bin/../../lib/gcc/pic32c/13.2.1/thumb/v6-m/nofp\libgcc.a(_lshrdi3.o)
 .debug_str     0x000136a8       0xe4 C:/Applications/Microchip/XC32/bin/bin/../../lib/gcc/pic32c/13.2.1/thumb/v6-m/nofp\libgcc.a(_ashldi3.o)
 .debug_str     0x000136a8       0xcd C:/Applications/Microchip/XC32/bin/bin/../../lib/gcc/pic32c/13.2.1/thumb/v6-m/nofp\libgcc.a(_clzdi2.o)
 .debug_str     0x000136a8       0xd6 C:/Applications/Microchip/XC32/bin/bin/../../lib/gcc/pic32c/13.2.1/thumb/v6-m/nofp\libgcc.a(_clzsi2.o)
 .debug_str     0x000136a8      0x280 C:/Applications/Microchip/XC32/bin/bin/../../lib/gcc/pic32c/13.2.1/../../../../pic32c/lib/thumb/v6-m/nofp\libpic32c.a(pic32_data_init_clear.o)
 .debug_str     0x000136a8      0x287 C:/Applications/Microchip/XC32/bin/bin/../../lib/gcc/pic32c/13.2.1/../../../../pic32c/lib/thumb/v6-m/nofp\libpic32c.a(pic32_data_init_copy.o)

.debug_frame    0x00000000     0x5a78
 .debug_frame   0x00000000      0x25c build/default/production/_ext/158385033/drv_i2c.o
 .debug_frame   0x0000025c      0x240 build/default/production/_ext/2070931557/drv_spi.o
 .debug_frame   0x0000049c      0x34c build/default/production/_ext/869808652/drv_usart.o
 .debug_frame   0x000007e8       0x88 build/default/production/_ext/829343244/plib_ac.o
 .debug_frame   0x00000870       0xf8 build/default/production/_ext/60163342/plib_adc0.o
 .debug_frame   0x00000968      0x188 build/default/production/_ext/60165182/plib_can0.o
 .debug_frame   0x00000af0       0x20 build/default/production/_ext/60165242/plib_ccl.o
 .debug_frame   0x00000b10       0x48 build/default/production/_ext/1984496892/plib_clock.o
 .debug_frame   0x00000b58       0x40 build/default/production/_ext/60166132/plib_dac.o
 .debug_frame   0x00000b98      0x18c build/default/production/_ext/1865161661/plib_dmac.o
 .debug_frame   0x00000d24       0x7c build/default/production/_ext/60167341/plib_eic.o
 .debug_frame   0x00000da0       0x60 build/default/production/_ext/1986646378/plib_evsys.o
 .debug_frame   0x00000e00       0x90 build/default/production/_ext/1987437027/plib_freqm.o
 .debug_frame   0x00000e90       0x90 build/default/production/_ext/1865468468/plib_nvic.o
 .debug_frame   0x00000f20      0x174 build/default/production/_ext/1593096446/plib_nvmctrl.o
 .debug_frame   0x00001094       0x80 build/default/production/_ext/1865510628/plib_pdec.o
 .debug_frame   0x00001114       0x40 build/default/production/_ext/829342769/plib_pm.o
 .debug_frame   0x00001154       0xc8 build/default/production/_ext/1865521619/plib_port.o
 .debug_frame   0x0000121c       0x20 build/default/production/_ext/1865585090/plib_rstc.o
 .debug_frame   0x0000123c       0xa0 build/default/production/_ext/60180175/plib_rtc_clock.o
 .debug_frame   0x000012dc      0x11c build/default/production/_ext/508257091/plib_sercom3_i2c_master.o
 .debug_frame   0x000013f8       0xd4 build/default/production/_ext/17022449/plib_sercom2_spi_master.o
 .debug_frame   0x000014cc      0x268 build/default/production/_ext/504274921/plib_sercom1_usart.o
 .debug_frame   0x00001734      0x1f4 build/default/production/_ext/504274921/plib_sercom0_usart.o
 .debug_frame   0x00001928       0x28 build/default/production/_ext/1865616679/plib_supc.o
 .debug_frame   0x00001950      0x178 build/default/production/_ext/1827571544/plib_systick.o
 .debug_frame   0x00001ac8       0xa8 build/default/production/_ext/829342655/plib_tc0.o
 .debug_frame   0x00001b70       0xd0 build/default/production/_ext/60181570/plib_tcc1.o
 .debug_frame   0x00001c40       0xe0 build/default/production/_ext/60181570/plib_tcc0.o
 .debug_frame   0x00001d20       0xb0 build/default/production/_ext/60184501/plib_wdt.o
 .debug_frame   0x00001dd0       0xe0 build/default/production/_ext/1832805299/sys_console_uart.o
 .debug_frame   0x00001eb0      0x158 build/default/production/_ext/1832805299/sys_console.o
 .debug_frame   0x00002008       0x48 build/default/production/_ext/14461671/sys_dma.o
 .debug_frame   0x00002050       0x84 build/default/production/_ext/1881668453/sys_int.o
 .debug_frame   0x000020d4      0x334 build/default/production/_ext/101884895/sys_time.o
 .debug_frame   0x00002408       0x28 build/default/production/_ext/1171490990/tasks.o
 .debug_frame   0x00002430       0x28 build/default/production/_ext/1171490990/initialization.o
 .debug_frame   0x00002458       0x50 build/default/production/_ext/1171490990/interrupts.o
 .debug_frame   0x000024a8       0x30 build/default/production/_ext/1171490990/exceptions.o
 .debug_frame   0x000024d8       0x40 build/default/production/_ext/1171490990/startup_xc32.o
 .debug_frame   0x00002518      0x120 build/default/production/_ext/1360937237/can0_driver.o
 .debug_frame   0x00002638      0x16c build/default/production/_ext/1360937237/sht4x_driver.o
 .debug_frame   0x000027a4       0x90 build/default/production/_ext/1360937237/rstc_driver.o
 .debug_frame   0x00002834      0x430 build/default/production/_ext/1360937237/ad9954_driver.o
 .debug_frame   0x00002c64      0x128 build/default/production/_ext/1360937237/rtc_driver.o
 .debug_frame   0x00002d8c      0x21c build/default/production/_ext/1360937237/mcp9808_driver.o
 .debug_frame   0x00002fa8      0x8e4 build/default/production/_ext/1360937237/bme690_driver.o
 .debug_frame   0x0000388c       0xd0 build/default/production/_ext/1360937237/fcm360w_driver.o
 .debug_frame   0x0000395c       0x78 build/default/production/_ext/1360937237/console_driver.o
 .debug_frame   0x000039d4      0x544 build/default/production/_ext/1360937237/hdc302x_driver.o
 .debug_frame   0x00003f18       0x30 build/default/production/_ext/1360937237/fan_driver.o
 .debug_frame   0x00003f48       0xc0 build/default/production/_ext/1360937237/ntc_driver.o
 .debug_frame   0x00004008      0x1a8 build/default/production/_ext/1360937237/timer_driver.o
 .debug_frame   0x000041b0       0xc0 build/default/production/_ext/1360937237/xm125_driver.o
 .debug_frame   0x00004270      0x108 build/default/production/_ext/1360937237/ws281x_driver.o
 .debug_frame   0x00004378      0x320 build/default/production/_ext/1360937237/vcnl4200_driver.o
 .debug_frame   0x00004698      0x364 build/default/production/_ext/1360937237/sen63c_driver.o
 .debug_frame   0x000049fc      0x168 build/default/production/_ext/1360937237/ssd1306_driver.o
 .debug_frame   0x00004b64       0xc0 build/default/production/_ext/1360937237/app.o
 .debug_frame   0x00004c24       0x28 build/default/production/_ext/1360937237/main.o
 .debug_frame   0x00004c4c       0x30 build/default/production/_ext/1360937237/stcc4_driver.o
 .debug_frame   0x00004c7c      0x740 build/default/production/_ext/1360937237/bmp585_driver.o
 .debug_frame   0x000053bc       0x48 C:/Applications/Microchip/XC32/bin/bin/../../lib/gcc/pic32c/13.2.1/../../../../pic32c/lib/thumb/v6-m/nofp\libpic32c.a(data_init.o)
 .debug_frame   0x00005404       0x28 C:/Applications/Microchip/XC32/bin/bin/../../lib/gcc/pic32c/13.2.1/../../../../pic32c/lib/thumb/v6-m/nofp\libc-size-musl.a(memcpy.o)
 .debug_frame   0x0000542c       0x20 C:/Applications/Microchip/XC32/bin/bin/../../lib/gcc/pic32c/13.2.1/../../../../pic32c/lib/thumb/v6-m/nofp\libc-size-musl.a(memset.o)
 .debug_frame   0x0000544c       0x20 C:/Applications/Microchip/XC32/bin/bin/../../lib/gcc/pic32c/13.2.1/../../../../pic32c/lib/thumb/v6-m/nofp\libc-size-musl.a(strlen.o)
 .debug_frame   0x0000546c       0x2c C:/Applications/Microchip/XC32/bin/bin/../../lib/gcc/pic32c/13.2.1/../../../../pic32c/lib/thumb/v6-m/nofp\libc-size-musl.a(strstr.o)
 .debug_frame   0x00005498       0x28 C:/Applications/Microchip/XC32/bin/bin/../../lib/gcc/pic32c/13.2.1/../../../../pic32c/lib/thumb/v6-m/nofp\libc-size-musl.a(strchr.o)
 .debug_frame   0x000054c0       0x2c C:/Applications/Microchip/XC32/bin/bin/../../lib/gcc/pic32c/13.2.1/../../../../pic32c/lib/thumb/v6-m/nofp\libc-size-musl.a(strchrnul.o)
 .debug_frame   0x000054ec       0x38 C:/Applications/Microchip/XC32/bin/bin/../../lib/gcc/pic32c/13.2.1/../../../../pic32c/lib/thumb/v6-m/nofp\libc-musl.a(__libc_start_main.o)
 .debug_frame   0x00005524       0x34 C:/Applications/Microchip/XC32/bin/bin/../../lib/gcc/pic32c/13.2.1/../../../../pic32c/lib/thumb/v6-m/nofp\libc-musl.a(vsnprintf.o)
 .debug_frame   0x00005558       0x2c C:/Applications/Microchip/XC32/bin/bin/../../lib/gcc/pic32c/13.2.1/../../../../pic32c/lib/thumb/v6-m/nofp\libc-musl.a(sprintf.o)
 .debug_frame   0x00005584       0x28 C:/Applications/Microchip/XC32/bin/bin/../../lib/gcc/pic32c/13.2.1/../../../../pic32c/lib/thumb/v6-m/nofp\libc-musl.a(vsprintf.o)
 .debug_frame   0x000055ac       0x44 C:/Applications/Microchip/XC32/bin/bin/../../lib/gcc/pic32c/13.2.1/../../../../pic32c/lib/thumb/v6-m/nofp\libc-musl.a(vfprintf.o)
 .debug_frame   0x000055f0       0x28 C:/Applications/Microchip/XC32/bin/bin/../../lib/gcc/pic32c/13.2.1/../../../../pic32c/lib/thumb/v6-m/nofp\libc-musl.a(__pop_float.o)
 .debug_frame   0x00005618       0x28 C:/Applications/Microchip/XC32/bin/bin/../../lib/gcc/pic32c/13.2.1/../../../../pic32c/lib/thumb/v6-m/nofp\libc-musl.a(__pop_int.o)
 .debug_frame   0x00005640       0x28 C:/Applications/Microchip/XC32/bin/bin/../../lib/gcc/pic32c/13.2.1/../../../../pic32c/lib/thumb/v6-m/nofp\libc-musl.a(__pop_ptr.o)
 .debug_frame   0x00005668       0xbc C:/Applications/Microchip/XC32/bin/bin/../../lib/gcc/pic32c/13.2.1/../../../../pic32c/lib/thumb/v6-m/nofp\libc-musl.a(__printf_core.o)
 .debug_frame   0x00005724       0x28 C:/Applications/Microchip/XC32/bin/bin/../../lib/gcc/pic32c/13.2.1/../../../../pic32c/lib/thumb/v6-m/nofp\libc-musl.a(atoi.o)
 .debug_frame   0x0000574c       0x38 C:/Applications/Microchip/XC32/bin/bin/../../lib/gcc/pic32c/13.2.1/../../../../pic32c/lib/thumb/v6-m/nofp\libc-musl.a(tolower.o)
 .debug_frame   0x00005784       0x30 C:/Applications/Microchip/XC32/bin/bin/../../lib/gcc/pic32c/13.2.1/../../../../pic32c/lib/thumb/v6-m/nofp\libc-musl.a(__fmt_a.o)
 .debug_frame   0x000057b4       0x30 C:/Applications/Microchip/XC32/bin/bin/../../lib/gcc/pic32c/13.2.1/../../../../pic32c/lib/thumb/v6-m/nofp\libc-musl.a(__fmt_d.o)
 .debug_frame   0x000057e4       0x34 C:/Applications/Microchip/XC32/bin/bin/../../lib/gcc/pic32c/13.2.1/../../../../pic32c/lib/thumb/v6-m/nofp\libc-musl.a(__fmt_fp.o)
 .debug_frame   0x00005818       0x30 C:/Applications/Microchip/XC32/bin/bin/../../lib/gcc/pic32c/13.2.1/../../../../pic32c/lib/thumb/v6-m/nofp\libc-musl.a(__fmt_o.o)
 .debug_frame   0x00005848       0x30 C:/Applications/Microchip/XC32/bin/bin/../../lib/gcc/pic32c/13.2.1/../../../../pic32c/lib/thumb/v6-m/nofp\libc-musl.a(__fmt_s.o)
 .debug_frame   0x00005878       0x30 C:/Applications/Microchip/XC32/bin/bin/../../lib/gcc/pic32c/13.2.1/../../../../pic32c/lib/thumb/v6-m/nofp\libc-musl.a(__fmt_u.o)
 .debug_frame   0x000058a8       0x30 C:/Applications/Microchip/XC32/bin/bin/../../lib/gcc/pic32c/13.2.1/../../../../pic32c/lib/thumb/v6-m/nofp\libc-musl.a(__fmt_x.o)
 .debug_frame   0x000058d8       0x38 C:/Applications/Microchip/XC32/bin/bin/../../lib/gcc/pic32c/13.2.1/../../../../pic32c/lib/thumb/v6-m/nofp\libc-musl.a(toupper.o)
 .debug_frame   0x00005910       0x34 C:/Applications/Microchip/XC32/bin/bin/../../lib/gcc/pic32c/13.2.1/../../../../pic32c/lib/thumb/v6-m/nofp\libc-musl.a(__cvt_u.o)
 .debug_frame   0x00005944       0x28 C:/Applications/Microchip/XC32/bin/bin/../../lib/gcc/pic32c/13.2.1/../../../../pic32c/lib/thumb/v6-m/nofp\libc-size-musl.a(strcpy.o)
 .debug_frame   0x0000596c       0x20 C:/Applications/Microchip/XC32/bin/bin/../../lib/gcc/pic32c/13.2.1/../../../../pic32c/lib/thumb/v6-m/nofp\libc-size-musl.a(stpcpy.o)
 .debug_frame   0x0000598c       0x20 C:/Applications/Microchip/XC32/bin/bin/../../lib/gcc/pic32c/13.2.1/thumb/v6-m/nofp\libgcc.a(_udivsi3.o)
 .debug_frame   0x000059ac       0x20 C:/Applications/Microchip/XC32/bin/bin/../../lib/gcc/pic32c/13.2.1/thumb/v6-m/nofp\libgcc.a(_divsi3.o)
 .debug_frame   0x000059cc       0x34 C:/Applications/Microchip/XC32/bin/bin/../../lib/gcc/pic32c/13.2.1/thumb/v6-m/nofp\libgcc.a(_muldi3.o)
 .debug_frame   0x00005a00       0x30 C:/Applications/Microchip/XC32/bin/bin/../../lib/gcc/pic32c/13.2.1/thumb/v6-m/nofp\libgcc.a(_udivmoddi4.o)
 .debug_frame   0x00005a30       0x20 C:/Applications/Microchip/XC32/bin/bin/../../lib/gcc/pic32c/13.2.1/../../../../pic32c/lib/thumb/v6-m/nofp\libpic32c.a(pic32_data_init_clear.o)
 .debug_frame   0x00005a50       0x28 C:/Applications/Microchip/XC32/bin/bin/../../lib/gcc/pic32c/13.2.1/../../../../pic32c/lib/thumb/v6-m/nofp\libpic32c.a(pic32_data_init_copy.o)

.note.GNU-stack
                0x00000000        0x0
 .note.GNU-stack
                0x00000000        0x0 C:/Applications/Microchip/XC32/bin/bin/../../lib/gcc/pic32c/13.2.1/../../../../pic32c/lib/thumb/v6-m/nofp\libc-size-musl.a(memcpy.o)
 .note.GNU-stack
                0x00000000        0x0 C:/Applications/Microchip/XC32/bin/bin/../../lib/gcc/pic32c/13.2.1/../../../../pic32c/lib/thumb/v6-m/nofp\libc-size-musl.a(memset.o)
 .note.GNU-stack
                0x00000000        0x0 C:/Applications/Microchip/XC32/bin/bin/../../lib/gcc/pic32c/13.2.1/../../../../pic32c/lib/thumb/v6-m/nofp\libc-size-musl.a(strlen.o)
 .note.GNU-stack
                0x00000000        0x0 C:/Applications/Microchip/XC32/bin/bin/../../lib/gcc/pic32c/13.2.1/../../../../pic32c/lib/thumb/v6-m/nofp\libc-size-musl.a(strstr.o)
 .note.GNU-stack
                0x00000000        0x0 C:/Applications/Microchip/XC32/bin/bin/../../lib/gcc/pic32c/13.2.1/../../../../pic32c/lib/thumb/v6-m/nofp\libc-size-musl.a(strchr.o)
 .note.GNU-stack
                0x00000000        0x0 C:/Applications/Microchip/XC32/bin/bin/../../lib/gcc/pic32c/13.2.1/../../../../pic32c/lib/thumb/v6-m/nofp\libc-size-musl.a(strchrnul.o)
 .note.GNU-stack
                0x00000000        0x0 C:/Applications/Microchip/XC32/bin/bin/../../lib/gcc/pic32c/13.2.1/../../../../pic32c/lib/thumb/v6-m/nofp\libc-musl.a(__libc_start_main.o)
 .note.GNU-stack
                0x00000000        0x0 C:/Applications/Microchip/XC32/bin/bin/../../lib/gcc/pic32c/13.2.1/../../../../pic32c/lib/thumb/v6-m/nofp\libc-musl.a(libc.o)
 .note.GNU-stack
                0x00000000        0x0 C:/Applications/Microchip/XC32/bin/bin/../../lib/gcc/pic32c/13.2.1/../../../../pic32c/lib/thumb/v6-m/nofp\libc-musl.a(vsnprintf.o)
 .note.GNU-stack
                0x00000000        0x0 C:/Applications/Microchip/XC32/bin/bin/../../lib/gcc/pic32c/13.2.1/../../../../pic32c/lib/thumb/v6-m/nofp\libc-musl.a(sprintf.o)
 .note.GNU-stack
                0x00000000        0x0 C:/Applications/Microchip/XC32/bin/bin/../../lib/gcc/pic32c/13.2.1/../../../../pic32c/lib/thumb/v6-m/nofp\libc-musl.a(vsprintf.o)
 .note.GNU-stack
                0x00000000        0x0 C:/Applications/Microchip/XC32/bin/bin/../../lib/gcc/pic32c/13.2.1/../../../../pic32c/lib/thumb/v6-m/nofp\libc-musl.a(__environ.o)
 .note.GNU-stack
                0x00000000        0x0 C:/Applications/Microchip/XC32/bin/bin/../../lib/gcc/pic32c/13.2.1/../../../../pic32c/lib/thumb/v6-m/nofp\libc-musl.a(__errno_location.o)
 .note.GNU-stack
                0x00000000        0x0 C:/Applications/Microchip/XC32/bin/bin/../../lib/gcc/pic32c/13.2.1/../../../../pic32c/lib/thumb/v6-m/nofp\libc-musl.a(vfprintf.o)
 .note.GNU-stack
                0x00000000        0x0 C:/Applications/Microchip/XC32/bin/bin/../../lib/gcc/pic32c/13.2.1/../../../../pic32c/lib/thumb/v6-m/nofp\libc-musl.a(__pop_float.o)
 .note.GNU-stack
                0x00000000        0x0 C:/Applications/Microchip/XC32/bin/bin/../../lib/gcc/pic32c/13.2.1/../../../../pic32c/lib/thumb/v6-m/nofp\libc-musl.a(__pop_int.o)
 .note.GNU-stack
                0x00000000        0x0 C:/Applications/Microchip/XC32/bin/bin/../../lib/gcc/pic32c/13.2.1/../../../../pic32c/lib/thumb/v6-m/nofp\libc-musl.a(__pop_ptr.o)
 .note.GNU-stack
                0x00000000        0x0 C:/Applications/Microchip/XC32/bin/bin/../../lib/gcc/pic32c/13.2.1/../../../../pic32c/lib/thumb/v6-m/nofp\libc-musl.a(__printf_core.o)
 .note.GNU-stack
                0x00000000        0x0 C:/Applications/Microchip/XC32/bin/bin/../../lib/gcc/pic32c/13.2.1/../../../../pic32c/lib/thumb/v6-m/nofp\libc-musl.a(atoi.o)
 .note.GNU-stack
                0x00000000        0x0 C:/Applications/Microchip/XC32/bin/bin/../../lib/gcc/pic32c/13.2.1/../../../../pic32c/lib/thumb/v6-m/nofp\libc-musl.a(tolower.o)
 .note.GNU-stack
                0x00000000        0x0 C:/Applications/Microchip/XC32/bin/bin/../../lib/gcc/pic32c/13.2.1/../../../../pic32c/lib/thumb/v6-m/nofp\libc-musl.a(__fmt_a.o)
 .note.GNU-stack
                0x00000000        0x0 C:/Applications/Microchip/XC32/bin/bin/../../lib/gcc/pic32c/13.2.1/../../../../pic32c/lib/thumb/v6-m/nofp\libc-musl.a(__fmt_d.o)
 .note.GNU-stack
                0x00000000        0x0 C:/Applications/Microchip/XC32/bin/bin/../../lib/gcc/pic32c/13.2.1/../../../../pic32c/lib/thumb/v6-m/nofp\libc-musl.a(__fmt_fp.o)
 .note.GNU-stack
                0x00000000        0x0 C:/Applications/Microchip/XC32/bin/bin/../../lib/gcc/pic32c/13.2.1/../../../../pic32c/lib/thumb/v6-m/nofp\libc-musl.a(__fmt_o.o)
 .note.GNU-stack
                0x00000000        0x0 C:/Applications/Microchip/XC32/bin/bin/../../lib/gcc/pic32c/13.2.1/../../../../pic32c/lib/thumb/v6-m/nofp\libc-musl.a(__fmt_s.o)
 .note.GNU-stack
                0x00000000        0x0 C:/Applications/Microchip/XC32/bin/bin/../../lib/gcc/pic32c/13.2.1/../../../../pic32c/lib/thumb/v6-m/nofp\libc-musl.a(__fmt_u.o)
 .note.GNU-stack
                0x00000000        0x0 C:/Applications/Microchip/XC32/bin/bin/../../lib/gcc/pic32c/13.2.1/../../../../pic32c/lib/thumb/v6-m/nofp\libc-musl.a(__fmt_x.o)
 .note.GNU-stack
                0x00000000        0x0 C:/Applications/Microchip/XC32/bin/bin/../../lib/gcc/pic32c/13.2.1/../../../../pic32c/lib/thumb/v6-m/nofp\libc-musl.a(toupper.o)
 .note.GNU-stack
                0x00000000        0x0 C:/Applications/Microchip/XC32/bin/bin/../../lib/gcc/pic32c/13.2.1/../../../../pic32c/lib/thumb/v6-m/nofp\libc-musl.a(__cvt_u.o)
 .note.GNU-stack
                0x00000000        0x0 C:/Applications/Microchip/XC32/bin/bin/../../lib/gcc/pic32c/13.2.1/../../../../pic32c/lib/thumb/v6-m/nofp\libc-size-musl.a(strcpy.o)
 .note.GNU-stack
                0x00000000        0x0 C:/Applications/Microchip/XC32/bin/bin/../../lib/gcc/pic32c/13.2.1/../../../../pic32c/lib/thumb/v6-m/nofp\libc-size-musl.a(stpcpy.o)

.vfp11_veneer%z1

.v4_bx%z2

.iplt%z3

.rel.iplt%z4

.igot.plt%z5

.rodata.RSTC_DRIVER_Print_Data.str1.4%1

.rodata.RTC_DRIVER_Print_Data.str1.4%2

.rodata.FCM360W_DRIVER_Write_Command.str1.4%3

.rodata.FCM360W_DRIVER_Get_Module_Response_Status.str1.4%4

.rodata.FCM360W_DRIVER_Tasks.str1.4%5

.rodata.CONSOLE_DRIVER_Tasks.str1.4%6

.rodata.HDC302X_DRIVER_Print_Data.str1.4%7

.rodata.SSD1306_DRIVER_Tasks.str1.4%8

.rodata.str1.1%9

.rodata.str1.1%10

.rodata.str1.1%11

.bss.can0_driverData%12
                0x20000000     0x5b40
 .bss.can0_driverData
                0x20000000     0x5b40 build/default/production/_ext/1360937237/can0_driver.o
                0x20000000                can0_driverData

.bss.consolePrintBuffer%13
                0x20005b40     0x2000
 .bss.consolePrintBuffer
                0x20005b40     0x2000 build/default/production/_ext/1832805299/sys_console.o

.bss.SERCOM1_USART_WriteBuffer%14
                0x20007b40     0x1000
 .bss.SERCOM1_USART_WriteBuffer
                0x20007b40     0x1000 build/default/production/_ext/504274921/plib_sercom1_usart.o

.bss.SERCOM1_USART_ReadBuffer%15
                0x20008b40     0x1000
 .bss.SERCOM1_USART_ReadBuffer
                0x20008b40     0x1000 build/default/production/_ext/504274921/plib_sercom1_usart.o

.bss.timers%16  0x20009b40      0x640
 .bss.timers    0x20009b40      0x640 build/default/production/_ext/101884895/sys_time.o

.bss.fcm360w_driverData%17
                0x2000a180      0x214
 .bss.fcm360w_driverData
                0x2000a180      0x214 build/default/production/_ext/1360937237/fcm360w_driver.o
                0x2000a180                fcm360w_driverData

.bss.ws281x_driverData%18
                0x2000a394      0x1e6
 .bss.ws281x_driverData
                0x2000a394      0x1e6 build/default/production/_ext/1360937237/ws281x_driver.o
                0x2000a394                ws281x_driverData

.bss.eicCallbackObject%19
                0x2000a57c       0xc0
 .bss.eicCallbackObject
                0x2000a57c       0xc0 build/default/production/_ext/60167341/plib_eic.o

.bss.rtc_driverData%20
                0x2000a63c       0x90
 .bss.rtc_driverData
                0x2000a63c       0x90 build/default/production/_ext/1360937237/rtc_driver.o
                0x2000a63c                rtc_driverData

.bss.gDrvSPIObj%21
                0x2000a6cc       0x74
 .bss.gDrvSPIObj
                0x2000a6cc       0x74 build/default/production/_ext/2070931557/drv_spi.o

.bss.gDrvUSARTObj%22
                0x2000a740       0x60
 .bss.gDrvUSARTObj
                0x2000a740       0x60 build/default/production/_ext/869808652/drv_usart.o

.bss.dmacChannelObj%23
                0x2000a7a0       0x50
 .bss.dmacChannelObj
                0x2000a7a0       0x50 build/default/production/_ext/1865161661/plib_dmac.o

.bss.descriptor_section%24
                0x2000a7f0       0x50
 .bss.descriptor_section
                0x2000a7f0       0x50 build/default/production/_ext/1865161661/plib_dmac.o

.bss.write_back_section%25
                0x2000a840       0x50
 .bss.write_back_section
                0x2000a840       0x50 build/default/production/_ext/1865161661/plib_dmac.o

.bss.ad9954_driverData%26
                0x2000a890       0x50
 .bss.ad9954_driverData
                0x2000a890       0x50 build/default/production/_ext/1360937237/ad9954_driver.o
                0x2000a890                ad9954_driverData

.bss.sen63c_driverData%27
                0x2000a8e0       0x50
 .bss.sen63c_driverData
                0x2000a8e0       0x50 build/default/production/_ext/1360937237/sen63c_driver.o
                0x2000a8e0                sen63c_driverData

.bss%28         0x2000a930       0x50
 .bss           0x2000a930       0x50 C:/Applications/Microchip/XC32/bin/bin/../../lib/gcc/pic32c/13.2.1/../../../../pic32c/lib/thumb/v6-m/nofp\libc-musl.a(libc.o)
                0x2000a930                __progname_full
                0x2000a930                program_invocation_name
                0x2000a934                program_invocation_short_name
                0x2000a934                __progname
                0x2000a938                __sysinfo
                0x2000a93c                __hwcap
                0x2000a940                __libc

.bss.sercom1USARTObj%29
                0x2000a980       0x40
 .bss.sercom1USARTObj
                0x2000a980       0x40 build/default/production/_ext/504274921/plib_sercom1_usart.o

.bss.can0DataTx%30
                0x2000a9c0       0x40
 .bss.can0DataTx
                0x2000a9c0       0x40 build/default/production/_ext/1360937237/can0_driver.o
                0x2000a9c0                can0DataTx

.bss.gDrvI2CObj%31
                0x2000aa00       0x3c
 .bss.gDrvI2CObj
                0x2000aa00       0x3c build/default/production/_ext/158385033/drv_i2c.o

.bss.sercom0USARTObj%32
                0x2000aa3c       0x30
 .bss.sercom0USARTObj
                0x2000aa3c       0x30 build/default/production/_ext/504274921/plib_sercom0_usart.o

.bss.gSystemCounterObj%33
                0x2000aa70       0x30
 .bss.gSystemCounterObj
                0x2000aa70       0x30 build/default/production/_ext/101884895/sys_time.o

.bss.bmp585_sensorData%34
                0x2000aaa0       0x30
 .bss.bmp585_sensorData
                0x2000aaa0       0x30 build/default/production/_ext/1360937237/bmp585_driver.o
                0x2000aaa0                bmp585_sensorData

.bss.sercom3I2CObj%35
                0x2000aad0       0x2c
 .bss.sercom3I2CObj
                0x2000aad0       0x2c build/default/production/_ext/508257091/plib_sercom3_i2c_master.o

.bss.sercom2SPIObj%36
                0x2000aafc       0x2c
 .bss.sercom2SPIObj
                0x2000aafc       0x2c build/default/production/_ext/17022449/plib_sercom2_spi_master.o

.bss.drvI2C0TransferObj%37
                0x2000ab28       0x2c
 .bss.drvI2C0TransferObj
                0x2000ab28       0x2c build/default/production/_ext/1171490990/initialization.o

.bss.drvSPI0ClientObjPool%38
                0x2000ab54       0x28
 .bss.drvSPI0ClientObjPool
                0x2000ab54       0x28 build/default/production/_ext/1171490990/initialization.o

.bss.mcp9808_driverData%39
                0x2000ab7c       0x28
 .bss.mcp9808_driverData
                0x2000ab7c       0x28 build/default/production/_ext/1360937237/mcp9808_driver.o
                0x2000ab7c                mcp9808_driverData

.bss.drvUSART0BufferObjPool%40
                0x2000aba4       0x24
 .bss.drvUSART0BufferObjPool
                0x2000aba4       0x24 build/default/production/_ext/1171490990/initialization.o

.bss.drvSPI0TransferObjPool%41
                0x2000abc8       0x24
 .bss.drvSPI0TransferObjPool
                0x2000abc8       0x24 build/default/production/_ext/1171490990/initialization.o

.bss.sht4x_driverData%42
                0x2000abec       0x24
 .bss.sht4x_driverData
                0x2000abec       0x24 build/default/production/_ext/1360937237/sht4x_driver.o
                0x2000abec                sht4x_driverData

.bss.hdc302x_sensorData%43
                0x2000ac10       0x24
 .bss.hdc302x_sensorData
                0x2000ac10       0x24 build/default/production/_ext/1360937237/hdc302x_driver.o
                0x2000ac10                hdc302x_sensorData

.bss.hdc302x_driverData%44
                0x2000ac34       0x24
 .bss.hdc302x_driverData
                0x2000ac34       0x24 build/default/production/_ext/1360937237/hdc302x_driver.o
                0x2000ac34                hdc302x_driverData

.bss.bmp585_driverData%45
                0x2000ac58       0x24
 .bss.bmp585_driverData
                0x2000ac58       0x24 build/default/production/_ext/1360937237/bmp585_driver.o
                0x2000ac58                bmp585_driverData

.bss.bme690_driverData%46
                0x2000ac7c       0x20
 .bss.bme690_driverData
                0x2000ac7c       0x20 build/default/production/_ext/1360937237/bme690_driver.o
                0x2000ac7c                bme690_driverData

.bss.xm125_driverData%47
                0x2000ac9c       0x20
 .bss.xm125_driverData
                0x2000ac9c       0x20 build/default/production/_ext/1360937237/xm125_driver.o
                0x2000ac9c                xm125_driverData

.bss.vcnl4200_driverData%48
                0x2000acbc       0x20
 .bss.vcnl4200_driverData
                0x2000acbc       0x20 build/default/production/_ext/1360937237/vcnl4200_driver.o
                0x2000acbc                vcnl4200_driverData

.bss.ssd1306_driverData%49
                0x2000acdc       0x20
 .bss.ssd1306_driverData
                0x2000acdc       0x20 build/default/production/_ext/1360937237/ssd1306_driver.o
                0x2000acdc                ssd1306_driverData

.bss%50         0x2000acfc       0x1c
 .bss           0x2000acfc       0x1c C:/Applications/Microchip/XC32/bin/bin/../../lib/gcc/pic32c/13.2.1/thumb/v6-m/nofp/crtbegin.o

.bss.can0Obj%51
                0x2000ad18       0x1c
 .bss.can0Obj   0x2000ad18       0x1c build/default/production/_ext/60165182/plib_can0.o

.bss.drvI2C0ClientObjPool%52
                0x2000ad34       0x18
 .bss.drvI2C0ClientObjPool
                0x2000ad34       0x18 build/default/production/_ext/1171490990/initialization.o

.bss.sysObj%53  0x2000ad4c       0x14
 .bss.sysObj    0x2000ad4c       0x14 build/default/production/_ext/1171490990/initialization.o
                0x2000ad4c                sysObj

.bss.sht4x_sensorData%54
                0x2000ad60       0x14
 .bss.sht4x_sensorData
                0x2000ad60       0x14 build/default/production/_ext/1360937237/sht4x_driver.o
                0x2000ad60                sht4x_sensorData

.bss.timer_driverData%55
                0x2000ad74       0x14
 .bss.timer_driverData
                0x2000ad74       0x14 build/default/production/_ext/1360937237/timer_driver.o
                0x2000ad74                timer_driverData

.bss.drvUSART0ClientObjPool%56
                0x2000ad88       0x10
 .bss.drvUSART0ClientObjPool
                0x2000ad88       0x10 build/default/production/_ext/1171490990/initialization.o

.bss.mcp9808_sensorData%57
                0x2000ad98       0x10
 .bss.mcp9808_sensorData
                0x2000ad98       0x10 build/default/production/_ext/1360937237/mcp9808_driver.o
                0x2000ad98                mcp9808_sensorData

.bss.rtcObj%58  0x2000ada8        0xc
 .bss.rtcObj    0x2000ada8        0xc build/default/production/_ext/60180175/plib_rtc_clock.o

.bss.systick%59
                0x2000adb4        0xc
 .bss.systick   0x2000adb4        0xc build/default/production/_ext/1827571544/plib_systick.o

.bss.consoleDeviceInstance%60
                0x2000adc0        0xc
 .bss.consoleDeviceInstance
                0x2000adc0        0xc build/default/production/_ext/1832805299/sys_console.o

.bss.console_driverData%61
                0x2000adcc        0xc
 .bss.console_driverData
                0x2000adcc        0xc build/default/production/_ext/1360937237/console_driver.o
                0x2000adcc                console_driverData

.bss.ADC0_CallbackObject%62
                0x2000add8        0x8
 .bss.ADC0_CallbackObject
                0x2000add8        0x8 build/default/production/_ext/60163342/plib_adc0.o

.bss.osc32kctrlObj%63
                0x2000ade0        0x8
 .bss.osc32kctrlObj
                0x2000ade0        0x8 build/default/production/_ext/1984496892/plib_clock.o

.bss.freqmObj%64
                0x2000ade8        0x8
 .bss.freqmObj  0x2000ade8        0x8 build/default/production/_ext/1987437027/plib_freqm.o

.bss.TC0_CallbackObject%65
                0x2000adf0        0x8
 .bss.TC0_CallbackObject
                0x2000adf0        0x8 build/default/production/_ext/829342655/plib_tc0.o

.bss.gConsoleUartData%66
                0x2000adf8        0x8
 .bss.gConsoleUartData
                0x2000adf8        0x8 build/default/production/_ext/1832805299/sys_console_uart.o

.bss.ntc_sensorData%67
                0x2000ae00        0x8
 .bss.ntc_sensorData
                0x2000ae00        0x8 build/default/production/_ext/1360937237/ntc_driver.o
                0x2000ae00                ntc_sensorData

.bss.appData%68
                0x2000ae08        0x5
 .bss.appData   0x2000ae08        0x5 build/default/production/_ext/1360937237/app.o
                0x2000ae08                appData

.bss.txDummyData%69
                0x2000aa6c        0x4
 .bss.txDummyData
                0x2000aa6c        0x4 build/default/production/_ext/2070931557/drv_spi.o

.bss.rstc_driverData%70
                0x2000ae10        0x4
 .bss.rstc_driverData
                0x2000ae10        0x4 build/default/production/_ext/1360937237/rstc_driver.o
                0x2000ae10                rstc_driverData

.bss.ntc_driverData%71
                0x2000ae14        0x4
 .bss.ntc_driverData
                0x2000ae14        0x4 build/default/production/_ext/1360937237/ntc_driver.o
                0x2000ae14                ntc_driverData

.bss%72         0x2000ae18        0x4
 .bss           0x2000ae18        0x4 C:/Applications/Microchip/XC32/bin/bin/../../lib/gcc/pic32c/13.2.1/../../../../pic32c/lib/thumb/v6-m/nofp\libpic32c.a(data_init.o)

.bss%73         0x2000ae1c        0x4
 .bss           0x2000ae1c        0x4 C:/Applications/Microchip/XC32/bin/bin/../../lib/gcc/pic32c/13.2.1/../../../../pic32c/lib/thumb/v6-m/nofp\libc-musl.a(__environ.o)
                0x2000ae1c                __environ
                0x2000ae1c                environ
                0x2000ae1c                ___environ
                0x2000ae1c                _environ

.bss%74         0x2000ae20        0x4
 .bss           0x2000ae20        0x4 C:/Applications/Microchip/XC32/bin/bin/../../lib/gcc/pic32c/13.2.1/../../../../pic32c/lib/thumb/v6-m/nofp\libc-musl.a(__errno_location.o)
                0x2000ae20                __errno_val

.bss.stcc4_driverData%75
                0x2000ae24        0x1
 .bss.stcc4_driverData
                0x2000ae24        0x1 build/default/production/_ext/1360937237/stcc4_driver.o
                0x2000ae24                stcc4_driverData

.bss.fan_driverData%76
                0x2000ae28        0x3
 .bss.fan_driverData
                0x2000ae28        0x3 build/default/production/_ext/1360937237/fan_driver.o
                0x2000ae28                fan_driverData

.bss.isLastByteTransferInProgress.0%77
                0x2000a57a        0x1
 .bss.isLastByteTransferInProgress.0
                0x2000a57a        0x1 build/default/production/_ext/17022449/plib_sercom2_spi_master.o

.bss.consolePrintBufferMutex%78
                0x2000a57b        0x1
 .bss.consolePrintBufferMutex
                0x2000a57b        0x1 build/default/production/_ext/1832805299/sys_console.o

.bss.isConsoleMutexCreated%79
                0x2000ae0d        0x1
 .bss.isConsoleMutexCreated
                0x2000ae0d        0x1 build/default/production/_ext/1832805299/sys_console.o

.data.ASCII%80  0x2000ae2c      0x1e0
 .data.ASCII    0x2000ae2c      0x1e0 build/default/production/_ext/1360937237/ssd1306_driver.o
                0x2000ae2c                ASCII

.data.gSysTimeTokenCount%81
                0x2000ae0e        0x2
 .data.gSysTimeTokenCount
                0x2000ae0e        0x2 build/default/production/_ext/101884895/sys_time.o

.eh_frame%z6    0x00000000        0x0
 .eh_frame      0x00000000        0x0 C:/Applications/Microchip/XC32/bin/bin/../../lib/gcc/pic32c/13.2.1/thumb/v6-m/nofp/crtbegin.o

.text.SSD1306_DRIVER_Tasks%82
                0x000000e8      0x818
 .text.SSD1306_DRIVER_Tasks
                0x000000e8      0x818 build/default/production/_ext/1360937237/ssd1306_driver.o
                0x000000e8                SSD1306_DRIVER_Tasks

.text.__fmt_fp%83
                0x00000900      0x4f8
 .text.__fmt_fp
                0x00000900      0x4f8 C:/Applications/Microchip/XC32/bin/bin/../../lib/gcc/pic32c/13.2.1/../../../../pic32c/lib/thumb/v6-m/nofp\libc-musl.a(__fmt_fp.o)
                0x00000900                __fmt_f_needed
                0x00000900                __fmt_fp

.dinit%84       0x00000df8      0x4e0
 .dinit         0x00000df8      0x4e0 data_init

.text.__fmt_a%85
                0x000012d8      0x4a0
 .text.__fmt_a  0x000012d8      0x4a0 C:/Applications/Microchip/XC32/bin/bin/../../lib/gcc/pic32c/13.2.1/../../../../pic32c/lib/thumb/v6-m/nofp\libc-musl.a(__fmt_a.o)
                0x000012d8                __fmt_a_needed
                0x000012d8                __fmt_a

.text.__printf_core%86
                0x00001778      0x320
 .text.__printf_core
                0x00001778      0x320 C:/Applications/Microchip/XC32/bin/bin/../../lib/gcc/pic32c/13.2.1/../../../../pic32c/lib/thumb/v6-m/nofp\libc-musl.a(__printf_core.o)
                0x00001778                __printf_core

.text.BMP585_DRIVER_Tasks%87
                0x00001a98      0x2d4
 .text.BMP585_DRIVER_Tasks
                0x00001a98      0x2d4 build/default/production/_ext/1360937237/bmp585_driver.o
                0x00001a98                BMP585_DRIVER_Tasks

.text.lDRV_I2C_WriteReadTransferAdd%88
                0x00001d6c      0x264
 .text.lDRV_I2C_WriteReadTransferAdd
                0x00001d6c      0x264 build/default/production/_ext/158385033/drv_i2c.o

.text.AD9954_DRIVER_Tasks%89
                0x00001fd0      0x1fc
 .text.AD9954_DRIVER_Tasks
                0x00001fd0      0x1fc build/default/production/_ext/1360937237/ad9954_driver.o
                0x00001fd0                AD9954_DRIVER_Tasks

.text.DRV_SPI_WriteReadTransferAdd%90
                0x000021cc      0x1dc
 .text.DRV_SPI_WriteReadTransferAdd
                0x000021cc      0x1dc build/default/production/_ext/2070931557/drv_spi.o
                0x000021cc                DRV_SPI_WriteReadTransferAdd

.text.CAN0_DRIVER_Tasks%91
                0x000023a8      0x1d0
 .text.CAN0_DRIVER_Tasks
                0x000023a8      0x1d0 build/default/production/_ext/1360937237/can0_driver.o
                0x000023a8                CAN0_DRIVER_Tasks

.text.MCP9808_DRIVER_Tasks%92
                0x00002578      0x1d0
 .text.MCP9808_DRIVER_Tasks
                0x00002578      0x1d0 build/default/production/_ext/1360937237/mcp9808_driver.o
                0x00002578                MCP9808_DRIVER_Tasks

.text.CLOCK_Initialize%93
                0x00002748      0x1cc
 .text.CLOCK_Initialize
                0x00002748      0x1cc build/default/production/_ext/1984496892/plib_clock.o
                0x00002748                CLOCK_Initialize

.text.__aeabi_dadd%94
                0x00002914      0x1c8
 .text.__aeabi_dadd
                0x00002914      0x1c8 C:/Applications/Microchip/XC32/bin/bin/../../lib/gcc/pic32c/13.2.1/../../../../pic32c/lib/thumb/v6-m/nofp\libm-fast-emfloat.a(__aeabi_dadd.o)
                0x00002914                __aeabi_dadd
                0x0000291a                .L__aeabi_dadd_fast_entry

.text.SERCOM3_I2C_InterruptHandler%95
                0x00002adc      0x1c0
 .text.SERCOM3_I2C_InterruptHandler
                0x00002adc      0x1c0 build/default/production/_ext/508257091/plib_sercom3_i2c_master.o
                0x00002adc                SERCOM3_I2C_InterruptHandler

.text.lDRV_SPI_StartDMATransfer%96
                0x00002c9c      0x19c
 .text.lDRV_SPI_StartDMATransfer
                0x00002c9c      0x19c build/default/production/_ext/2070931557/drv_spi.o

.text.__aeabi_dmul_aux%97
                0x00002e38      0x18a
 .text.__aeabi_dmul_aux
                0x00002e38      0x18a C:/Applications/Microchip/XC32/bin/bin/../../lib/gcc/pic32c/13.2.1/../../../../pic32c/lib/thumb/v6-m/nofp\libm-fast-emfloat.a(__aeabi_dmul_aux.o)
                0x00002e38                __aeabi_dmul_aux
                0x00002e70                __aeabi_dmul

.text.FCM360W_DRIVER_Tasks%98
                0x00002fc4      0x180
 .text.FCM360W_DRIVER_Tasks
                0x00002fc4      0x180 build/default/production/_ext/1360937237/fcm360w_driver.o
                0x00002fc4                FCM360W_DRIVER_Tasks

.text.SERCOM2_SPI_WriteRead%99
                0x00003144      0x178
 .text.SERCOM2_SPI_WriteRead
                0x00003144      0x178 build/default/production/_ext/17022449/plib_sercom2_spi_master.o
                0x00003144                SERCOM2_SPI_WriteRead

.text.lDRV_USART_BufferAdd%100
                0x000032bc      0x168
 .text.lDRV_USART_BufferAdd
                0x000032bc      0x168 build/default/production/_ext/869808652/drv_usart.o

.text.SHT4X_DRIVER_Tasks%101
                0x00003424      0x160
 .text.SHT4X_DRIVER_Tasks
                0x00003424      0x160 build/default/production/_ext/1360937237/sht4x_driver.o
                0x00003424                SHT4X_DRIVER_Tasks

.text.lDRV_SPI_RX_DMA_CallbackHandler%102
                0x00003584      0x15c
 .text.lDRV_SPI_RX_DMA_CallbackHandler
                0x00003584      0x15c build/default/production/_ext/2070931557/drv_spi.o

.text.SERCOM2_SPI_InterruptHandler%103
                0x000036e0      0x154
 .text.SERCOM2_SPI_InterruptHandler
                0x000036e0      0x154 build/default/production/_ext/17022449/plib_sercom2_spi_master.o
                0x000036e0                SERCOM2_SPI_InterruptHandler

.text.SERCOM0_USART_SerialSetup%104
                0x00003834      0x154
 .text.SERCOM0_USART_SerialSetup
                0x00003834      0x154 build/default/production/_ext/504274921/plib_sercom0_usart.o
                0x00003834                SERCOM0_USART_SerialSetup

.text.__aeabi_fadd%105
                0x00003988      0x13a
 .text.__aeabi_fadd
                0x00003988      0x13a C:/Applications/Microchip/XC32/bin/bin/../../lib/gcc/pic32c/13.2.1/../../../../pic32c/lib/thumb/v6-m/nofp\libm-fast-emfloat.a(__aeabi_fadd.o)
                0x00003988                __aeabi_fadd
                0x0000398c                .L__aeabi_fadd_fast_entry

.text.__fmt_x%106
                0x00003ac2      0x12e
 .text.__fmt_x  0x00003ac2      0x12e C:/Applications/Microchip/XC32/bin/bin/../../lib/gcc/pic32c/13.2.1/../../../../pic32c/lib/thumb/v6-m/nofp\libc-musl.a(__fmt_x.o)
                0x00003ac2                __fmt_x_needed
                0x00003ac2                __fmt_x

.text.SYS_Initialize%107
                0x00003bf0      0x110
 .text.SYS_Initialize
                0x00003bf0      0x110 build/default/production/_ext/1171490990/initialization.o
                0x00003bf0                SYS_Initialize

.text.APP_Tasks%108
                0x00003d00      0x110
 .text.APP_Tasks
                0x00003d00      0x110 build/default/production/_ext/1360937237/app.o
                0x00003d00                APP_Tasks

.text.SERCOM3_I2C_TransferSetup%109
                0x00003e10      0x10c
 .text.SERCOM3_I2C_TransferSetup
                0x00003e10      0x10c build/default/production/_ext/508257091/plib_sercom3_i2c_master.o
                0x00003e10                SERCOM3_I2C_TransferSetup

.text.RSTC_DRIVER_Tasks%110
                0x00003f1c      0x108
 .text.RSTC_DRIVER_Tasks
                0x00003f1c      0x108 build/default/production/_ext/1360937237/rstc_driver.o
                0x00003f1c                RSTC_DRIVER_Tasks

.text.SERCOM1_USART_Write%111
                0x00004024      0x104
 .text.SERCOM1_USART_Write
                0x00004024      0x104 build/default/production/_ext/504274921/plib_sercom1_usart.o
                0x00004024                SERCOM1_USART_Write

.text.DRV_SPI_Open%112
                0x00004128       0xf8
 .text.DRV_SPI_Open
                0x00004128       0xf8 build/default/production/_ext/2070931557/drv_spi.o
                0x00004128                DRV_SPI_Open

.text.DRV_I2C_Open%113
                0x00004220       0xf4
 .text.DRV_I2C_Open
                0x00004220       0xf4 build/default/production/_ext/158385033/drv_i2c.o
                0x00004220                DRV_I2C_Open

.text.lDRV_USART_BufferQueueTask%114
                0x00004314       0xf4
 .text.lDRV_USART_BufferQueueTask
                0x00004314       0xf4 build/default/production/_ext/869808652/drv_usart.o

.text.SERCOM1_USART_ISR_TX_Handler%115
                0x00004408       0xf0
 .text.SERCOM1_USART_ISR_TX_Handler
                0x00004408       0xf0 build/default/production/_ext/504274921/plib_sercom1_usart.o

.text.NVIC_Initialize%116
                0x000044f8       0xec
 .text.NVIC_Initialize
                0x000044f8       0xec build/default/production/_ext/1865468468/plib_nvic.o
                0x000044f8                NVIC_Initialize

.rodata.SSD1306_DRIVER_Tasks%117
                0x000045e4       0xec
 .rodata.SSD1306_DRIVER_Tasks
                0x000045e4       0xec build/default/production/_ext/1360937237/ssd1306_driver.o

.text.DRV_USART_Open%118
                0x000046d0       0xe8
 .text.DRV_USART_Open
                0x000046d0       0xe8 build/default/production/_ext/869808652/drv_usart.o
                0x000046d0                DRV_USART_Open

.text.SERCOM1_USART_ISR_RX_Handler%119
                0x000047b8       0xe4
 .text.SERCOM1_USART_ISR_RX_Handler
                0x000047b8       0xe4 build/default/production/_ext/504274921/plib_sercom1_usart.o

.text%120       0x0000489c       0xde
 .text          0x0000489c       0xde C:/Applications/Microchip/XC32/bin/bin/../../lib/gcc/pic32c/13.2.1/thumb/v6-m/nofp\libgcc.a(_udivmoddi4.o)
                0x0000489c                __udivmoddi4

.text.lDRV_SPI_PlibCallbackHandler%121
                0x0000497c       0xdc
 .text.lDRV_SPI_PlibCallbackHandler
                0x0000497c       0xdc build/default/production/_ext/2070931557/drv_spi.o

.text.CAN0_MessageReceiveFifo%122
                0x00004a58       0xdc
 .text.CAN0_MessageReceiveFifo
                0x00004a58       0xdc build/default/production/_ext/60165182/plib_can0.o
                0x00004a58                CAN0_MessageReceiveFifo

.text.__pop_int%123
                0x00004b34       0xd6
 .text.__pop_int
                0x00004b34       0xd6 C:/Applications/Microchip/XC32/bin/bin/../../lib/gcc/pic32c/13.2.1/../../../../pic32c/lib/thumb/v6-m/nofp\libc-musl.a(__pop_int.o)
                0x00004b34                __pop_int_needed
                0x00004b34                __pop_int

.text.lDRV_SPI_UpdateTransferSetupAndAssertCS%124
                0x00004c0c       0xd0
 .text.lDRV_SPI_UpdateTransferSetupAndAssertCS
                0x00004c0c       0xd0 build/default/production/_ext/2070931557/drv_spi.o

.text.DRV_SPI_Close%125
                0x00004cdc       0xd0
 .text.DRV_SPI_Close
                0x00004cdc       0xd0 build/default/production/_ext/2070931557/drv_spi.o
                0x00004cdc                DRV_SPI_Close

.text.DMAC_Initialize%126
                0x00004dac       0xd0
 .text.DMAC_Initialize
                0x00004dac       0xd0 build/default/production/_ext/1865161661/plib_dmac.o
                0x00004dac                DMAC_Initialize

.text.SYS_TIME_PLIBCallback%127
                0x00004e7c       0xd0
 .text.SYS_TIME_PLIBCallback
                0x00004e7c       0xd0 build/default/production/_ext/101884895/sys_time.o

.text.Reset_Handler%128
                0x00004f4c       0xd0
 .text.Reset_Handler
                0x00004f4c       0xd0 build/default/production/_ext/1171490990/startup_xc32.o
                0x00004f4c                Reset_Handler

.rodata.CAN0_DRIVER_Print_Data.str1.4%129
                0x0000501c       0xcf
 .rodata.CAN0_DRIVER_Print_Data.str1.4
                0x0000501c       0xcf build/default/production/_ext/1360937237/can0_driver.o
                                 0x33 (size before relaxing)

.text.DRV_USART_Initialize%130
                0x000050ec       0xcc
 .text.DRV_USART_Initialize
                0x000050ec       0xcc build/default/production/_ext/869808652/drv_usart.o
                0x000050ec                DRV_USART_Initialize

.text.lDRV_USART_ResourceLock%131
                0x000051b8       0xca
 .text.lDRV_USART_ResourceLock
                0x000051b8       0xca build/default/production/_ext/869808652/drv_usart.o

.text.lDRV_SPI_ResourceLock%132
                0x00005282       0xc6
 .text.lDRV_SPI_ResourceLock
                0x00005282       0xc6 build/default/production/_ext/2070931557/drv_spi.o

.text.lDRV_I2C_NextTransferInitiate%133
                0x00005348       0xc4
 .text.lDRV_I2C_NextTransferInitiate
                0x00005348       0xc4 build/default/production/_ext/158385033/drv_i2c.o

.text.DMAC_ChannelTransfer%134
                0x0000540c       0xc4
 .text.DMAC_ChannelTransfer
                0x0000540c       0xc4 build/default/production/_ext/1865161661/plib_dmac.o
                0x0000540c                DMAC_ChannelTransfer

.text.__aeabi_ddiv%135
                0x000054d0       0xc4
 .text.__aeabi_ddiv
                0x000054d0       0xc4 C:/Applications/Microchip/XC32/bin/bin/../../lib/gcc/pic32c/13.2.1/../../../../pic32c/lib/thumb/v6-m/nofp\libm-fast-emfloat.a(__aeabi_ddiv.o)
                0x000054d0                __aeabi_ddiv

.text.lDRV_USART_ResourceUnlock%136
                0x00005594       0xbe
 .text.lDRV_USART_ResourceUnlock
                0x00005594       0xbe build/default/production/_ext/869808652/drv_usart.o

.text.floor%137
                0x00005654       0xbc
 .text.floor    0x00005654       0xbc C:/Applications/Microchip/XC32/bin/bin/../../lib/gcc/pic32c/13.2.1/../../../../pic32c/lib/thumb/v6-m/nofp\libm-fast-emfloat.a(floor.o)
                0x00005654                floor

.text.__aeabi_fmul%138
                0x00005710       0xb6
 .text.__aeabi_fmul
                0x00005710       0xb6 C:/Applications/Microchip/XC32/bin/bin/../../lib/gcc/pic32c/13.2.1/../../../../pic32c/lib/thumb/v6-m/nofp\libm-fast-emfloat.a(__aeabi_fmul.o)
                0x00005710                __aeabi_fmul

.text.lDRV_SPI_ResourceUnlock%139
                0x000057c6       0xb4
 .text.lDRV_SPI_ResourceUnlock
                0x000057c6       0xb4 build/default/production/_ext/2070931557/drv_spi.o

.text.EIC_Initialize%140
                0x0000587c       0xb4
 .text.EIC_Initialize
                0x0000587c       0xb4 build/default/production/_ext/60167341/plib_eic.o
                0x0000587c                EIC_Initialize

.text.__fmt_d%141
                0x00005930       0xb4
 .text.__fmt_d  0x00005930       0xb4 C:/Applications/Microchip/XC32/bin/bin/../../lib/gcc/pic32c/13.2.1/../../../../pic32c/lib/thumb/v6-m/nofp\libc-musl.a(__fmt_d.o)
                0x00005930                __fmt_d
                0x00005930                __fmt_d_needed

.text.DRV_SPI_Initialize%142
                0x000059e4       0xb0
 .text.DRV_SPI_Initialize
                0x000059e4       0xb0 build/default/production/_ext/2070931557/drv_spi.o
                0x000059e4                DRV_SPI_Initialize

.text.SYS_TIME_TimerObjectCreate%143
                0x00005a94       0xb0
 .text.SYS_TIME_TimerObjectCreate
                0x00005a94       0xb0 build/default/production/_ext/101884895/sys_time.o

.text%144       0x00005b44       0xa8
 .text          0x00005b44       0xa8 C:/Applications/Microchip/XC32/bin/bin/../../lib/gcc/pic32c/13.2.1/thumb/v6-m/nofp\libgcc.a(_divsi3.o)
                0x00005b44                __divsi3
                0x00005b44                __aeabi_idiv
                0x00005bd8                __aeabi_idivmod

.text.SERCOM2_SPI_TransferSetup%145
                0x00005bec       0xa0
 .text.SERCOM2_SPI_TransferSetup
                0x00005bec       0xa0 build/default/production/_ext/17022449/plib_sercom2_spi_master.o
                0x00005bec                SERCOM2_SPI_TransferSetup

.text.CAN0_MessageRAMConfigSet%146
                0x00005c8c       0x9c
 .text.CAN0_MessageRAMConfigSet
                0x00005c8c       0x9c build/default/production/_ext/60165182/plib_can0.o
                0x00005c8c                CAN0_MessageRAMConfigSet

.text.SYS_TIME_AddToList%147
                0x00005d28       0x9c
 .text.SYS_TIME_AddToList
                0x00005d28       0x9c build/default/production/_ext/101884895/sys_time.o

.text.SERCOM1_USART_Read%148
                0x00005dc4       0x94
 .text.SERCOM1_USART_Read
                0x00005dc4       0x94 build/default/production/_ext/504274921/plib_sercom1_usart.o
                0x00005dc4                SERCOM1_USART_Read

.text.__aeabi_fdiv%149
                0x00005e58       0x94
 .text.__aeabi_fdiv
                0x00005e58       0x94 C:/Applications/Microchip/XC32/bin/bin/../../lib/gcc/pic32c/13.2.1/../../../../pic32c/lib/thumb/v6-m/nofp\libm-fast-emfloat.a(__aeabi_fdiv.o)
                0x00005e58                __aeabi_fdiv

.text.WS281X_DRIVER_Set_LED_Strip_Data%150
                0x00005eec       0x8c
 .text.WS281X_DRIVER_Set_LED_Strip_Data
                0x00005eec       0x8c build/default/production/_ext/1360937237/ws281x_driver.o
                0x00005eec                WS281X_DRIVER_Set_LED_Strip_Data

.text%151       0x00005f78       0x8c
 .text          0x00005f78       0x8c C:/Applications/Microchip/XC32/bin/bin/../../lib/gcc/pic32c/13.2.1/thumb/v6-m/nofp\libgcc.a(_udivsi3.o)
                0x00005f78                __aeabi_uidiv
                0x00005f78                __udivsi3
                0x00005ff0                __aeabi_uidivmod

.text.lDRV_I2C_ResourceLock%152
                0x00006004       0x8a
 .text.lDRV_I2C_ResourceLock
                0x00006004       0x8a build/default/production/_ext/158385033/drv_i2c.o

.text.SERCOM1_USART_Initialize%153
                0x00006090       0x88
 .text.SERCOM1_USART_Initialize
                0x00006090       0x88 build/default/production/_ext/504274921/plib_sercom1_usart.o
                0x00006090                SERCOM1_USART_Initialize

.text.DRV_USART_Close%154
                0x00006118       0x84
 .text.DRV_USART_Close
                0x00006118       0x84 build/default/production/_ext/869808652/drv_usart.o
                0x00006118                DRV_USART_Close

.text.TIMER_DRIVER_Initialize%155
                0x0000619c       0x84
 .text.TIMER_DRIVER_Initialize
                0x0000619c       0x84 build/default/production/_ext/1360937237/timer_driver.o
                0x0000619c                TIMER_DRIVER_Initialize

.text.CAN0_MessageTransmitFifo%156
                0x00006220       0x80
 .text.CAN0_MessageTransmitFifo
                0x00006220       0x80 build/default/production/_ext/60165182/plib_can0.o
                0x00006220                CAN0_MessageTransmitFifo

.text.SERCOM0_USART_ISR_TX_Handler%157
                0x000062a0       0x80
 .text.SERCOM0_USART_ISR_TX_Handler
                0x000062a0       0x80 build/default/production/_ext/504274921/plib_sercom0_usart.o

.text.NTC_DRIVER_Tasks%158
                0x00006320       0x80
 .text.NTC_DRIVER_Tasks
                0x00006320       0x80 build/default/production/_ext/1360937237/ntc_driver.o
                0x00006320                NTC_DRIVER_Tasks

.text.lDRV_I2C_ResourceUnlock%159
                0x000063a0       0x7c
 .text.lDRV_I2C_ResourceUnlock
                0x000063a0       0x7c build/default/production/_ext/158385033/drv_i2c.o

.text.DMAC_InterruptHandler%160
                0x0000641c       0x7c
 .text.DMAC_InterruptHandler
                0x0000641c       0x7c build/default/production/_ext/1865161661/plib_dmac.o
                0x0000641c                DMAC_InterruptHandler

.text.DRV_I2C_Close%161
                0x00006498       0x78
 .text.DRV_I2C_Close
                0x00006498       0x78 build/default/production/_ext/158385033/drv_i2c.o
                0x00006498                DRV_I2C_Close

.text.__pad%162
                0x00006510       0x78
 .text.__pad    0x00006510       0x78 C:/Applications/Microchip/XC32/bin/bin/../../lib/gcc/pic32c/13.2.1/../../../../pic32c/lib/thumb/v6-m/nofp\libc-musl.a(__printf_core.o)
                0x00006510                __pad

.text.__pop_ptr%163
                0x00006588       0x76
 .text.__pop_ptr
                0x00006588       0x76 C:/Applications/Microchip/XC32/bin/bin/../../lib/gcc/pic32c/13.2.1/../../../../pic32c/lib/thumb/v6-m/nofp\libc-musl.a(__pop_ptr.o)
                0x00006588                __pop_ptr
                0x00006588                __pop_ptr_needed

.text.__cvt_u%164
                0x000065fe       0x76
 .text.__cvt_u  0x000065fe       0x76 C:/Applications/Microchip/XC32/bin/bin/../../lib/gcc/pic32c/13.2.1/../../../../pic32c/lib/thumb/v6-m/nofp\libc-musl.a(__cvt_u.o)
                0x000065fe                __cvt_u

.text.SERCOM0_USART_Write%165
                0x00006674       0x74
 .text.SERCOM0_USART_Write
                0x00006674       0x74 build/default/production/_ext/504274921/plib_sercom0_usart.o
                0x00006674                SERCOM0_USART_Write

.text.SYS_CONSOLE_Print%166
                0x000066e8       0x74
 .text.SYS_CONSOLE_Print
                0x000066e8       0x74 build/default/production/_ext/1832805299/sys_console.o
                0x000066e8                SYS_CONSOLE_Print

.text.RTC_DRIVER_Tasks%167
                0x0000675c       0x74
 .text.RTC_DRIVER_Tasks
                0x0000675c       0x74 build/default/production/_ext/1360937237/rtc_driver.o
                0x0000675c                RTC_DRIVER_Tasks

.text.BME690_DRIVER_Tasks%168
                0x000067d0       0x74
 .text.BME690_DRIVER_Tasks
                0x000067d0       0x74 build/default/production/_ext/1360937237/bme690_driver.o
                0x000067d0                BME690_DRIVER_Tasks

.text.HDC302X_DRIVER_Tasks%169
                0x00006844       0x74
 .text.HDC302X_DRIVER_Tasks
                0x00006844       0x74 build/default/production/_ext/1360937237/hdc302x_driver.o
                0x00006844                HDC302X_DRIVER_Tasks

.text.XM125_DRIVER_Tasks%170
                0x000068b8       0x74
 .text.XM125_DRIVER_Tasks
                0x000068b8       0x74 build/default/production/_ext/1360937237/xm125_driver.o
                0x000068b8                XM125_DRIVER_Tasks

.text.VCNL4200_DRIVER_Tasks%171
                0x0000692c       0x74
 .text.VCNL4200_DRIVER_Tasks
                0x0000692c       0x74 build/default/production/_ext/1360937237/vcnl4200_driver.o
                0x0000692c                VCNL4200_DRIVER_Tasks

.text.SEN63C_DRIVER_Tasks%172
                0x000069a0       0x74
 .text.SEN63C_DRIVER_Tasks
                0x000069a0       0x74 build/default/production/_ext/1360937237/sen63c_driver.o
                0x000069a0                SEN63C_DRIVER_Tasks

.text.SERCOM0_USART_ISR_RX_Handler%173
                0x00006a14       0x70
 .text.SERCOM0_USART_ISR_RX_Handler
                0x00006a14       0x70 build/default/production/_ext/504274921/plib_sercom0_usart.o

.text.__fmt_o%174
                0x00006a84       0x6e
 .text.__fmt_o  0x00006a84       0x6e C:/Applications/Microchip/XC32/bin/bin/../../lib/gcc/pic32c/13.2.1/../../../../pic32c/lib/thumb/v6-m/nofp\libc-musl.a(__fmt_o.o)
                0x00006a84                __fmt_o
                0x00006a84                __fmt_o_needed

.text.DRV_I2C_Initialize%175
                0x00006af4       0x6c
 .text.DRV_I2C_Initialize
                0x00006af4       0x6c build/default/production/_ext/158385033/drv_i2c.o
                0x00006af4                DRV_I2C_Initialize

.text.CAN0_Initialize%176
                0x00006b60       0x6c
 .text.CAN0_Initialize
                0x00006b60       0x6c build/default/production/_ext/60165182/plib_can0.o
                0x00006b60                CAN0_Initialize

.text.SYS_TIME_Initialize%177
                0x00006bcc       0x6c
 .text.SYS_TIME_Initialize
                0x00006bcc       0x6c build/default/production/_ext/101884895/sys_time.o
                0x00006bcc                SYS_TIME_Initialize

.text.CAN0_DRIVER_Get_Received_Data%178
                0x00006c38       0x6c
 .text.CAN0_DRIVER_Get_Received_Data
                0x00006c38       0x6c build/default/production/_ext/1360937237/can0_driver.o
                0x00006c38                CAN0_DRIVER_Get_Received_Data

.rodata.BMP585_DRIVER_Tasks%179
                0x00006ca4       0x68
 .rodata.BMP585_DRIVER_Tasks
                0x00006ca4       0x68 build/default/production/_ext/1360937237/bmp585_driver.o

.text.lDRV_USART_ReadSubmit%180
                0x00006d0c       0x66
 .text.lDRV_USART_ReadSubmit
                0x00006d0c       0x66 build/default/production/_ext/869808652/drv_usart.o

.text.WS281X_DRIVER_Tasks%181
                0x00006d74       0x64
 .text.WS281X_DRIVER_Tasks
                0x00006d74       0x64 build/default/production/_ext/1360937237/ws281x_driver.o
                0x00006d74                WS281X_DRIVER_Tasks

.text.vsnprintf%182
                0x00006dd8       0x64
 .text.vsnprintf
                0x00006dd8       0x64 C:/Applications/Microchip/XC32/bin/bin/../../lib/gcc/pic32c/13.2.1/../../../../pic32c/lib/thumb/v6-m/nofp\libc-musl.a(vsnprintf.o)
                0x00006dd8                vsnprintf

.text.__aeabi_d2f%183
                0x00006e3c       0x62
 .text.__aeabi_d2f
                0x00006e3c       0x62 C:/Applications/Microchip/XC32/bin/bin/../../lib/gcc/pic32c/13.2.1/../../../../pic32c/lib/thumb/v6-m/nofp\libm-fast-emfloat.a(__aeabi_d2f.o)
                0x00006e3c                __aeabi_d2f

.text.lDRV_USART_WriteSubmit%184
                0x00006e9e       0x60
 .text.lDRV_USART_WriteSubmit
                0x00006e9e       0x60 build/default/production/_ext/869808652/drv_usart.o

.text.EIC_InterruptHandler%185
                0x00006f00       0x60
 .text.EIC_InterruptHandler
                0x00006f00       0x60 build/default/production/_ext/60167341/plib_eic.o
                0x00006f00                EIC_InterruptHandler

.text.RTC_RTCCTimeGet%186
                0x00006f60       0x60
 .text.RTC_RTCCTimeGet
                0x00006f60       0x60 build/default/production/_ext/60180175/plib_rtc_clock.o
                0x00006f60                RTC_RTCCTimeGet

.text.SERCOM3_I2C_Initialize%187
                0x00006fc0       0x60
 .text.SERCOM3_I2C_Initialize
                0x00006fc0       0x60 build/default/production/_ext/508257091/plib_sercom3_i2c_master.o
                0x00006fc0                SERCOM3_I2C_Initialize

.text.__strchrnul%188
                0x00007020       0x60
 .text.__strchrnul
                0x00007020       0x60 C:/Applications/Microchip/XC32/bin/bin/../../lib/gcc/pic32c/13.2.1/../../../../pic32c/lib/thumb/v6-m/nofp\libc-size-musl.a(strchrnul.o)
                0x00007020                strchrnul
                0x00007020                __strchrnul

.text.SYS_CONSOLE_Initialize%189
                0x00007080       0x5c
 .text.SYS_CONSOLE_Initialize
                0x00007080       0x5c build/default/production/_ext/1832805299/sys_console.o
                0x00007080                SYS_CONSOLE_Initialize

.text.CAN0_DRIVER_Set_Message_Content%190
                0x000070dc       0x5c
 .text.CAN0_DRIVER_Set_Message_Content
                0x000070dc       0x5c build/default/production/_ext/1360937237/can0_driver.o
                0x000070dc                CAN0_DRIVER_Set_Message_Content

.text.CONSOLE_DRIVER_Tasks%191
                0x00007138       0x5c
 .text.CONSOLE_DRIVER_Tasks
                0x00007138       0x5c build/default/production/_ext/1360937237/console_driver.o
                0x00007138                CONSOLE_DRIVER_Tasks

.text.__libc_start_init%192
                0x00007194       0x5c
 .text.__libc_start_init
                0x00007194       0x5c C:/Applications/Microchip/XC32/bin/bin/../../lib/gcc/pic32c/13.2.1/../../../../pic32c/lib/thumb/v6-m/nofp\libc-musl.a(__libc_start_main.o)
                0x00007194                __libc_init_array

.text.lDRV_I2C_PLibCallbackHandler%193
                0x000071f0       0x58
 .text.lDRV_I2C_PLibCallbackHandler
                0x000071f0       0x58 build/default/production/_ext/158385033/drv_i2c.o

.text.DRV_I2C_TransferStatusGet%194
                0x00007248       0x58
 .text.DRV_I2C_TransferStatusGet
                0x00007248       0x58 build/default/production/_ext/158385033/drv_i2c.o
                0x00007248                DRV_I2C_TransferStatusGet

.text.SERCOM1_USART_InterruptHandler%195
                0x000072a0       0x58
 .text.SERCOM1_USART_InterruptHandler
                0x000072a0       0x58 build/default/production/_ext/504274921/plib_sercom1_usart.o
                0x000072a0                SERCOM1_USART_InterruptHandler

.text.SERCOM0_USART_InterruptHandler%196
                0x000072f8       0x58
 .text.SERCOM0_USART_InterruptHandler
                0x000072f8       0x58 build/default/production/_ext/504274921/plib_sercom0_usart.o
                0x000072f8                SERCOM0_USART_InterruptHandler

.text.SYS_TIME_CallbackRegisterMS%197
                0x00007350       0x58
 .text.SYS_TIME_CallbackRegisterMS
                0x00007350       0x58 build/default/production/_ext/101884895/sys_time.o
                0x00007350                SYS_TIME_CallbackRegisterMS

.text.__fmt_u%198
                0x000073a8       0x56
 .text.__fmt_u  0x000073a8       0x56 C:/Applications/Microchip/XC32/bin/bin/../../lib/gcc/pic32c/13.2.1/../../../../pic32c/lib/thumb/v6-m/nofp\libc-musl.a(__fmt_u.o)
                0x000073a8                __fmt_u_needed
                0x000073a8                __fmt_u

.text.lDRV_SPI_TX_DMA_CallbackHandler%199
                0x00007400       0x54
 .text.lDRV_SPI_TX_DMA_CallbackHandler
                0x00007400       0x54 build/default/production/_ext/2070931557/drv_spi.o

.text.ADC0_Initialize%200
                0x00007454       0x54
 .text.ADC0_Initialize
                0x00007454       0x54 build/default/production/_ext/60163342/plib_adc0.o
                0x00007454                ADC0_Initialize

.text.SERCOM3_I2C_InitiateTransfer%201
                0x000074a8       0x54
 .text.SERCOM3_I2C_InitiateTransfer
                0x000074a8       0x54 build/default/production/_ext/508257091/plib_sercom3_i2c_master.o

.text.SERCOM0_USART_Initialize%202
                0x000074fc       0x54
 .text.SERCOM0_USART_Initialize
                0x000074fc       0x54 build/default/production/_ext/504274921/plib_sercom0_usart.o
                0x000074fc                SERCOM0_USART_Initialize

.text.SYS_Tasks%203
                0x00007550       0x54
 .text.SYS_Tasks
                0x00007550       0x54 build/default/production/_ext/1171490990/tasks.o
                0x00007550                SYS_Tasks

.text.MCP9808_DRIVER_Calculation_Temperature%204
                0x000075a4       0x54
 .text.MCP9808_DRIVER_Calculation_Temperature
                0x000075a4       0x54 build/default/production/_ext/1360937237/mcp9808_driver.o
                0x000075a4                MCP9808_DRIVER_Calculation_Temperature

.text.lDRV_I2C_DriverHandleValidate%205
                0x000075f8       0x50
 .text.lDRV_I2C_DriverHandleValidate
                0x000075f8       0x50 build/default/production/_ext/158385033/drv_i2c.o

.text.lDRV_SPI_DriverHandleValidate%206
                0x00007648       0x50
 .text.lDRV_SPI_DriverHandleValidate
                0x00007648       0x50 build/default/production/_ext/2070931557/drv_spi.o

.text.DRV_USART_BufferStatusGet%207
                0x00007698       0x50
 .text.DRV_USART_BufferStatusGet
                0x00007698       0x50 build/default/production/_ext/869808652/drv_usart.o
                0x00007698                DRV_USART_BufferStatusGet

.text.SERCOM1_USART_ISR_ERR_Handler%208
                0x000076e8       0x50
 .text.SERCOM1_USART_ISR_ERR_Handler
                0x000076e8       0x50 build/default/production/_ext/504274921/plib_sercom1_usart.o

.text.SUPC_Initialize%209
                0x00007738       0x50
 .text.SUPC_Initialize
                0x00007738       0x50 build/default/production/_ext/1865616679/plib_supc.o
                0x00007738                SUPC_Initialize

.rodata.MCP9808_DRIVER_Tasks%210
                0x00007788       0x50
 .rodata.MCP9808_DRIVER_Tasks
                0x00007788       0x50 build/default/production/_ext/1360937237/mcp9808_driver.o

.text.__fmt_s%211
                0x000077d8       0x50
 .text.__fmt_s  0x000077d8       0x50 C:/Applications/Microchip/XC32/bin/bin/../../lib/gcc/pic32c/13.2.1/../../../../pic32c/lib/thumb/v6-m/nofp\libc-musl.a(__fmt_s.o)
                0x000077d8                __fmt_s
                0x000077d8                __fmt_0_needed
                0x000077d8                __fmt_s_needed

.text.lDRV_USART_DriverHandleValidate%212
                0x00007828       0x4c
 .text.lDRV_USART_DriverHandleValidate
                0x00007828       0x4c build/default/production/_ext/869808652/drv_usart.o

.text.SYS_TIME_RemoveFromList%213
                0x00007874       0x4c
 .text.SYS_TIME_RemoveFromList
                0x00007874       0x4c build/default/production/_ext/101884895/sys_time.o

.text.SYS_TIME_TimerStart%214
                0x000078c0       0x4a
 .text.SYS_TIME_TimerStart
                0x000078c0       0x4a build/default/production/_ext/101884895/sys_time.o
                0x000078c0                SYS_TIME_TimerStart

.text%215       0x0000790c       0x48
 .text          0x0000790c       0x48 C:/Applications/Microchip/XC32/bin/bin/../../lib/gcc/pic32c/13.2.1/thumb/v6-m/nofp/crtbegin.o

.text.SHT4X_DRIVER_Calculation_Temperature%216
                0x00007954       0x48
 .text.SHT4X_DRIVER_Calculation_Temperature
                0x00007954       0x48 build/default/production/_ext/1360937237/sht4x_driver.o
                0x00007954                SHT4X_DRIVER_Calculation_Temperature

.text.HDC302X_DRIVER_Print_Data%217
                0x0000799c       0x48
 .text.HDC302X_DRIVER_Print_Data
                0x0000799c       0x48 build/default/production/_ext/1360937237/hdc302x_driver.o
                0x0000799c                HDC302X_DRIVER_Print_Data

.text.lDRV_I2C_ClientCallback%218
                0x000079e4       0x46
 .text.lDRV_I2C_ClientCallback
                0x000079e4       0x46 build/default/production/_ext/158385033/drv_i2c.o

.text.DRV_SPI_TransferStatusGet%219
                0x00007a2c       0x44
 .text.DRV_SPI_TransferStatusGet
                0x00007a2c       0x44 build/default/production/_ext/2070931557/drv_spi.o
                0x00007a2c                DRV_SPI_TransferStatusGet

.text.lDRV_USART_RemoveClientTransfersFromList%220
                0x00007a70       0x44
 .text.lDRV_USART_RemoveClientTransfersFromList
                0x00007a70       0x44 build/default/production/_ext/869808652/drv_usart.o

.text.RTC_Initialize%221
                0x00007ab4       0x44
 .text.RTC_Initialize
                0x00007ab4       0x44 build/default/production/_ext/60180175/plib_rtc_clock.o
                0x00007ab4                RTC_Initialize

.text.SERCOM3_I2C_TransferAbort%222
                0x00007af8       0x44
 .text.SERCOM3_I2C_TransferAbort
                0x00007af8       0x44 build/default/production/_ext/508257091/plib_sercom3_i2c_master.o
                0x00007af8                SERCOM3_I2C_TransferAbort

.text.SERCOM0_USART_Read%223
                0x00007b3c       0x44
 .text.SERCOM0_USART_Read
                0x00007b3c       0x44 build/default/production/_ext/504274921/plib_sercom0_usart.o
                0x00007b3c                SERCOM0_USART_Read

.text.SYSTICK_DelayMs%224
                0x00007b80       0x44
 .text.SYSTICK_DelayMs
                0x00007b80       0x44 build/default/production/_ext/1827571544/plib_systick.o
                0x00007b80                SYSTICK_DelayMs

.text.TCC0_PWMInitialize%225
                0x00007bc4       0x44
 .text.TCC0_PWMInitialize
                0x00007bc4       0x44 build/default/production/_ext/60181570/plib_tcc0.o
                0x00007bc4                TCC0_PWMInitialize

.text.atoi%226  0x00007c08       0x44
 .text.atoi     0x00007c08       0x44 C:/Applications/Microchip/XC32/bin/bin/../../lib/gcc/pic32c/13.2.1/../../../../pic32c/lib/thumb/v6-m/nofp\libc-musl.a(atoi.o)
                0x00007c08                atoi

.text.__aeabi_dcmple%227
                0x00007c4c       0x44
 .text.__aeabi_dcmple
                0x00007c4c       0x44 C:/Applications/Microchip/XC32/bin/bin/../../lib/gcc/pic32c/13.2.1/../../../../pic32c/lib/thumb/v6-m/nofp\libm-fast-emfloat.a(__aeabi_dcmple.o)
                0x00007c4c                __aeabi_dcmple

.text.__aeabi_f2d%228
                0x00007c90       0x44
 .text.__aeabi_f2d
                0x00007c90       0x44 C:/Applications/Microchip/XC32/bin/bin/../../lib/gcc/pic32c/13.2.1/../../../../pic32c/lib/thumb/v6-m/nofp\libm-fast-emfloat.a(__aeabi_f2d.o)
                0x00007c90                __aeabi_f2d

.text%229       0x00007cd4       0x44
 .text          0x00007cd4       0x44 C:/Applications/Microchip/XC32/bin/bin/../../lib/gcc/pic32c/13.2.1/thumb/v6-m/nofp\libgcc.a(_muldi3.o)
                0x00007cd4                __muldi3
                0x00007cd4                __aeabi_lmul

.text.SERCOM0_USART_ISR_ERR_Handler%230
                0x00007d18       0x40
 .text.SERCOM0_USART_ISR_ERR_Handler
                0x00007d18       0x40 build/default/production/_ext/504274921/plib_sercom0_usart.o

.text.SYS_TIME_TimerDestroy%231
                0x00007d58       0x40
 .text.SYS_TIME_TimerDestroy
                0x00007d58       0x40 build/default/production/_ext/101884895/sys_time.o
                0x00007d58                SYS_TIME_TimerDestroy

.text.SYS_TIME_TimerStop%232
                0x00007d98       0x40
 .text.SYS_TIME_TimerStop
                0x00007d98       0x40 build/default/production/_ext/101884895/sys_time.o
                0x00007d98                SYS_TIME_TimerStop

.text%233       0x00007dd8       0x40
 .text          0x00007dd8       0x40 C:/Applications/Microchip/XC32/bin/bin/../../lib/gcc/pic32c/13.2.1/thumb/v6-m/nofp\libgcc.a(_aeabi_uldivmod.o)
                0x00007dd8                __aeabi_uldivmod

.text.__aeabi_dcmpgt%234
                0x00007e18       0x3e
 .text.__aeabi_dcmpgt
                0x00007e18       0x3e C:/Applications/Microchip/XC32/bin/bin/../../lib/gcc/pic32c/13.2.1/../../../../pic32c/lib/thumb/v6-m/nofp\libm-fast-emfloat.a(__aeabi_dcmpgt.o)
                0x00007e18                __aeabi_dcmpgt

.text.__aeabi_dcmplt%235
                0x00007e56       0x3e
 .text.__aeabi_dcmplt
                0x00007e56       0x3e C:/Applications/Microchip/XC32/bin/bin/../../lib/gcc/pic32c/13.2.1/../../../../pic32c/lib/thumb/v6-m/nofp\libm-fast-emfloat.a(__aeabi_dcmplt.o)
                0x00007e56                __aeabi_dcmplt

.text.__aeabi_f2iz%236
                0x00007e94       0x3e
 .text.__aeabi_f2iz
                0x00007e94       0x3e C:/Applications/Microchip/XC32/bin/bin/../../lib/gcc/pic32c/13.2.1/../../../../pic32c/lib/thumb/v6-m/nofp\libm-fast-emfloat.a(__aeabi_f2iz.o)
                0x00007e94                __aeabi_f2iz

.text.DMAC_ChannelSettingsSet%237
                0x00007ed4       0x3c
 .text.DMAC_ChannelSettingsSet
                0x00007ed4       0x3c build/default/production/_ext/1865161661/plib_dmac.o
                0x00007ed4                DMAC_ChannelSettingsSet

.text.PDEC_QDECInitialize%238
                0x00007f10       0x3c
 .text.PDEC_QDECInitialize
                0x00007f10       0x3c build/default/production/_ext/1865510628/plib_pdec.o
                0x00007f10                PDEC_QDECInitialize

.text.SERCOM3_I2C_Read%239
                0x00007f4c       0x3c
 .text.SERCOM3_I2C_Read
                0x00007f4c       0x3c build/default/production/_ext/508257091/plib_sercom3_i2c_master.o
                0x00007f4c                SERCOM3_I2C_Read

.text.SERCOM3_I2C_WriteRead%240
                0x00007f88       0x3c
 .text.SERCOM3_I2C_WriteRead
                0x00007f88       0x3c build/default/production/_ext/508257091/plib_sercom3_i2c_master.o
                0x00007f88                SERCOM3_I2C_WriteRead

.text.SERCOM2_SPI_Initialize%241
                0x00007fc4       0x3c
 .text.SERCOM2_SPI_Initialize
                0x00007fc4       0x3c build/default/production/_ext/17022449/plib_sercom2_spi_master.o
                0x00007fc4                SERCOM2_SPI_Initialize

.text.SYS_INT_SourceDisable%242
                0x00008000       0x3c
 .text.SYS_INT_SourceDisable
                0x00008000       0x3c build/default/production/_ext/1881668453/sys_int.o
                0x00008000                SYS_INT_SourceDisable

.text.SYS_TIME_GetTimerObject%243
                0x0000803c       0x3c
 .text.SYS_TIME_GetTimerObject
                0x0000803c       0x3c build/default/production/_ext/101884895/sys_time.o

.rodata.drvUsart0InitData%244
                0x00008078       0x3c
 .rodata.drvUsart0InitData
                0x00008078       0x3c build/default/production/_ext/1171490990/initialization.o

.rodata.AD9954_DRIVER_Tasks%245
                0x000080b4       0x3c
 .rodata.AD9954_DRIVER_Tasks
                0x000080b4       0x3c build/default/production/_ext/1360937237/ad9954_driver.o

.text.FCM360W_DRIVER_Get_Module_Response_Status%246
                0x000080f0       0x3c
 .text.FCM360W_DRIVER_Get_Module_Response_Status
                0x000080f0       0x3c build/default/production/_ext/1360937237/fcm360w_driver.o
                0x000080f0                FCM360W_DRIVER_Get_Module_Response_Status

.text.strstr%247
                0x0000812c       0x3c
 .text.strstr   0x0000812c       0x3c C:/Applications/Microchip/XC32/bin/bin/../../lib/gcc/pic32c/13.2.1/../../../../pic32c/lib/thumb/v6-m/nofp\libc-size-musl.a(strstr.o)
                0x0000812c                strstr

.text%248       0x00008168       0x3c
 .text          0x00008168       0x3c C:/Applications/Microchip/XC32/bin/bin/../../lib/gcc/pic32c/13.2.1/thumb/v6-m/nofp\libgcc.a(_clzsi2.o)
                0x00008168                __clzsi2

.text.lDRV_I2C_RemoveClientTransfersFromList%249
                0x000081a4       0x3a
 .text.lDRV_I2C_RemoveClientTransfersFromList
                0x000081a4       0x3a build/default/production/_ext/158385033/drv_i2c.o

.text.SERCOM3_I2C_Write%250
                0x000081e0       0x38
 .text.SERCOM3_I2C_Write
                0x000081e0       0x38 build/default/production/_ext/508257091/plib_sercom3_i2c_master.o
                0x000081e0                SERCOM3_I2C_Write

.text.Console_UART_Read%251
                0x00008218       0x38
 .text.Console_UART_Read
                0x00008218       0x38 build/default/production/_ext/1832805299/sys_console_uart.o
                0x00008218                Console_UART_Read

.text.Console_UART_Write%252
                0x00008250       0x38
 .text.Console_UART_Write
                0x00008250       0x38 build/default/production/_ext/1832805299/sys_console_uart.o
                0x00008250                Console_UART_Write

.text.SYS_TIME_ResourceLock%253
                0x00008288       0x38
 .text.SYS_TIME_ResourceLock
                0x00008288       0x38 build/default/production/_ext/101884895/sys_time.o

.rodata.SHT4X_DRIVER_Tasks%254
                0x000082c0       0x38
 .rodata.SHT4X_DRIVER_Tasks
                0x000082c0       0x38 build/default/production/_ext/1360937237/sht4x_driver.o

.text.AD9954_DRIVER_Set_NLSCW_Register%255
                0x000082f8       0x38
 .text.AD9954_DRIVER_Set_NLSCW_Register
                0x000082f8       0x38 build/default/production/_ext/1360937237/ad9954_driver.o
                0x000082f8                AD9954_DRIVER_Set_NLSCW_Register

.text.RTC_DRIVER_Print_Data%256
                0x00008330       0x38
 .text.RTC_DRIVER_Print_Data
                0x00008330       0x38 build/default/production/_ext/1360937237/rtc_driver.o
                0x00008330                RTC_DRIVER_Print_Data

.text.__pic32c_data_initialization%257
                0x00008368       0x38
 .text.__pic32c_data_initialization
                0x00008368       0x38 C:/Applications/Microchip/XC32/bin/bin/../../lib/gcc/pic32c/13.2.1/../../../../pic32c/lib/thumb/v6-m/nofp\libpic32c.a(data_init.o)
                0x00008368                __pic32c_data_initialization

.text.__pop_float%258
                0x000083a0       0x36
 .text.__pop_float
                0x000083a0       0x36 C:/Applications/Microchip/XC32/bin/bin/../../lib/gcc/pic32c/13.2.1/../../../../pic32c/lib/thumb/v6-m/nofp\libc-musl.a(__pop_float.o)
                0x000083a0                __pop_float_needed
                0x000083a0                __pop_float

.text.TC0_CaptureInitialize%259
                0x000083d8       0x34
 .text.TC0_CaptureInitialize
                0x000083d8       0x34 build/default/production/_ext/829342655/plib_tc0.o
                0x000083d8                TC0_CaptureInitialize

.text.TC0_CaptureInterruptHandler%260
                0x0000840c       0x34
 .text.TC0_CaptureInterruptHandler
                0x0000840c       0x34 build/default/production/_ext/829342655/plib_tc0.o
                0x0000840c                TC0_CaptureInterruptHandler

.text.TCC1_PWMInitialize%261
                0x00008440       0x34
 .text.TCC1_PWMInitialize
                0x00008440       0x34 build/default/production/_ext/60181570/plib_tcc1.o
                0x00008440                TCC1_PWMInitialize

.text.SYS_CONSOLE_Message%262
                0x00008474       0x34
 .text.SYS_CONSOLE_Message
                0x00008474       0x34 build/default/production/_ext/1832805299/sys_console.o
                0x00008474                SYS_CONSOLE_Message

.rodata.drvSPI0InitData%263
                0x000084a8       0x34
 .rodata.drvSPI0InitData
                0x000084a8       0x34 build/default/production/_ext/1171490990/initialization.o

.rodata.CAN0_DRIVER_Tasks%264
                0x000084dc       0x34
 .rodata.CAN0_DRIVER_Tasks
                0x000084dc       0x34 build/default/production/_ext/1360937237/can0_driver.o

.text.FCM360W_DRIVER_Write_Command%265
                0x00008510       0x34
 .text.FCM360W_DRIVER_Write_Command
                0x00008510       0x34 build/default/production/_ext/1360937237/fcm360w_driver.o
                0x00008510                FCM360W_DRIVER_Write_Command

.rodata.FCM360W_DRIVER_Tasks%266
                0x00008544       0x34
 .rodata.FCM360W_DRIVER_Tasks
                0x00008544       0x34 build/default/production/_ext/1360937237/fcm360w_driver.o

.text.__fmt_state%267
                0x00008578       0x34
 .text.__fmt_state
                0x00008578       0x34 C:/Applications/Microchip/XC32/bin/bin/../../lib/gcc/pic32c/13.2.1/../../../../pic32c/lib/thumb/v6-m/nofp\libc-musl.a(__printf_core.o)
                0x00008578                __fmt_state

.text.__aeabi_d2iz%268
                0x000085ac       0x34
 .text.__aeabi_d2iz
                0x000085ac       0x34 C:/Applications/Microchip/XC32/bin/bin/../../lib/gcc/pic32c/13.2.1/../../../../pic32c/lib/thumb/v6-m/nofp\libm-fast-emfloat.a(__aeabi_d2iz.o)
                0x000085ac                __aeabi_d2iz

.text.RTC_InterruptHandler%269
                0x000085e0       0x30
 .text.RTC_InterruptHandler
                0x000085e0       0x30 build/default/production/_ext/60180175/plib_rtc_clock.o
                0x000085e0                RTC_InterruptHandler

.text.Console_UART_WriteCountGet%270
                0x00008610       0x30
 .text.Console_UART_WriteCountGet
                0x00008610       0x30 build/default/production/_ext/1832805299/sys_console_uart.o
                0x00008610                Console_UART_WriteCountGet

.text.Console_UART_WriteFreeBufferCountGet%271
                0x00008640       0x30
 .text.Console_UART_WriteFreeBufferCountGet
                0x00008640       0x30 build/default/production/_ext/1832805299/sys_console_uart.o
                0x00008640                Console_UART_WriteFreeBufferCountGet

.text.Console_UART_ReadFreeBufferCountGet%272
                0x00008670       0x30
 .text.Console_UART_ReadFreeBufferCountGet
                0x00008670       0x30 build/default/production/_ext/1832805299/sys_console_uart.o
                0x00008670                Console_UART_ReadFreeBufferCountGet

.text.Console_UART_ReadCountGet%273
                0x000086a0       0x30
 .text.Console_UART_ReadCountGet
                0x000086a0       0x30 build/default/production/_ext/1832805299/sys_console_uart.o
                0x000086a0                Console_UART_ReadCountGet

.text.SHT4X_DRIVER_Calculation_Humidity%274
                0x000086d0       0x30
 .text.SHT4X_DRIVER_Calculation_Humidity
                0x000086d0       0x30 build/default/production/_ext/1360937237/sht4x_driver.o
                0x000086d0                SHT4X_DRIVER_Calculation_Humidity

.text.AD9954_DRIVER_Set_CFR1_Register%275
                0x00008700       0x30
 .text.AD9954_DRIVER_Set_CFR1_Register
                0x00008700       0x30 build/default/production/_ext/1360937237/ad9954_driver.o
                0x00008700                AD9954_DRIVER_Set_CFR1_Register

.text.AD9954_DRIVER_Set_FTW0_Register%276
                0x00008730       0x30
 .text.AD9954_DRIVER_Set_FTW0_Register
                0x00008730       0x30 build/default/production/_ext/1360937237/ad9954_driver.o
                0x00008730                AD9954_DRIVER_Set_FTW0_Register

.text.AD9954_DRIVER_Set_FTW1_Register%277
                0x00008760       0x30
 .text.AD9954_DRIVER_Set_FTW1_Register
                0x00008760       0x30 build/default/production/_ext/1360937237/ad9954_driver.o
                0x00008760                AD9954_DRIVER_Set_FTW1_Register

.text.MCP9808_DRIVER_Get_Measure_Values%278
                0x00008790       0x30
 .text.MCP9808_DRIVER_Get_Measure_Values
                0x00008790       0x30 build/default/production/_ext/1360937237/mcp9808_driver.o
                0x00008790                MCP9808_DRIVER_Get_Measure_Values

.text.MCP9808_DRIVER_Get_Manufacturer_ID%279
                0x000087c0       0x30
 .text.MCP9808_DRIVER_Get_Manufacturer_ID
                0x000087c0       0x30 build/default/production/_ext/1360937237/mcp9808_driver.o
                0x000087c0                MCP9808_DRIVER_Get_Manufacturer_ID

.text.MCP9808_DRIVER_Get_Device_ID%280
                0x000087f0       0x30
 .text.MCP9808_DRIVER_Get_Device_ID
                0x000087f0       0x30 build/default/production/_ext/1360937237/mcp9808_driver.o
                0x000087f0                MCP9808_DRIVER_Get_Device_ID

.text.SSD1306_DRIVER_Send_Command%281
                0x00008820       0x30
 .text.SSD1306_DRIVER_Send_Command
                0x00008820       0x30 build/default/production/_ext/1360937237/ssd1306_driver.o
                0x00008820                SSD1306_DRIVER_Send_Command

.text.SSD1306_DRIVER_Send_Data%282
                0x00008850       0x30
 .text.SSD1306_DRIVER_Send_Data
                0x00008850       0x30 build/default/production/_ext/1360937237/ssd1306_driver.o
                0x00008850                SSD1306_DRIVER_Send_Data

.text.BMP585_DRIVER_Get_Revision_ID%283
                0x00008880       0x30
 .text.BMP585_DRIVER_Get_Revision_ID
                0x00008880       0x30 build/default/production/_ext/1360937237/bmp585_driver.o
                0x00008880                BMP585_DRIVER_Get_Revision_ID

.text.BMP585_DRIVER_Get_Measured_Values%284
                0x000088b0       0x30
 .text.BMP585_DRIVER_Get_Measured_Values
                0x000088b0       0x30 build/default/production/_ext/1360937237/bmp585_driver.o
                0x000088b0                BMP585_DRIVER_Get_Measured_Values

.text.BMP585_DRIVER_Get_INT_Status%285
                0x000088e0       0x30
 .text.BMP585_DRIVER_Get_INT_Status
                0x000088e0       0x30 build/default/production/_ext/1360937237/bmp585_driver.o
                0x000088e0                BMP585_DRIVER_Get_INT_Status

.text.__aeabi_dcmpeq%286
                0x00008910       0x2e
 .text.__aeabi_dcmpeq
                0x00008910       0x2e C:/Applications/Microchip/XC32/bin/bin/../../lib/gcc/pic32c/13.2.1/../../../../pic32c/lib/thumb/v6-m/nofp\libm-fast-emfloat.a(__aeabi_dcmpeq.o)
                0x00008910                __aeabi_dcmpeq

.text.__aeabi_d2uiz%287
                0x0000893e       0x2e
 .text.__aeabi_d2uiz
                0x0000893e       0x2e C:/Applications/Microchip/XC32/bin/bin/../../lib/gcc/pic32c/13.2.1/../../../../pic32c/lib/thumb/v6-m/nofp\libm-fast-emfloat.a(__aeabi_d2uiz.o)
                0x0000893e                __aeabi_d2uiz
                0x00008942                .L__aeabi_d2uiz_fast_entry

.text.CAN0_ErrorGet%288
                0x0000896c       0x2c
 .text.CAN0_ErrorGet
                0x0000896c       0x2c build/default/production/_ext/60165182/plib_can0.o
                0x0000896c                CAN0_ErrorGet

.text.OSC32KCTRL_InterruptHandler%289
                0x00008998       0x2c
 .text.OSC32KCTRL_InterruptHandler
                0x00008998       0x2c build/default/production/_ext/1984496892/plib_clock.o
                0x00008998                OSC32KCTRL_InterruptHandler

.text.EIC_CallbackRegister%290
                0x000089c4       0x2c
 .text.EIC_CallbackRegister
                0x000089c4       0x2c build/default/production/_ext/60167341/plib_eic.o
                0x000089c4                EIC_CallbackRegister

.text.SERCOM0_USART_ErrorClear%291
                0x000089f0       0x2c
 .text.SERCOM0_USART_ErrorClear
                0x000089f0       0x2c build/default/production/_ext/504274921/plib_sercom0_usart.o

.text.SYSTICK_TimerInterruptEnable%292
                0x00008a1c       0x2c
 .text.SYSTICK_TimerInterruptEnable
                0x00008a1c       0x2c build/default/production/_ext/1827571544/plib_systick.o
                0x00008a1c                SYSTICK_TimerInterruptEnable

.rodata.sysConsoleUARTDevDesc%293
                0x00008a48       0x2c
 .rodata.sysConsoleUARTDevDesc
                0x00008a48       0x2c build/default/production/_ext/1832805299/sys_console_uart.o
                0x00008a48                sysConsoleUARTDevDesc

.rodata.drvUsart0PlibAPI%294
                0x00008a74       0x2c
 .rodata.drvUsart0PlibAPI
                0x00008a74       0x2c build/default/production/_ext/1171490990/initialization.o

.text.MCP9808_DRIVER_Set_Result_Resolution%295
                0x00008aa0       0x2c
 .text.MCP9808_DRIVER_Set_Result_Resolution
                0x00008aa0       0x2c build/default/production/_ext/1360937237/mcp9808_driver.o
                0x00008aa0                MCP9808_DRIVER_Set_Result_Resolution

.text.SSD1306_DRIVER_Write_Character%296
                0x00008acc       0x2c
 .text.SSD1306_DRIVER_Write_Character
                0x00008acc       0x2c build/default/production/_ext/1360937237/ssd1306_driver.o
                0x00008acc                SSD1306_DRIVER_Write_Character

.text.BMP585_DRIVER_Get_Chip_ID%297
                0x00008af8       0x2c
 .text.BMP585_DRIVER_Get_Chip_ID
                0x00008af8       0x2c build/default/production/_ext/1360937237/bmp585_driver.o
                0x00008af8                BMP585_DRIVER_Get_Chip_ID

.text.lDRV_USART_RX_DMA_CallbackHandler%298
                0x00008b24       0x2a
 .text.lDRV_USART_RX_DMA_CallbackHandler
                0x00008b24       0x2a build/default/production/_ext/869808652/drv_usart.o

.text.lDRV_USART_TX_DMA_CallbackHandler%299
                0x00008b4e       0x2a
 .text.lDRV_USART_TX_DMA_CallbackHandler
                0x00008b4e       0x2a build/default/production/_ext/869808652/drv_usart.o

.text.__string_out%300
                0x00008b78       0x2a
 .text.__string_out
                0x00008b78       0x2a C:/Applications/Microchip/XC32/bin/bin/../../lib/gcc/pic32c/13.2.1/../../../../pic32c/lib/thumb/v6-m/nofp\libc-musl.a(__printf_core.o)
                0x00008b78                __out

.text.lDRV_USART_RX_PLIB_CallbackHandler%301
                0x00008ba2       0x28
 .text.lDRV_USART_RX_PLIB_CallbackHandler
                0x00008ba2       0x28 build/default/production/_ext/869808652/drv_usart.o

.text.ADC0_InterruptHandler%302
                0x00008bcc       0x28
 .text.ADC0_InterruptHandler
                0x00008bcc       0x28 build/default/production/_ext/60163342/plib_adc0.o
                0x00008bcc                ADC0_InterruptHandler

.text.SERCOM0_USART_ReadAbort%303
                0x00008bf4       0x28
 .text.SERCOM0_USART_ReadAbort
                0x00008bf4       0x28 build/default/production/_ext/504274921/plib_sercom0_usart.o
                0x00008bf4                SERCOM0_USART_ReadAbort

.text.SysTick_Handler%304
                0x00008c1c       0x28
 .text.SysTick_Handler
                0x00008c1c       0x28 build/default/production/_ext/1827571544/plib_systick.o
                0x00008c1c                SysTick_Handler

.rodata.drvSPI0remapDataBits%305
                0x00008c44       0x28
 .rodata.drvSPI0remapDataBits
                0x00008c44       0x28 build/default/production/_ext/1171490990/initialization.o

.text.CAN0_DRIVER_Print_Data%306
                0x00008c6c       0x28
 .text.CAN0_DRIVER_Print_Data
                0x00008c6c       0x28 build/default/production/_ext/1360937237/can0_driver.o
                0x00008c6c                CAN0_DRIVER_Print_Data

.text.RTC_DRIVER_Initialize%307
                0x00008c94       0x28
 .text.RTC_DRIVER_Initialize
                0x00008c94       0x28 build/default/production/_ext/1360937237/rtc_driver.o
                0x00008c94                RTC_DRIVER_Initialize

.text.MCP9808_DRIVER_Set_I2C_Address%308
                0x00008cbc       0x28
 .text.MCP9808_DRIVER_Set_I2C_Address
                0x00008cbc       0x28 build/default/production/_ext/1360937237/mcp9808_driver.o
                0x00008cbc                MCP9808_DRIVER_Set_I2C_Address

.text.BMP585_DRIVER_Set_INT_Source%309
                0x00008ce4       0x28
 .text.BMP585_DRIVER_Set_INT_Source
                0x00008ce4       0x28 build/default/production/_ext/1360937237/bmp585_driver.o
                0x00008ce4                BMP585_DRIVER_Set_INT_Source

.text.BMP585_DRIVER_Store_Measured_Values%310
                0x00008d0c       0x28
 .text.BMP585_DRIVER_Store_Measured_Values
                0x00008d0c       0x28 build/default/production/_ext/1360937237/bmp585_driver.o
                0x00008d0c                BMP585_DRIVER_Store_Measured_Values

.text.BMP585_DRIVER_Set_OSR_Config%311
                0x00008d34       0x28
 .text.BMP585_DRIVER_Set_OSR_Config
                0x00008d34       0x28 build/default/production/_ext/1360937237/bmp585_driver.o
                0x00008d34                BMP585_DRIVER_Set_OSR_Config

.text.BMP585_DRIVER_Set_ODR_Config%312
                0x00008d5c       0x28
 .text.BMP585_DRIVER_Set_ODR_Config
                0x00008d5c       0x28 build/default/production/_ext/1360937237/bmp585_driver.o
                0x00008d5c                BMP585_DRIVER_Set_ODR_Config

.text.BMP585_DRIVER_Calculate_Temperature%313
                0x00008d84       0x28
 .text.BMP585_DRIVER_Calculate_Temperature
                0x00008d84       0x28 build/default/production/_ext/1360937237/bmp585_driver.o
                0x00008d84                BMP585_DRIVER_Calculate_Temperature

.text.BMP585_DRIVER_Calculate_Pressure%314
                0x00008dac       0x28
 .text.BMP585_DRIVER_Calculate_Pressure
                0x00008dac       0x28 build/default/production/_ext/1360937237/bmp585_driver.o
                0x00008dac                BMP585_DRIVER_Calculate_Pressure

.text.__aeabi_i2f%315
                0x00008dd4       0x26
 .text.__aeabi_i2f
                0x00008dd4       0x26 C:/Applications/Microchip/XC32/bin/bin/../../lib/gcc/pic32c/13.2.1/../../../../pic32c/lib/thumb/v6-m/nofp\libm-fast-emfloat.a(__aeabi_i2f.o)
                0x00008dd4                __aeabi_i2f

.text.lDRV_USART_RemoveTransferObjFromList%316
                0x00008dfa       0x24
 .text.lDRV_USART_RemoveTransferObjFromList
                0x00008dfa       0x24 build/default/production/_ext/869808652/drv_usart.o

.text.AC_Initialize%317
                0x00008e20       0x24
 .text.AC_Initialize
                0x00008e20       0x24 build/default/production/_ext/829343244/plib_ac.o
                0x00008e20                AC_Initialize

.text.FREQM_InterruptHandler%318
                0x00008e44       0x24
 .text.FREQM_InterruptHandler
                0x00008e44       0x24 build/default/production/_ext/1987437027/plib_freqm.o
                0x00008e44                FREQM_InterruptHandler

.text.SYSTICK_TimerInitialize%319
                0x00008e68       0x24
 .text.SYSTICK_TimerInitialize
                0x00008e68       0x24 build/default/production/_ext/1827571544/plib_systick.o
                0x00008e68                SYSTICK_TimerInitialize

.text.SYS_DMA_AddressingModeSetup%320
                0x00008e8c       0x24
 .text.SYS_DMA_AddressingModeSetup
                0x00008e8c       0x24 build/default/production/_ext/14461671/sys_dma.o
                0x00008e8c                SYS_DMA_AddressingModeSetup

.text.SYS_TIME_ResourceUnlock%321
                0x00008eb0       0x24
 .text.SYS_TIME_ResourceUnlock
                0x00008eb0       0x24 build/default/production/_ext/101884895/sys_time.o

.text.SHT4X_DRIVER_Start_Measurement%322
                0x00008ed4       0x24
 .text.SHT4X_DRIVER_Start_Measurement
                0x00008ed4       0x24 build/default/production/_ext/1360937237/sht4x_driver.o
                0x00008ed4                SHT4X_DRIVER_Start_Measurement

.text.SHT4X_DRIVER_Store_Measured_Values%323
                0x00008ef8       0x24
 .text.SHT4X_DRIVER_Store_Measured_Values
                0x00008ef8       0x24 build/default/production/_ext/1360937237/sht4x_driver.o
                0x00008ef8                SHT4X_DRIVER_Store_Measured_Values

.text.MCP9808_DRIVER_Initialize%324
                0x00008f1c       0x24
 .text.MCP9808_DRIVER_Initialize
                0x00008f1c       0x24 build/default/production/_ext/1360937237/mcp9808_driver.o
                0x00008f1c                MCP9808_DRIVER_Initialize

.text.BME690_DRIVER_Initialize%325
                0x00008f40       0x24
 .text.BME690_DRIVER_Initialize
                0x00008f40       0x24 build/default/production/_ext/1360937237/bme690_driver.o
                0x00008f40                BME690_DRIVER_Initialize

.text.HDC302X_DRIVER_Initialize%326
                0x00008f64       0x24
 .text.HDC302X_DRIVER_Initialize
                0x00008f64       0x24 build/default/production/_ext/1360937237/hdc302x_driver.o
                0x00008f64                HDC302X_DRIVER_Initialize

.text.XM125_DRIVER_Initialize%327
                0x00008f88       0x24
 .text.XM125_DRIVER_Initialize
                0x00008f88       0x24 build/default/production/_ext/1360937237/xm125_driver.o
                0x00008f88                XM125_DRIVER_Initialize

.text.WS281X_DRIVER_Send_LED_Strip_Data%328
                0x00008fac       0x24
 .text.WS281X_DRIVER_Send_LED_Strip_Data
                0x00008fac       0x24 build/default/production/_ext/1360937237/ws281x_driver.o
                0x00008fac                WS281X_DRIVER_Send_LED_Strip_Data

.text.VCNL4200_DRIVER_Initialize%329
                0x00008fd0       0x24
 .text.VCNL4200_DRIVER_Initialize
                0x00008fd0       0x24 build/default/production/_ext/1360937237/vcnl4200_driver.o
                0x00008fd0                VCNL4200_DRIVER_Initialize

.rodata.APP_Tasks%330
                0x00008ff4       0x24
 .rodata.APP_Tasks
                0x00008ff4       0x24 build/default/production/_ext/1360937237/app.o

.text.BMP585_DRIVER_Initialize%331
                0x00009018       0x24
 .text.BMP585_DRIVER_Initialize
                0x00009018       0x24 build/default/production/_ext/1360937237/bmp585_driver.o
                0x00009018                BMP585_DRIVER_Initialize

.text.__aeabi_f2uiz%332
                0x0000903c       0x24
 .text.__aeabi_f2uiz
                0x0000903c       0x24 C:/Applications/Microchip/XC32/bin/bin/../../lib/gcc/pic32c/13.2.1/../../../../pic32c/lib/thumb/v6-m/nofp\libm-fast-emfloat.a(__aeabi_f2uiz.o)
                0x0000903c                __aeabi_f2uiz

.text.CAN0_RxFifoFillLevelGet%333
                0x00009060       0x20
 .text.CAN0_RxFifoFillLevelGet
                0x00009060       0x20 build/default/production/_ext/60165182/plib_can0.o
                0x00009060                CAN0_RxFifoFillLevelGet

.text.WDT_Enable%334
                0x00009080       0x20
 .text.WDT_Enable
                0x00009080       0x20 build/default/production/_ext/60184501/plib_wdt.o
                0x00009080                WDT_Enable

.text.SYS_DMA_DataWidthSetup%335
                0x000090a0       0x20
 .text.SYS_DMA_DataWidthSetup
                0x000090a0       0x20 build/default/production/_ext/14461671/sys_dma.o
                0x000090a0                SYS_DMA_DataWidthSetup

.text.SHT4X_DRIVER_Get_Measure_Values%336
                0x000090c0       0x20
 .text.SHT4X_DRIVER_Get_Measure_Values
                0x000090c0       0x20 build/default/production/_ext/1360937237/sht4x_driver.o
                0x000090c0                SHT4X_DRIVER_Get_Measure_Values

.rodata.RSTC_DRIVER_Tasks%337
                0x000090e0       0x20
 .rodata.RSTC_DRIVER_Tasks
                0x000090e0       0x20 build/default/production/_ext/1360937237/rstc_driver.o

.text.NTC_DRIVER_Initialize%338
                0x00009100       0x20
 .text.NTC_DRIVER_Initialize
                0x00009100       0x20 build/default/production/_ext/1360937237/ntc_driver.o
                0x00009100                NTC_DRIVER_Initialize

.rodata.str1.1%339
                0x00009120       0x1f
 .rodata.str1.1
                0x00009120       0x1f C:/Applications/Microchip/XC32/bin/bin/../../lib/gcc/pic32c/13.2.1/../../../../pic32c/lib/thumb/v6-m/nofp\libc-musl.a(__printf_core.o)
                                  0x8 (size before relaxing)

.text.__aeabi_ui2f%340
                0x00009140       0x1e
 .text.__aeabi_ui2f
                0x00009140       0x1e C:/Applications/Microchip/XC32/bin/bin/../../lib/gcc/pic32c/13.2.1/../../../../pic32c/lib/thumb/v6-m/nofp\libm-fast-emfloat.a(__aeabi_ui2f.o)
                0x00009140                __aeabi_ui2f

.text.__dinit_copy%341
                0x0000915e       0x1e
 .text.__dinit_copy
                0x0000915e       0x1e C:/Applications/Microchip/XC32/bin/bin/../../lib/gcc/pic32c/13.2.1/../../../../pic32c/lib/thumb/v6-m/nofp\libpic32c.a(pic32_data_init_copy.o)
                0x0000915e                __dinit_copy_needed
                0x0000915e                __dinit_copy

.text.DRV_I2C_ReadTransferAdd%342
                0x0000917c       0x1c
 .text.DRV_I2C_ReadTransferAdd
                0x0000917c       0x1c build/default/production/_ext/158385033/drv_i2c.o
                0x0000917c                DRV_I2C_ReadTransferAdd

.text.DRV_I2C_WriteReadTransferAdd%343
                0x00009198       0x1c
 .text.DRV_I2C_WriteReadTransferAdd
                0x00009198       0x1c build/default/production/_ext/158385033/drv_i2c.o
                0x00009198                DRV_I2C_WriteReadTransferAdd

.text.lDRV_USART_GetDriverObj%344
                0x000091b4       0x1c
 .text.lDRV_USART_GetDriverObj
                0x000091b4       0x1c build/default/production/_ext/869808652/drv_usart.o

.text.ADC0_Enable%345
                0x000091d0       0x1c
 .text.ADC0_Enable
                0x000091d0       0x1c build/default/production/_ext/60163342/plib_adc0.o
                0x000091d0                ADC0_Enable

.text.ADC0_ConversionStart%346
                0x000091ec       0x1c
 .text.ADC0_ConversionStart
                0x000091ec       0x1c build/default/production/_ext/60163342/plib_adc0.o
                0x000091ec                ADC0_ConversionStart

.text.CCL_Initialize%347
                0x00009208       0x1c
 .text.CCL_Initialize
                0x00009208       0x1c build/default/production/_ext/60165242/plib_ccl.o
                0x00009208                CCL_Initialize

.text.DAC_Initialize%348
                0x00009224       0x1c
 .text.DAC_Initialize
                0x00009224       0x1c build/default/production/_ext/60166132/plib_dac.o
                0x00009224                DAC_Initialize

.text.FREQM_Initialize%349
                0x00009240       0x1c
 .text.FREQM_Initialize
                0x00009240       0x1c build/default/production/_ext/1987437027/plib_freqm.o
                0x00009240                FREQM_Initialize

.text.SERCOM1_USART_WritePendingBytesGet%350
                0x0000925c       0x1c
 .text.SERCOM1_USART_WritePendingBytesGet
                0x0000925c       0x1c build/default/production/_ext/504274921/plib_sercom1_usart.o

.text.SERCOM1_USART_ReadCountGet%351
                0x00009278       0x1c
 .text.SERCOM1_USART_ReadCountGet
                0x00009278       0x1c build/default/production/_ext/504274921/plib_sercom1_usart.o
                0x00009278                SERCOM1_USART_ReadCountGet

.text.TCC1_PWMStart%352
                0x00009294       0x1c
 .text.TCC1_PWMStart
                0x00009294       0x1c build/default/production/_ext/60181570/plib_tcc1.o
                0x00009294                TCC1_PWMStart

.text.TCC1_PWMStop%353
                0x000092b0       0x1c
 .text.TCC1_PWMStop
                0x000092b0       0x1c build/default/production/_ext/60181570/plib_tcc1.o
                0x000092b0                TCC1_PWMStop

.text.SYS_INT_SourceRestore%354
                0x000092cc       0x1c
 .text.SYS_INT_SourceRestore
                0x000092cc       0x1c build/default/production/_ext/1881668453/sys_int.o
                0x000092cc                SYS_INT_SourceRestore

.rodata.sysTimePlibAPI%355
                0x000092e8       0x1c
 .rodata.sysTimePlibAPI
                0x000092e8       0x1c build/default/production/_ext/1171490990/initialization.o

.rodata.drvUSART0InterruptSources%356
                0x00009304       0x1c
 .rodata.drvUSART0InterruptSources
                0x00009304       0x1c build/default/production/_ext/1171490990/initialization.o

.rodata.drvI2C0InitData%357
                0x00009320       0x1c
 .rodata.drvI2C0InitData
                0x00009320       0x1c build/default/production/_ext/1171490990/initialization.o

.rodata.drvI2C0PLibAPI%358
                0x0000933c       0x1c
 .rodata.drvI2C0PLibAPI
                0x0000933c       0x1c build/default/production/_ext/1171490990/initialization.o

.text.CAN0_DRIVER_Initialize%359
                0x00009358       0x1c
 .text.CAN0_DRIVER_Initialize
                0x00009358       0x1c build/default/production/_ext/1360937237/can0_driver.o
                0x00009358                CAN0_DRIVER_Initialize

.text.NTC_DRIVER_Calculation_Temperature%360
                0x00009374       0x1c
 .text.NTC_DRIVER_Calculation_Temperature
                0x00009374       0x1c build/default/production/_ext/1360937237/ntc_driver.o
                0x00009374                NTC_DRIVER_Calculation_Temperature

.rodata.NTC_DRIVER_Tasks%361
                0x00009390       0x1c
 .rodata.NTC_DRIVER_Tasks
                0x00009390       0x1c build/default/production/_ext/1360937237/ntc_driver.o

.text.WS281X_DRIVER_Initialize%362
                0x000093ac       0x1c
 .text.WS281X_DRIVER_Initialize
                0x000093ac       0x1c build/default/production/_ext/1360937237/ws281x_driver.o
                0x000093ac                WS281X_DRIVER_Initialize

.text.SSD1306_DRIVER_Write_String%363
                0x000093c8       0x1c
 .text.SSD1306_DRIVER_Write_String
                0x000093c8       0x1c build/default/production/_ext/1360937237/ssd1306_driver.o
                0x000093c8                SSD1306_DRIVER_Write_String

.text.DRV_I2C_WriteTransferAdd%364
                0x000093e4       0x1a
 .text.DRV_I2C_WriteTransferAdd
                0x000093e4       0x1a build/default/production/_ext/158385033/drv_i2c.o
                0x000093e4                DRV_I2C_WriteTransferAdd

.text.Console_UART_Initialize%365
                0x00009400       0x18
 .text.Console_UART_Initialize
                0x00009400       0x18 build/default/production/_ext/1832805299/sys_console_uart.o
                0x00009400                Console_UART_Initialize

.rodata.sysConsole0UARTPlibAPI%366
                0x00009418       0x18
 .rodata.sysConsole0UARTPlibAPI
                0x00009418       0x18 build/default/production/_ext/1171490990/initialization.o

.rodata.drvUsart0remapParity%367
                0x00009430       0x18
 .rodata.drvUsart0remapParity
                0x00009430       0x18 build/default/production/_ext/1171490990/initialization.o

.rodata.drvSPI0InterruptSources%368
                0x00009448       0x18
 .rodata.drvSPI0InterruptSources
                0x00009448       0x18 build/default/production/_ext/1171490990/initialization.o

.text.RSTC_DRIVER_Print_Data%369
                0x00009460       0x18
 .text.RSTC_DRIVER_Print_Data
                0x00009460       0x18 build/default/production/_ext/1360937237/rstc_driver.o
                0x00009460                RSTC_DRIVER_Print_Data

.rodata.RTC_DRIVER_Tasks%370
                0x00009478       0x18
 .rodata.RTC_DRIVER_Tasks
                0x00009478       0x18 build/default/production/_ext/1360937237/rtc_driver.o

.text.MCP9808_DRIVER_Store_Measured_Values%371
                0x00009490       0x18
 .text.MCP9808_DRIVER_Store_Measured_Values
                0x00009490       0x18 build/default/production/_ext/1360937237/mcp9808_driver.o
                0x00009490                MCP9808_DRIVER_Store_Measured_Values

.text.MCP9808_DRIVER_Store_Manufacturer_ID%372
                0x000094a8       0x18
 .text.MCP9808_DRIVER_Store_Manufacturer_ID
                0x000094a8       0x18 build/default/production/_ext/1360937237/mcp9808_driver.o
                0x000094a8                MCP9808_DRIVER_Store_Manufacturer_ID

.text.MCP9808_DRIVER_Store_Device_ID%373
                0x000094c0       0x18
 .text.MCP9808_DRIVER_Store_Device_ID
                0x000094c0       0x18 build/default/production/_ext/1360937237/mcp9808_driver.o
                0x000094c0                MCP9808_DRIVER_Store_Device_ID

.text.FCM360W_DRIVER_Read_Command%374
                0x000094d8       0x18
 .text.FCM360W_DRIVER_Read_Command
                0x000094d8       0x18 build/default/production/_ext/1360937237/fcm360w_driver.o
                0x000094d8                FCM360W_DRIVER_Read_Command

.text.HDC302X_DRIVER_Set_I2C_Address%375
                0x000094f0       0x18
 .text.HDC302X_DRIVER_Set_I2C_Address
                0x000094f0       0x18 build/default/production/_ext/1360937237/hdc302x_driver.o
                0x000094f0                HDC302X_DRIVER_Set_I2C_Address

.text.strlen%376
                0x00009508       0x18
 .text.strlen   0x00009508       0x18 C:/Applications/Microchip/XC32/bin/bin/../../lib/gcc/pic32c/13.2.1/../../../../pic32c/lib/thumb/v6-m/nofp\libc-size-musl.a(strlen.o)
                0x00009508                strlen

.text.vfprintf%377
                0x00009520       0x18
 .text.vfprintf
                0x00009520       0x18 C:/Applications/Microchip/XC32/bin/bin/../../lib/gcc/pic32c/13.2.1/../../../../pic32c/lib/thumb/v6-m/nofp\libc-musl.a(vfprintf.o)
                0x00009520                vfprintf

.text%378       0x00009538       0x18
 .text          0x00009538       0x18 C:/Applications/Microchip/XC32/bin/bin/../../lib/gcc/pic32c/13.2.1/thumb/v6-m/nofp\libgcc.a(_lshrdi3.o)
                0x00009538                __lshrdi3
                0x00009538                __aeabi_llsr

.text%379       0x00009550       0x18
 .text          0x00009550       0x18 C:/Applications/Microchip/XC32/bin/bin/../../lib/gcc/pic32c/13.2.1/thumb/v6-m/nofp\libgcc.a(_ashldi3.o)
                0x00009550                __aeabi_llsl
                0x00009550                __ashldi3

.text%380       0x00009568       0x18
 .text          0x00009568       0x18 C:/Applications/Microchip/XC32/bin/bin/../../lib/gcc/pic32c/13.2.1/thumb/v6-m/nofp\libgcc.a(_clzdi2.o)
                0x00009568                __clzdi2

.text.sprintf%381
                0x00009580       0x16
 .text.sprintf  0x00009580       0x16 C:/Applications/Microchip/XC32/bin/bin/../../lib/gcc/pic32c/13.2.1/../../../../pic32c/lib/thumb/v6-m/nofp\libc-musl.a(sprintf.o)
                0x00009580                sprintf

.rodata%382     0x00009596       0x16
 .rodata        0x00009596       0x16 C:/Applications/Microchip/XC32/bin/bin/../../lib/gcc/pic32c/13.2.1/../../../../pic32c/lib/thumb/v6-m/nofp\libc-musl.a(__printf_core.o)

.text.lDRV_I2C_RemoveTransferObjFromList%383
                0x000095ac       0x14
 .text.lDRV_I2C_RemoveTransferObjFromList
                0x000095ac       0x14 build/default/production/_ext/158385033/drv_i2c.o

.text.lDRV_SPI_RemoveTransferObjFromList%384
                0x000095c0       0x14
 .text.lDRV_SPI_RemoveTransferObjFromList
                0x000095c0       0x14 build/default/production/_ext/2070931557/drv_spi.o

.text.CAN0_ErrorCountGet%385
                0x000095d4       0x14
 .text.CAN0_ErrorCountGet
                0x000095d4       0x14 build/default/production/_ext/60165182/plib_can0.o
                0x000095d4                CAN0_ErrorCountGet

.text.CAN0_InterruptGet%386
                0x000095e8       0x14
 .text.CAN0_InterruptGet
                0x000095e8       0x14 build/default/production/_ext/60165182/plib_can0.o
                0x000095e8                CAN0_InterruptGet

.text.NVIC_INT_Restore%387
                0x000095fc       0x14
 .text.NVIC_INT_Restore
                0x000095fc       0x14 build/default/production/_ext/1865468468/plib_nvic.o
                0x000095fc                NVIC_INT_Restore

.text.SERCOM2_SPI_IsTransmitterBusy%388
                0x00009610       0x14
 .text.SERCOM2_SPI_IsTransmitterBusy
                0x00009610       0x14 build/default/production/_ext/17022449/plib_sercom2_spi_master.o
                0x00009610                SERCOM2_SPI_IsTransmitterBusy

.text.SERCOM1_USART_ReadFreeBufferCountGet%389
                0x00009624       0x14
 .text.SERCOM1_USART_ReadFreeBufferCountGet
                0x00009624       0x14 build/default/production/_ext/504274921/plib_sercom1_usart.o
                0x00009624                SERCOM1_USART_ReadFreeBufferCountGet

.text.SERCOM1_USART_WriteFreeBufferCountGet%390
                0x00009638       0x14
 .text.SERCOM1_USART_WriteFreeBufferCountGet
                0x00009638       0x14 build/default/production/_ext/504274921/plib_sercom1_usart.o
                0x00009638                SERCOM1_USART_WriteFreeBufferCountGet

.text.SYSTICK_TimerStart%391
                0x0000964c       0x14
 .text.SYSTICK_TimerStart
                0x0000964c       0x14 build/default/production/_ext/1827571544/plib_systick.o
                0x0000964c                SYSTICK_TimerStart

.text.SYSTICK_TimerInterruptDisable%392
                0x00009660       0x14
 .text.SYSTICK_TimerInterruptDisable
                0x00009660       0x14 build/default/production/_ext/1827571544/plib_systick.o
                0x00009660                SYSTICK_TimerInterruptDisable

.text.WDT_TimeoutPeriodSet%393
                0x00009674       0x14
 .text.WDT_TimeoutPeriodSet
                0x00009674       0x14 build/default/production/_ext/60184501/plib_wdt.o
                0x00009674                WDT_TimeoutPeriodSet

.text.WDT_Clear%394
                0x00009688       0x14
 .text.WDT_Clear
                0x00009688       0x14 build/default/production/_ext/60184501/plib_wdt.o
                0x00009688                WDT_Clear

.text.Console_UART_Status%395
                0x0000969c       0x14
 .text.Console_UART_Status
                0x0000969c       0x14 build/default/production/_ext/1832805299/sys_console_uart.o
                0x0000969c                Console_UART_Status

.rodata.drvUsart0remapDataWidth%396
                0x000096b0       0x14
 .rodata.drvUsart0remapDataWidth
                0x000096b0       0x14 build/default/production/_ext/1171490990/initialization.o

.rodata.drvI2C0InterruptSources%397
                0x000096c4       0x14
 .rodata.drvI2C0InterruptSources
                0x000096c4       0x14 build/default/production/_ext/1171490990/initialization.o

.text.SHT4X_DRIVER_Set_I2C_Address%398
                0x000096d8       0x14
 .text.SHT4X_DRIVER_Set_I2C_Address
                0x000096d8       0x14 build/default/production/_ext/1360937237/sht4x_driver.o
                0x000096d8                SHT4X_DRIVER_Set_I2C_Address

.text.SHT4X_DRIVER_Initialize%399
                0x000096ec       0x14
 .text.SHT4X_DRIVER_Initialize
                0x000096ec       0x14 build/default/production/_ext/1360937237/sht4x_driver.o
                0x000096ec                SHT4X_DRIVER_Initialize

.text.AD9954_DRIVER_Initialize%400
                0x00009700       0x14
 .text.AD9954_DRIVER_Initialize
                0x00009700       0x14 build/default/production/_ext/1360937237/ad9954_driver.o
                0x00009700                AD9954_DRIVER_Initialize

.text.RTC_DRIVER_Alarm_Callback%401
                0x00009714       0x14
 .text.RTC_DRIVER_Alarm_Callback
                0x00009714       0x14 build/default/production/_ext/1360937237/rtc_driver.o
                0x00009714                RTC_DRIVER_Alarm_Callback

.rodata.BME690_DRIVER_Tasks%402
                0x00009728       0x14
 .rodata.BME690_DRIVER_Tasks
                0x00009728       0x14 build/default/production/_ext/1360937237/bme690_driver.o

.text.FCM360W_DRIVER_Initialize%403
                0x0000973c       0x14
 .text.FCM360W_DRIVER_Initialize
                0x0000973c       0x14 build/default/production/_ext/1360937237/fcm360w_driver.o
                0x0000973c                FCM360W_DRIVER_Initialize

.rodata.HDC302X_DRIVER_Tasks%404
                0x00009750       0x14
 .rodata.HDC302X_DRIVER_Tasks
                0x00009750       0x14 build/default/production/_ext/1360937237/hdc302x_driver.o

.text.FAN_DRIVER_Tasks%405
                0x00009764       0x14
 .text.FAN_DRIVER_Tasks
                0x00009764       0x14 build/default/production/_ext/1360937237/fan_driver.o
                0x00009764                FAN_DRIVER_Tasks

.rodata.XM125_DRIVER_Tasks%406
                0x00009778       0x14
 .rodata.XM125_DRIVER_Tasks
                0x00009778       0x14 build/default/production/_ext/1360937237/xm125_driver.o

.rodata.WS281X_DRIVER_Tasks%407
                0x0000978c       0x14
 .rodata.WS281X_DRIVER_Tasks
                0x0000978c       0x14 build/default/production/_ext/1360937237/ws281x_driver.o

.rodata.VCNL4200_DRIVER_Tasks%408
                0x000097a0       0x14
 .rodata.VCNL4200_DRIVER_Tasks
                0x000097a0       0x14 build/default/production/_ext/1360937237/vcnl4200_driver.o

.text.SEN63C_DRIVER_Initialize%409
                0x000097b4       0x14
 .text.SEN63C_DRIVER_Initialize
                0x000097b4       0x14 build/default/production/_ext/1360937237/sen63c_driver.o
                0x000097b4                SEN63C_DRIVER_Initialize

.rodata.SEN63C_DRIVER_Tasks%410
                0x000097c8       0x14
 .rodata.SEN63C_DRIVER_Tasks
                0x000097c8       0x14 build/default/production/_ext/1360937237/sen63c_driver.o

.text.SSD1306_DRIVER_Initialize%411
                0x000097dc       0x14
 .text.SSD1306_DRIVER_Initialize
                0x000097dc       0x14 build/default/production/_ext/1360937237/ssd1306_driver.o
                0x000097dc                SSD1306_DRIVER_Initialize

.text.APP_Initialize%412
                0x000097f0       0x14
 .text.APP_Initialize
                0x000097f0       0x14 build/default/production/_ext/1360937237/app.o
                0x000097f0                APP_Initialize

.text.STCC4_DRIVER_Tasks%413
                0x00009804       0x14
 .text.STCC4_DRIVER_Tasks
                0x00009804       0x14 build/default/production/_ext/1360937237/stcc4_driver.o
                0x00009804                STCC4_DRIVER_Tasks

.text.BMP585_DRIVER_Store_Chip_ID%414
                0x00009818       0x14
 .text.BMP585_DRIVER_Store_Chip_ID
                0x00009818       0x14 build/default/production/_ext/1360937237/bmp585_driver.o
                0x00009818                BMP585_DRIVER_Store_Chip_ID

.text.BMP585_DRIVER_Store_Revision_ID%415
                0x0000982c       0x14
 .text.BMP585_DRIVER_Store_Revision_ID
                0x0000982c       0x14 build/default/production/_ext/1360937237/bmp585_driver.o
                0x0000982c                BMP585_DRIVER_Store_Revision_ID

.text.BMP585_DRIVER_Store_INT_Status%416
                0x00009840       0x14
 .text.BMP585_DRIVER_Store_INT_Status
                0x00009840       0x14 build/default/production/_ext/1360937237/bmp585_driver.o
                0x00009840                BMP585_DRIVER_Store_INT_Status

.rodata%417     0x00009854       0x14
 .rodata        0x00009854       0x14 C:/Applications/Microchip/XC32/bin/bin/../../lib/gcc/pic32c/13.2.1/../../../../pic32c/lib/thumb/v6-m/nofp\libpic32c.a(data_init.o)

.text.memcpy%418
                0x00009868       0x14
 .text.memcpy   0x00009868       0x14 C:/Applications/Microchip/XC32/bin/bin/../../lib/gcc/pic32c/13.2.1/../../../../pic32c/lib/thumb/v6-m/nofp\libc-size-musl.a(memcpy.o)
                0x00009868                memcpy

.text.memset%419
                0x0000987c       0x14
 .text.memset   0x0000987c       0x14 C:/Applications/Microchip/XC32/bin/bin/../../lib/gcc/pic32c/13.2.1/../../../../pic32c/lib/thumb/v6-m/nofp\libc-size-musl.a(memset.o)
                0x0000987c                memset

.text.strchr%420
                0x00009890       0x14
 .text.strchr   0x00009890       0x14 C:/Applications/Microchip/XC32/bin/bin/../../lib/gcc/pic32c/13.2.1/../../../../pic32c/lib/thumb/v6-m/nofp\libc-size-musl.a(strchr.o)
                0x00009890                strchr

.text.vsprintf%421
                0x000098a4       0x14
 .text.vsprintf
                0x000098a4       0x14 C:/Applications/Microchip/XC32/bin/bin/../../lib/gcc/pic32c/13.2.1/../../../../pic32c/lib/thumb/v6-m/nofp\libc-musl.a(vsprintf.o)
                0x000098a4                vsprintf

.text.stpcpy%422
                0x000098b8       0x14
 .text.stpcpy   0x000098b8       0x14 C:/Applications/Microchip/XC32/bin/bin/../../lib/gcc/pic32c/13.2.1/../../../../pic32c/lib/thumb/v6-m/nofp\libc-size-musl.a(stpcpy.o)
                0x000098b8                __stpcpy
                0x000098b8                stpcpy

.text%423       0x000098cc       0x14
 .text          0x000098cc       0x14 C:/Applications/Microchip/XC32/bin/bin/../../lib/gcc/pic32c/13.2.1/thumb/v6-m/nofp\libgcc.a(_thumb1_case_uqi.o)
                0x000098cc                __gnu_thumb1_case_uqi

.text.DRV_SPI_WriteTransferAdd%424
                0x000098e0       0x12
 .text.DRV_SPI_WriteTransferAdd
                0x000098e0       0x12 build/default/production/_ext/2070931557/drv_spi.o
                0x000098e0                DRV_SPI_WriteTransferAdd

.text.EVSYS_Initialize%425
                0x000098f2       0x12
 .text.EVSYS_Initialize
                0x000098f2       0x12 build/default/production/_ext/1986646378/plib_evsys.o
                0x000098f2                EVSYS_Initialize

.text.NVIC_INT_Disable%426
                0x00009904       0x12
 .text.NVIC_INT_Disable
                0x00009904       0x12 build/default/production/_ext/1865468468/plib_nvic.o
                0x00009904                NVIC_INT_Disable

.text.__dinit_clear%427
                0x00009916       0x12
 .text.__dinit_clear
                0x00009916       0x12 C:/Applications/Microchip/XC32/bin/bin/../../lib/gcc/pic32c/13.2.1/../../../../pic32c/lib/thumb/v6-m/nofp\libpic32c.a(pic32_data_init_clear.o)
                0x00009916                __dinit_clear
                0x00009916                __dinit_clear_needed

.text.DRV_USART_WriteBufferAdd%428
                0x00009928       0x10
 .text.DRV_USART_WriteBufferAdd
                0x00009928       0x10 build/default/production/_ext/869808652/drv_usart.o
                0x00009928                DRV_USART_WriteBufferAdd

.text.DRV_USART_ReadBufferAdd%429
                0x00009938       0x10
 .text.DRV_USART_ReadBufferAdd
                0x00009938       0x10 build/default/production/_ext/869808652/drv_usart.o
                0x00009938                DRV_USART_ReadBufferAdd

.text.DMAC_ChannelCallbackRegister%430
                0x00009948       0x10
 .text.DMAC_ChannelCallbackRegister
                0x00009948       0x10 build/default/production/_ext/1865161661/plib_dmac.o
                0x00009948                DMAC_ChannelCallbackRegister

.text.DMAC_ChannelSettingsGet%431
                0x00009958       0x10
 .text.DMAC_ChannelSettingsGet
                0x00009958       0x10 build/default/production/_ext/1865161661/plib_dmac.o
                0x00009958                DMAC_ChannelSettingsGet

.text.PM_Initialize%432
                0x00009968       0x10
 .text.PM_Initialize
                0x00009968       0x10 build/default/production/_ext/829342769/plib_pm.o
                0x00009968                PM_Initialize

.text.SERCOM3_I2C_ErrorGet%433
                0x00009978       0x10
 .text.SERCOM3_I2C_ErrorGet
                0x00009978       0x10 build/default/production/_ext/508257091/plib_sercom3_i2c_master.o
                0x00009978                SERCOM3_I2C_ErrorGet

.text.SERCOM0_USART_ErrorGet%434
                0x00009988       0x10
 .text.SERCOM0_USART_ErrorGet
                0x00009988       0x10 build/default/production/_ext/504274921/plib_sercom0_usart.o
                0x00009988                SERCOM0_USART_ErrorGet

.text.SERCOM0_USART_ReadIsBusy%435
                0x00009998       0x10
 .text.SERCOM0_USART_ReadIsBusy
                0x00009998       0x10 build/default/production/_ext/504274921/plib_sercom0_usart.o
                0x00009998                SERCOM0_USART_ReadIsBusy

.text.SYSTICK_TimerStop%436
                0x000099a8       0x10
 .text.SYSTICK_TimerStop
                0x000099a8       0x10 build/default/production/_ext/1827571544/plib_systick.o
                0x000099a8                SYSTICK_TimerStop

.rodata.drvSPI0PlibAPI%437
                0x000099b8       0x10
 .rodata.drvSPI0PlibAPI
                0x000099b8       0x10 build/default/production/_ext/1171490990/initialization.o

.text.RTC_DRIVER_XOSC32K_Alert_Callback%438
                0x000099c8       0x10
 .text.RTC_DRIVER_XOSC32K_Alert_Callback
                0x000099c8       0x10 build/default/production/_ext/1360937237/rtc_driver.o
                0x000099c8                RTC_DRIVER_XOSC32K_Alert_Callback

.text.RTC_DRIVER_Get_System_Time%439
                0x000099d8       0x10
 .text.RTC_DRIVER_Get_System_Time
                0x000099d8       0x10 build/default/production/_ext/1360937237/rtc_driver.o
                0x000099d8                RTC_DRIVER_Get_System_Time

.text.NTC_DRIVER_Callback%440
                0x000099e8       0x10
 .text.NTC_DRIVER_Callback
                0x000099e8       0x10 build/default/production/_ext/1360937237/ntc_driver.o
                0x000099e8                NTC_DRIVER_Callback

.text.TIMER_DRIVER_Stop_Start_Up_TMR%441
                0x000099f8       0x10
 .text.TIMER_DRIVER_Stop_Start_Up_TMR
                0x000099f8       0x10 build/default/production/_ext/1360937237/timer_driver.o
                0x000099f8                TIMER_DRIVER_Stop_Start_Up_TMR

.text.TIMER_DRIVER_Start_Main_TMR%442
                0x00009a08       0x10
 .text.TIMER_DRIVER_Start_Main_TMR
                0x00009a08       0x10 build/default/production/_ext/1360937237/timer_driver.o
                0x00009a08                TIMER_DRIVER_Start_Main_TMR

.text.TIMER_DRIVER_Stop_Main_TMR%443
                0x00009a18       0x10
 .text.TIMER_DRIVER_Stop_Main_TMR
                0x00009a18       0x10 build/default/production/_ext/1360937237/timer_driver.o
                0x00009a18                TIMER_DRIVER_Stop_Main_TMR

.text.TIMER_DRIVER_Start_Bus_TMR%444
                0x00009a28       0x10
 .text.TIMER_DRIVER_Start_Bus_TMR
                0x00009a28       0x10 build/default/production/_ext/1360937237/timer_driver.o
                0x00009a28                TIMER_DRIVER_Start_Bus_TMR

.text.TIMER_DRIVER_Stop_Bus_TMR%445
                0x00009a38       0x10
 .text.TIMER_DRIVER_Stop_Bus_TMR
                0x00009a38       0x10 build/default/production/_ext/1360937237/timer_driver.o
                0x00009a38                TIMER_DRIVER_Stop_Bus_TMR

.text.TIMER_DRIVER_Start_Wait_TMR%446
                0x00009a48       0x10
 .text.TIMER_DRIVER_Start_Wait_TMR
                0x00009a48       0x10 build/default/production/_ext/1360937237/timer_driver.o
                0x00009a48                TIMER_DRIVER_Start_Wait_TMR

.text.TIMER_DRIVER_Stop_Wait_TMR%447
                0x00009a58       0x10
 .text.TIMER_DRIVER_Stop_Wait_TMR
                0x00009a58       0x10 build/default/production/_ext/1360937237/timer_driver.o
                0x00009a58                TIMER_DRIVER_Stop_Wait_TMR

.text.SSD1306_DRIVER_Set_I2C_Address%448
                0x00009a68       0x10
 .text.SSD1306_DRIVER_Set_I2C_Address
                0x00009a68       0x10 build/default/production/_ext/1360937237/ssd1306_driver.o
                0x00009a68                SSD1306_DRIVER_Set_I2C_Address

.text.BMP585_DRIVER_Set_I2C_Address%449
                0x00009a78       0x10
 .text.BMP585_DRIVER_Set_I2C_Address
                0x00009a78       0x10 build/default/production/_ext/1360937237/bmp585_driver.o
                0x00009a78                BMP585_DRIVER_Set_I2C_Address

.text.fma%450   0x00009a88       0x10
 .text.fma      0x00009a88       0x10 C:/Applications/Microchip/XC32/bin/bin/../../lib/gcc/pic32c/13.2.1/../../../../pic32c/lib/thumb/v6-m/nofp\libm-fast-emfloat.a(fma.o)
                0x00009a88                fma

.text.__aeabi_fsub%451
                0x00009a98       0x10
 .text.__aeabi_fsub
                0x00009a98       0x10 C:/Applications/Microchip/XC32/bin/bin/../../lib/gcc/pic32c/13.2.1/../../../../pic32c/lib/thumb/v6-m/nofp\libm-fast-emfloat.a(__aeabi_fsub.o)
                0x00009a98                __aeabi_fsub

.text.__aeabi_dsub%452
                0x00009aa8       0x10
 .text.__aeabi_dsub
                0x00009aa8       0x10 C:/Applications/Microchip/XC32/bin/bin/../../lib/gcc/pic32c/13.2.1/../../../../pic32c/lib/thumb/v6-m/nofp\libm-fast-emfloat.a(__aeabi_dsub.o)
                0x00009aa8                __aeabi_dsub

.text.lDRV_USART_TX_PLIB_CallbackHandler%453
                0x00009ab8        0xe
 .text.lDRV_USART_TX_PLIB_CallbackHandler
                0x00009ab8        0xe build/default/production/_ext/869808652/drv_usart.o

.text.SYSTICK_TimerInterruptRestore%454
                0x00009ac6        0xe
 .text.SYSTICK_TimerInterruptRestore
                0x00009ac6        0xe build/default/production/_ext/1827571544/plib_systick.o
                0x00009ac6                SYSTICK_TimerInterruptRestore

.text.WS281X_DRIVER_DMAC_CH4_Callback%455
                0x00009ad4        0xe
 .text.WS281X_DRIVER_DMAC_CH4_Callback
                0x00009ad4        0xe build/default/production/_ext/1360937237/ws281x_driver.o
                0x00009ad4                WS281X_DRIVER_DMAC_CH4_Callback

.text.main%456  0x00009ae2        0xe
 .text.main     0x00009ae2        0xe build/default/production/_ext/1360937237/main.o
                0x00009ae2                main

.text.tolower%457
                0x00009af0        0xe
 .text.tolower  0x00009af0        0xe C:/Applications/Microchip/XC32/bin/bin/../../lib/gcc/pic32c/13.2.1/../../../../pic32c/lib/thumb/v6-m/nofp\libc-musl.a(tolower.o)
                0x00009af0                tolower

.text.toupper%458
                0x00009afe        0xe
 .text.toupper  0x00009afe        0xe C:/Applications/Microchip/XC32/bin/bin/../../lib/gcc/pic32c/13.2.1/../../../../pic32c/lib/thumb/v6-m/nofp\libc-musl.a(toupper.o)
                0x00009afe                toupper

.text.ADC0_ConversionResultGet%459
                0x00009b0c        0xc
 .text.ADC0_ConversionResultGet
                0x00009b0c        0xc build/default/production/_ext/60163342/plib_adc0.o
                0x00009b0c                ADC0_ConversionResultGet

.text.ADC0_CallbackRegister%460
                0x00009b18        0xc
 .text.ADC0_CallbackRegister
                0x00009b18        0xc build/default/production/_ext/60163342/plib_adc0.o
                0x00009b18                ADC0_CallbackRegister

.text.CAN0_InterruptClear%461
                0x00009b24        0xc
 .text.CAN0_InterruptClear
                0x00009b24        0xc build/default/production/_ext/60165182/plib_can0.o
                0x00009b24                CAN0_InterruptClear

.text.OSC32KCTRL_CallbackRegister%462
                0x00009b30        0xc
 .text.OSC32KCTRL_CallbackRegister
                0x00009b30        0xc build/default/production/_ext/1984496892/plib_clock.o
                0x00009b30                OSC32KCTRL_CallbackRegister

.text.NVMCTRL_Initialize%463
                0x00009b3c        0xc
 .text.NVMCTRL_Initialize
                0x00009b3c        0xc build/default/production/_ext/1593096446/plib_nvmctrl.o
                0x00009b3c                NVMCTRL_Initialize

.text.RSTC_ResetCauseGet%464
                0x00009b48        0xc
 .text.RSTC_ResetCauseGet
                0x00009b48        0xc build/default/production/_ext/1865585090/plib_rstc.o
                0x00009b48                RSTC_ResetCauseGet

.text.RTC_RTCCCallbackRegister%465
                0x00009b54        0xc
 .text.RTC_RTCCCallbackRegister
                0x00009b54        0xc build/default/production/_ext/60180175/plib_rtc_clock.o
                0x00009b54                RTC_RTCCCallbackRegister

.text.SERCOM3_I2C_CallbackRegister%466
                0x00009b60        0xc
 .text.SERCOM3_I2C_CallbackRegister
                0x00009b60        0xc build/default/production/_ext/508257091/plib_sercom3_i2c_master.o
                0x00009b60                SERCOM3_I2C_CallbackRegister

.text.SERCOM2_SPI_CallbackRegister%467
                0x00009b6c        0xc
 .text.SERCOM2_SPI_CallbackRegister
                0x00009b6c        0xc build/default/production/_ext/17022449/plib_sercom2_spi_master.o
                0x00009b6c                SERCOM2_SPI_CallbackRegister

.text.SERCOM0_USART_WriteIsBusy%468
                0x00009b78        0xc
 .text.SERCOM0_USART_WriteIsBusy
                0x00009b78        0xc build/default/production/_ext/504274921/plib_sercom0_usart.o
                0x00009b78                SERCOM0_USART_WriteIsBusy

.text.SERCOM0_USART_WriteCountGet%469
                0x00009b84        0xc
 .text.SERCOM0_USART_WriteCountGet
                0x00009b84        0xc build/default/production/_ext/504274921/plib_sercom0_usart.o
                0x00009b84                SERCOM0_USART_WriteCountGet

.text.SERCOM0_USART_WriteCallbackRegister%470
                0x00009b90        0xc
 .text.SERCOM0_USART_WriteCallbackRegister
                0x00009b90        0xc build/default/production/_ext/504274921/plib_sercom0_usart.o
                0x00009b90                SERCOM0_USART_WriteCallbackRegister

.text.SERCOM0_USART_ReadCountGet%471
                0x00009b9c        0xc
 .text.SERCOM0_USART_ReadCountGet
                0x00009b9c        0xc build/default/production/_ext/504274921/plib_sercom0_usart.o
                0x00009b9c                SERCOM0_USART_ReadCountGet

.text.SERCOM0_USART_ReadCallbackRegister%472
                0x00009ba8        0xc
 .text.SERCOM0_USART_ReadCallbackRegister
                0x00009ba8        0xc build/default/production/_ext/504274921/plib_sercom0_usart.o
                0x00009ba8                SERCOM0_USART_ReadCallbackRegister

.text.SYSTICK_TimerPeriodSet%473
                0x00009bb4        0xc
 .text.SYSTICK_TimerPeriodSet
                0x00009bb4        0xc build/default/production/_ext/1827571544/plib_systick.o
                0x00009bb4                SYSTICK_TimerPeriodSet

.text.SYSTICK_TimerCallbackSet%474
                0x00009bc0        0xc
 .text.SYSTICK_TimerCallbackSet
                0x00009bc0        0xc build/default/production/_ext/1827571544/plib_systick.o
                0x00009bc0                SYSTICK_TimerCallbackSet

.rodata.sysConsole0Init%475
                0x00009bcc        0xc
 .rodata.sysConsole0Init
                0x00009bcc        0xc build/default/production/_ext/1171490990/initialization.o

.rodata.drvUsart0remapError%476
                0x00009bd8        0xc
 .rodata.drvUsart0remapError
                0x00009bd8        0xc build/default/production/_ext/1171490990/initialization.o

.rodata.drvUsart0remapStopBits%477
                0x00009be4        0xc
 .rodata.drvUsart0remapStopBits
                0x00009be4        0xc build/default/production/_ext/1171490990/initialization.o

.text.CAN0_DRIVER_Set_Task_Start_Status%478
                0x00009bf0        0xc
 .text.CAN0_DRIVER_Set_Task_Start_Status
                0x00009bf0        0xc build/default/production/_ext/1360937237/can0_driver.o
                0x00009bf0                CAN0_DRIVER_Set_Task_Start_Status

.text.CAN0_DRIVER_Get_Task_Completed_Status%479
                0x00009bfc        0xc
 .text.CAN0_DRIVER_Get_Task_Completed_Status
                0x00009bfc        0xc build/default/production/_ext/1360937237/can0_driver.o
                0x00009bfc                CAN0_DRIVER_Get_Task_Completed_Status

.text.CAN0_DRIVER_Set_Task_Completed_Status%480
                0x00009c08        0xc
 .text.CAN0_DRIVER_Set_Task_Completed_Status
                0x00009c08        0xc build/default/production/_ext/1360937237/can0_driver.o
                0x00009c08                CAN0_DRIVER_Set_Task_Completed_Status

.text.RSTC_DRIVER_Initialize%481
                0x00009c14        0xc
 .text.RSTC_DRIVER_Initialize
                0x00009c14        0xc build/default/production/_ext/1360937237/rstc_driver.o
                0x00009c14                RSTC_DRIVER_Initialize

.text.MCP9808_DRIVER_Alert%482
                0x00009c20        0xc
 .text.MCP9808_DRIVER_Alert
                0x00009c20        0xc build/default/production/_ext/1360937237/mcp9808_driver.o
                0x00009c20                MCP9808_DRIVER_Alert

.text.BME690_DRIVER_Alert%483
                0x00009c2c        0xc
 .text.BME690_DRIVER_Alert
                0x00009c2c        0xc build/default/production/_ext/1360937237/bme690_driver.o
                0x00009c2c                BME690_DRIVER_Alert

.text.CONSOLE_DRIVER_Set_Task_Start_Status%484
                0x00009c38        0xc
 .text.CONSOLE_DRIVER_Set_Task_Start_Status
                0x00009c38        0xc build/default/production/_ext/1360937237/console_driver.o
                0x00009c38                CONSOLE_DRIVER_Set_Task_Start_Status

.text.CONSOLE_DRIVER_Get_Task_Completed_Status%485
                0x00009c44        0xc
 .text.CONSOLE_DRIVER_Get_Task_Completed_Status
                0x00009c44        0xc build/default/production/_ext/1360937237/console_driver.o
                0x00009c44                CONSOLE_DRIVER_Get_Task_Completed_Status

.text.CONSOLE_DRIVER_Set_Task_Completed_Status%486
                0x00009c50        0xc
 .text.CONSOLE_DRIVER_Set_Task_Completed_Status
                0x00009c50        0xc build/default/production/_ext/1360937237/console_driver.o
                0x00009c50                CONSOLE_DRIVER_Set_Task_Completed_Status

.text.CONSOLE_DRIVER_Initialize%487
                0x00009c5c        0xc
 .text.CONSOLE_DRIVER_Initialize
                0x00009c5c        0xc build/default/production/_ext/1360937237/console_driver.o
                0x00009c5c                CONSOLE_DRIVER_Initialize

.text.HDC302X_DRIVER_Alert%488
                0x00009c68        0xc
 .text.HDC302X_DRIVER_Alert
                0x00009c68        0xc build/default/production/_ext/1360937237/hdc302x_driver.o
                0x00009c68                HDC302X_DRIVER_Alert

.text.HDC302X_DRIVER_Set_Task_Start_Status%489
                0x00009c74        0xc
 .text.HDC302X_DRIVER_Set_Task_Start_Status
                0x00009c74        0xc build/default/production/_ext/1360937237/hdc302x_driver.o
                0x00009c74                HDC302X_DRIVER_Set_Task_Start_Status

.text.HDC302X_DRIVER_Get_Task_Completed_Status%490
                0x00009c80        0xc
 .text.HDC302X_DRIVER_Get_Task_Completed_Status
                0x00009c80        0xc build/default/production/_ext/1360937237/hdc302x_driver.o
                0x00009c80                HDC302X_DRIVER_Get_Task_Completed_Status

.text.HDC302X_DRIVER_Set_Task_Completed_Status%491
                0x00009c8c        0xc
 .text.HDC302X_DRIVER_Set_Task_Completed_Status
                0x00009c8c        0xc build/default/production/_ext/1360937237/hdc302x_driver.o
                0x00009c8c                HDC302X_DRIVER_Set_Task_Completed_Status

.text.FAN_DRIVER_Initialize%492
                0x00009c98        0xc
 .text.FAN_DRIVER_Initialize
                0x00009c98        0xc build/default/production/_ext/1360937237/fan_driver.o
                0x00009c98                FAN_DRIVER_Initialize

.text.Start_Up_TMR_Callback%493
                0x00009ca4        0xc
 .text.Start_Up_TMR_Callback
                0x00009ca4        0xc build/default/production/_ext/1360937237/timer_driver.o
                0x00009ca4                Start_Up_TMR_Callback

.text.Main_TMR_Callback%494
                0x00009cb0        0xc
 .text.Main_TMR_Callback
                0x00009cb0        0xc build/default/production/_ext/1360937237/timer_driver.o
                0x00009cb0                Main_TMR_Callback

.text.Bus_TMR_Callback%495
                0x00009cbc        0xc
 .text.Bus_TMR_Callback
                0x00009cbc        0xc build/default/production/_ext/1360937237/timer_driver.o
                0x00009cbc                Bus_TMR_Callback

.text.Wait_TMR_Callback%496
                0x00009cc8        0xc
 .text.Wait_TMR_Callback
                0x00009cc8        0xc build/default/production/_ext/1360937237/timer_driver.o
                0x00009cc8                Wait_TMR_Callback

.text.TIMER_DRIVER_Get_Main_TMR_Status%497
                0x00009cd4        0xc
 .text.TIMER_DRIVER_Get_Main_TMR_Status
                0x00009cd4        0xc build/default/production/_ext/1360937237/timer_driver.o
                0x00009cd4                TIMER_DRIVER_Get_Main_TMR_Status

.text.TIMER_DRIVER_Set_Main_TMR_Status%498
                0x00009ce0        0xc
 .text.TIMER_DRIVER_Set_Main_TMR_Status
                0x00009ce0        0xc build/default/production/_ext/1360937237/timer_driver.o
                0x00009ce0                TIMER_DRIVER_Set_Main_TMR_Status

.text.TIMER_DRIVER_Get_Bus_TMR_Status%499
                0x00009cec        0xc
 .text.TIMER_DRIVER_Get_Bus_TMR_Status
                0x00009cec        0xc build/default/production/_ext/1360937237/timer_driver.o
                0x00009cec                TIMER_DRIVER_Get_Bus_TMR_Status

.text.TIMER_DRIVER_Set_Bus_TMR_Status%500
                0x00009cf8        0xc
 .text.TIMER_DRIVER_Set_Bus_TMR_Status
                0x00009cf8        0xc build/default/production/_ext/1360937237/timer_driver.o
                0x00009cf8                TIMER_DRIVER_Set_Bus_TMR_Status

.text.TIMER_DRIVER_Get_Wait_TMR_Status%501
                0x00009d04        0xc
 .text.TIMER_DRIVER_Get_Wait_TMR_Status
                0x00009d04        0xc build/default/production/_ext/1360937237/timer_driver.o
                0x00009d04                TIMER_DRIVER_Get_Wait_TMR_Status

.text.TIMER_DRIVER_Set_Wait_TMR_Status%502
                0x00009d10        0xc
 .text.TIMER_DRIVER_Set_Wait_TMR_Status
                0x00009d10        0xc build/default/production/_ext/1360937237/timer_driver.o
                0x00009d10                TIMER_DRIVER_Set_Wait_TMR_Status

.text.XM125_DRIVER_Alert%503
                0x00009d1c        0xc
 .text.XM125_DRIVER_Alert
                0x00009d1c        0xc build/default/production/_ext/1360937237/xm125_driver.o
                0x00009d1c                XM125_DRIVER_Alert

.text.VCNL4200_DRIVER_Alert%504
                0x00009d28        0xc
 .text.VCNL4200_DRIVER_Alert
                0x00009d28        0xc build/default/production/_ext/1360937237/vcnl4200_driver.o
                0x00009d28                VCNL4200_DRIVER_Alert

.text.STCC4_DRIVER_Initialize%505
                0x00009d34        0xc
 .text.STCC4_DRIVER_Initialize
                0x00009d34        0xc build/default/production/_ext/1360937237/stcc4_driver.o
                0x00009d34                STCC4_DRIVER_Initialize

.text.BMP585_DRIVER_Alert%506
                0x00009d40        0xc
 .text.BMP585_DRIVER_Alert
                0x00009d40        0xc build/default/production/_ext/1360937237/bmp585_driver.o
                0x00009d40                BMP585_DRIVER_Alert

.text.strcpy%507
                0x00009d4c        0xc
 .text.strcpy   0x00009d4c        0xc C:/Applications/Microchip/XC32/bin/bin/../../lib/gcc/pic32c/13.2.1/../../../../pic32c/lib/thumb/v6-m/nofp\libc-size-musl.a(strcpy.o)
                0x00009d4c                strcpy

.text.SERCOM1_USART_WriteCountGet%508
                0x00009d58        0x8
 .text.SERCOM1_USART_WriteCountGet
                0x00009d58        0x8 build/default/production/_ext/504274921/plib_sercom1_usart.o
                0x00009d58                SERCOM1_USART_WriteCountGet

.text.SYSTICK_TimerFrequencyGet%509
                0x00009d60        0x8
 .text.SYSTICK_TimerFrequencyGet
                0x00009d60        0x8 build/default/production/_ext/1827571544/plib_systick.o
                0x00009d60                SYSTICK_TimerFrequencyGet

.text.SYS_INT_Disable%510
                0x00009d68        0x8
 .text.SYS_INT_Disable
                0x00009d68        0x8 build/default/production/_ext/1881668453/sys_int.o
                0x00009d68                SYS_INT_Disable

.text.SYS_INT_Restore%511
                0x00009d70        0x8
 .text.SYS_INT_Restore
                0x00009d70        0x8 build/default/production/_ext/1881668453/sys_int.o
                0x00009d70                SYS_INT_Restore

.rodata.sysTimeInitData%512
                0x00009d78        0x8
 .rodata.sysTimeInitData
                0x00009d78        0x8 build/default/production/_ext/1171490990/initialization.o

.rodata.drvSPI0remapClockPhase%513
                0x00009d80        0x8
 .rodata.drvSPI0remapClockPhase
                0x00009d80        0x8 build/default/production/_ext/1171490990/initialization.o

.rodata.drvSPI0remapClockPolarity%514
                0x00009d88        0x8
 .rodata.drvSPI0remapClockPolarity
                0x00009d88        0x8 build/default/production/_ext/1171490990/initialization.o

.text.TC0_5_Handler%515
                0x00009d90        0x8
 .text.TC0_5_Handler
                0x00009d90        0x8 build/default/production/_ext/1171490990/interrupts.o

.text.SYSTEM_Handler%516
                0x00009d98        0x8
 .text.SYSTEM_Handler
                0x00009d98        0x8 build/default/production/_ext/1171490990/interrupts.o

.text.PORT_GroupSet%517
                0x00009da0        0x4
 .text.PORT_GroupSet
                0x00009da0        0x4 build/default/production/_ext/1865521619/plib_port.o
                0x00009da0                PORT_GroupSet

.text.PORT_GroupClear%518
                0x00009da4        0x4
 .text.PORT_GroupClear
                0x00009da4        0x4 build/default/production/_ext/1865521619/plib_port.o
                0x00009da4                PORT_GroupClear

.text.Console_UART_Flush%519
                0x00009da8        0x4
 .text.Console_UART_Flush
                0x00009da8        0x4 build/default/production/_ext/1832805299/sys_console_uart.o
                0x00009da8                Console_UART_Flush

.rodata.sysConsole0UARTInitData%520
                0x00009dac        0x4
 .rodata.sysConsole0UARTInitData
                0x00009dac        0x4 build/default/production/_ext/1171490990/initialization.o

.text.__dummy_decompress%521
                0x00009db0        0x4
 .text.__dummy_decompress
                0x00009db0        0x4 C:/Applications/Microchip/XC32/bin/bin/../../lib/gcc/pic32c/13.2.1/../../../../pic32c/lib/thumb/v6-m/nofp\libpic32c.a(data_init.o)
                0x00009db0                __dinit_decompress
                0x00009db0                __dinit_copy_val_data
                0x00009db0                __dinit_copy_emb

.text%522       0x00009db4        0x4
 .text          0x00009db4        0x4 C:/Applications/Microchip/XC32/bin/bin/../../lib/gcc/pic32c/13.2.1/thumb/v6-m/nofp\libgcc.a(_dvmd_tls.o)
                0x00009db4                __aeabi_idiv0
                0x00009db4                __aeabi_ldiv0

.text.Console_UART_Tasks%523
                0x00002fc2        0x2
 .text.Console_UART_Tasks
                0x00002fc2        0x2 build/default/production/_ext/1832805299/sys_console_uart.o
                0x00002fc2                Console_UART_Tasks

.text.Dummy_Handler%524
                0x0000497a        0x2
 .text.Dummy_Handler
                0x0000497a        0x2 build/default/production/_ext/1171490990/interrupts.o
                0x0000497a                SVCall_Handler
                0x0000497a                AC_Handler
                0x0000497a                PendSV_Handler
                0x0000497a                TCC1_Handler
                0x0000497a                TC2_7_Handler
                0x0000497a                TCC0_Handler
                0x0000497a                TC1_6_Handler
                0x0000497a                ADC1_Handler
                0x0000497a                WDT_Handler
                0x0000497a                CAN0_Handler
                0x0000497a                TC4_Handler
                0x0000497a                TC3_Handler
                0x0000497a                Dummy_Handler
                0x0000497a                MCRAMC_Handler
                0x0000497a                PDEC_Handler
                0x0000497a                TCC2_Handler
                0x0000497a                EVSYS_Handler
                0x0000497a                NVMCTRL_Handler
                0x0000497a                DAC_Handler
                0x0000497a                PTC_Handler
                0x0000497a                ICM_Handler

.text.NonMaskableInt_Handler%525
                0x00004c0a        0x2
 .text.NonMaskableInt_Handler
                0x00004c0a        0x2 build/default/production/_ext/1171490990/exceptions.o
                0x00004c0a                NonMaskableInt_Handler

.text.HardFault_Handler%526
                0x00005652        0x2
 .text.HardFault_Handler
                0x00005652        0x2 build/default/production/_ext/1171490990/exceptions.o
                0x00005652                HardFault_Handler

.text.Dummy_App_Func%527
                0x0000587a        0x2
 .text.Dummy_App_Func
                0x0000587a        0x2 build/default/production/_ext/1171490990/startup_xc32.o
                0x0000587a                _on_reset
                0x0000587a                _on_bootstrap
                0x0000587a                __xc32_on_reset
                0x0000587a                Dummy_App_Func
                0x0000587a                __xc32_on_bootstrap

.text.__dummy_init_tls%528
                0x0000608e        0x2
 .text.__dummy_init_tls
                0x0000608e        0x2 C:/Applications/Microchip/XC32/bin/bin/../../lib/gcc/pic32c/13.2.1/../../../../pic32c/lib/thumb/v6-m/nofp\libpic32c.a(data_init.o)
                0x0000608e                xc32_init_tls

.text.__dummy%529
                0x00006af2        0x2
 .text.__dummy  0x00006af2        0x2 C:/Applications/Microchip/XC32/bin/bin/../../lib/gcc/pic32c/13.2.1/../../../../pic32c/lib/thumb/v6-m/nofp\libc-musl.a(__libc_start_main.o)
                0x00006af2                __init_stdio
                0x00006af2                __init_host
