Archive member included to satisfy reference by file (symbol)

c:/applications/microchip/xc32/bin/bin/../../lib/gcc/pic32c/8.3.1/../../../../pic32c/lib/thumb/v6-m/nofp\libpic32c.a(data_init.o)
                              build/default/production/_ext/1171490990/startup_xc32.o (__pic32c_data_initialization)
c:/applications/microchip/xc32/bin/bin/../../lib/gcc/pic32c/8.3.1/../../../../pic32c/lib/thumb/v6-m/nofp\libc-size-musl.a(memcpy.o)
                              build/default/production/_ext/60165182/plib_can0.o (memcpy)
c:/applications/microchip/xc32/bin/bin/../../lib/gcc/pic32c/8.3.1/../../../../pic32c/lib/thumb/v6-m/nofp\libc-size-musl.a(memset.o)
                              build/default/production/_ext/60165182/plib_can0.o (memset)
c:/applications/microchip/xc32/bin/bin/../../lib/gcc/pic32c/8.3.1/../../../../pic32c/lib/thumb/v6-m/nofp\libc-size-musl.a(strlen.o)
                              build/default/production/_ext/1832805299/sys_console.o (strlen)
c:/applications/microchip/xc32/bin/bin/../../lib/gcc/pic32c/8.3.1/../../../../pic32c/lib/thumb/v6-m/nofp\libc-size-musl.a(strstr.o)
                              build/default/production/_ext/1360937237/fcm360w_driver.o (strstr)
c:/applications/microchip/xc32/bin/bin/../../lib/gcc/pic32c/8.3.1/../../../../pic32c/lib/thumb/v6-m/nofp\libc-size-musl.a(strchr.o)
                              build/default/production/_ext/1360937237/fcm360w_driver.o (strchr)
c:/applications/microchip/xc32/bin/bin/../../lib/gcc/pic32c/8.3.1/../../../../pic32c/lib/thumb/v6-m/nofp\libc-size-musl.a(strchrnul.o)
                              c:/applications/microchip/xc32/bin/bin/../../lib/gcc/pic32c/8.3.1/../../../../pic32c/lib/thumb/v6-m/nofp\libc-size-musl.a(strchr.o) (__strchrnul)
c:/applications/microchip/xc32/bin/bin/../../lib/gcc/pic32c/8.3.1/../../../../pic32c/lib/thumb/v6-m/nofp\libm-fast-emfloat.a(__aeabi_fadd.o)
                              build/default/production/_ext/508257091/plib_sercom3_i2c_master.o (__aeabi_fadd)
c:/applications/microchip/xc32/bin/bin/../../lib/gcc/pic32c/8.3.1/../../../../pic32c/lib/thumb/v6-m/nofp\libm-fast-emfloat.a(__aeabi_dadd.o)
                              build/default/production/_ext/1360937237/mcp9808_driver.o (__aeabi_dadd)
c:/applications/microchip/xc32/bin/bin/../../lib/gcc/pic32c/8.3.1/../../../../pic32c/lib/thumb/v6-m/nofp\libm-fast-emfloat.a(__aeabi_fsub.o)
                              build/default/production/_ext/508257091/plib_sercom3_i2c_master.o (__aeabi_fsub)
c:/applications/microchip/xc32/bin/bin/../../lib/gcc/pic32c/8.3.1/../../../../pic32c/lib/thumb/v6-m/nofp\libm-fast-emfloat.a(__aeabi_fmul.o)
                              build/default/production/_ext/60165182/plib_can0.o (__aeabi_fmul)
c:/applications/microchip/xc32/bin/bin/../../lib/gcc/pic32c/8.3.1/../../../../pic32c/lib/thumb/v6-m/nofp\libm-fast-emfloat.a(__aeabi_dmul_aux.o)
                              build/default/production/_ext/1360937237/mcp9808_driver.o (__aeabi_dmul)
c:/applications/microchip/xc32/bin/bin/../../lib/gcc/pic32c/8.3.1/../../../../pic32c/lib/thumb/v6-m/nofp\libm-fast-emfloat.a(__aeabi_fdiv.o)
                              build/default/production/_ext/60165182/plib_can0.o (__aeabi_fdiv)
c:/applications/microchip/xc32/bin/bin/../../lib/gcc/pic32c/8.3.1/../../../../pic32c/lib/thumb/v6-m/nofp\libm-fast-emfloat.a(__aeabi_fcmplt.o)
                              build/default/production/_ext/60165182/plib_can0.o (__aeabi_fcmplt)
c:/applications/microchip/xc32/bin/bin/../../lib/gcc/pic32c/8.3.1/../../../../pic32c/lib/thumb/v6-m/nofp\libm-fast-emfloat.a(__aeabi_f2iz.o)
                              build/default/production/_ext/504274921/plib_sercom1_usart.o (__aeabi_f2iz)
c:/applications/microchip/xc32/bin/bin/../../lib/gcc/pic32c/8.3.1/../../../../pic32c/lib/thumb/v6-m/nofp\libm-fast-emfloat.a(__aeabi_f2uiz.o)
                              build/default/production/_ext/60165182/plib_can0.o (__aeabi_f2uiz)
c:/applications/microchip/xc32/bin/bin/../../lib/gcc/pic32c/8.3.1/../../../../pic32c/lib/thumb/v6-m/nofp\libm-fast-emfloat.a(__aeabi_i2f.o)
                              build/default/production/_ext/504274921/plib_sercom1_usart.o (__aeabi_i2f)
c:/applications/microchip/xc32/bin/bin/../../lib/gcc/pic32c/8.3.1/../../../../pic32c/lib/thumb/v6-m/nofp\libm-fast-emfloat.a(__aeabi_l2f.o)
                              build/default/production/_ext/1360937237/ad9954_driver.o (__aeabi_l2f)
c:/applications/microchip/xc32/bin/bin/../../lib/gcc/pic32c/8.3.1/../../../../pic32c/lib/thumb/v6-m/nofp\libm-fast-emfloat.a(__aeabi_ui2f.o)
                              build/default/production/_ext/60165182/plib_can0.o (__aeabi_ui2f)
c:/applications/microchip/xc32/bin/bin/../../lib/gcc/pic32c/8.3.1/../../../../pic32c/lib/thumb/v6-m/nofp\libm-fast-emfloat.a(__aeabi_ul2f.o)
                              c:/applications/microchip/xc32/bin/bin/../../lib/gcc/pic32c/8.3.1/../../../../pic32c/lib/thumb/v6-m/nofp\libm-fast-emfloat.a(__aeabi_l2f.o) (__aeabi_ul2f)
c:/applications/microchip/xc32/bin/bin/../../lib/gcc/pic32c/8.3.1/../../../../pic32c/lib/thumb/v6-m/nofp\libm-fast-emfloat.a(__aeabi_f2d.o)
                              build/default/production/_ext/1360937237/sht4x_driver.o (__aeabi_f2d)
c:/applications/microchip/xc32/bin/bin/../../lib/gcc/pic32c/8.3.1/../../../../pic32c/lib/thumb/v6-m/nofp\libm-fast-emfloat.a(__aeabi_d2f.o)
                              build/default/production/_ext/1360937237/mcp9808_driver.o (__aeabi_d2f)
c:/applications/microchip/xc32/bin/bin/../../lib/gcc/pic32c/8.3.1/../../../../pic32c/lib/thumb/v6-m/nofp\libc-musl.a(__libc_start_main.o)
                              build/default/production/_ext/1171490990/startup_xc32.o (__libc_init_array)
c:/applications/microchip/xc32/bin/bin/../../lib/gcc/pic32c/8.3.1/../../../../pic32c/lib/thumb/v6-m/nofp\libc-musl.a(libc.o)
                              c:/applications/microchip/xc32/bin/bin/../../lib/gcc/pic32c/8.3.1/../../../../pic32c/lib/thumb/v6-m/nofp\libc-musl.a(__libc_start_main.o) (__progname_full)
c:/applications/microchip/xc32/bin/bin/../../lib/gcc/pic32c/8.3.1/../../../../pic32c/lib/thumb/v6-m/nofp\libc-musl.a(vsnprintf.o)
                              build/default/production/_ext/1832805299/sys_console.o (vsnprintf)
c:/applications/microchip/xc32/bin/bin/../../lib/gcc/pic32c/8.3.1/../../../../pic32c/lib/thumb/v6-m/nofp\libc-musl.a(sprintf.o)
                              (sprintf)
c:/applications/microchip/xc32/bin/bin/../../lib/gcc/pic32c/8.3.1/../../../../pic32c/lib/thumb/v6-m/nofp\libc-musl.a(vsprintf.o)
                              c:/applications/microchip/xc32/bin/bin/../../lib/gcc/pic32c/8.3.1/../../../../pic32c/lib/thumb/v6-m/nofp\libc-musl.a(sprintf.o) (vsprintf)
c:/applications/microchip/xc32/bin/bin/../../lib/gcc/pic32c/8.3.1/../../../../pic32c/lib/thumb/v6-m/nofp\libc-musl.a(__environ.o)
                              c:/applications/microchip/xc32/bin/bin/../../lib/gcc/pic32c/8.3.1/../../../../pic32c/lib/thumb/v6-m/nofp\libc-musl.a(__libc_start_main.o) (__environ)
c:/applications/microchip/xc32/bin/bin/../../lib/gcc/pic32c/8.3.1/../../../../pic32c/lib/thumb/v6-m/nofp\libc-musl.a(__errno_location.o)
                              c:/applications/microchip/xc32/bin/bin/../../lib/gcc/pic32c/8.3.1/../../../../pic32c/lib/thumb/v6-m/nofp\libc-musl.a(vsnprintf.o) (__errno_val)
c:/applications/microchip/xc32/bin/bin/../../lib/gcc/pic32c/8.3.1/../../../../pic32c/lib/thumb/v6-m/nofp\libc-musl.a(vfprintf.o)
                              c:/applications/microchip/xc32/bin/bin/../../lib/gcc/pic32c/8.3.1/../../../../pic32c/lib/thumb/v6-m/nofp\libc-musl.a(vsnprintf.o) (vfprintf)
c:/applications/microchip/xc32/bin/bin/../../lib/gcc/pic32c/8.3.1/../../../../pic32c/lib/thumb/v6-m/nofp\libc-musl.a(__io_fmt_needed.o)
                              c:/applications/microchip/xc32/bin/bin/../../lib/gcc/pic32c/8.3.1/../../../../pic32c/lib/thumb/v6-m/nofp\libc-musl.a(vfprintf.o) (__io_fmt_needed)
c:/applications/microchip/xc32/bin/bin/../../lib/gcc/pic32c/8.3.1/../../../../pic32c/lib/thumb/v6-m/nofp\libc-musl.a(__pop_float.o)
                              c:/applications/microchip/xc32/bin/bin/../../lib/gcc/pic32c/8.3.1/../../../../pic32c/lib/thumb/v6-m/nofp\libc-musl.a(__io_fmt_needed.o) (__pop_float_needed)
c:/applications/microchip/xc32/bin/bin/../../lib/gcc/pic32c/8.3.1/../../../../pic32c/lib/thumb/v6-m/nofp\libc-musl.a(__pop_int.o)
                              c:/applications/microchip/xc32/bin/bin/../../lib/gcc/pic32c/8.3.1/../../../../pic32c/lib/thumb/v6-m/nofp\libc-musl.a(__io_fmt_needed.o) (__pop_int_needed)
c:/applications/microchip/xc32/bin/bin/../../lib/gcc/pic32c/8.3.1/../../../../pic32c/lib/thumb/v6-m/nofp\libc-musl.a(__pop_ptr.o)
                              c:/applications/microchip/xc32/bin/bin/../../lib/gcc/pic32c/8.3.1/../../../../pic32c/lib/thumb/v6-m/nofp\libc-musl.a(__io_fmt_needed.o) (__pop_ptr_needed)
c:/applications/microchip/xc32/bin/bin/../../lib/gcc/pic32c/8.3.1/../../../../pic32c/lib/thumb/v6-m/nofp\libc-musl.a(__printf_core.o)
                              c:/applications/microchip/xc32/bin/bin/../../lib/gcc/pic32c/8.3.1/../../../../pic32c/lib/thumb/v6-m/nofp\libc-musl.a(vfprintf.o) (__printf_core)
c:/applications/microchip/xc32/bin/bin/../../lib/gcc/pic32c/8.3.1/../../../../pic32c/lib/thumb/v6-m/nofp\libc-musl.a(atoi.o)
                              c:/applications/microchip/xc32/bin/bin/../../lib/gcc/pic32c/8.3.1/../../../../pic32c/lib/thumb/v6-m/nofp\libc-musl.a(__printf_core.o) (atoi)
c:/applications/microchip/xc32/bin/bin/../../lib/gcc/pic32c/8.3.1/../../../../pic32c/lib/thumb/v6-m/nofp\libc-musl.a(tolower.o)
                              c:/applications/microchip/xc32/bin/bin/../../lib/gcc/pic32c/8.3.1/../../../../pic32c/lib/thumb/v6-m/nofp\libc-musl.a(__printf_core.o) (tolower)
c:/applications/microchip/xc32/bin/bin/../../lib/gcc/pic32c/8.3.1/../../../../pic32c/lib/thumb/v6-m/nofp\libc-musl.a(__fmt_a.o)
                              c:/applications/microchip/xc32/bin/bin/../../lib/gcc/pic32c/8.3.1/../../../../pic32c/lib/thumb/v6-m/nofp\libc-musl.a(__io_fmt_needed.o) (__fmt_a_needed)
c:/applications/microchip/xc32/bin/bin/../../lib/gcc/pic32c/8.3.1/../../../../pic32c/lib/thumb/v6-m/nofp\libc-musl.a(__fmt_d.o)
                              c:/applications/microchip/xc32/bin/bin/../../lib/gcc/pic32c/8.3.1/../../../../pic32c/lib/thumb/v6-m/nofp\libc-musl.a(__io_fmt_needed.o) (__fmt_d_needed)
c:/applications/microchip/xc32/bin/bin/../../lib/gcc/pic32c/8.3.1/../../../../pic32c/lib/thumb/v6-m/nofp\libc-musl.a(__fmt_fp.o)
                              c:/applications/microchip/xc32/bin/bin/../../lib/gcc/pic32c/8.3.1/../../../../pic32c/lib/thumb/v6-m/nofp\libc-musl.a(__io_fmt_needed.o) (__fmt_f_needed)
c:/applications/microchip/xc32/bin/bin/../../lib/gcc/pic32c/8.3.1/../../../../pic32c/lib/thumb/v6-m/nofp\libc-musl.a(__fmt_o.o)
                              c:/applications/microchip/xc32/bin/bin/../../lib/gcc/pic32c/8.3.1/../../../../pic32c/lib/thumb/v6-m/nofp\libc-musl.a(__io_fmt_needed.o) (__fmt_o_needed)
c:/applications/microchip/xc32/bin/bin/../../lib/gcc/pic32c/8.3.1/../../../../pic32c/lib/thumb/v6-m/nofp\libc-musl.a(__fmt_s.o)
                              c:/applications/microchip/xc32/bin/bin/../../lib/gcc/pic32c/8.3.1/../../../../pic32c/lib/thumb/v6-m/nofp\libc-musl.a(__io_fmt_needed.o) (__fmt_s_needed)
c:/applications/microchip/xc32/bin/bin/../../lib/gcc/pic32c/8.3.1/../../../../pic32c/lib/thumb/v6-m/nofp\libc-musl.a(__fmt_u.o)
                              c:/applications/microchip/xc32/bin/bin/../../lib/gcc/pic32c/8.3.1/../../../../pic32c/lib/thumb/v6-m/nofp\libc-musl.a(__io_fmt_needed.o) (__fmt_u_needed)
c:/applications/microchip/xc32/bin/bin/../../lib/gcc/pic32c/8.3.1/../../../../pic32c/lib/thumb/v6-m/nofp\libc-musl.a(__fmt_x.o)
                              c:/applications/microchip/xc32/bin/bin/../../lib/gcc/pic32c/8.3.1/../../../../pic32c/lib/thumb/v6-m/nofp\libc-musl.a(__io_fmt_needed.o) (__fmt_x_needed)
c:/applications/microchip/xc32/bin/bin/../../lib/gcc/pic32c/8.3.1/../../../../pic32c/lib/thumb/v6-m/nofp\libc-musl.a(toupper.o)
                              c:/applications/microchip/xc32/bin/bin/../../lib/gcc/pic32c/8.3.1/../../../../pic32c/lib/thumb/v6-m/nofp\libc-musl.a(__fmt_a.o) (toupper)
c:/applications/microchip/xc32/bin/bin/../../lib/gcc/pic32c/8.3.1/../../../../pic32c/lib/thumb/v6-m/nofp\libc-musl.a(__cvt_u.o)
                              c:/applications/microchip/xc32/bin/bin/../../lib/gcc/pic32c/8.3.1/../../../../pic32c/lib/thumb/v6-m/nofp\libc-musl.a(__fmt_d.o) (__cvt_u)
c:/applications/microchip/xc32/bin/bin/../../lib/gcc/pic32c/8.3.1/../../../../pic32c/lib/thumb/v6-m/nofp\libm-fast-emfloat.a(fma.o)
                              c:/applications/microchip/xc32/bin/bin/../../lib/gcc/pic32c/8.3.1/../../../../pic32c/lib/thumb/v6-m/nofp\libc-musl.a(__fmt_fp.o) (fma)
c:/applications/microchip/xc32/bin/bin/../../lib/gcc/pic32c/8.3.1/../../../../pic32c/lib/thumb/v6-m/nofp\libm-fast-emfloat.a(floor.o)
                              c:/applications/microchip/xc32/bin/bin/../../lib/gcc/pic32c/8.3.1/../../../../pic32c/lib/thumb/v6-m/nofp\libc-musl.a(__fmt_a.o) (floor)
c:/applications/microchip/xc32/bin/bin/../../lib/gcc/pic32c/8.3.1/../../../../pic32c/lib/thumb/v6-m/nofp\libm-fast-emfloat.a(__aeabi_dsub.o)
                              c:/applications/microchip/xc32/bin/bin/../../lib/gcc/pic32c/8.3.1/../../../../pic32c/lib/thumb/v6-m/nofp\libc-musl.a(__fmt_a.o) (__aeabi_dsub)
c:/applications/microchip/xc32/bin/bin/../../lib/gcc/pic32c/8.3.1/../../../../pic32c/lib/thumb/v6-m/nofp\libm-fast-emfloat.a(__aeabi_ddiv.o)
                              c:/applications/microchip/xc32/bin/bin/../../lib/gcc/pic32c/8.3.1/../../../../pic32c/lib/thumb/v6-m/nofp\libc-musl.a(__fmt_a.o) (__aeabi_ddiv)
c:/applications/microchip/xc32/bin/bin/../../lib/gcc/pic32c/8.3.1/../../../../pic32c/lib/thumb/v6-m/nofp\libm-fast-emfloat.a(__aeabi_dcmple.o)
                              c:/applications/microchip/xc32/bin/bin/../../lib/gcc/pic32c/8.3.1/../../../../pic32c/lib/thumb/v6-m/nofp\libc-musl.a(__fmt_fp.o) (__aeabi_dcmple)
c:/applications/microchip/xc32/bin/bin/../../lib/gcc/pic32c/8.3.1/../../../../pic32c/lib/thumb/v6-m/nofp\libm-fast-emfloat.a(__aeabi_dcmpeq.o)
                              c:/applications/microchip/xc32/bin/bin/../../lib/gcc/pic32c/8.3.1/../../../../pic32c/lib/thumb/v6-m/nofp\libc-musl.a(__fmt_a.o) (__aeabi_dcmpeq)
c:/applications/microchip/xc32/bin/bin/../../lib/gcc/pic32c/8.3.1/../../../../pic32c/lib/thumb/v6-m/nofp\libm-fast-emfloat.a(__aeabi_dcmpgt.o)
                              c:/applications/microchip/xc32/bin/bin/../../lib/gcc/pic32c/8.3.1/../../../../pic32c/lib/thumb/v6-m/nofp\libc-musl.a(__fmt_fp.o) (__aeabi_dcmpgt)
c:/applications/microchip/xc32/bin/bin/../../lib/gcc/pic32c/8.3.1/../../../../pic32c/lib/thumb/v6-m/nofp\libm-fast-emfloat.a(__aeabi_dcmplt.o)
                              c:/applications/microchip/xc32/bin/bin/../../lib/gcc/pic32c/8.3.1/../../../../pic32c/lib/thumb/v6-m/nofp\libc-musl.a(__fmt_a.o) (__aeabi_dcmplt)
c:/applications/microchip/xc32/bin/bin/../../lib/gcc/pic32c/8.3.1/../../../../pic32c/lib/thumb/v6-m/nofp\libm-fast-emfloat.a(__aeabi_d2iz.o)
                              c:/applications/microchip/xc32/bin/bin/../../lib/gcc/pic32c/8.3.1/../../../../pic32c/lib/thumb/v6-m/nofp\libc-musl.a(__fmt_a.o) (__aeabi_d2iz)
c:/applications/microchip/xc32/bin/bin/../../lib/gcc/pic32c/8.3.1/../../../../pic32c/lib/thumb/v6-m/nofp\libm-fast-emfloat.a(__aeabi_d2uiz.o)
                              c:/applications/microchip/xc32/bin/bin/../../lib/gcc/pic32c/8.3.1/../../../../pic32c/lib/thumb/v6-m/nofp\libm-fast-emfloat.a(__aeabi_d2iz.o) (.L__aeabi_d2uiz_fast_entry)
c:/applications/microchip/xc32/bin/bin/../../lib/gcc/pic32c/8.3.1/thumb/v6-m/nofp\libgcc.a(_udivsi3.o)
                              build/default/production/_ext/60165182/plib_can0.o (__aeabi_uidiv)
c:/applications/microchip/xc32/bin/bin/../../lib/gcc/pic32c/8.3.1/thumb/v6-m/nofp\libgcc.a(_divsi3.o)
                              build/default/production/_ext/1360937237/hdc302x_driver.o (__aeabi_idiv)
c:/applications/microchip/xc32/bin/bin/../../lib/gcc/pic32c/8.3.1/thumb/v6-m/nofp\libgcc.a(_dvmd_tls.o)
                              c:/applications/microchip/xc32/bin/bin/../../lib/gcc/pic32c/8.3.1/thumb/v6-m/nofp\libgcc.a(_udivsi3.o) (__aeabi_idiv0)
c:/applications/microchip/xc32/bin/bin/../../lib/gcc/pic32c/8.3.1/thumb/v6-m/nofp\libgcc.a(_aeabi_uldivmod.o)
                              build/default/production/_ext/101884895/sys_time.o (__aeabi_uldivmod)
c:/applications/microchip/xc32/bin/bin/../../lib/gcc/pic32c/8.3.1/thumb/v6-m/nofp\libgcc.a(_muldi3.o)
                              build/default/production/_ext/1987437027/plib_freqm.o (__aeabi_lmul)
c:/applications/microchip/xc32/bin/bin/../../lib/gcc/pic32c/8.3.1/thumb/v6-m/nofp\libgcc.a(_udivmoddi4.o)
                              c:/applications/microchip/xc32/bin/bin/../../lib/gcc/pic32c/8.3.1/thumb/v6-m/nofp\libgcc.a(_aeabi_uldivmod.o) (__udivmoddi4)
c:/applications/microchip/xc32/bin/bin/../../lib/gcc/pic32c/8.3.1/thumb/v6-m/nofp\libgcc.a(_lshrdi3.o)
                              c:/applications/microchip/xc32/bin/bin/../../lib/gcc/pic32c/8.3.1/thumb/v6-m/nofp\libgcc.a(_udivmoddi4.o) (__aeabi_llsr)
c:/applications/microchip/xc32/bin/bin/../../lib/gcc/pic32c/8.3.1/thumb/v6-m/nofp\libgcc.a(_ashldi3.o)
                              c:/applications/microchip/xc32/bin/bin/../../lib/gcc/pic32c/8.3.1/thumb/v6-m/nofp\libgcc.a(_udivmoddi4.o) (__aeabi_llsl)
c:/applications/microchip/xc32/bin/bin/../../lib/gcc/pic32c/8.3.1/thumb/v6-m/nofp\libgcc.a(_clzdi2.o)
                              c:/applications/microchip/xc32/bin/bin/../../lib/gcc/pic32c/8.3.1/thumb/v6-m/nofp\libgcc.a(_udivmoddi4.o) (__clzdi2)
c:/applications/microchip/xc32/bin/bin/../../lib/gcc/pic32c/8.3.1/thumb/v6-m/nofp\libgcc.a(_clzsi2.o)
                              c:/applications/microchip/xc32/bin/bin/../../lib/gcc/pic32c/8.3.1/thumb/v6-m/nofp\libgcc.a(_clzdi2.o) (__clzsi2)
c:/applications/microchip/xc32/bin/bin/../../lib/gcc/pic32c/8.3.1/../../../../pic32c/lib/thumb/v6-m/nofp\libc-size-musl.a(strcpy.o)
                              c:/applications/microchip/xc32/bin/bin/../../lib/gcc/pic32c/8.3.1/../../../../pic32c/lib/thumb/v6-m/nofp\libc-musl.a(__fmt_a.o) (strcpy)
c:/applications/microchip/xc32/bin/bin/../../lib/gcc/pic32c/8.3.1/../../../../pic32c/lib/thumb/v6-m/nofp\libc-size-musl.a(stpcpy.o)
                              c:/applications/microchip/xc32/bin/bin/../../lib/gcc/pic32c/8.3.1/../../../../pic32c/lib/thumb/v6-m/nofp\libc-size-musl.a(strcpy.o) (__stpcpy)
c:/applications/microchip/xc32/bin/bin/../../lib/gcc/pic32c/8.3.1/../../../../pic32c/lib/thumb/v6-m/nofp\libpic32c.a(pic32_data_init_clear.o)
                              (__dinit_clear_needed)
c:/applications/microchip/xc32/bin/bin/../../lib/gcc/pic32c/8.3.1/../../../../pic32c/lib/thumb/v6-m/nofp\libpic32c.a(pic32_data_init_copy.o)
                              (__dinit_copy_needed)

Microchip PIC32 Memory-Usage Report

ROM Program-Memory Usage
section                    address  length [bytes]      (dec)  Description
-------                 ----------  -------------------------  -----------
.vectors                         0           0xc0         192   
.text                         0xc0           0x20          32  App's exec code 
.ARM.exidx                    0xe0            0x8           8   
.text.__fmt_fp                0xe8          0x4c0        1216   
.text.__fmt_a                0x5a8          0x484        1156   
.text.__printf_core          0xa2c          0x33c         828   
.text.AD9954_DRIVER_Tas      0xd68          0x2f4         756   
.dinit                      0x105c          0x2a0         672   
.text.MCP9808_DRIVER_Ta     0x12fc          0x294         660   
.text.lDRV_I2C_WriteRea     0x1590          0x254         596   
.text.FCM360W_DRIVER_Ta     0x17e4          0x1f0         496   
.text.DRV_SPI_WriteRead     0x19d4          0x1d8         472   
.text.CAN0_DRIVER_Tasks     0x1bac          0x1d0         464   
.text.__aeabi_dadd          0x1d7c          0x1c8         456   
.text.SERCOM3_I2C_Inter     0x1f44          0x1bc         444   
.text.CLOCK_Initialize      0x2100          0x1b8         440   
.text.SHT4X_DRIVER_Task     0x22b8          0x1b0         432   
.text.lDRV_SPI_StartDMA     0x2468          0x1a0         416   
.text.__aeabi_dmul_aux      0x2608          0x18a         394   
.text.Console_UART_Task     0x2792            0x2           2   
.text.lDRV_USART_Buffer     0x2794          0x180         384   
.text.SERCOM2_SPI_Write     0x2914          0x178         376   
.text.lDRV_SPI_RX_DMA_C     0x2a8c          0x15c         348   
.text.SERCOM2_SPI_Inter     0x2be8          0x154         340   
.text.SERCOM0_USART_Ser     0x2d3c          0x148         328   
.text.__aeabi_fadd          0x2e84          0x13a         314   
.text.__fmt_x               0x2fbe          0x132         306   
.text.APP_Tasks             0x30f0          0x110         272   
.text.SERCOM3_I2C_Trans     0x3200          0x10c         268   
.text.RSTC_DRIVER_Tasks     0x330c          0x108         264   
.text.DRV_SPI_Open          0x3414          0x104         260   
.text.SERCOM1_USART_Wri     0x3518          0x104         260   
.text.DRV_I2C_Open          0x361c          0x100         256   
.text.SYS_Initialize        0x371c          0x100         256   
.text.DRV_USART_Open        0x381c           0xf8         248   
.text.lDRV_USART_Buffer     0x3914           0xf4         244   
.text.SERCOM1_USART_ISR     0x3a08           0xec         236   
.text                       0x3af4           0xe2         226  App's exec code 
.text.Dummy_Handler         0x3bd6            0x2           2   
.text.SERCOM1_USART_ISR     0x3bd8           0xe0         224   
.text.lDRV_SPI_PlibCall     0x3cb8           0xdc         220   
.text.NVIC_Initialize       0x3d94           0xdc         220   
.text.lDRV_SPI_UpdateTr     0x3e70           0xd0         208   
.text.DMAC_Initialize       0x3f40           0xd0         208   
.text.SYS_TIME_AddToLis     0x4010           0xd0         208   
.text.SYS_TIME_PLIBCall     0x40e0           0xd0         208   
.text.DRV_USART_Initial     0x41b0           0xcc         204   
.text.CAN0_MessageRecei     0x427c           0xcc         204   
.text.Reset_Handler         0x4348           0xcc         204   
.text.lDRV_USART_Resour     0x4414           0xca         202   
.text.NonMaskableInt_Ha     0x44de            0x2           2   
.text.DMAC_ChannelTrans     0x44e0           0xc8         200   
.text.lDRV_SPI_Resource     0x45a8           0xc6         198   
.text.HardFault_Handler     0x466e            0x2           2   
.text.DRV_SPI_Close         0x4670           0xc4         196   
.text.__aeabi_ddiv          0x4734           0xc4         196   
.text.lDRV_I2C_NextTran     0x47f8           0xc0         192   
.text.SYS_TIME_TimerObj     0x48b8           0xc0         192   
.text.lDRV_USART_Resour     0x4978           0xbe         190   
.text.__pop_int             0x4a36           0xbe         190   
.text.__aeabi_fmul          0x4af4           0xb6         182   
.text.lDRV_SPI_Resource     0x4baa           0xb4         180   
.text.Dummy_App_Func        0x4c5e            0x2           2   
.text.EIC_Initialize        0x4c60           0xb4         180   
.text.floor                 0x4d14           0xb4         180   
.text.__fmt_d               0x4dc8           0xb2         178   
.text.__dummy_init_tls      0x4e7a            0x2           2   
.text.DRV_SPI_Initializ     0x4e7c           0xb0         176   
.text                       0x4f2c           0xa8         168  App's exec code 
.text.SERCOM2_SPI_Trans     0x4fd4           0xa0         160   
.text.CAN0_MessageRAMCo     0x5074           0x9c         156   
.text.SERCOM1_USART_Rea     0x5110           0x94         148   
.text.__aeabi_fdiv          0x51a4           0x94         148   
.text                       0x5238           0x8c         140  App's exec code 
.text.lDRV_I2C_Resource     0x52c4           0x8a         138   
.text.__dummy               0x534e            0x2           2   
.text.SERCOM1_USART_Ini     0x5350           0x88         136   
.text.SERCOM0_USART_ISR     0x53d8           0x84         132   
.text.DRV_USART_Close       0x545c           0x80         128   
.text.NTC_DRIVER_Tasks      0x54dc           0x80         128   
.text.WS281X_DRIVER_Set     0x555c           0x80         128   
.text.lDRV_I2C_Resource     0x55dc           0x7c         124   
.text.DMAC_InterruptHan     0x5658           0x7c         124   
.text.WS281X_DRIVER_Tas     0x56d4           0x7c         124   
.text.__pad                 0x5750           0x7a         122   
.text.CAN0_MessageTrans     0x57cc           0x78         120   
.text.SYS_CONSOLE_Print     0x5844           0x78         120   
.text.BME690_DRIVER_Tas     0x58bc           0x78         120   
.text.HDC302X_DRIVER_Ta     0x5934           0x78         120   
.text.SEN6X_DRIVER_Task     0x59ac           0x78         120   
.text.__cvt_u               0x5a24           0x76         118   
.text.DRV_I2C_Close         0x5a9c           0x74         116   
.text.SERCOM0_USART_Wri     0x5b10           0x74         116   
.text.CAN0_DRIVER_Get_R     0x5b84           0x74         116   
.text.RTC_DRIVER_Tasks      0x5bf8           0x74         116   
.text.SERCOM0_USART_ISR     0x5c6c           0x70         112   
.text.__fmt_o               0x5cdc           0x6e         110   
.text.DRV_I2C_Initializ     0x5d4c           0x6c         108   
.text.CAN0_Initialize       0x5db8           0x6c         108   
.text.SYS_TIME_Initiali     0x5e24           0x6c         108   
.text.__pop_ptr             0x5e90           0x68         104   
.text.lDRV_USART_ReadSu     0x5ef8           0x66         102   
.rodata.MCP9808_DRIVER_     0x5f60           0x64         100   
.text.TIMER_DRIVER_Init     0x5fc4           0x64         100   
.text.vsnprintf             0x6028           0x64         100   
.text.__aeabi_d2f           0x608c           0x62          98   
.text.lDRV_USART_WriteS     0x60ee           0x60          96   
.text.EIC_InterruptHand     0x6150           0x60          96   
.text.RTC_RTCCTimeGet       0x61b0           0x60          96   
.text.SERCOM3_I2C_Initi     0x6210           0x60          96   
.text.CONSOLE_DRIVER_Ta     0x6270           0x60          96   
.text.__strchrnul           0x62d0           0x60          96   
.text.SYS_CONSOLE_Initi     0x6330           0x5c          92   
.text.__libc_start_init     0x638c           0x5c          92   
.text.lDRV_I2C_PLibCall     0x63e8           0x58          88   
.text.SYS_TIME_Callback     0x6440           0x58          88   
.text.__fmt_u               0x6498           0x56          86   
.text.lDRV_SPI_TX_DMA_C     0x64f0           0x54          84   
.text.ADC0_Initialize       0x6544           0x54          84   
.text.SERCOM3_I2C_Initi     0x6598           0x54          84   
.text.SERCOM1_USART_Int     0x65ec           0x54          84   
.text.SERCOM0_USART_Ini     0x6640           0x54          84   
.text.SERCOM0_USART_Int     0x6694           0x54          84   
.text.SUPC_Initialize       0x66e8           0x54          84   
.text.SYS_TIME_RemoveFr     0x673c           0x54          84   
.text.MCP9808_DRIVER_Ca     0x6790           0x54          84   
.rodata.AD9954_DRIVER_T     0x67e4           0x50          80   
.text.__fmt_s               0x6834           0x50          80   
.text.lDRV_I2C_DriverHa     0x6884           0x4c          76   
.text.lDRV_SPI_DriverHa     0x68d0           0x4c          76   
.text.SERCOM1_USART_ISR     0x691c           0x4c          76   
.text.SYS_TIME_TimerSta     0x6968           0x4a          74   
.text                       0x69b4           0x48          72  App's exec code 
.text.lDRV_I2C_ClientCa     0x69fc           0x48          72   
.text.lDRV_USART_Driver     0x6a44           0x48          72   
.text.SHT4X_DRIVER_Calc     0x6a8c           0x48          72   
.text.strstr                0x6ad4           0x48          72   
.text.RTC_Initialize        0x6b1c           0x44          68   
.text.SERCOM3_I2C_Trans     0x6b60           0x44          68   
.text.SERCOM0_USART_Rea     0x6ba4           0x44          68   
.text.TCC0_PWMInitializ     0x6be8           0x44          68   
.text.SYS_Tasks             0x6c2c           0x44          68   
.text.CAN0_DRIVER_Set_M     0x6c70           0x44          68   
.rodata.HDC302X_DRIVER_     0x6cb4           0x44          68   
.text.__aeabi_f2d           0x6cf8           0x44          68   
.text.__aeabi_dcmple        0x6d3c           0x44          68   
.text                       0x6d80           0x44          68  App's exec code 
.text.SYS_TIME_GetTimer     0x6dc4           0x40          64   
.text.SYS_TIME_TimerDes     0x6e04           0x40          64   
.text.SYS_TIME_TimerSto     0x6e44           0x40          64   
.text.FCM360W_DRIVER_Se     0x6e84           0x40          64   
.text.HDC302X_DRIVER_Pr     0x6ec4           0x40          64   
.text.atoi                  0x6f04           0x40          64   
.text                       0x6f44           0x40          64  App's exec code 
.text.lDRV_USART_Remove     0x6f84           0x3e          62   
.text.__aeabi_f2iz          0x6fc2           0x3e          62   
.text.__aeabi_dcmpgt        0x7000           0x3e          62   
.text.__aeabi_dcmplt        0x703e           0x3e          62   
.text.DMAC_ChannelSetti     0x707c           0x3c          60   
.text.PDEC_QDECInitiali     0x70b8           0x3c          60   
.text.SERCOM2_SPI_Initi     0x70f4           0x3c          60   
.text.SERCOM0_USART_ISR     0x7130           0x3c          60   
.text.SYS_INT_SourceDis     0x716c           0x3c          60   
.rodata.drvUsart0InitDa     0x71a8           0x3c          60   
.text.RTC_DRIVER_Print_     0x71e4           0x3c          60   
.rodata.FCM360W_DRIVER_     0x7220           0x3c          60   
.text                       0x725c           0x3c          60  App's exec code 
.text.DRV_I2C_TransferE     0x7298           0x38          56   
.text.DRV_USART_BufferE     0x72d0           0x38          56   
.text.SERCOM3_I2C_Read      0x7308           0x38          56   
.text.SERCOM3_I2C_Write     0x7340           0x38          56   
.text.Console_UART_Read     0x7378           0x38          56   
.text.Console_UART_Writ     0x73b0           0x38          56   
.rodata.SHT4X_DRIVER_Ta     0x73e8           0x38          56   
.text.AD9954_DRIVER_Set     0x7420           0x38          56   
.text.__pic32c_data_ini     0x7458           0x38          56   
.text.DRV_SPI_TransferE     0x7490           0x34          52   
.text.SERCOM3_I2C_Write     0x74c4           0x34          52   
.text.TC0_CaptureInitia     0x74f8           0x34          52   
.text.TC0_CaptureInterr     0x752c           0x34          52   
.text.TCC1_PWMInitializ     0x7560           0x34          52   
.text.SYS_CONSOLE_Messa     0x7594           0x34          52   
.text.SYS_TIME_Resource     0x75c8           0x34          52   
.rodata.drvSPI0InitData     0x75fc           0x34          52   
.rodata.CAN0_DRIVER_Tas     0x7630           0x34          52   
.rodata.CAN0_DRIVER_Pri     0x7664           0x34          52   
.text.FCM360W_DRIVER_Ge     0x7698           0x34          52   
.text.__fmt_state           0x76cc           0x34          52   
.text.__aeabi_d2iz          0x7700           0x34          52   
.text.lDRV_I2C_RemoveCl     0x7734           0x32          50   
.text.RTC_InterruptHand     0x7768           0x30          48   
.text.Console_UART_Writ     0x7798           0x30          48   
.text.Console_UART_Writ     0x77c8           0x30          48   
.text.Console_UART_Read     0x77f8           0x30          48   
.text.Console_UART_Read     0x7828           0x30          48   
.text.SHT4X_DRIVER_Calc     0x7858           0x30          48   
.text.AD9954_DRIVER_Set     0x7888           0x30          48   
.text.AD9954_DRIVER_Set     0x78b8           0x30          48   
.text.AD9954_DRIVER_Set     0x78e8           0x30          48   
.text.MCP9808_DRIVER_Ge     0x7918           0x30          48   
.text.MCP9808_DRIVER_Ge     0x7948           0x30          48   
.text.MCP9808_DRIVER_Ge     0x7978           0x30          48   
.text.__aeabi_dcmpeq        0x79a8           0x2e          46   
.text.__aeabi_d2uiz         0x79d6           0x2e          46   
.text.lDRV_USART_RX_PLI     0x7a04           0x2c          44   
.text.lDRV_USART_RX_DMA     0x7a30           0x2c          44   
.text.lDRV_USART_TX_DMA     0x7a5c           0x2c          44   
.text.CAN0_ErrorGet         0x7a88           0x2c          44   
.text.OSC32KCTRL_Interr     0x7ab4           0x2c          44   
.text.SERCOM0_USART_Err     0x7ae0           0x2c          44   
.rodata.sysConsoleUARTD     0x7b0c           0x2c          44   
.rodata.drvUsart0PlibAP     0x7b38           0x2c          44   
.text.SYSTICK_TimerInte     0x7b64           0x2c          44   
.text.__pop_float           0x7b90           0x2a          42   
.text.__string_out          0x7bba           0x2a          42   
.text.ADC0_InterruptHan     0x7be4           0x28          40   
.text.EIC_CallbackRegis     0x7c0c           0x28          40   
.text.SERCOM0_USART_Rea     0x7c34           0x28          40   
.rodata.drvSPI0remapDat     0x7c5c           0x28          40   
.text.CAN0_DRIVER_Print     0x7c84           0x28          40   
.text.RTC_DRIVER_Initia     0x7cac           0x28          40   
.text.MCP9808_DRIVER_Se     0x7cd4           0x28          40   
.text.SysTick_Handler       0x7cfc           0x28          40   
.text.__aeabi_i2f           0x7d24           0x26          38   
.text.lDRV_USART_Remove     0x7d4a           0x24          36   
.text.AC_Initialize         0x7d70           0x24          36   
.text.SYS_DMA_Addressin     0x7d94           0x24          36   
.text.SYS_TIME_Resource     0x7db8           0x24          36   
.text.SHT4X_DRIVER_Star     0x7ddc           0x24          36   
.rodata.RTC_DRIVER_Prin     0x7e00           0x24          36   
.text.BME690_DRIVER_Ini     0x7e24           0x24          36   
.rodata.APP_Tasks           0x7e48           0x24          36   
.text.SYSTICK_TimerInit     0x7e6c           0x24          36   
.text.__aeabi_f2uiz         0x7e90           0x24          36   
.text.CAN0_RxFifoFillLe     0x7eb4           0x20          32   
.text.SYS_DMA_DataWidth     0x7ed4           0x20          32   
.text.SHT4X_DRIVER_Get_     0x7ef4           0x20          32   
.rodata.RSTC_DRIVER_Tas     0x7f14           0x20          32   
.text.NTC_DRIVER_Initia     0x7f34           0x20          32   
.text.WS281X_DRIVER_Sen     0x7f54           0x20          32   
.text.WDT_Enable            0x7f74           0x20          32   
.text.__aeabi_ui2f          0x7f94           0x1e          30   
.text.__dinit_copy          0x7fb2           0x1e          30   
.text.DRV_I2C_ReadTrans     0x7fd0           0x1c          28   
.text.DRV_I2C_WriteRead     0x7fec           0x1c          28   
.text.ADC0_Enable           0x8008           0x1c          28   
.text.ADC0_ConversionSt     0x8024           0x1c          28   
.text.CCL_Initialize        0x8040           0x1c          28   
.text.DAC_Initialize        0x805c           0x1c          28   
.text.SERCOM1_USART_Wri     0x8078           0x1c          28   
.text.SERCOM1_USART_Rea     0x8094           0x1c          28   
.text.TCC1_PWMStart         0x80b0           0x1c          28   
.text.TCC1_PWMStop          0x80cc           0x1c          28   
.text.SYS_INT_SourceRes     0x80e8           0x1c          28   
.rodata.drvI2C0InitData     0x8104           0x1c          28   
.rodata.drvI2C0PLibAPI      0x8120           0x1c          28   
.rodata.drvUSART0Interr     0x813c           0x1c          28   
.rodata.sysTimePlibAPI      0x8158           0x1c          28   
.text.CAN0_DRIVER_Initi     0x8174           0x1c          28   
.text.SHT4X_DRIVER_I2C_     0x8190           0x1c          28   
.text.AD9954_DRIVER_SPI     0x81ac           0x1c          28   
.text.MCP9808_DRIVER_I2     0x81c8           0x1c          28   
.text.BME690_DRIVER_I2C     0x81e4           0x1c          28   
.text.FCM360W_DRIVER_US     0x8200           0x1c          28   
.text.FCM360W_DRIVER_Re     0x821c           0x1c          28   
.text.HDC302X_DRIVER_I2     0x8238           0x1c          28   
.text.NTC_DRIVER_Calcul     0x8254           0x1c          28   
.rodata.NTC_DRIVER_Task     0x8270           0x1c          28   
.text.SEN6X_DRIVER_I2C_     0x828c           0x1c          28   
.text.WS281X_DRIVER_Ini     0x82a8           0x1c          28   
.text.DRV_I2C_WriteTran     0x82c4           0x1a          26   
.text.FREQM_Initialize      0x82e0           0x18          24   
.text.Console_UART_Init     0x82f8           0x18          24   
.rodata.drvSPI0Interrup     0x8310           0x18          24   
.rodata.drvUsart0remapP     0x8328           0x18          24   
.rodata.sysConsole0UART     0x8340           0x18          24   
.text.SHT4X_DRIVER_Init     0x8358           0x18          24   
.text.RSTC_DRIVER_Print     0x8370           0x18          24   
.text.AD9954_DRIVER_Ini     0x8388           0x18          24   
.rodata.RTC_DRIVER_Task     0x83a0           0x18          24   
.text.MCP9808_DRIVER_St     0x83b8           0x18          24   
.text.MCP9808_DRIVER_St     0x83d0           0x18          24   
.text.MCP9808_DRIVER_St     0x83e8           0x18          24   
.text.MCP9808_DRIVER_In     0x8400           0x18          24   
.text.FCM360W_DRIVER_In     0x8418           0x18          24   
.text.HDC302X_DRIVER_In     0x8430           0x18          24   
.text.SEN6X_DRIVER_Init     0x8448           0x18          24   
.rodata.WS281X_DRIVER_T     0x8460           0x18          24   
.text.strlen                0x8478           0x18          24   
.text.vfprintf              0x8490           0x18          24   
.text                       0x84a8           0x18          24  App's exec code 
.text                       0x84c0           0x18          24  App's exec code 
.text                       0x84d8           0x18          24  App's exec code 
.text.sprintf               0x84f0           0x16          22   
.rodata                     0x8506           0x16          22  Read-only const 
.text.lDRV_I2C_RemoveTr     0x851c           0x14          20   
.text.lDRV_SPI_RemoveTr     0x8530           0x14          20   
.text.CAN0_ErrorCountGe     0x8544           0x14          20   
.text.CAN0_InterruptGet     0x8558           0x14          20   
.text.NVIC_INT_Restore      0x856c           0x14          20   
.text.SERCOM2_SPI_IsTra     0x8580           0x14          20   
.text.SERCOM1_USART_Rea     0x8594           0x14          20   
.text.SERCOM1_USART_Wri     0x85a8           0x14          20   
.text.Console_UART_Stat     0x85bc           0x14          20   
.rodata.drvI2C0Interrup     0x85d0           0x14          20   
.rodata.drvUsart0remapD     0x85e4           0x14          20   
.rodata.RSTC_DRIVER_Pri     0x85f8           0x14          20   
.text.RTC_DRIVER_Alarm_     0x860c           0x14          20   
.text.FAN_DRIVER_Tasks      0x8620           0x14          20   
.text.XM125_DRIVER_Task     0x8634           0x14          20   
.text.WS281X_DRIVER_DMA     0x8648           0x14          20   
.text.APP_Initialize        0x865c           0x14          20   
.text.SYSTICK_TimerStar     0x8670           0x14          20   
.text.SYSTICK_TimerInte     0x8684           0x14          20   
.text.WDT_TimeoutPeriod     0x8698           0x14          20   
.text.WDT_Clear             0x86ac           0x14          20   
.rodata                     0x86c0           0x14          20  Read-only const 
.text.memcpy                0x86d4           0x14          20   
.text.memset                0x86e8           0x14          20   
.text.strchr                0x86fc           0x14          20   
.text.vsprintf              0x8710           0x14          20   
.text.stpcpy                0x8724           0x14          20   
.text.DRV_SPI_WriteTran     0x8738           0x12          18   
.text.EVSYS_Initialize      0x874a           0x12          18   
.text.NVIC_INT_Disable      0x875c           0x12          18   
.text.__dinit_clear         0x876e           0x12          18   
.text.DRV_USART_WriteBu     0x8780           0x10          16   
.text.DRV_USART_ReadBuf     0x8790           0x10          16   
.text.DMAC_ChannelCallb     0x87a0           0x10          16   
.text.DMAC_ChannelSetti     0x87b0           0x10          16   
.text.PM_Initialize         0x87c0           0x10          16   
.text.SERCOM3_I2C_Error     0x87d0           0x10          16   
.text.SERCOM0_USART_Err     0x87e0           0x10          16   
.text.SERCOM0_USART_Rea     0x87f0           0x10          16   
.rodata.drvSPI0PlibAPI      0x8800           0x10          16   
.text.RTC_DRIVER_XOSC32     0x8810           0x10          16   
.text.RTC_DRIVER_Get_Sy     0x8820           0x10          16   
.rodata.FCM360W_DRIVER_     0x8830           0x10          16   
.text.NTC_DRIVER_Callba     0x8840           0x10          16   
.text.TIMER_DRIVER_Star     0x8850           0x10          16   
.text.TIMER_DRIVER_Stop     0x8860           0x10          16   
.text.TIMER_DRIVER_Star     0x8870           0x10          16   
.text.TIMER_DRIVER_Stop     0x8880           0x10          16   
.text.TIMER_DRIVER_Star     0x8890           0x10          16   
.text.TIMER_DRIVER_Stop     0x88a0           0x10          16   
.text.SYSTICK_TimerStop     0x88b0           0x10          16   
.text.__aeabi_fsub          0x88c0           0x10          16   
.rodata.str1.1              0x88d0           0x10          16   
.rodata.str1.1              0x88e0           0x10          16   
.text.fma                   0x88f0           0x10          16   
.text.__aeabi_dsub          0x8900           0x10          16   
.text.lDRV_USART_TX_PLI     0x8910            0xe          14   
.text.main                  0x891e            0xe          14   
.text.SYSTICK_TimerInte     0x892c            0xe          14   
.text.tolower               0x893a            0xe          14   
.text.toupper               0x8948            0xe          14   
.text.ADC0_ConversionRe     0x8958            0xc          12   
.text.ADC0_CallbackRegi     0x8964            0xc          12   
.text.CAN0_InterruptCle     0x8970            0xc          12   
.text.OSC32KCTRL_Callba     0x897c            0xc          12   
.text.NVMCTRL_Initializ     0x8988            0xc          12   
.text.RSTC_ResetCauseGe     0x8994            0xc          12   
.text.RTC_RTCCCallbackR     0x89a0            0xc          12   
.text.SERCOM3_I2C_Callb     0x89ac            0xc          12   
.text.SERCOM2_SPI_Callb     0x89b8            0xc          12   
.text.SERCOM0_USART_Wri     0x89c4            0xc          12   
.text.SERCOM0_USART_Wri     0x89d0            0xc          12   
.text.SERCOM0_USART_Wri     0x89dc            0xc          12   
.text.SERCOM0_USART_Rea     0x89e8            0xc          12   
.text.SERCOM0_USART_Rea     0x89f4            0xc          12   
.rodata.drvUsart0remapE     0x8a00            0xc          12   
.rodata.drvUsart0remapS     0x8a0c            0xc          12   
.rodata.sysConsole0Init     0x8a18            0xc          12   
.text.CAN0_DRIVER_Set_T     0x8a24            0xc          12   
.text.CAN0_DRIVER_Get_T     0x8a30            0xc          12   
.text.CAN0_DRIVER_Set_T     0x8a3c            0xc          12   
.text.RSTC_DRIVER_Initi     0x8a48            0xc          12   
.text.BME690_DRIVER_Ale     0x8a54            0xc          12   
.text.CONSOLE_DRIVER_Se     0x8a60            0xc          12   
.text.CONSOLE_DRIVER_Ge     0x8a6c            0xc          12   
.text.CONSOLE_DRIVER_Se     0x8a78            0xc          12   
.text.CONSOLE_DRIVER_In     0x8a84            0xc          12   
.text.HDC302X_DRIVER_Se     0x8a90            0xc          12   
.text.HDC302X_DRIVER_Ge     0x8a9c            0xc          12   
.text.HDC302X_DRIVER_Se     0x8aa8            0xc          12   
.text.FAN_DRIVER_Initia     0x8ab4            0xc          12   
.text.Main_TMR_Callback     0x8ac0            0xc          12   
.text.Bus_TMR_Callback      0x8acc            0xc          12   
.text.Wait_TMR_Callback     0x8ad8            0xc          12   
.text.TIMER_DRIVER_Get_     0x8ae4            0xc          12   
.text.TIMER_DRIVER_Set_     0x8af0            0xc          12   
.text.TIMER_DRIVER_Get_     0x8afc            0xc          12   
.text.TIMER_DRIVER_Set_     0x8b08            0xc          12   
.text.TIMER_DRIVER_Get_     0x8b14            0xc          12   
.text.XM125_DRIVER_Init     0x8b20            0xc          12   
.text.SYSTICK_TimerPeri     0x8b2c            0xc          12   
.text.SYSTICK_TimerCall     0x8b38            0xc          12   
.text.strcpy                0x8b44            0xc          12   
.text.SERCOM1_USART_Wri     0x8b50            0x8           8   
.text.SYS_INT_Disable       0x8b58            0x8           8   
.text.SYS_INT_Restore       0x8b60            0x8           8   
.rodata.drvSPI0remapClo     0x8b68            0x8           8   
.rodata.drvSPI0remapClo     0x8b70            0x8           8   
.rodata.sysTimeInitData     0x8b78            0x8           8   
.text.TC0_5_Handler         0x8b80            0x8           8   
.text.SYSTEM_Handler        0x8b88            0x8           8   
.text.SYSTICK_TimerFreq     0x8b90            0x8           8   
.rodata.str1.1              0x8b98            0x8           8   
.rodata.str1.1              0x8ba0            0x7           7   
.text.PORT_GroupSet         0x8ba8            0x4           4   
.text.PORT_GroupClear       0x8bac            0x4           4   
.text.Console_UART_Flus     0x8bb0            0x4           4   
.rodata.sysConsole0UART     0x8bb4            0x4           4   
.rodata.FCM360W_DRIVER_     0x8bb8            0x4           4   
.rodata.CONSOLE_DRIVER_     0x8bbc            0x4           4   
.text.__dummy_decompres     0x8bc0            0x4           4   
.text                       0x8bc4            0x4           4  App's exec code 
      Total ROM used  :      0x8bb1       35761  6.8% of 0x80000
        --------------------------------------------------------------------------
         Total Program Memory used  :      0x8bb1       35761  6.8% of 0x80000
        --------------------------------------------------------------------------


RAM Data-Memory Usage
section                    address  length [bytes]      (dec)  Description
-------                 ----------  -------------------------  -----------
.bss.can0_driverData    0x20000000         0x5b40       23360   
.bss.consolePrintBuffer 0x20005b40         0x2000        8192   
.bss.SERCOM1_USART_Read 0x20007b40         0x1000        4096   
.bss.SERCOM1_USART_Writ 0x20008b40         0x1000        4096   
.bss.ws281x_driverData  0x20009b40          0x788        1928   
.bss.timers             0x2000a2c8          0x640        1600   
.bss.fcm360w_driverData 0x2000a908          0x214         532   
.bss.eicCallbackObject  0x2000ab1c           0xc0         192   
.bss.rtc_driverData     0x2000abdc           0x90         144   
.bss.gDrvSPIObj         0x2000ac6c           0x74         116   
.bss.gDrvUSARTObj       0x2000ace0           0x60          96   
.bss.descriptor_section 0x2000ad40           0x50          80   
.bss.dmacChannelObj     0x2000ad90           0x50          80   
.bss.write_back_section 0x2000ade0           0x50          80   
.bss.ad9954_driverData  0x2000ae30           0x50          80   
.bss                    0x2000ae80           0x50          80  Uninitialized data 
.bss.sercom1USARTObj    0x2000aed0           0x40          64   
.bss.can0DataTx         0x2000af10           0x40          64   
.bss.gDrvI2CObj         0x2000af50           0x3c          60   
.bss.sercom0USARTObj    0x2000af8c           0x30          48   
.bss.txDummyData        0x2000afbc            0x4           4   
.bss.gSystemCounterObj  0x2000afc0           0x30          48   
.bss.sercom3I2CObj      0x2000aff0           0x2c          44   
.bss.sercom2SPIObj      0x2000b01c           0x2c          44   
.bss.drvI2C0TransferObj 0x2000b048           0x2c          44   
.bss.drvSPI0ClientObjPo 0x2000b074           0x28          40   
.bss.mcp9808_driverData 0x2000b09c           0x28          40   
.bss.drvSPI0TransferObj 0x2000b0c4           0x24          36   
.bss.drvUSART0BufferObj 0x2000b0e8           0x24          36   
.bss.hdc302x_driverData 0x2000b10c           0x24          36   
.bss.hdc302x_sensorData 0x2000b130           0x24          36   
.bss.sen6x_driverData   0x2000b154           0x24          36   
.bss.sht4x_driverData   0x2000b178           0x20          32   
.bss.bme690_driverData  0x2000b198           0x20          32   
.bss                    0x2000b1b8           0x1c          28  Uninitialized data 
.bss.can0Obj            0x2000b1d4           0x1c          28   
.bss.drvI2C0ClientObjPo 0x2000b1f0           0x18          24   
.bss.sysObj             0x2000b208           0x14          20   
.bss.sht4x_sensorData   0x2000b21c           0x14          20   
.bss.drvUSART0ClientObj 0x2000b230           0x10          16   
.bss.mcp9808_sensorData 0x2000b240           0x10          16   
.bss.timer_driverData   0x2000b250           0x10          16   
.bss.rtcObj             0x2000b260            0xc          12   
.bss.consoleDeviceInsta 0x2000b26c            0xc          12   
.bss.console_driverData 0x2000b278            0xc          12   
.bss.systick            0x2000b284            0xc          12   
.bss.ADC0_CallbackObjec 0x2000b290            0x8           8   
.bss.osc32kctrlObj      0x2000b298            0x8           8   
.bss.TC0_CallbackObject 0x2000b2a0            0x8           8   
.bss.gConsoleUartData   0x2000b2a8            0x8           8   
.bss.ntc_sensorData     0x2000b2b0            0x8           8   
.bss.appData            0x2000b2b8            0x5           5   
.bss.isLastByteTransfer 0x2000b2bd            0x1           1   
.bss.consolePrintBuffer 0x2000b2be            0x1           1   
.bss.isConsoleMutexCrea 0x2000b2bf            0x1           1   
.bss.rstc_driverData    0x2000b2c0            0x4           4   
.bss.ntc_driverData     0x2000b2c4            0x4           4   
.bss                    0x2000b2c8            0x4           4  Uninitialized data 
.bss                    0x2000b2cc            0x4           4  Uninitialized data 
.bss                    0x2000b2d0            0x4           4  Uninitialized data 
.bss.xm125_driverData   0x2000b2d4            0x1           1   
.data.gSysTimeTokenCoun 0x2000b2d6            0x2           2   
.bss.fan_driverData     0x2000b2d8            0x1           1   
         Total RAM used  :      0xb2d8       45784  69.9% of 0x10000
        --------------------------------------------------------------------------
            Total Data Memory used  :      0xb2d8       45784  69.9% of 0x10000
        --------------------------------------------------------------------------


Dynamic Data-Memory Reservation
section                    address  length [bytes]      (dec)  Description
-------                 ----------  -------------------------  -----------
heap                    0x2000b2e0          0x200         512  Reserved for heap 
stack                   0x2000b4f8         0x4af8       19192  Reserved for stack 

        --------------------------------------------------------------------------

Microchip PIC32 Memory-Usage Report By Module

        text        data         bss         dec         hex    basename                     filename
--------------------------------------------------------------------------------
         856           0       23424       24280        5ed8    can0_driver.o            build/default/production/_ext/1360937237/can0_driver.o
        1268           0        8256        9524        2534    plib_sercom1_usart.o     build/default/production/_ext/504274921/plib_sercom1_usart.o
         264           0        8206        8470        2116    sys_console.o            build/default/production/_ext/1832805299/sys_console.o
        2924           0         120        3044         be4    drv_spi.o                build/default/production/_ext/2070931557/drv_spi.o
        1242           2        1648        2892         b4c    sys_time.o               build/default/production/_ext/101884895/sys_time.o
        2202           0          96        2298         8fa    drv_usart.o              build/default/production/_ext/869808652/drv_usart.o
         356           0        1928        2284         8ec    ws281x_driver.o          build/default/production/_ext/1360937237/ws281x_driver.o
        1974           0          60        2034         7f2    drv_i2c.o                build/default/production/_ext/158385033/drv_i2c.o
         772           0         532        1304         518    fcm360w_driver.o         build/default/production/_ext/1360937237/fcm360w_driver.o
        1232           0           0        1232         4d0    __fmt_fp.o               libc-musl.a
        1160           0          48        1208         4b8    plib_sercom0_usart.o     build/default/production/_ext/504274921/plib_sercom0_usart.o
        1152           0          56        1208         4b8    mcp9808_driver.o         build/default/production/_ext/1360937237/mcp9808_driver.o
        1152           0          44        1196         4ac    plib_sercom3_i2c_master.obuild/default/production/_ext/508257091/plib_sercom3_i2c_master.o
        1172           0           0        1172         494    __fmt_a.o                libc-musl.a
        1088           0          80        1168         490    ad9954_driver.o          build/default/production/_ext/1360937237/ad9954_driver.o
        1074           0           0        1074         432    __printf_core.o          libc-musl.a
         968           0          45        1013         3f5    plib_sercom2_spi_master.obuild/default/production/_ext/17022449/plib_sercom2_spi_master.o
         764           0         216         980         3d4    initialization.o         build/default/production/_ext/1171490990/initialization.o
         624           0         240         864         360    plib_dmac.o              build/default/production/_ext/1865161661/plib_dmac.o
         728           0          52         780         30c    sht4x_driver.o           build/default/production/_ext/1360937237/sht4x_driver.o
         716           0          28         744         2e8    plib_can0.o              build/default/production/_ext/60165182/plib_can0.o
         672           0           0         672         2a0    data_init                data_init
         316           0         192         508         1fc    plib_eic.o               build/default/production/_ext/60167341/plib_eic.o
         496           0           8         504         1f8    plib_clock.o             build/default/production/_ext/1984496892/plib_clock.o
         328           0         144         472         1d8    rtc_driver.o             build/default/production/_ext/1360937237/rtc_driver.o
         456           0           0         456         1c8    __aeabi_dadd.o           libm-fast-emfloat.a
         340           0          72         412         19c    hdc302x_driver.o         build/default/production/_ext/1360937237/hdc302x_driver.o
         398           0           8         406         196    sys_console_uart.o       build/default/production/_ext/1832805299/sys_console_uart.o
         394           0           0         394         18a    __aeabi_dmul_aux.o       libm-fast-emfloat.a
         352           0           4         356         164    rstc_driver.o            build/default/production/_ext/1360937237/rstc_driver.o
         328           0           5         333         14d    app.o                    build/default/production/_ext/1360937237/app.o
         314           0           0         314         13a    __aeabi_fadd.o           libm-fast-emfloat.a
         292           0          16         308         134    timer_driver.o           build/default/production/_ext/1360937237/timer_driver.o
         306           0           0         306         132    __fmt_x.o                libc-musl.a
         258           0           0         258         102    plib_nvic.o              build/default/production/_ext/1865468468/plib_nvic.o
         232           0          12         244          f4    ntc_driver.o             build/default/production/_ext/1360937237/ntc_driver.o
         224           0          12         236          ec    plib_rtc_clock.o         build/default/production/_ext/60180175/plib_rtc_clock.o
         222           0          12         234          ea    plib_systick.o           build/default/production/_ext/1827571544/plib_systick.o
         234           0           0         234          ea    _udivmoddi4.o            libgcc.a
         196           0          32         228          e4    bme690_driver.o          build/default/production/_ext/1360937237/bme690_driver.o
         204           0           8         212          d4    plib_adc0.o              build/default/production/_ext/60163342/plib_adc0.o
         210           0           0         210          d2    interrupts.o             build/default/production/_ext/1171490990/interrupts.o
         172           0          36         208          d0    sen6x_driver.o           build/default/production/_ext/1360937237/sen6x_driver.o
         206           0           0         206          ce    startup_xc32.o           build/default/production/_ext/1171490990/startup_xc32.o
         196           0           0         196          c4    __aeabi_ddiv.o           libm-fast-emfloat.a
         190           0           0         190          be    __pop_int.o              libc-musl.a
         182           0           0         182          b6    __aeabi_fmul.o           libm-fast-emfloat.a
         180           0           0         180          b4    floor.o                  libm-fast-emfloat.a
         178           0           0         178          b2    __fmt_d.o                libc-musl.a
         168           0           0         168          a8    _divsi3.o                libgcc.a
         148           0          12         160          a0    console_driver.o         build/default/production/_ext/1360937237/console_driver.o
         148           0           0         148          94    __aeabi_fdiv.o           libm-fast-emfloat.a
         140           0           0         140          8c    _udivsi3.o               libgcc.a
         118           0           0         118          76    __cvt_u.o                libc-musl.a
         104           0           8         112          70    plib_tc0.o               build/default/production/_ext/829342655/plib_tc0.o
         110           0           0         110          6e    __fmt_o.o                libc-musl.a
          80           0          28         108          6c    crtbegin.o               c:/applications/microchip/xc32/bin/bin/../../lib/gcc/pic32c/8.3.1/thumb/v6-m/nofp/crtbegin.o
         108           0           0         108          6c    plib_tcc1.o              build/default/production/_ext/60181570/plib_tcc1.o
         104           0           0         104          68    sys_int.o                build/default/production/_ext/1881668453/sys_int.o
         104           0           0         104          68    __pop_ptr.o              libc-musl.a
         100           0           0         100          64    vsnprintf.o              libc-musl.a
          98           0           0          98          62    __aeabi_d2f.o            libm-fast-emfloat.a
          96           0           0          96          60    strchrnul.o              libc-size-musl.a
          94           0           0          94          5e    __libc_start_main.o      libc-musl.a
          87           0           0          87          57    __fmt_s.o                libc-musl.a
          82           0           4          86          56    data_init.o              libpic32c.a
          86           0           0          86          56    __fmt_u.o                libc-musl.a
          84           0           0          84          54    plib_supc.o              build/default/production/_ext/1865616679/plib_supc.o
           0           0          80          80          50    libc.o                   libc-musl.a
          72           0           0          72          48    plib_wdt.o               build/default/production/_ext/60184501/plib_wdt.o
          72           0           0          72          48    strstr.o                 libc-size-musl.a
          68           0           0          68          44    plib_tcc0.o              build/default/production/_ext/60181570/plib_tcc0.o
          68           0           0          68          44    sys_dma.o                build/default/production/_ext/14461671/sys_dma.o
          68           0           0          68          44    _muldi3.o                libgcc.a
          68           0           0          68          44    tasks.o                  build/default/production/_ext/1171490990/tasks.o
          68           0           0          68          44    __aeabi_f2d.o            libm-fast-emfloat.a
          68           0           0          68          44    __aeabi_dcmple.o         libm-fast-emfloat.a
          64           0           0          64          40    atoi.o                   libc-musl.a
          64           0           0          64          40    _aeabi_uldivmod.o        libgcc.a
          62           0           0          62          3e    __aeabi_dcmplt.o         libm-fast-emfloat.a
          62           0           0          62          3e    __aeabi_f2iz.o           libm-fast-emfloat.a
          62           0           0          62          3e    __aeabi_dcmpgt.o         libm-fast-emfloat.a
          60           0           0          60          3c    plib_pdec.o              build/default/production/_ext/1865510628/plib_pdec.o
          60           0           0          60          3c    _clzsi2.o                libgcc.a
          52           0           0          52          34    __aeabi_d2iz.o           libm-fast-emfloat.a
          46           0           0          46          2e    __aeabi_dcmpeq.o         libm-fast-emfloat.a
          46           0           0          46          2e    __aeabi_d2uiz.o          libm-fast-emfloat.a
          42           0           0          42          2a    __pop_float.o            libc-musl.a
          38           0           0          38          26    __aeabi_i2f.o            libm-fast-emfloat.a
          36           0           0          36          24    __aeabi_f2uiz.o          libm-fast-emfloat.a
          36           0           0          36          24    plib_ac.o                build/default/production/_ext/829343244/plib_ac.o
          32           0           1          33          21    fan_driver.o             build/default/production/_ext/1360937237/fan_driver.o
          32           0           1          33          21    xm125_driver.o           build/default/production/_ext/1360937237/xm125_driver.o
          30           0           0          30          1e    __aeabi_ui2f.o           libm-fast-emfloat.a
          30           0           0          30          1e    pic32_data_init_copy.o   libpic32c.a
          28           0           0          28          1c    plib_ccl.o               build/default/production/_ext/60165242/plib_ccl.o
          28           0           0          28          1c    plib_dac.o               build/default/production/_ext/60166132/plib_dac.o
          24           0           0          24          18    _lshrdi3.o               libgcc.a
          24           0           0          24          18    _ashldi3.o               libgcc.a
          24           0           0          24          18    plib_freqm.o             build/default/production/_ext/1987437027/plib_freqm.o
          24           0           0          24          18    strlen.o                 libc-size-musl.a
          24           0           0          24          18    _clzdi2.o                libgcc.a
          24           0           0          24          18    vfprintf.o               libc-musl.a
          22           0           0          22          16    sprintf.o                libc-musl.a
          20           0           0          20          14    stpcpy.o                 libc-size-musl.a
          20           0           0          20          14    memset.o                 libc-size-musl.a
          20           0           0          20          14    memcpy.o                 libc-size-musl.a
          20           0           0          20          14    strchr.o                 libc-size-musl.a
          20           0           0          20          14    vsprintf.o               libc-musl.a
          18           0           0          18          12    pic32_data_init_clear.o  libpic32c.a
          18           0           0          18          12    plib_evsys.o             build/default/production/_ext/1986646378/plib_evsys.o
          16           0           0          16          10    __aeabi_dsub.o           libm-fast-emfloat.a
          16           0           0          16          10    plib_pm.o                build/default/production/_ext/829342769/plib_pm.o
          16           0           0          16          10    fma.o                    libm-fast-emfloat.a
          16           0           0          16          10    __aeabi_fsub.o           libm-fast-emfloat.a
          16           0           0          16          10    crtn.o                   c:/applications/microchip/xc32/bin/bin/../../lib/gcc/pic32c/8.3.1/thumb/v6-m/nofp/crtn.o
          14           0           0          14           e    toupper.o                libc-musl.a
          14           0           0          14           e    tolower.o                libc-musl.a
          14           0           0          14           e    main.o                   build/default/production/_ext/1360937237/main.o
          12           0           0          12           c    plib_nvmctrl.o           build/default/production/_ext/1593096446/plib_nvmctrl.o
          12           0           0          12           c    plib_rstc.o              build/default/production/_ext/1865585090/plib_rstc.o
          12           0           0          12           c    strcpy.o                 libc-size-musl.a
           8           0           0           8           8    crti.o                   c:/applications/microchip/xc32/bin/bin/../../lib/gcc/pic32c/8.3.1/thumb/v6-m/nofp/crti.o
           8           0           0           8           8    plib_port.o              build/default/production/_ext/1865521619/plib_port.o
           4           0           0           4           4    _dvmd_tls.o              libgcc.a
           4           0           0           4           4    exceptions.o             build/default/production/_ext/1171490990/exceptions.o
           0           0           4           4           4    __errno_location.o       libc-musl.a
           0           0           4           4           4    __environ.o              libc-musl.a
--------------------------------------------------------------------------------
       35769           2       45782       81553       13e91    dist/default/production/PIC32CMxxxxJH01_DRIVER.X.production.elf


Discarded input sections

 .text          0x0000000000000000        0x0 c:/applications/microchip/xc32/bin/bin/../../lib/gcc/pic32c/8.3.1/thumb/v6-m/nofp/crti.o
 .data          0x0000000000000000        0x0 c:/applications/microchip/xc32/bin/bin/../../lib/gcc/pic32c/8.3.1/thumb/v6-m/nofp/crti.o
 .bss           0x0000000000000000        0x0 c:/applications/microchip/xc32/bin/bin/../../lib/gcc/pic32c/8.3.1/thumb/v6-m/nofp/crti.o
 .xc_stack_usage.hdr
                0x0000000000000000        0xe c:/applications/microchip/xc32/bin/bin/../../lib/gcc/pic32c/8.3.1/thumb/v6-m/nofp/crti.o
 .xc_stack_usage
                0x0000000000000000       0x26 c:/applications/microchip/xc32/bin/bin/../../lib/gcc/pic32c/8.3.1/thumb/v6-m/nofp/crti.o
 .data          0x0000000000000000        0x4 c:/applications/microchip/xc32/bin/bin/../../lib/gcc/pic32c/8.3.1/thumb/v6-m/nofp/crtbegin.o
 .xc_stack_usage
                0x0000000000000000       0x3c c:/applications/microchip/xc32/bin/bin/../../lib/gcc/pic32c/8.3.1/thumb/v6-m/nofp/crtbegin.o
 .xc_stack_usage.hdr
                0x0000000000000000        0xe c:/applications/microchip/xc32/bin/bin/../../lib/gcc/pic32c/8.3.1/thumb/v6-m/nofp/crtbegin.o
 .text          0x0000000000000000        0x0 build/default/production/_ext/158385033/drv_i2c.o
 .data          0x0000000000000000        0x0 build/default/production/_ext/158385033/drv_i2c.o
 .bss           0x0000000000000000        0x0 build/default/production/_ext/158385033/drv_i2c.o
 .text.DRV_I2C_Status
                0x0000000000000000       0x14 build/default/production/_ext/158385033/drv_i2c.o
 .text.DRV_I2C_TransferSetup
                0x0000000000000000       0x1e build/default/production/_ext/158385033/drv_i2c.o
 .text.DRV_I2C_ErrorGet
                0x0000000000000000       0x54 build/default/production/_ext/158385033/drv_i2c.o
 .text.DRV_I2C_QueuePurge
                0x0000000000000000       0x80 build/default/production/_ext/158385033/drv_i2c.o
 .text.DRV_I2C_TransferStatusGet
                0x0000000000000000       0x58 build/default/production/_ext/158385033/drv_i2c.o
 .text          0x0000000000000000        0x0 build/default/production/_ext/2070931557/drv_spi.o
 .data          0x0000000000000000        0x0 build/default/production/_ext/2070931557/drv_spi.o
 .bss           0x0000000000000000        0x0 build/default/production/_ext/2070931557/drv_spi.o
 .text.DRV_SPI_Status
                0x0000000000000000       0x14 build/default/production/_ext/2070931557/drv_spi.o
 .text.DRV_SPI_TransferSetup
                0x0000000000000000       0x2e build/default/production/_ext/2070931557/drv_spi.o
 .text.DRV_SPI_ReadTransferAdd
                0x0000000000000000       0x16 build/default/production/_ext/2070931557/drv_spi.o
 .text.DRV_SPI_TransferStatusGet
                0x0000000000000000       0x40 build/default/production/_ext/2070931557/drv_spi.o
 .text.DRV_SPI_Lock
                0x0000000000000000       0xc0 build/default/production/_ext/2070931557/drv_spi.o
 .text          0x0000000000000000        0x0 build/default/production/_ext/869808652/drv_usart.o
 .data          0x0000000000000000        0x0 build/default/production/_ext/869808652/drv_usart.o
 .bss           0x0000000000000000        0x0 build/default/production/_ext/869808652/drv_usart.o
 .text.lDRV_USART_GetDriverObj
                0x0000000000000000       0x1c build/default/production/_ext/869808652/drv_usart.o
 .text.lDRV_USART_GetTransferObj
                0x0000000000000000       0x32 build/default/production/_ext/869808652/drv_usart.o
 .text.lDRV_USART_ReadAbort
                0x0000000000000000       0x3a build/default/production/_ext/869808652/drv_usart.o
 .text.lDRV_USART_QueuePurge
                0x0000000000000000       0x4c build/default/production/_ext/869808652/drv_usart.o
 .text.DRV_USART_Status
                0x0000000000000000       0x14 build/default/production/_ext/869808652/drv_usart.o
 .text.DRV_USART_ErrorGet
                0x0000000000000000       0x3a build/default/production/_ext/869808652/drv_usart.o
 .text.DRV_USART_SerialSetup
                0x0000000000000000       0xb8 build/default/production/_ext/869808652/drv_usart.o
 .text.DRV_USART_BufferCompletedBytesGet
                0x0000000000000000       0x68 build/default/production/_ext/869808652/drv_usart.o
 .text.DRV_USART_BufferStatusGet
                0x0000000000000000       0x52 build/default/production/_ext/869808652/drv_usart.o
 .text.DRV_USART_WriteQueuePurge
                0x0000000000000000        0xa build/default/production/_ext/869808652/drv_usart.o
 .text.DRV_USART_ReadQueuePurge
                0x0000000000000000        0xa build/default/production/_ext/869808652/drv_usart.o
 .text.DRV_USART_ReadAbort
                0x0000000000000000       0x44 build/default/production/_ext/869808652/drv_usart.o
 .text          0x0000000000000000        0x0 build/default/production/_ext/829343244/plib_ac.o
 .data          0x0000000000000000        0x0 build/default/production/_ext/829343244/plib_ac.o
 .bss           0x0000000000000000        0x0 build/default/production/_ext/829343244/plib_ac.o
 .text.AC_Start
                0x0000000000000000       0x14 build/default/production/_ext/829343244/plib_ac.o
 .text.AC_SetVddScalar
                0x0000000000000000       0x10 build/default/production/_ext/829343244/plib_ac.o
 .text.AC_SwapInputs
                0x0000000000000000       0x38 build/default/production/_ext/829343244/plib_ac.o
 .text.AC_ChannelSelect
                0x0000000000000000       0x44 build/default/production/_ext/829343244/plib_ac.o
 .text.AC_StatusGet
                0x0000000000000000       0x28 build/default/production/_ext/829343244/plib_ac.o
 .text.AC_CallbackRegister
                0x0000000000000000        0xc build/default/production/_ext/829343244/plib_ac.o
 .bss.acObj     0x0000000000000000        0xc build/default/production/_ext/829343244/plib_ac.o
 .text          0x0000000000000000        0x0 build/default/production/_ext/60163342/plib_adc0.o
 .data          0x0000000000000000        0x0 build/default/production/_ext/60163342/plib_adc0.o
 .bss           0x0000000000000000        0x0 build/default/production/_ext/60163342/plib_adc0.o
 .text.ADC0_Disable
                0x0000000000000000       0x1c build/default/production/_ext/60163342/plib_adc0.o
 .text.ADC0_ChannelSelect
                0x0000000000000000       0x18 build/default/production/_ext/60163342/plib_adc0.o
 .text.ADC0_ConversionSequenceIsFinished
                0x0000000000000000       0x10 build/default/production/_ext/60163342/plib_adc0.o
 .text.ADC0_ComparisonWindowSet
                0x0000000000000000       0x20 build/default/production/_ext/60163342/plib_adc0.o
 .text.ADC0_WindowModeSet
                0x0000000000000000       0x24 build/default/production/_ext/60163342/plib_adc0.o
 .text.ADC0_InterruptsClear
                0x0000000000000000        0xc build/default/production/_ext/60163342/plib_adc0.o
 .text.ADC0_InterruptsEnable
                0x0000000000000000        0xc build/default/production/_ext/60163342/plib_adc0.o
 .text.ADC0_InterruptsDisable
                0x0000000000000000        0xc build/default/production/_ext/60163342/plib_adc0.o
 .text          0x0000000000000000        0x0 build/default/production/_ext/60165182/plib_can0.o
 .data          0x0000000000000000        0x0 build/default/production/_ext/60165182/plib_can0.o
 .bss           0x0000000000000000        0x0 build/default/production/_ext/60165182/plib_can0.o
 .text.CAN0_TxFifoFreeLevelGet
                0x0000000000000000       0x10 build/default/production/_ext/60165182/plib_can0.o
 .text.CAN0_TxBufferIsBusy
                0x0000000000000000       0x14 build/default/production/_ext/60165182/plib_can0.o
 .text.CAN0_TxEventFifoRead
                0x0000000000000000       0x64 build/default/production/_ext/60165182/plib_can0.o
 .text.CAN0_TxEventFifoFillLevelGet
                0x0000000000000000       0x10 build/default/production/_ext/60165182/plib_can0.o
 .text.CAN0_SleepModeEnter
                0x0000000000000000       0x1c build/default/production/_ext/60165182/plib_can0.o
 .text.CAN0_SleepModeExit
                0x0000000000000000       0x30 build/default/production/_ext/60165182/plib_can0.o
 .text.CAN0_BitTimingCalculationGet
                0x0000000000000000       0xf0 build/default/production/_ext/60165182/plib_can0.o
 .text.CAN0_BitTimingSet
                0x0000000000000000      0x100 build/default/production/_ext/60165182/plib_can0.o
 .text          0x0000000000000000        0x0 build/default/production/_ext/60165242/plib_ccl.o
 .data          0x0000000000000000        0x0 build/default/production/_ext/60165242/plib_ccl.o
 .bss           0x0000000000000000        0x0 build/default/production/_ext/60165242/plib_ccl.o
 .text          0x0000000000000000        0x0 build/default/production/_ext/1984496892/plib_clock.o
 .data          0x0000000000000000        0x0 build/default/production/_ext/1984496892/plib_clock.o
 .bss           0x0000000000000000        0x0 build/default/production/_ext/1984496892/plib_clock.o
 .text          0x0000000000000000        0x0 build/default/production/_ext/60166132/plib_dac.o
 .data          0x0000000000000000        0x0 build/default/production/_ext/60166132/plib_dac.o
 .bss           0x0000000000000000        0x0 build/default/production/_ext/60166132/plib_dac.o
 .text.DAC_DataWrite
                0x0000000000000000       0x18 build/default/production/_ext/60166132/plib_dac.o
 .text.DAC_IsReady
                0x0000000000000000       0x10 build/default/production/_ext/60166132/plib_dac.o
 .text          0x0000000000000000        0x0 build/default/production/_ext/1985337713/plib_divas.o
 .data          0x0000000000000000        0x0 build/default/production/_ext/1985337713/plib_divas.o
 .bss           0x0000000000000000        0x0 build/default/production/_ext/1985337713/plib_divas.o
 .text.DIVAS_SquareRoot
                0x0000000000000000       0x2a build/default/production/_ext/1985337713/plib_divas.o
 .text.DIVAS_DivSigned
                0x0000000000000000       0x38 build/default/production/_ext/1985337713/plib_divas.o
 .text.DIVAS_DivUnsigned
                0x0000000000000000       0x36 build/default/production/_ext/1985337713/plib_divas.o
 .text.DIVAS_DivmodSigned
                0x0000000000000000       0x3a build/default/production/_ext/1985337713/plib_divas.o
 .text.DIVAS_DivmodUnsigned
                0x0000000000000000       0x38 build/default/production/_ext/1985337713/plib_divas.o
 .debug_info    0x0000000000000000      0x7ec build/default/production/_ext/1985337713/plib_divas.o
 .debug_abbrev  0x0000000000000000      0x1fd build/default/production/_ext/1985337713/plib_divas.o
 .debug_loc     0x0000000000000000      0x48c build/default/production/_ext/1985337713/plib_divas.o
 .debug_aranges
                0x0000000000000000       0x40 build/default/production/_ext/1985337713/plib_divas.o
 .debug_ranges  0x0000000000000000       0x30 build/default/production/_ext/1985337713/plib_divas.o
 .debug_line    0x0000000000000000      0x4ec build/default/production/_ext/1985337713/plib_divas.o
 .debug_str     0x0000000000000000      0x489 build/default/production/_ext/1985337713/plib_divas.o
 .comment       0x0000000000000000       0x2c build/default/production/_ext/1985337713/plib_divas.o
 .debug_frame   0x0000000000000000       0x94 build/default/production/_ext/1985337713/plib_divas.o
 .ARM.attributes
                0x0000000000000000       0x2c build/default/production/_ext/1985337713/plib_divas.o
 .text          0x0000000000000000        0x0 build/default/production/_ext/1865161661/plib_dmac.o
 .data          0x0000000000000000        0x0 build/default/production/_ext/1865161661/plib_dmac.o
 .bss           0x0000000000000000        0x0 build/default/production/_ext/1865161661/plib_dmac.o
 .text.DMAC_ChannelIsBusy
                0x0000000000000000       0x34 build/default/production/_ext/1865161661/plib_dmac.o
 .text.DMAC_ChannelTransferStatusGet
                0x0000000000000000       0x28 build/default/production/_ext/1865161661/plib_dmac.o
 .text.DMAC_ChannelDisable
                0x0000000000000000       0x3c build/default/production/_ext/1865161661/plib_dmac.o
 .text.DMAC_ChannelGetTransferredCount
                0x0000000000000000       0x1c build/default/production/_ext/1865161661/plib_dmac.o
 .text.DMAC_ChannelSuspend
                0x0000000000000000       0x28 build/default/production/_ext/1865161661/plib_dmac.o
 .text.DMAC_ChannelResume
                0x0000000000000000       0x28 build/default/production/_ext/1865161661/plib_dmac.o
 .text.DMAC_CRCDisable
                0x0000000000000000       0x14 build/default/production/_ext/1865161661/plib_dmac.o
 .text.DMAC_ChannelCRCSetup
                0x0000000000000000       0x40 build/default/production/_ext/1865161661/plib_dmac.o
 .text.DMAC_CRCRead
                0x0000000000000000        0xc build/default/production/_ext/1865161661/plib_dmac.o
 .text.DMAC_CRCCalculate
                0x0000000000000000       0x88 build/default/production/_ext/1865161661/plib_dmac.o
 .text          0x0000000000000000        0x0 build/default/production/_ext/60167341/plib_eic.o
 .data          0x0000000000000000        0x0 build/default/production/_ext/60167341/plib_eic.o
 .bss           0x0000000000000000        0x0 build/default/production/_ext/60167341/plib_eic.o
 .text.EIC_InterruptEnable
                0x0000000000000000       0x10 build/default/production/_ext/60167341/plib_eic.o
 .text.EIC_InterruptDisable
                0x0000000000000000       0x10 build/default/production/_ext/60167341/plib_eic.o
 .text          0x0000000000000000        0x0 build/default/production/_ext/1986646378/plib_evsys.o
 .data          0x0000000000000000        0x0 build/default/production/_ext/1986646378/plib_evsys.o
 .bss           0x0000000000000000        0x0 build/default/production/_ext/1986646378/plib_evsys.o
 .text.EVSYS_GeneratorEnable
                0x0000000000000000       0x18 build/default/production/_ext/1986646378/plib_evsys.o
 .text.EVSYS_GeneratorDisable
                0x0000000000000000       0x14 build/default/production/_ext/1986646378/plib_evsys.o
 .text.EVSYS_UserEnable
                0x0000000000000000       0x12 build/default/production/_ext/1986646378/plib_evsys.o
 .text.EVSYS_UserDisable
                0x0000000000000000        0xe build/default/production/_ext/1986646378/plib_evsys.o
 .text          0x0000000000000000        0x0 build/default/production/_ext/1987437027/plib_freqm.o
 .data          0x0000000000000000        0x0 build/default/production/_ext/1987437027/plib_freqm.o
 .bss           0x0000000000000000        0x0 build/default/production/_ext/1987437027/plib_freqm.o
 .text.FREQM_MeasurementStart
                0x0000000000000000       0x1c build/default/production/_ext/1987437027/plib_freqm.o
 .text.FREQM_IsBusy
                0x0000000000000000       0x10 build/default/production/_ext/1987437027/plib_freqm.o
 .text.FREQM_ErrorGet
                0x0000000000000000       0x14 build/default/production/_ext/1987437027/plib_freqm.o
 .text.FREQM_FrequencyGet
                0x0000000000000000       0x1c build/default/production/_ext/1987437027/plib_freqm.o
 .text          0x0000000000000000        0x0 build/default/production/_ext/1865468468/plib_nvic.o
 .data          0x0000000000000000        0x0 build/default/production/_ext/1865468468/plib_nvic.o
 .bss           0x0000000000000000        0x0 build/default/production/_ext/1865468468/plib_nvic.o
 .text.NVIC_INT_Enable
                0x0000000000000000        0x8 build/default/production/_ext/1865468468/plib_nvic.o
 .text.NVIC_INT_SourceDisable
                0x0000000000000000       0x3c build/default/production/_ext/1865468468/plib_nvic.o
 .text.NVIC_INT_SourceRestore
                0x0000000000000000       0x1c build/default/production/_ext/1865468468/plib_nvic.o
 .text          0x0000000000000000        0x0 build/default/production/_ext/1593096446/plib_nvmctrl.o
 .data          0x0000000000000000        0x0 build/default/production/_ext/1593096446/plib_nvmctrl.o
 .bss           0x0000000000000000        0x0 build/default/production/_ext/1593096446/plib_nvmctrl.o
 .text.NVMCTRL_CacheInvalidate
                0x0000000000000000       0x10 build/default/production/_ext/1593096446/plib_nvmctrl.o
 .text.NVMCTRL_DATA_FLASH_Read
                0x0000000000000000       0x10 build/default/production/_ext/1593096446/plib_nvmctrl.o
 .text.NVMCTRL_DATA_FLASH_PageWrite
                0x0000000000000000       0x28 build/default/production/_ext/1593096446/plib_nvmctrl.o
 .text.NVMCTRL_DATA_FLASH_RowErase
                0x0000000000000000       0x18 build/default/production/_ext/1593096446/plib_nvmctrl.o
 .text.NVMCTRL_Read
                0x0000000000000000       0x10 build/default/production/_ext/1593096446/plib_nvmctrl.o
 .text.NVMCTRL_PageBufferWrite
                0x0000000000000000       0x14 build/default/production/_ext/1593096446/plib_nvmctrl.o
 .text.NVMCTRL_PageBufferCommit
                0x0000000000000000       0x30 build/default/production/_ext/1593096446/plib_nvmctrl.o
 .text.NVMCTRL_PageWrite
                0x0000000000000000       0x28 build/default/production/_ext/1593096446/plib_nvmctrl.o
 .text.NVMCTRL_RowErase
                0x0000000000000000       0x18 build/default/production/_ext/1593096446/plib_nvmctrl.o
 .text.NVMCTRL_USER_ROW_PageWrite
                0x0000000000000000       0x38 build/default/production/_ext/1593096446/plib_nvmctrl.o
 .text.NVMCTRL_USER_ROW_RowErase
                0x0000000000000000       0x2c build/default/production/_ext/1593096446/plib_nvmctrl.o
 .text.NVMCTRL_ErrorGet
                0x0000000000000000       0x28 build/default/production/_ext/1593096446/plib_nvmctrl.o
 .text.NVMCTRL_IsBusy
                0x0000000000000000       0x14 build/default/production/_ext/1593096446/plib_nvmctrl.o
 .text.NVMCTRL_RegionLock
                0x0000000000000000       0x14 build/default/production/_ext/1593096446/plib_nvmctrl.o
 .text.NVMCTRL_RegionUnlock
                0x0000000000000000       0x14 build/default/production/_ext/1593096446/plib_nvmctrl.o
 .text.NVMCTRL_InterruptFlagGet
                0x0000000000000000       0x14 build/default/production/_ext/1593096446/plib_nvmctrl.o
 .text.NVMCTRL_SecurityBitSet
                0x0000000000000000       0x10 build/default/production/_ext/1593096446/plib_nvmctrl.o
 .text.NVMCTRL_ChipEraseHardLockSet
                0x0000000000000000       0x10 build/default/production/_ext/1593096446/plib_nvmctrl.o
 .text          0x0000000000000000        0x0 build/default/production/_ext/1865510628/plib_pdec.o
 .data          0x0000000000000000        0x0 build/default/production/_ext/1865510628/plib_pdec.o
 .bss           0x0000000000000000        0x0 build/default/production/_ext/1865510628/plib_pdec.o
 .text.PDEC_QDECStart
                0x0000000000000000       0x1c build/default/production/_ext/1865510628/plib_pdec.o
 .text.PDEC_QDECStop
                0x0000000000000000       0x1c build/default/production/_ext/1865510628/plib_pdec.o
 .text.PDEC_QDECPositionGet
                0x0000000000000000       0x28 build/default/production/_ext/1865510628/plib_pdec.o
 .text.PDEC_QDECRevolutionsGet
                0x0000000000000000       0x2c build/default/production/_ext/1865510628/plib_pdec.o
 .text.PDEC_QDECAngleGet
                0x0000000000000000       0x28 build/default/production/_ext/1865510628/plib_pdec.o
 .text.PDEC_QDECStatusGet
                0x0000000000000000       0x10 build/default/production/_ext/1865510628/plib_pdec.o
 .text          0x0000000000000000        0x0 build/default/production/_ext/829342769/plib_pm.o
 .data          0x0000000000000000        0x0 build/default/production/_ext/829342769/plib_pm.o
 .bss           0x0000000000000000        0x0 build/default/production/_ext/829342769/plib_pm.o
 .text.PM_IdleModeEnter
                0x0000000000000000       0x18 build/default/production/_ext/829342769/plib_pm.o
 .text.PM_StandbyModeEnter
                0x0000000000000000       0x18 build/default/production/_ext/829342769/plib_pm.o
 .text          0x0000000000000000        0x0 build/default/production/_ext/1865521619/plib_port.o
 .data          0x0000000000000000        0x0 build/default/production/_ext/1865521619/plib_port.o
 .bss           0x0000000000000000        0x0 build/default/production/_ext/1865521619/plib_port.o
 .text.PORT_GroupRead
                0x0000000000000000        0x4 build/default/production/_ext/1865521619/plib_port.o
 .text.PORT_GroupWrite
                0x0000000000000000        0xc build/default/production/_ext/1865521619/plib_port.o
 .text.PORT_GroupLatchRead
                0x0000000000000000        0x4 build/default/production/_ext/1865521619/plib_port.o
 .text.PORT_GroupToggle
                0x0000000000000000        0x4 build/default/production/_ext/1865521619/plib_port.o
 .text.PORT_GroupInputEnable
                0x0000000000000000       0x2a build/default/production/_ext/1865521619/plib_port.o
 .text.PORT_GroupOutputEnable
                0x0000000000000000        0x4 build/default/production/_ext/1865521619/plib_port.o
 .text.PORT_PinPeripheralFunctionConfig
                0x0000000000000000       0x46 build/default/production/_ext/1865521619/plib_port.o
 .text.PORT_PinGPIOConfig
                0x0000000000000000       0x1e build/default/production/_ext/1865521619/plib_port.o
 .text          0x0000000000000000        0x0 build/default/production/_ext/1865585090/plib_rstc.o
 .data          0x0000000000000000        0x0 build/default/production/_ext/1865585090/plib_rstc.o
 .bss           0x0000000000000000        0x0 build/default/production/_ext/1865585090/plib_rstc.o
 .text          0x0000000000000000        0x0 build/default/production/_ext/60180175/plib_rtc_clock.o
 .data          0x0000000000000000        0x0 build/default/production/_ext/60180175/plib_rtc_clock.o
 .bss           0x0000000000000000        0x0 build/default/production/_ext/60180175/plib_rtc_clock.o
 .text.RTC_RTCCTimeSet
                0x0000000000000000       0x3c build/default/production/_ext/60180175/plib_rtc_clock.o
 .text.RTC_RTCCClockSyncEnable
                0x0000000000000000       0x1c build/default/production/_ext/60180175/plib_rtc_clock.o
 .text.RTC_RTCCClockSyncDisable
                0x0000000000000000       0x1c build/default/production/_ext/60180175/plib_rtc_clock.o
 .text.RTC_RTCCAlarmSet
                0x0000000000000000       0x54 build/default/production/_ext/60180175/plib_rtc_clock.o
 .text          0x0000000000000000        0x0 build/default/production/_ext/508257091/plib_sercom3_i2c_master.o
 .data          0x0000000000000000        0x0 build/default/production/_ext/508257091/plib_sercom3_i2c_master.o
 .bss           0x0000000000000000        0x0 build/default/production/_ext/508257091/plib_sercom3_i2c_master.o
 .text.SERCOM3_I2C_BusScan
                0x0000000000000000       0xb8 build/default/production/_ext/508257091/plib_sercom3_i2c_master.o
 .text.SERCOM3_I2C_IsBusy
                0x0000000000000000       0x28 build/default/production/_ext/508257091/plib_sercom3_i2c_master.o
 .text          0x0000000000000000        0x0 build/default/production/_ext/17022449/plib_sercom2_spi_master.o
 .data          0x0000000000000000        0x0 build/default/production/_ext/17022449/plib_sercom2_spi_master.o
 .bss           0x0000000000000000        0x0 build/default/production/_ext/17022449/plib_sercom2_spi_master.o
 .text.SERCOM2_SPI_IsBusy
                0x0000000000000000       0x28 build/default/production/_ext/17022449/plib_sercom2_spi_master.o
 .text.SERCOM2_SPI_Write
                0x0000000000000000        0xc build/default/production/_ext/17022449/plib_sercom2_spi_master.o
 .text.SERCOM2_SPI_Read
                0x0000000000000000       0x10 build/default/production/_ext/17022449/plib_sercom2_spi_master.o
 .text          0x0000000000000000        0x0 build/default/production/_ext/504274921/plib_sercom1_usart.o
 .data          0x0000000000000000        0x0 build/default/production/_ext/504274921/plib_sercom1_usart.o
 .bss           0x0000000000000000        0x0 build/default/production/_ext/504274921/plib_sercom1_usart.o
 .text.SERCOM1_USART_FrequencyGet
                0x0000000000000000        0x8 build/default/production/_ext/504274921/plib_sercom1_usart.o
 .text.SERCOM1_USART_SerialSetup
                0x0000000000000000      0x158 build/default/production/_ext/504274921/plib_sercom1_usart.o
 .text.SERCOM1_USART_Enable
                0x0000000000000000       0x20 build/default/production/_ext/504274921/plib_sercom1_usart.o
 .text.SERCOM1_USART_Disable
                0x0000000000000000       0x20 build/default/production/_ext/504274921/plib_sercom1_usart.o
 .text.SERCOM1_USART_ErrorGet
                0x0000000000000000       0x10 build/default/production/_ext/504274921/plib_sercom1_usart.o
 .text.SERCOM1_USART_ReadBufferSizeGet
                0x0000000000000000        0xc build/default/production/_ext/504274921/plib_sercom1_usart.o
 .text.SERCOM1_USART_ReadNotificationEnable
                0x0000000000000000       0x18 build/default/production/_ext/504274921/plib_sercom1_usart.o
 .text.SERCOM1_USART_ReadThresholdSet
                0x0000000000000000       0x10 build/default/production/_ext/504274921/plib_sercom1_usart.o
 .text.SERCOM1_USART_ReadCallbackRegister
                0x0000000000000000        0xc build/default/production/_ext/504274921/plib_sercom1_usart.o
 .text.SERCOM1_USART_TransmitComplete
                0x0000000000000000       0x10 build/default/production/_ext/504274921/plib_sercom1_usart.o
 .text.SERCOM1_USART_WriteBufferSizeGet
                0x0000000000000000        0xc build/default/production/_ext/504274921/plib_sercom1_usart.o
 .text.SERCOM1_USART_WriteNotificationEnable
                0x0000000000000000       0x14 build/default/production/_ext/504274921/plib_sercom1_usart.o
 .text.SERCOM1_USART_WriteThresholdSet
                0x0000000000000000       0x10 build/default/production/_ext/504274921/plib_sercom1_usart.o
 .text.SERCOM1_USART_WriteCallbackRegister
                0x0000000000000000        0xc build/default/production/_ext/504274921/plib_sercom1_usart.o
 .text          0x0000000000000000        0x0 build/default/production/_ext/504274921/plib_sercom0_usart.o
 .data          0x0000000000000000        0x0 build/default/production/_ext/504274921/plib_sercom0_usart.o
 .bss           0x0000000000000000        0x0 build/default/production/_ext/504274921/plib_sercom0_usart.o
 .text.SERCOM0_USART_FrequencyGet
                0x0000000000000000        0x8 build/default/production/_ext/504274921/plib_sercom0_usart.o
 .text.SERCOM0_USART_Enable
                0x0000000000000000       0x20 build/default/production/_ext/504274921/plib_sercom0_usart.o
 .text.SERCOM0_USART_Disable
                0x0000000000000000       0x20 build/default/production/_ext/504274921/plib_sercom0_usart.o
 .text.SERCOM0_USART_TransmitterEnable
                0x0000000000000000       0x18 build/default/production/_ext/504274921/plib_sercom0_usart.o
 .text.SERCOM0_USART_TransmitterDisable
                0x0000000000000000       0x1c build/default/production/_ext/504274921/plib_sercom0_usart.o
 .text.SERCOM0_USART_TransmitComplete
                0x0000000000000000       0x10 build/default/production/_ext/504274921/plib_sercom0_usart.o
 .text.SERCOM0_USART_ReceiverEnable
                0x0000000000000000       0x18 build/default/production/_ext/504274921/plib_sercom0_usart.o
 .text.SERCOM0_USART_ReceiverDisable
                0x0000000000000000       0x1c build/default/production/_ext/504274921/plib_sercom0_usart.o
 .text          0x0000000000000000        0x0 build/default/production/_ext/1865616679/plib_supc.o
 .data          0x0000000000000000        0x0 build/default/production/_ext/1865616679/plib_supc.o
 .bss           0x0000000000000000        0x0 build/default/production/_ext/1865616679/plib_supc.o
 .text          0x0000000000000000        0x0 build/default/production/_ext/829342655/plib_tc0.o
 .data          0x0000000000000000        0x0 build/default/production/_ext/829342655/plib_tc0.o
 .bss           0x0000000000000000        0x0 build/default/production/_ext/829342655/plib_tc0.o
 .text.TC0_CaptureStart
                0x0000000000000000       0x1c build/default/production/_ext/829342655/plib_tc0.o
 .text.TC0_CaptureStop
                0x0000000000000000       0x1c build/default/production/_ext/829342655/plib_tc0.o
 .text.TC0_CaptureFrequencyGet
                0x0000000000000000        0x8 build/default/production/_ext/829342655/plib_tc0.o
 .text.TC0_CaptureCommandSet
                0x0000000000000000       0x18 build/default/production/_ext/829342655/plib_tc0.o
 .text.TC0_Capture16bitChannel0Get
                0x0000000000000000        0xc build/default/production/_ext/829342655/plib_tc0.o
 .text.TC0_Capture16bitChannel1Get
                0x0000000000000000        0xc build/default/production/_ext/829342655/plib_tc0.o
 .text.TC0_CaptureCallbackRegister
                0x0000000000000000        0xc build/default/production/_ext/829342655/plib_tc0.o
 .text          0x0000000000000000        0x0 build/default/production/_ext/60181570/plib_tcc1.o
 .data          0x0000000000000000        0x0 build/default/production/_ext/60181570/plib_tcc1.o
 .bss           0x0000000000000000        0x0 build/default/production/_ext/60181570/plib_tcc1.o
 .text.TCC1_PWM24bitPeriodSet
                0x0000000000000000       0x1c build/default/production/_ext/60181570/plib_tcc1.o
 .text.TCC1_PWM24bitPeriodGet
                0x0000000000000000       0x18 build/default/production/_ext/60181570/plib_tcc1.o
 .text.TCC1_PWMPatternSet
                0x0000000000000000       0x20 build/default/production/_ext/60181570/plib_tcc1.o
 .text.TCC1_PWM24bitCounterGet
                0x0000000000000000       0x28 build/default/production/_ext/60181570/plib_tcc1.o
 .text.TCC1_PWM24bitCounterSet
                0x0000000000000000       0x18 build/default/production/_ext/60181570/plib_tcc1.o
 .text.TCC1_PWMForceUpdate
                0x0000000000000000       0x1c build/default/production/_ext/60181570/plib_tcc1.o
 .text.TCC1_PWMPeriodInterruptEnable
                0x0000000000000000        0xc build/default/production/_ext/60181570/plib_tcc1.o
 .text.TCC1_PWMPeriodInterruptDisable
                0x0000000000000000        0xc build/default/production/_ext/60181570/plib_tcc1.o
 .text.TCC1_PWMInterruptStatusGet
                0x0000000000000000       0x10 build/default/production/_ext/60181570/plib_tcc1.o
 .text          0x0000000000000000        0x0 build/default/production/_ext/60181570/plib_tcc0.o
 .data          0x0000000000000000        0x0 build/default/production/_ext/60181570/plib_tcc0.o
 .bss           0x0000000000000000        0x0 build/default/production/_ext/60181570/plib_tcc0.o
 .text.TCC0_PWMStart
                0x0000000000000000       0x1c build/default/production/_ext/60181570/plib_tcc0.o
 .text.TCC0_PWMStop
                0x0000000000000000       0x1c build/default/production/_ext/60181570/plib_tcc0.o
 .text.TCC0_PWM24bitPeriodSet
                0x0000000000000000       0x1c build/default/production/_ext/60181570/plib_tcc0.o
 .text.TCC0_PWM24bitPeriodGet
                0x0000000000000000       0x18 build/default/production/_ext/60181570/plib_tcc0.o
 .text.TCC0_PWMDeadTimeSet
                0x0000000000000000       0x1c build/default/production/_ext/60181570/plib_tcc0.o
 .text.TCC0_PWMPatternSet
                0x0000000000000000       0x20 build/default/production/_ext/60181570/plib_tcc0.o
 .text.TCC0_PWM24bitCounterGet
                0x0000000000000000       0x28 build/default/production/_ext/60181570/plib_tcc0.o
 .text.TCC0_PWM24bitCounterSet
                0x0000000000000000       0x18 build/default/production/_ext/60181570/plib_tcc0.o
 .text.TCC0_PWMForceUpdate
                0x0000000000000000       0x1c build/default/production/_ext/60181570/plib_tcc0.o
 .text.TCC0_PWMPeriodInterruptEnable
                0x0000000000000000        0xc build/default/production/_ext/60181570/plib_tcc0.o
 .text.TCC0_PWMPeriodInterruptDisable
                0x0000000000000000        0xc build/default/production/_ext/60181570/plib_tcc0.o
 .text.TCC0_PWMInterruptStatusGet
                0x0000000000000000       0x10 build/default/production/_ext/60181570/plib_tcc0.o
 .text          0x0000000000000000        0x0 build/default/production/_ext/163028504/xc32_monitor.o
 .data          0x0000000000000000        0x0 build/default/production/_ext/163028504/xc32_monitor.o
 .bss           0x0000000000000000        0x0 build/default/production/_ext/163028504/xc32_monitor.o
 .text.read     0x0000000000000000        0x6 build/default/production/_ext/163028504/xc32_monitor.o
 .text.write    0x0000000000000000        0x6 build/default/production/_ext/163028504/xc32_monitor.o
 .debug_info    0x0000000000000000       0xf5 build/default/production/_ext/163028504/xc32_monitor.o
 .debug_abbrev  0x0000000000000000       0xb2 build/default/production/_ext/163028504/xc32_monitor.o
 .debug_loc     0x0000000000000000       0x4a build/default/production/_ext/163028504/xc32_monitor.o
 .debug_aranges
                0x0000000000000000       0x28 build/default/production/_ext/163028504/xc32_monitor.o
 .debug_ranges  0x0000000000000000       0x18 build/default/production/_ext/163028504/xc32_monitor.o
 .debug_line    0x0000000000000000       0xc7 build/default/production/_ext/163028504/xc32_monitor.o
 .debug_str     0x0000000000000000      0x292 build/default/production/_ext/163028504/xc32_monitor.o
 .comment       0x0000000000000000       0x2c build/default/production/_ext/163028504/xc32_monitor.o
 .debug_frame   0x0000000000000000       0x30 build/default/production/_ext/163028504/xc32_monitor.o
 .ARM.attributes
                0x0000000000000000       0x2c build/default/production/_ext/163028504/xc32_monitor.o
 .text          0x0000000000000000        0x0 build/default/production/_ext/1832805299/sys_console_uart.o
 .data          0x0000000000000000        0x0 build/default/production/_ext/1832805299/sys_console_uart.o
 .bss           0x0000000000000000        0x0 build/default/production/_ext/1832805299/sys_console_uart.o
 .text          0x0000000000000000        0x0 build/default/production/_ext/1832805299/sys_console.o
 .data          0x0000000000000000        0x0 build/default/production/_ext/1832805299/sys_console.o
 .bss           0x0000000000000000        0x0 build/default/production/_ext/1832805299/sys_console.o
 .text.SYS_CONSOLE_Status
                0x0000000000000000       0x60 build/default/production/_ext/1832805299/sys_console.o
 .text.SYS_CONSOLE_HandleGet
                0x0000000000000000        0x8 build/default/production/_ext/1832805299/sys_console.o
 .text.SYS_CONSOLE_DeviceGet
                0x0000000000000000       0x1c build/default/production/_ext/1832805299/sys_console.o
 .text.SYS_CONSOLE_Tasks
                0x0000000000000000       0x28 build/default/production/_ext/1832805299/sys_console.o
 .text.SYS_CONSOLE_Read
                0x0000000000000000       0x38 build/default/production/_ext/1832805299/sys_console.o
 .text.SYS_CONSOLE_ReadFreeBufferCountGet
                0x0000000000000000       0x38 build/default/production/_ext/1832805299/sys_console.o
 .text.SYS_CONSOLE_ReadCountGet
                0x0000000000000000       0x38 build/default/production/_ext/1832805299/sys_console.o
 .text.SYS_CONSOLE_Write
                0x0000000000000000       0x38 build/default/production/_ext/1832805299/sys_console.o
 .text.SYS_CONSOLE_WriteFreeBufferCountGet
                0x0000000000000000       0x38 build/default/production/_ext/1832805299/sys_console.o
 .text.SYS_CONSOLE_WriteCountGet
                0x0000000000000000       0x38 build/default/production/_ext/1832805299/sys_console.o
 .text.SYS_CONSOLE_Flush
                0x0000000000000000       0x34 build/default/production/_ext/1832805299/sys_console.o
 .text          0x0000000000000000        0x0 build/default/production/_ext/14461671/sys_dma.o
 .data          0x0000000000000000        0x0 build/default/production/_ext/14461671/sys_dma.o
 .bss           0x0000000000000000        0x0 build/default/production/_ext/14461671/sys_dma.o
 .text          0x0000000000000000        0x0 build/default/production/_ext/1881668453/sys_int.o
 .data          0x0000000000000000        0x0 build/default/production/_ext/1881668453/sys_int.o
 .bss           0x0000000000000000        0x0 build/default/production/_ext/1881668453/sys_int.o
 .text.SYS_INT_Enable
                0x0000000000000000        0x8 build/default/production/_ext/1881668453/sys_int.o
 .text          0x0000000000000000        0x0 build/default/production/_ext/101884895/sys_time.o
 .data          0x0000000000000000        0x0 build/default/production/_ext/101884895/sys_time.o
 .bss           0x0000000000000000        0x0 build/default/production/_ext/101884895/sys_time.o
 .text.SYS_TIME_Deinitialize
                0x0000000000000000       0x34 build/default/production/_ext/101884895/sys_time.o
 .text.SYS_TIME_Status
                0x0000000000000000       0x18 build/default/production/_ext/101884895/sys_time.o
 .text.SYS_TIME_FrequencyGet
                0x0000000000000000        0xc build/default/production/_ext/101884895/sys_time.o
 .text.SYS_TIME_Counter64Get
                0x0000000000000000       0x1c build/default/production/_ext/101884895/sys_time.o
 .text.SYS_TIME_CounterGet
                0x0000000000000000        0x8 build/default/production/_ext/101884895/sys_time.o
 .text.SYS_TIME_CounterSet
                0x0000000000000000       0x1c build/default/production/_ext/101884895/sys_time.o
 .text.SYS_TIME_CountToUS
                0x0000000000000000       0x3c build/default/production/_ext/101884895/sys_time.o
 .text.SYS_TIME_CountToMS
                0x0000000000000000       0x20 build/default/production/_ext/101884895/sys_time.o
 .text.SYS_TIME_USToCount
                0x0000000000000000       0x24 build/default/production/_ext/101884895/sys_time.o
 .text.SYS_TIME_MSToCount
                0x0000000000000000       0x20 build/default/production/_ext/101884895/sys_time.o
 .text.SYS_TIME_TimerCreate
                0x0000000000000000       0x20 build/default/production/_ext/101884895/sys_time.o
 .text.SYS_TIME_TimerReload
                0x0000000000000000       0x86 build/default/production/_ext/101884895/sys_time.o
 .text.SYS_TIME_TimerCounterGet
                0x0000000000000000       0x70 build/default/production/_ext/101884895/sys_time.o
 .text.SYS_TIME_TimerPeriodHasExpired
                0x0000000000000000       0x2a build/default/production/_ext/101884895/sys_time.o
 .text.SYS_TIME_DelayUS
                0x0000000000000000       0x54 build/default/production/_ext/101884895/sys_time.o
 .text.SYS_TIME_DelayMS
                0x0000000000000000       0x54 build/default/production/_ext/101884895/sys_time.o
 .text.SYS_TIME_DelayIsComplete
                0x0000000000000000       0x18 build/default/production/_ext/101884895/sys_time.o
 .text.SYS_TIME_CallbackRegisterUS
                0x0000000000000000       0x5c build/default/production/_ext/101884895/sys_time.o
 .text          0x0000000000000000        0x0 build/default/production/_ext/1171490990/tasks.o
 .data          0x0000000000000000        0x0 build/default/production/_ext/1171490990/tasks.o
 .bss           0x0000000000000000        0x0 build/default/production/_ext/1171490990/tasks.o
 .text          0x0000000000000000        0x0 build/default/production/_ext/1171490990/initialization.o
 .data          0x0000000000000000        0x0 build/default/production/_ext/1171490990/initialization.o
 .bss           0x0000000000000000        0x0 build/default/production/_ext/1171490990/initialization.o
 .text          0x0000000000000000        0x0 build/default/production/_ext/1171490990/interrupts.o
 .data          0x0000000000000000        0x0 build/default/production/_ext/1171490990/interrupts.o
 .bss           0x0000000000000000        0x0 build/default/production/_ext/1171490990/interrupts.o
 .text          0x0000000000000000        0x0 build/default/production/_ext/1171490990/exceptions.o
 .data          0x0000000000000000        0x0 build/default/production/_ext/1171490990/exceptions.o
 .bss           0x0000000000000000        0x0 build/default/production/_ext/1171490990/exceptions.o
 .text          0x0000000000000000        0x0 build/default/production/_ext/1171490990/startup_xc32.o
 .data          0x0000000000000000        0x0 build/default/production/_ext/1171490990/startup_xc32.o
 .bss           0x0000000000000000        0x0 build/default/production/_ext/1171490990/startup_xc32.o
 .text          0x0000000000000000        0x0 build/default/production/_ext/1171490990/libc_syscalls.o
 .data          0x0000000000000000        0x0 build/default/production/_ext/1171490990/libc_syscalls.o
 .bss           0x0000000000000000        0x0 build/default/production/_ext/1171490990/libc_syscalls.o
 .text._exit    0x0000000000000000        0x2 build/default/production/_ext/1171490990/libc_syscalls.o
 .debug_info    0x0000000000000000       0xaa build/default/production/_ext/1171490990/libc_syscalls.o
 .debug_abbrev  0x0000000000000000       0x5d build/default/production/_ext/1171490990/libc_syscalls.o
 .debug_loc     0x0000000000000000       0x15 build/default/production/_ext/1171490990/libc_syscalls.o
 .debug_aranges
                0x0000000000000000       0x20 build/default/production/_ext/1171490990/libc_syscalls.o
 .debug_ranges  0x0000000000000000       0x10 build/default/production/_ext/1171490990/libc_syscalls.o
 .debug_line    0x0000000000000000       0x5b build/default/production/_ext/1171490990/libc_syscalls.o
 .debug_str     0x0000000000000000      0x2d6 build/default/production/_ext/1171490990/libc_syscalls.o
 .comment       0x0000000000000000       0x2c build/default/production/_ext/1171490990/libc_syscalls.o
 .debug_frame   0x0000000000000000       0x20 build/default/production/_ext/1171490990/libc_syscalls.o
 .ARM.attributes
                0x0000000000000000       0x2c build/default/production/_ext/1171490990/libc_syscalls.o
 .text          0x0000000000000000        0x0 build/default/production/_ext/1360937237/can0_driver.o
 .data          0x0000000000000000        0x0 build/default/production/_ext/1360937237/can0_driver.o
 .bss           0x0000000000000000        0x0 build/default/production/_ext/1360937237/can0_driver.o
 .text.CAN0_DRIVER_Get_Task_Start_Status
                0x0000000000000000        0xc build/default/production/_ext/1360937237/can0_driver.o
 .text.CAN0_DRIVER_Set_DLC
                0x0000000000000000       0x38 build/default/production/_ext/1360937237/can0_driver.o
 .text.CAN0_DRIVER_Set_Received_Data
                0x0000000000000000       0x18 build/default/production/_ext/1360937237/can0_driver.o
 .text.CAN0_DRIVER_Set_Transmited_Data
                0x0000000000000000       0x48 build/default/production/_ext/1360937237/can0_driver.o
 .text          0x0000000000000000        0x0 build/default/production/_ext/1360937237/sht4x_driver.o
 .data          0x0000000000000000        0x0 build/default/production/_ext/1360937237/sht4x_driver.o
 .bss           0x0000000000000000        0x0 build/default/production/_ext/1360937237/sht4x_driver.o
 .text.SHT4X_DRIVER_Get_Task_Start_Status
                0x0000000000000000        0xc build/default/production/_ext/1360937237/sht4x_driver.o
 .text.SHT4X_DRIVER_Set_Task_Start_Status
                0x0000000000000000        0xc build/default/production/_ext/1360937237/sht4x_driver.o
 .text.SHT4X_DRIVER_Get_Task_Completed_Status
                0x0000000000000000        0xc build/default/production/_ext/1360937237/sht4x_driver.o
 .text.SHT4X_DRIVER_Set_Task_Completed_Status
                0x0000000000000000        0xc build/default/production/_ext/1360937237/sht4x_driver.o
 .text.SHT4X_DRIVER_Store_Measure_Values
                0x0000000000000000       0x24 build/default/production/_ext/1360937237/sht4x_driver.o
 .text.SHT4X_DRIVER_Read_Serial_Number
                0x0000000000000000       0x30 build/default/production/_ext/1360937237/sht4x_driver.o
 .text.SHT4X_DRIVER_Store_Serial_Number
                0x0000000000000000       0x24 build/default/production/_ext/1360937237/sht4x_driver.o
 .text.SHT4X_DRIVER_Soft_Reset
                0x0000000000000000       0x24 build/default/production/_ext/1360937237/sht4x_driver.o
 .text.SHT4X_DRIVER_Print_Data
                0x0000000000000000       0x40 build/default/production/_ext/1360937237/sht4x_driver.o
 .rodata.SHT4X_DRIVER_Print_Data.str1.4
                0x0000000000000000       0x40 build/default/production/_ext/1360937237/sht4x_driver.o
 .text          0x0000000000000000        0x0 build/default/production/_ext/1360937237/rstc_driver.o
 .data          0x0000000000000000        0x0 build/default/production/_ext/1360937237/rstc_driver.o
 .bss           0x0000000000000000        0x0 build/default/production/_ext/1360937237/rstc_driver.o
 .text.RSTC_DRIVER_Get_Task_Start_Status
                0x0000000000000000        0xc build/default/production/_ext/1360937237/rstc_driver.o
 .text.RSTC_DRIVER_Set_Task_Start_Status
                0x0000000000000000        0xc build/default/production/_ext/1360937237/rstc_driver.o
 .text.RSTC_DRIVER_Get_Task_Completed_Status
                0x0000000000000000        0xc build/default/production/_ext/1360937237/rstc_driver.o
 .text.RSTC_DRIVER_Set_Task_Completed_Status
                0x0000000000000000        0xc build/default/production/_ext/1360937237/rstc_driver.o
 .text          0x0000000000000000        0x0 build/default/production/_ext/1360937237/ad9954_driver.o
 .data          0x0000000000000000        0x0 build/default/production/_ext/1360937237/ad9954_driver.o
 .bss           0x0000000000000000        0x0 build/default/production/_ext/1360937237/ad9954_driver.o
 .text.AD9954_DRIVER_Get_Task_Start_Status
                0x0000000000000000        0xc build/default/production/_ext/1360937237/ad9954_driver.o
 .text.AD9954_DRIVER_Set_Task_Start_Status
                0x0000000000000000        0xc build/default/production/_ext/1360937237/ad9954_driver.o
 .text.AD9954_DRIVER_Get_Task_Completed_Status
                0x0000000000000000        0xc build/default/production/_ext/1360937237/ad9954_driver.o
 .text.AD9954_DRIVER_Set_Task_Completed_Status
                0x0000000000000000        0xc build/default/production/_ext/1360937237/ad9954_driver.o
 .text.AD9954_DRIVER_Get_CFR1_Register
                0x0000000000000000       0x2c build/default/production/_ext/1360937237/ad9954_driver.o
 .text.AD9954_DRIVER_Store_CFR1_Register
                0x0000000000000000       0x24 build/default/production/_ext/1360937237/ad9954_driver.o
 .text.AD9954_DRIVER_Get_CFR2_Register
                0x0000000000000000       0x2c build/default/production/_ext/1360937237/ad9954_driver.o
 .text.AD9954_DRIVER_Store_CFR2_Register
                0x0000000000000000       0x18 build/default/production/_ext/1360937237/ad9954_driver.o
 .text.AD9954_DRIVER_Set_CFR2_Register
                0x0000000000000000       0x28 build/default/production/_ext/1360937237/ad9954_driver.o
 .text.AD9954_DRIVER_Get_ASF_Register
                0x0000000000000000       0x2c build/default/production/_ext/1360937237/ad9954_driver.o
 .text.AD9954_DRIVER_Store_ASF_Register
                0x0000000000000000       0x18 build/default/production/_ext/1360937237/ad9954_driver.o
 .text.AD9954_DRIVER_Set_ASF_Register
                0x0000000000000000       0x28 build/default/production/_ext/1360937237/ad9954_driver.o
 .text.AD9954_DRIVER_Get_ARR_Register
                0x0000000000000000       0x2c build/default/production/_ext/1360937237/ad9954_driver.o
 .text.AD9954_DRIVER_Store_ARR_Register
                0x0000000000000000       0x14 build/default/production/_ext/1360937237/ad9954_driver.o
 .text.AD9954_DRIVER_Set_ARR_Register
                0x0000000000000000       0x24 build/default/production/_ext/1360937237/ad9954_driver.o
 .text.AD9954_DRIVER_Get_FTW0_Register
                0x0000000000000000       0x2c build/default/production/_ext/1360937237/ad9954_driver.o
 .text.AD9954_DRIVER_Store_FTW0_Register
                0x0000000000000000       0x24 build/default/production/_ext/1360937237/ad9954_driver.o
 .text.AD9954_DRIVER_Get_POW0_Register
                0x0000000000000000       0x2c build/default/production/_ext/1360937237/ad9954_driver.o
 .text.AD9954_DRIVER_Store_POW0_Register
                0x0000000000000000       0x18 build/default/production/_ext/1360937237/ad9954_driver.o
 .text.AD9954_DRIVER_Set_POW0_Register
                0x0000000000000000       0x28 build/default/production/_ext/1360937237/ad9954_driver.o
 .text.AD9954_DRIVER_Get_FTW1_Register
                0x0000000000000000       0x2c build/default/production/_ext/1360937237/ad9954_driver.o
 .text.AD9954_DRIVER_Store_FTW1_Register
                0x0000000000000000       0x24 build/default/production/_ext/1360937237/ad9954_driver.o
 .text.AD9954_DRIVER_Get_RSCW0_Register
                0x0000000000000000       0x2c build/default/production/_ext/1360937237/ad9954_driver.o
 .text.AD9954_DRIVER_Store_RSCW0_Register
                0x0000000000000000        0x2 build/default/production/_ext/1360937237/ad9954_driver.o
 .text.AD9954_DRIVER_Set_RSCW0_Register
                0x0000000000000000       0x38 build/default/production/_ext/1360937237/ad9954_driver.o
 .text.AD9954_DRIVER_Get_RSCW1_Register
                0x0000000000000000       0x2c build/default/production/_ext/1360937237/ad9954_driver.o
 .text.AD9954_DRIVER_Store_RSCW1_Register
                0x0000000000000000        0x2 build/default/production/_ext/1360937237/ad9954_driver.o
 .text.AD9954_DRIVER_Set_RSCW1_Register
                0x0000000000000000       0x38 build/default/production/_ext/1360937237/ad9954_driver.o
 .text.AD9954_DRIVER_Get_RSCW2_Register
                0x0000000000000000       0x2c build/default/production/_ext/1360937237/ad9954_driver.o
 .text.AD9954_DRIVER_Store_RSCW2_Register
                0x0000000000000000        0x2 build/default/production/_ext/1360937237/ad9954_driver.o
 .text.AD9954_DRIVER_Set_RSCW2_Register
                0x0000000000000000       0x38 build/default/production/_ext/1360937237/ad9954_driver.o
 .text.AD9954_DRIVER_Get_RSCW3_Register
                0x0000000000000000       0x2c build/default/production/_ext/1360937237/ad9954_driver.o
 .text.AD9954_DRIVER_Store_RSCW3_Register
                0x0000000000000000        0x2 build/default/production/_ext/1360937237/ad9954_driver.o
 .text.AD9954_DRIVER_Set_RSCW3_Register
                0x0000000000000000       0x38 build/default/production/_ext/1360937237/ad9954_driver.o
 .text.AD9954_DRIVER_Get_NLSCW_Register
                0x0000000000000000       0x2c build/default/production/_ext/1360937237/ad9954_driver.o
 .text.AD9954_DRIVER_Store_NLSCW_Register
                0x0000000000000000        0x2 build/default/production/_ext/1360937237/ad9954_driver.o
 .text.AD9954_DRIVER_Get_PLSCW_Register
                0x0000000000000000       0x2c build/default/production/_ext/1360937237/ad9954_driver.o
 .text.AD9954_DRIVER_Store_PLSCW_Register
                0x0000000000000000        0x2 build/default/production/_ext/1360937237/ad9954_driver.o
 .text.AD9954_DRIVER_Set_PLSCW_Register
                0x0000000000000000       0x38 build/default/production/_ext/1360937237/ad9954_driver.o
 .text.AD9954_DRIVER_Set_Frequency
                0x0000000000000000       0x34 build/default/production/_ext/1360937237/ad9954_driver.o
 .text.AD9954_DRIVER_Set_Linear_Sweep
                0x0000000000000000       0x30 build/default/production/_ext/1360937237/ad9954_driver.o
 .bss.ad9954_ddsData
                0x0000000000000000       0x48 build/default/production/_ext/1360937237/ad9954_driver.o
 .bss.ad9954_settingsData
                0x0000000000000000        0xc build/default/production/_ext/1360937237/ad9954_driver.o
 .text          0x0000000000000000        0x0 build/default/production/_ext/1360937237/rtc_driver.o
 .data          0x0000000000000000        0x0 build/default/production/_ext/1360937237/rtc_driver.o
 .bss           0x0000000000000000        0x0 build/default/production/_ext/1360937237/rtc_driver.o
 .text.RTC_DRIVER_Get_Task_Start_Status
                0x0000000000000000        0xc build/default/production/_ext/1360937237/rtc_driver.o
 .text.RTC_DRIVER_Set_Task_Start_Status
                0x0000000000000000        0xc build/default/production/_ext/1360937237/rtc_driver.o
 .text.RTC_DRIVER_Get_Task_Completed_Status
                0x0000000000000000        0xc build/default/production/_ext/1360937237/rtc_driver.o
 .text.RTC_DRIVER_Set_Task_Completed_Status
                0x0000000000000000        0xc build/default/production/_ext/1360937237/rtc_driver.o
 .text.RTC_DRIVER_Set_Init_Time
                0x0000000000000000       0x24 build/default/production/_ext/1360937237/rtc_driver.o
 .text.RTC_DRIVER_Set_Alarm_Time
                0x0000000000000000       0x20 build/default/production/_ext/1360937237/rtc_driver.o
 .text          0x0000000000000000        0x0 build/default/production/_ext/1360937237/mcp9808_driver.o
 .data          0x0000000000000000        0x0 build/default/production/_ext/1360937237/mcp9808_driver.o
 .bss           0x0000000000000000        0x0 build/default/production/_ext/1360937237/mcp9808_driver.o
 .text.MCP9808_DRIVER_Get_Task_Start_Status
                0x0000000000000000        0xc build/default/production/_ext/1360937237/mcp9808_driver.o
 .text.MCP9808_DRIVER_Set_Task_Start_Status
                0x0000000000000000        0xc build/default/production/_ext/1360937237/mcp9808_driver.o
 .text.MCP9808_DRIVER_Get_Task_Completed_Status
                0x0000000000000000        0xc build/default/production/_ext/1360937237/mcp9808_driver.o
 .text.MCP9808_DRIVER_Set_Task_Completed_Status
                0x0000000000000000        0xc build/default/production/_ext/1360937237/mcp9808_driver.o
 .text.MCP9808_DRIVER_Set_I2C_Address
                0x0000000000000000       0x28 build/default/production/_ext/1360937237/mcp9808_driver.o
 .text.MCP9808_DRIVER_Get_Sensor_Config
                0x0000000000000000       0x30 build/default/production/_ext/1360937237/mcp9808_driver.o
 .text.MCP9808_DRIVER_Store_Sensor_Config
                0x0000000000000000       0x18 build/default/production/_ext/1360937237/mcp9808_driver.o
 .text.MCP9808_DRIVER_Set_Sensor_Config
                0x0000000000000000       0x2c build/default/production/_ext/1360937237/mcp9808_driver.o
 .text.MCP9808_DRIVER_Get_Result_Resolution
                0x0000000000000000       0x30 build/default/production/_ext/1360937237/mcp9808_driver.o
 .text.MCP9808_DRIVER_Store_Result_Resolution
                0x0000000000000000       0x14 build/default/production/_ext/1360937237/mcp9808_driver.o
 .text.MCP9808_DRIVER_Print_Data
                0x0000000000000000       0x38 build/default/production/_ext/1360937237/mcp9808_driver.o
 .rodata.MCP9808_DRIVER_Print_Data.str1.4
                0x0000000000000000       0x50 build/default/production/_ext/1360937237/mcp9808_driver.o
 .text          0x0000000000000000        0x0 build/default/production/_ext/1360937237/bme690_driver.o
 .data          0x0000000000000000        0x0 build/default/production/_ext/1360937237/bme690_driver.o
 .bss           0x0000000000000000        0x0 build/default/production/_ext/1360937237/bme690_driver.o
 .text.BME690_DRIVER_Get_Task_Start_Status
                0x0000000000000000        0xc build/default/production/_ext/1360937237/bme690_driver.o
 .text.BME690_DRIVER_Set_Task_Start_Status
                0x0000000000000000        0xc build/default/production/_ext/1360937237/bme690_driver.o
 .text.BME690_DRIVER_Get_Task_Completed_Status
                0x0000000000000000        0xc build/default/production/_ext/1360937237/bme690_driver.o
 .text.BME690_DRIVER_Set_Task_Completed_Status
                0x0000000000000000        0xc build/default/production/_ext/1360937237/bme690_driver.o
 .text.BME690_DRIVER_Get_VARIANT_ID_Data
                0x0000000000000000       0x30 build/default/production/_ext/1360937237/bme690_driver.o
 .text.BME690_DRIVER_Store_VARIANT_ID_Data
                0x0000000000000000       0x14 build/default/production/_ext/1360937237/bme690_driver.o
 .text.BME690_DRIVER_Get_CHIP_ID_Data
                0x0000000000000000       0x30 build/default/production/_ext/1360937237/bme690_driver.o
 .text.BME690_DRIVER_Store_CHIP_ID_Data
                0x0000000000000000       0x14 build/default/production/_ext/1360937237/bme690_driver.o
 .text.BME690_DRIVER_Set_CONFIG_Data
                0x0000000000000000       0x28 build/default/production/_ext/1360937237/bme690_driver.o
 .text.BME690_DRIVER_Get_CONFIG_Data
                0x0000000000000000       0x30 build/default/production/_ext/1360937237/bme690_driver.o
 .text.BME690_DRIVER_Store_CONFIG_Data
                0x0000000000000000       0x14 build/default/production/_ext/1360937237/bme690_driver.o
 .text.BME690_DRIVER_Set_CTRL_MEAS_Data
                0x0000000000000000       0x28 build/default/production/_ext/1360937237/bme690_driver.o
 .text.BME690_DRIVER_Get_CTRL_MEAS_Data
                0x0000000000000000       0x30 build/default/production/_ext/1360937237/bme690_driver.o
 .text.BME690_DRIVER_Store_CTRL_MEAS_Data
                0x0000000000000000       0x14 build/default/production/_ext/1360937237/bme690_driver.o
 .text.BME690_DRIVER_Set_CTRL_HUM_Data
                0x0000000000000000       0x28 build/default/production/_ext/1360937237/bme690_driver.o
 .text.BME690_DRIVER_Get_CTRL_HUM_Data
                0x0000000000000000       0x30 build/default/production/_ext/1360937237/bme690_driver.o
 .text.BME690_DRIVER_Store_CTRL_HUM_Data
                0x0000000000000000       0x14 build/default/production/_ext/1360937237/bme690_driver.o
 .text.BME690_DRIVER_Set_CTRL_GAS_1_Data
                0x0000000000000000       0x28 build/default/production/_ext/1360937237/bme690_driver.o
 .text.BME690_DRIVER_Get_CTRL_GAS_1_Data
                0x0000000000000000       0x30 build/default/production/_ext/1360937237/bme690_driver.o
 .text.BME690_DRIVER_Store_CTRL_GAS_1_Data
                0x0000000000000000       0x14 build/default/production/_ext/1360937237/bme690_driver.o
 .text.BME690_DRIVER_Set_CTRL_GAS_0_Data
                0x0000000000000000       0x28 build/default/production/_ext/1360937237/bme690_driver.o
 .text.BME690_DRIVER_Get_CTRL_GAS_0_Data
                0x0000000000000000       0x30 build/default/production/_ext/1360937237/bme690_driver.o
 .text.BME690_DRIVER_Store_CTRL_GAS_0_Data
                0x0000000000000000       0x14 build/default/production/_ext/1360937237/bme690_driver.o
 .text.BME690_DRIVER_Get_T_MSB_Data
                0x0000000000000000       0x34 build/default/production/_ext/1360937237/bme690_driver.o
 .text.BME690_DRIVER_Store_T_MSB_Data
                0x0000000000000000       0x14 build/default/production/_ext/1360937237/bme690_driver.o
 .text.BME690_DRIVER_Get_T_LSB_Data
                0x0000000000000000       0x38 build/default/production/_ext/1360937237/bme690_driver.o
 .text.BME690_DRIVER_Store_T_LSB_Data
                0x0000000000000000       0x14 build/default/production/_ext/1360937237/bme690_driver.o
 .text.BME690_DRIVER_Get_T_XLSB_Data
                0x0000000000000000       0x38 build/default/production/_ext/1360937237/bme690_driver.o
 .text.BME690_DRIVER_Store_T_XLSB_Data
                0x0000000000000000       0x14 build/default/production/_ext/1360937237/bme690_driver.o
 .text.BME690_DRIVER_Get_H_MSB_Data
                0x0000000000000000       0x38 build/default/production/_ext/1360937237/bme690_driver.o
 .text.BME690_DRIVER_Store_H_MSB_Data
                0x0000000000000000       0x14 build/default/production/_ext/1360937237/bme690_driver.o
 .text.BME690_DRIVER_Get_H_LSB_Data
                0x0000000000000000       0x38 build/default/production/_ext/1360937237/bme690_driver.o
 .text.BME690_DRIVER_Store_H_LSB_Data
                0x0000000000000000       0x14 build/default/production/_ext/1360937237/bme690_driver.o
 .text.BME690_DRIVER_Get_G_MSB_Data
                0x0000000000000000       0x38 build/default/production/_ext/1360937237/bme690_driver.o
 .text.BME690_DRIVER_Store_G_MSB_Data
                0x0000000000000000       0x14 build/default/production/_ext/1360937237/bme690_driver.o
 .text.BME690_DRIVER_Get_G_LSB_Data
                0x0000000000000000       0x38 build/default/production/_ext/1360937237/bme690_driver.o
 .text.BME690_DRIVER_Store_G_LSB_Data
                0x0000000000000000       0x14 build/default/production/_ext/1360937237/bme690_driver.o
 .text.BME690_DRIVER_Get_P_MSB_Data
                0x0000000000000000       0x38 build/default/production/_ext/1360937237/bme690_driver.o
 .text.BME690_DRIVER_Store_P_MSB_Data
                0x0000000000000000       0x14 build/default/production/_ext/1360937237/bme690_driver.o
 .text.BME690_DRIVER_Get_P_LSB_Data
                0x0000000000000000       0x38 build/default/production/_ext/1360937237/bme690_driver.o
 .text.BME690_DRIVER_Store_P_LSB_Data
                0x0000000000000000       0x14 build/default/production/_ext/1360937237/bme690_driver.o
 .text.BME690_DRIVER_Get_P_XLSB_Data
                0x0000000000000000       0x38 build/default/production/_ext/1360937237/bme690_driver.o
 .text.BME690_DRIVER_Store_P_XLSB_Data
                0x0000000000000000       0x18 build/default/production/_ext/1360937237/bme690_driver.o
 .text.BME690_DRIVER_Get_SUB_MEAS_INDEX_Data
                0x0000000000000000       0x38 build/default/production/_ext/1360937237/bme690_driver.o
 .text.BME690_DRIVER_Store_SUB_MEAS_INDEX_Data
                0x0000000000000000       0x18 build/default/production/_ext/1360937237/bme690_driver.o
 .text.BME690_DRIVER_Get_MEAS_STATUS_Data
                0x0000000000000000       0x38 build/default/production/_ext/1360937237/bme690_driver.o
 .text.BME690_DRIVER_Store_MEAS_STATUS_Data
                0x0000000000000000       0x18 build/default/production/_ext/1360937237/bme690_driver.o
 .text.BME690_DRIVER_Get_PAR_T1_CAL_LSB_Data
                0x0000000000000000        0x2 build/default/production/_ext/1360937237/bme690_driver.o
 .text.BME690_DRIVER_Store_PAR_T1_CAL_LSB_Data
                0x0000000000000000        0x2 build/default/production/_ext/1360937237/bme690_driver.o
 .text.BME690_DRIVER_Get_PAR_T1_CAL_MSB_Data
                0x0000000000000000        0x2 build/default/production/_ext/1360937237/bme690_driver.o
 .text.BME690_DRIVER_Store_PAR_T1_CAL_MSB_Data
                0x0000000000000000        0x2 build/default/production/_ext/1360937237/bme690_driver.o
 .text.BME690_DRIVER_Get_PAR_T2_CAL_LSB_Data
                0x0000000000000000        0x2 build/default/production/_ext/1360937237/bme690_driver.o
 .text.BME690_DRIVER_Store_PAR_T2_CAL_LSB_Data
                0x0000000000000000        0x2 build/default/production/_ext/1360937237/bme690_driver.o
 .text.BME690_DRIVER_Get_PAR_T2_CAL_MSB_Data
                0x0000000000000000        0x2 build/default/production/_ext/1360937237/bme690_driver.o
 .text.BME690_DRIVER_Store_PAR_T2_CAL_MSB_Data
                0x0000000000000000        0x2 build/default/production/_ext/1360937237/bme690_driver.o
 .text.BME690_DRIVER_Get_PAR_T3_CAL_LSB_Data
                0x0000000000000000        0x2 build/default/production/_ext/1360937237/bme690_driver.o
 .text.BME690_DRIVER_Store_PAR_T3_CAL_LSB_Data
                0x0000000000000000        0x2 build/default/production/_ext/1360937237/bme690_driver.o
 .text.BME690_DRIVER_Get_PAR_H1_CAL_LSB_Data
                0x0000000000000000        0x2 build/default/production/_ext/1360937237/bme690_driver.o
 .text.BME690_DRIVER_Store_PAR_H1_CAL_LSB_Data
                0x0000000000000000        0x2 build/default/production/_ext/1360937237/bme690_driver.o
 .text.BME690_DRIVER_Get_PAR_H1_CAL_MSB_Data
                0x0000000000000000        0x2 build/default/production/_ext/1360937237/bme690_driver.o
 .text.BME690_DRIVER_Store_PAR_H1_CAL_MSB_Data
                0x0000000000000000        0x2 build/default/production/_ext/1360937237/bme690_driver.o
 .text.BME690_DRIVER_Get_PAR_H2_CAL_LSB_Data
                0x0000000000000000        0x2 build/default/production/_ext/1360937237/bme690_driver.o
 .text.BME690_DRIVER_Store_PAR_H2_CAL_LSB_Data
                0x0000000000000000        0x2 build/default/production/_ext/1360937237/bme690_driver.o
 .text.BME690_DRIVER_Get_PAR_H3_CAL_LSB_Data
                0x0000000000000000        0x2 build/default/production/_ext/1360937237/bme690_driver.o
 .text.BME690_DRIVER_Store_PAR_H3_CAL_LSB_Data
                0x0000000000000000        0x2 build/default/production/_ext/1360937237/bme690_driver.o
 .text.BME690_DRIVER_Get_PAR_H4_CAL_LSB_Data
                0x0000000000000000        0x2 build/default/production/_ext/1360937237/bme690_driver.o
 .text.BME690_DRIVER_Store_PAR_H4_CAL_LSB_Data
                0x0000000000000000        0x2 build/default/production/_ext/1360937237/bme690_driver.o
 .text.BME690_DRIVER_Get_PAR_H5_CAL_LSB_Data
                0x0000000000000000        0x2 build/default/production/_ext/1360937237/bme690_driver.o
 .text.BME690_DRIVER_Store_PAR_H5_CAL_LSB_Data
                0x0000000000000000        0x2 build/default/production/_ext/1360937237/bme690_driver.o
 .text.BME690_DRIVER_Get_PAR_H5_CAL_MSB_Data
                0x0000000000000000        0x2 build/default/production/_ext/1360937237/bme690_driver.o
 .text.BME690_DRIVER_Store_PAR_H5_CAL_MSB_Data
                0x0000000000000000        0x2 build/default/production/_ext/1360937237/bme690_driver.o
 .text.BME690_DRIVER_Get_PAR_H6_CAL_LSB_Data
                0x0000000000000000        0x2 build/default/production/_ext/1360937237/bme690_driver.o
 .text.BME690_DRIVER_Store_PAR_H6_CAL_LSB_Data
                0x0000000000000000        0x2 build/default/production/_ext/1360937237/bme690_driver.o
 .text.BME690_DRIVER_Get_PAR_P1_CAL_LSB_Data
                0x0000000000000000        0x2 build/default/production/_ext/1360937237/bme690_driver.o
 .text.BME690_DRIVER_Store_PAR_P1_CAL_LSB_Data
                0x0000000000000000        0x2 build/default/production/_ext/1360937237/bme690_driver.o
 .text.BME690_DRIVER_Get_PAR_P1_CAL_MSB_Data
                0x0000000000000000        0x2 build/default/production/_ext/1360937237/bme690_driver.o
 .text.BME690_DRIVER_Store_PAR_P1_CAL_MSB_Data
                0x0000000000000000        0x2 build/default/production/_ext/1360937237/bme690_driver.o
 .text.BME690_DRIVER_Get_PAR_P2_CAL_LSB_Data
                0x0000000000000000        0x2 build/default/production/_ext/1360937237/bme690_driver.o
 .text.BME690_DRIVER_Store_PAR_P2_CAL_LSB_Data
                0x0000000000000000        0x2 build/default/production/_ext/1360937237/bme690_driver.o
 .text.BME690_DRIVER_Get_PAR_P2_CAL_MSB_Data
                0x0000000000000000        0x2 build/default/production/_ext/1360937237/bme690_driver.o
 .text.BME690_DRIVER_Store_PAR_P2_CAL_MSB_Data
                0x0000000000000000        0x2 build/default/production/_ext/1360937237/bme690_driver.o
 .text.BME690_DRIVER_Get_PAR_P3_CAL_LSB_Data
                0x0000000000000000        0x2 build/default/production/_ext/1360937237/bme690_driver.o
 .text.BME690_DRIVER_Store_PAR_P3_CAL_LSB_Data
                0x0000000000000000        0x2 build/default/production/_ext/1360937237/bme690_driver.o
 .text.BME690_DRIVER_Get_PAR_P4_CAL_LSB_Data
                0x0000000000000000        0x2 build/default/production/_ext/1360937237/bme690_driver.o
 .text.BME690_DRIVER_Store_PAR_P4_CAL_LSB_Data
                0x0000000000000000        0x2 build/default/production/_ext/1360937237/bme690_driver.o
 .text.BME690_DRIVER_Get_PAR_P5_CAL_LSB_Data
                0x0000000000000000        0x2 build/default/production/_ext/1360937237/bme690_driver.o
 .text.BME690_DRIVER_Store_PAR_P5_CAL_LSB_Data
                0x0000000000000000        0x2 build/default/production/_ext/1360937237/bme690_driver.o
 .text.BME690_DRIVER_Get_PAR_P5_CAL_MSB_Data
                0x0000000000000000        0x2 build/default/production/_ext/1360937237/bme690_driver.o
 .text.BME690_DRIVER_Store_PAR_P5_CAL_MSB_Data
                0x0000000000000000        0x2 build/default/production/_ext/1360937237/bme690_driver.o
 .text.BME690_DRIVER_Get_PAR_P6_CAL_LSB_Data
                0x0000000000000000        0x2 build/default/production/_ext/1360937237/bme690_driver.o
 .text.BME690_DRIVER_Store_PAR_P6_CAL_LSB_Data
                0x0000000000000000        0x2 build/default/production/_ext/1360937237/bme690_driver.o
 .text.BME690_DRIVER_Get_PAR_P6_CAL_MSB_Data
                0x0000000000000000        0x2 build/default/production/_ext/1360937237/bme690_driver.o
 .text.BME690_DRIVER_Store_PAR_P6_CAL_MSB_Data
                0x0000000000000000        0x2 build/default/production/_ext/1360937237/bme690_driver.o
 .text.BME690_DRIVER_Get_PAR_P7_CAL_LSB_Data
                0x0000000000000000        0x2 build/default/production/_ext/1360937237/bme690_driver.o
 .text.BME690_DRIVER_Store_PAR_P7_CAL_LSB_Data
                0x0000000000000000        0x2 build/default/production/_ext/1360937237/bme690_driver.o
 .text.BME690_DRIVER_Get_PAR_P8_CAL_LSB_Data
                0x0000000000000000        0x2 build/default/production/_ext/1360937237/bme690_driver.o
 .text.BME690_DRIVER_Store_PAR_P8_CAL_LSB_Data
                0x0000000000000000        0x2 build/default/production/_ext/1360937237/bme690_driver.o
 .text.BME690_DRIVER_Get_PAR_P9_CAL_LSB_Data
                0x0000000000000000        0x2 build/default/production/_ext/1360937237/bme690_driver.o
 .text.BME690_DRIVER_Store_PAR_P9_CAL_LSB_Data
                0x0000000000000000        0x2 build/default/production/_ext/1360937237/bme690_driver.o
 .text.BME690_DRIVER_Get_PAR_P9_CAL_MSB_Data
                0x0000000000000000        0x2 build/default/production/_ext/1360937237/bme690_driver.o
 .text.BME690_DRIVER_Store_PAR_P9_CAL_MSB_Data
                0x0000000000000000        0x2 build/default/production/_ext/1360937237/bme690_driver.o
 .text.BME690_DRIVER_Get_PAR_P10_CAL_LSB_Data
                0x0000000000000000        0x2 build/default/production/_ext/1360937237/bme690_driver.o
 .text.BME690_DRIVER_Store_PAR_P10_CAL_LSB_Data
                0x0000000000000000        0x2 build/default/production/_ext/1360937237/bme690_driver.o
 .text.BME690_DRIVER_Get_PAR_P11_CAL_LSB_Data
                0x0000000000000000        0x2 build/default/production/_ext/1360937237/bme690_driver.o
 .text.BME690_DRIVER_Store_PAR_P11_CAL_LSB_Data
                0x0000000000000000        0x2 build/default/production/_ext/1360937237/bme690_driver.o
 .text.BME690_DRIVER_Get_PAR_G1_CAL_LSB_Data
                0x0000000000000000        0x2 build/default/production/_ext/1360937237/bme690_driver.o
 .text.BME690_DRIVER_Store_PAR_G1_CAL_LSB_Data
                0x0000000000000000        0x2 build/default/production/_ext/1360937237/bme690_driver.o
 .text.BME690_DRIVER_Get_PAR_G2_CAL_LSB_Data
                0x0000000000000000        0x2 build/default/production/_ext/1360937237/bme690_driver.o
 .text.BME690_DRIVER_Store_PAR_G2_CAL_LSB_Data
                0x0000000000000000        0x2 build/default/production/_ext/1360937237/bme690_driver.o
 .text.BME690_DRIVER_Get_PAR_G2_CAL_MSB_Data
                0x0000000000000000        0x2 build/default/production/_ext/1360937237/bme690_driver.o
 .text.BME690_DRIVER_Store_PAR_G2_CAL_MSB_Data
                0x0000000000000000        0x2 build/default/production/_ext/1360937237/bme690_driver.o
 .text.BME690_DRIVER_Get_PAR_G3_CAL_LSB_Data
                0x0000000000000000        0x2 build/default/production/_ext/1360937237/bme690_driver.o
 .text.BME690_DRIVER_Store_PAR_G3_CAL_LSB_Data
                0x0000000000000000        0x2 build/default/production/_ext/1360937237/bme690_driver.o
 .text.BME690_DRIVER_Set_Calibration_Registers
                0x0000000000000000        0x2 build/default/production/_ext/1360937237/bme690_driver.o
 .text.BME690_DRIVER_Set_Measure_Registers
                0x0000000000000000       0x9c build/default/production/_ext/1360937237/bme690_driver.o
 .text.BME690_DRIVER_Print_Data
                0x0000000000000000       0x34 build/default/production/_ext/1360937237/bme690_driver.o
 .bss.bme690_calData
                0x0000000000000000       0x2a build/default/production/_ext/1360937237/bme690_driver.o
 .bss.bme690_regData
                0x0000000000000000       0x24 build/default/production/_ext/1360937237/bme690_driver.o
 .bss.bme690_sensorData
                0x0000000000000000       0x48 build/default/production/_ext/1360937237/bme690_driver.o
 .rodata.BME690_DRIVER_Print_Data.str1.4
                0x0000000000000000       0x30 build/default/production/_ext/1360937237/bme690_driver.o
 .text          0x0000000000000000        0x0 build/default/production/_ext/1360937237/fcm360w_driver.o
 .data          0x0000000000000000        0x0 build/default/production/_ext/1360937237/fcm360w_driver.o
 .bss           0x0000000000000000        0x0 build/default/production/_ext/1360937237/fcm360w_driver.o
 .text.FCM360W_DRIVER_Get_Task_Start_Status
                0x0000000000000000        0xc build/default/production/_ext/1360937237/fcm360w_driver.o
 .text.FCM360W_DRIVER_Set_Task_Start_Status
                0x0000000000000000        0xc build/default/production/_ext/1360937237/fcm360w_driver.o
 .text.FCM360W_DRIVER_Get_Task_Completed_Status
                0x0000000000000000        0xc build/default/production/_ext/1360937237/fcm360w_driver.o
 .text.FCM360W_DRIVER_Set_Task_Completed_Status
                0x0000000000000000        0xc build/default/production/_ext/1360937237/fcm360w_driver.o
 .text.FCM360W_DRIVER_Set_QVERSION_Command
                0x0000000000000000       0x40 build/default/production/_ext/1360937237/fcm360w_driver.o
 .text.FCM360W_DRIVER_Set_QECHO_Command
                0x0000000000000000       0x40 build/default/production/_ext/1360937237/fcm360w_driver.o
 .text.FCM360W_DRIVER_Set_QGETIP_Command
                0x0000000000000000       0x40 build/default/production/_ext/1360937237/fcm360w_driver.o
 .text.FCM360W_DRIVER_Set_QSETBAND_Command
                0x0000000000000000       0x5c build/default/production/_ext/1360937237/fcm360w_driver.o
 .text.FCM360W_DRIVER_Set_QWLANOTA_Command
                0x0000000000000000       0x40 build/default/production/_ext/1360937237/fcm360w_driver.o
 .text.FCM360W_DRIVER_Set_QWLMAC_Command
                0x0000000000000000       0x40 build/default/production/_ext/1360937237/fcm360w_driver.o
 .text.FCM360W_DRIVER_Set_QSTAST_Command
                0x0000000000000000       0x40 build/default/production/_ext/1360937237/fcm360w_driver.o
 .text.FCM360W_DRIVER_Set_QSTADHCP_Command
                0x0000000000000000       0x54 build/default/production/_ext/1360937237/fcm360w_driver.o
 .text.FCM360W_DRIVER_Set_QAPSTATIC_Command
                0x0000000000000000       0x4c build/default/production/_ext/1360937237/fcm360w_driver.o
 .text.FCM360W_DRIVER_Set_QSTASTOP_Command
                0x0000000000000000       0x40 build/default/production/_ext/1360937237/fcm360w_driver.o
 .text.FCM360W_DRIVER_Set_QSOFTAP_Command
                0x0000000000000000       0x48 build/default/production/_ext/1360937237/fcm360w_driver.o
 .text.FCM360W_DRIVER_Set_QAPSTATE_Command
                0x0000000000000000       0x40 build/default/production/_ext/1360937237/fcm360w_driver.o
 .text.FCM360W_DRIVER_Set_QSOFTAPSTOP_Command
                0x0000000000000000       0x40 build/default/production/_ext/1360937237/fcm360w_driver.o
 .text.FCM360W_DRIVER_Set_QSTAAPINFO_Command
                0x0000000000000000       0x48 build/default/production/_ext/1360937237/fcm360w_driver.o
 .text.FCM360W_DRIVER_Set_QSTAAPINFODEF_Command
                0x0000000000000000       0x48 build/default/production/_ext/1360937237/fcm360w_driver.o
 .text.FCM360W_DRIVER_Set_QGETWIFISTATE_Command
                0x0000000000000000       0x40 build/default/production/_ext/1360937237/fcm360w_driver.o
 .text.FCM360W_DRIVER_Set_QWSCAN_Command
                0x0000000000000000       0x40 build/default/production/_ext/1360937237/fcm360w_driver.o
 .text.FCM360W_DRIVER_Set_QIDNSCFG_Command
                0x0000000000000000       0x5c build/default/production/_ext/1360937237/fcm360w_driver.o
 .text.FCM360W_DRIVER_Set_QWEBCFG_Command
                0x0000000000000000       0x40 build/default/production/_ext/1360937237/fcm360w_driver.o
 .text.FCM360W_DRIVER_Set_QSTAAPINFORMV_Command
                0x0000000000000000       0x40 build/default/production/_ext/1360937237/fcm360w_driver.o
 .text.FCM360W_DRIVER_Set_QBLEINIT_Command
                0x0000000000000000       0x5c build/default/production/_ext/1360937237/fcm360w_driver.o
 .text.FCM360W_DRIVER_Set_QBLEADDR_Command
                0x0000000000000000       0x40 build/default/production/_ext/1360937237/fcm360w_driver.o
 .text.FCM360W_DRIVER_Set_QBLENAME_Command
                0x0000000000000000       0x54 build/default/production/_ext/1360937237/fcm360w_driver.o
 .text.FCM360W_DRIVER_Set_QBLEADVPARAM_Command
                0x0000000000000000       0x48 build/default/production/_ext/1360937237/fcm360w_driver.o
 .text.FCM360W_DRIVER_Set_QBLEADVDATA_Command
                0x0000000000000000       0x40 build/default/production/_ext/1360937237/fcm360w_driver.o
 .text.FCM360W_DRIVER_Set_QBLEGATTSSRV_Command
                0x0000000000000000       0x40 build/default/production/_ext/1360937237/fcm360w_driver.o
 .text.FCM360W_DRIVER_Set_QBLEGATTSCHAR_Command
                0x0000000000000000       0x40 build/default/production/_ext/1360937237/fcm360w_driver.o
 .text.FCM360W_DRIVER_Set_QBLEGATTSSRVDONE_Command
                0x0000000000000000       0x40 build/default/production/_ext/1360937237/fcm360w_driver.o
 .text.FCM360W_DRIVER_Set_QBLEADVSTART_Command
                0x0000000000000000       0x40 build/default/production/_ext/1360937237/fcm360w_driver.o
 .text.FCM360W_DRIVER_Set_QBLEADVSTOP_Command
                0x0000000000000000       0x40 build/default/production/_ext/1360937237/fcm360w_driver.o
 .text.FCM360W_DRIVER_Set_QBLEGATTSNTFY_Command
                0x0000000000000000       0x48 build/default/production/_ext/1360937237/fcm360w_driver.o
 .text.FCM360W_DRIVER_Set_QICFG_Command
                0x0000000000000000      0x114 build/default/production/_ext/1360937237/fcm360w_driver.o
 .text.FCM360W_DRIVER_Set_QIOPEN_Command
                0x0000000000000000       0x74 build/default/production/_ext/1360937237/fcm360w_driver.o
 .text.FCM360W_DRIVER_Set_QICLOSE_Command
                0x0000000000000000       0x5c build/default/production/_ext/1360937237/fcm360w_driver.o
 .text.FCM360W_DRIVER_Set_QISTATE_Command
                0x0000000000000000       0x68 build/default/production/_ext/1360937237/fcm360w_driver.o
 .text.FCM360W_DRIVER_Set_QISEND_Command
                0x0000000000000000       0xa4 build/default/production/_ext/1360937237/fcm360w_driver.o
 .text.FCM360W_DRIVER_Set_QIRD_Command
                0x0000000000000000       0x88 build/default/production/_ext/1360937237/fcm360w_driver.o
 .text.FCM360W_DRIVER_Set_QIACCEPT_Command
                0x0000000000000000       0x5c build/default/production/_ext/1360937237/fcm360w_driver.o
 .text.FCM360W_DRIVER_Set_QISWTMD_Command
                0x0000000000000000       0x5c build/default/production/_ext/1360937237/fcm360w_driver.o
 .text.FCM360W_DRIVER_Set_QIGETERROR_Command
                0x0000000000000000       0x54 build/default/production/_ext/1360937237/fcm360w_driver.o
 .text.FCM360W_DRIVER_ATO_Command
                0x0000000000000000       0x40 build/default/production/_ext/1360937237/fcm360w_driver.o
 .text.FCM360W_DRIVER_Set_QPPPEXIT_Command
                0x0000000000000000       0x40 build/default/production/_ext/1360937237/fcm360w_driver.o
 .text.FCM360W_DRIVER_Set_QSSLCFG_Command
                0x0000000000000000      0x100 build/default/production/_ext/1360937237/fcm360w_driver.o
 .text.FCM360W_DRIVER_Set_QSSLOPEN_Command
                0x0000000000000000       0x68 build/default/production/_ext/1360937237/fcm360w_driver.o
 .text.FCM360W_DRIVER_Set_QSSLSEND_Command
                0x0000000000000000       0x70 build/default/production/_ext/1360937237/fcm360w_driver.o
 .text.FCM360W_DRIVER_Set_QSSLRECV_Command
                0x0000000000000000       0x5c build/default/production/_ext/1360937237/fcm360w_driver.o
 .text.FCM360W_DRIVER_Set_QSSLCLOSE_Command
                0x0000000000000000       0x5c build/default/production/_ext/1360937237/fcm360w_driver.o
 .text.FCM360W_DRIVER_Set_QSSLSTATE_Command
                0x0000000000000000       0x94 build/default/production/_ext/1360937237/fcm360w_driver.o
 .text.FCM360W_DRIVER_Set_QMTCFG_Command
                0x0000000000000000      0x178 build/default/production/_ext/1360937237/fcm360w_driver.o
 .text.FCM360W_DRIVER_Set_QMTOPEN_Command
                0x0000000000000000       0x70 build/default/production/_ext/1360937237/fcm360w_driver.o
 .text.FCM360W_DRIVER_Set_QMTCLOSE_Command
                0x0000000000000000       0x54 build/default/production/_ext/1360937237/fcm360w_driver.o
 .text.FCM360W_DRIVER_Set_QMTCONN_Command
                0x0000000000000000       0x74 build/default/production/_ext/1360937237/fcm360w_driver.o
 .text.FCM360W_DRIVER_Set_QMTDISC_Command
                0x0000000000000000       0x54 build/default/production/_ext/1360937237/fcm360w_driver.o
 .text.FCM360W_DRIVER_Set_QMTSUB_Command
                0x0000000000000000       0x64 build/default/production/_ext/1360937237/fcm360w_driver.o
 .text.FCM360W_DRIVER_Set_QMTUNS_Command
                0x0000000000000000       0x5c build/default/production/_ext/1360937237/fcm360w_driver.o
 .text.FCM360W_DRIVER_Set_QMTPUB_Command
                0x0000000000000000       0x6c build/default/production/_ext/1360937237/fcm360w_driver.o
 .text.FCM360W_DRIVER_Set_QMTRECV_Command
                0x0000000000000000       0x70 build/default/production/_ext/1360937237/fcm360w_driver.o
 .text.FCM360W_DRIVER_Set_QHTTPCFG_Command
                0x0000000000000000      0x11c build/default/production/_ext/1360937237/fcm360w_driver.o
 .text.FCM360W_DRIVER_Set_QHTTPGET_Command
                0x0000000000000000       0x54 build/default/production/_ext/1360937237/fcm360w_driver.o
 .text.FCM360W_DRIVER_Set_QHTTPPOST_Command
                0x0000000000000000       0x5c build/default/production/_ext/1360937237/fcm360w_driver.o
 .text.FCM360W_DRIVER_Set_QHTTPPUT_Command
                0x0000000000000000       0x5c build/default/production/_ext/1360937237/fcm360w_driver.o
 .text.FCM360W_DRIVER_Set_QHTTPREAD_Command
                0x0000000000000000       0x54 build/default/production/_ext/1360937237/fcm360w_driver.o
 .text.FCM360W_DRIVER_Set_QHTTPSTOP_Command
                0x0000000000000000       0x54 build/default/production/_ext/1360937237/fcm360w_driver.o
 .text.FCM360W_DRIVER_Set_QPING_Command
                0x0000000000000000       0x5c build/default/production/_ext/1360937237/fcm360w_driver.o
 .text.FCM360W_DRIVER_Set_QIDNSGIP_Command
                0x0000000000000000       0x54 build/default/production/_ext/1360937237/fcm360w_driver.o
 .text.FCM360W_DRIVER_Set_QFOPEN_Command
                0x0000000000000000       0x70 build/default/production/_ext/1360937237/fcm360w_driver.o
 .text.FCM360W_DRIVER_Set_QFREAD_Command
                0x0000000000000000       0x5c build/default/production/_ext/1360937237/fcm360w_driver.o
 .text.FCM360W_DRIVER_Set_QFWRITE_Command
                0x0000000000000000       0x5c build/default/production/_ext/1360937237/fcm360w_driver.o
 .text.FCM360W_DRIVER_Set_QFCLOSE_Command
                0x0000000000000000       0x54 build/default/production/_ext/1360937237/fcm360w_driver.o
 .text.FCM360W_DRIVER_Set_QFLST_Command
                0x0000000000000000       0x68 build/default/production/_ext/1360937237/fcm360w_driver.o
 .text.FCM360W_DRIVER_Set_Module_Response_Status
                0x0000000000000000        0xc build/default/production/_ext/1360937237/fcm360w_driver.o
 .rodata.FCM360W_DRIVER_ATO_Command.str1.4
                0x0000000000000000        0x4 build/default/production/_ext/1360937237/fcm360w_driver.o
 .rodata.FCM360W_DRIVER_Set_QAPSTATE_Command.str1.4
                0x0000000000000000        0xc build/default/production/_ext/1360937237/fcm360w_driver.o
 .rodata.FCM360W_DRIVER_Set_QAPSTATIC_Command.str1.4
                0x0000000000000000       0x24 build/default/production/_ext/1360937237/fcm360w_driver.o
 .rodata.FCM360W_DRIVER_Set_QBLEADDR_Command.str1.4
                0x0000000000000000        0xc build/default/production/_ext/1360937237/fcm360w_driver.o
 .rodata.FCM360W_DRIVER_Set_QBLEADVDATA_Command.str1.4
                0x0000000000000000       0x10 build/default/production/_ext/1360937237/fcm360w_driver.o
 .rodata.FCM360W_DRIVER_Set_QBLEADVPARAM_Command.str1.4
                0x0000000000000000       0x10 build/default/production/_ext/1360937237/fcm360w_driver.o
 .rodata.FCM360W_DRIVER_Set_QBLEADVSTART_Command.str1.4
                0x0000000000000000       0x10 build/default/production/_ext/1360937237/fcm360w_driver.o
 .rodata.FCM360W_DRIVER_Set_QBLEADVSTOP_Command.str1.4
                0x0000000000000000       0x10 build/default/production/_ext/1360937237/fcm360w_driver.o
 .rodata.FCM360W_DRIVER_Set_QBLEGATTSCHAR_Command.str1.4
                0x0000000000000000       0x14 build/default/production/_ext/1360937237/fcm360w_driver.o
 .rodata.FCM360W_DRIVER_Set_QBLEGATTSNTFY_Command.str1.4
                0x0000000000000000       0x24 build/default/production/_ext/1360937237/fcm360w_driver.o
 .rodata.FCM360W_DRIVER_Set_QBLEGATTSSRVDONE_Command.str1.4
                0x0000000000000000       0x14 build/default/production/_ext/1360937237/fcm360w_driver.o
 .rodata.FCM360W_DRIVER_Set_QBLEGATTSSRV_Command.str1.4
                0x0000000000000000       0x10 build/default/production/_ext/1360937237/fcm360w_driver.o
 .rodata.FCM360W_DRIVER_Set_QBLEINIT_Command.str1.4
                0x0000000000000000       0x18 build/default/production/_ext/1360937237/fcm360w_driver.o
 .rodata.FCM360W_DRIVER_Set_QBLENAME_Command.str1.4
                0x0000000000000000        0xc build/default/production/_ext/1360937237/fcm360w_driver.o
 .rodata.FCM360W_DRIVER_Set_QECHO_Command.str1.4
                0x0000000000000000       0x14 build/default/production/_ext/1360937237/fcm360w_driver.o
 .rodata.FCM360W_DRIVER_Set_QFCLOSE_Command.str1.4
                0x0000000000000000        0xc build/default/production/_ext/1360937237/fcm360w_driver.o
 .rodata.FCM360W_DRIVER_Set_QFLST_Command.str1.4
                0x0000000000000000        0xc build/default/production/_ext/1360937237/fcm360w_driver.o
 .rodata.FCM360W_DRIVER_Set_QFOPEN_Command.str1.4
                0x0000000000000000       0x18 build/default/production/_ext/1360937237/fcm360w_driver.o
 .rodata.FCM360W_DRIVER_Set_QFREAD_Command.str1.4
                0x0000000000000000        0xc build/default/production/_ext/1360937237/fcm360w_driver.o
 .rodata.FCM360W_DRIVER_Set_QFWRITE_Command.str1.4
                0x0000000000000000        0xc build/default/production/_ext/1360937237/fcm360w_driver.o
 .rodata.FCM360W_DRIVER_Set_QGETIP_Command.str1.4
                0x0000000000000000        0xc build/default/production/_ext/1360937237/fcm360w_driver.o
 .rodata.FCM360W_DRIVER_Set_QGETWIFISTATE_Command.str1.4
                0x0000000000000000       0x14 build/default/production/_ext/1360937237/fcm360w_driver.o
 .rodata.FCM360W_DRIVER_Set_QHTTPCFG_Command.str1.4
                0x0000000000000000       0xa8 build/default/production/_ext/1360937237/fcm360w_driver.o
 .rodata.FCM360W_DRIVER_Set_QHTTPGET_Command.str1.4
                0x0000000000000000        0xc build/default/production/_ext/1360937237/fcm360w_driver.o
 .rodata.FCM360W_DRIVER_Set_QHTTPPOST_Command.str1.4
                0x0000000000000000       0x10 build/default/production/_ext/1360937237/fcm360w_driver.o
 .rodata.FCM360W_DRIVER_Set_QHTTPPUT_Command.str1.4
                0x0000000000000000        0xc build/default/production/_ext/1360937237/fcm360w_driver.o
 .rodata.FCM360W_DRIVER_Set_QHTTPREAD_Command.str1.4
                0x0000000000000000       0x10 build/default/production/_ext/1360937237/fcm360w_driver.o
 .rodata.FCM360W_DRIVER_Set_QHTTPSTOP_Command.str1.4
                0x0000000000000000       0x10 build/default/production/_ext/1360937237/fcm360w_driver.o
 .rodata.FCM360W_DRIVER_Set_QIACCEPT_Command.str1.4
                0x0000000000000000       0x1c build/default/production/_ext/1360937237/fcm360w_driver.o
 .rodata.FCM360W_DRIVER_Set_QICFG_Command.str1.4
                0x0000000000000000       0xc8 build/default/production/_ext/1360937237/fcm360w_driver.o
 .rodata.FCM360W_DRIVER_Set_QICLOSE_Command.str1.4
                0x0000000000000000        0xc build/default/production/_ext/1360937237/fcm360w_driver.o
 .rodata.FCM360W_DRIVER_Set_QIDNSCFG_Command.str1.4
                0x0000000000000000        0xc build/default/production/_ext/1360937237/fcm360w_driver.o
 .rodata.FCM360W_DRIVER_Set_QIDNSGIP_Command.str1.4
                0x0000000000000000       0x14 build/default/production/_ext/1360937237/fcm360w_driver.o
 .rodata.FCM360W_DRIVER_Set_QIGETERROR_Command.str1.4
                0x0000000000000000       0x14 build/default/production/_ext/1360937237/fcm360w_driver.o
 .rodata.FCM360W_DRIVER_Set_QIOPEN_Command.str1.4
                0x0000000000000000       0x28 build/default/production/_ext/1360937237/fcm360w_driver.o
 .rodata.FCM360W_DRIVER_Set_QIRD_Command.str1.4
                0x0000000000000000        0x8 build/default/production/_ext/1360937237/fcm360w_driver.o
 .rodata.FCM360W_DRIVER_Set_QISEND_Command.str1.4
                0x0000000000000000       0x34 build/default/production/_ext/1360937237/fcm360w_driver.o
 .rodata.FCM360W_DRIVER_Set_QISTATE_Command.str1.4
                0x0000000000000000       0x24 build/default/production/_ext/1360937237/fcm360w_driver.o
 .rodata.FCM360W_DRIVER_Set_QISWTMD_Command.str1.4
                0x0000000000000000        0xc build/default/production/_ext/1360937237/fcm360w_driver.o
 .rodata.FCM360W_DRIVER_Set_QMTCFG_Command.str1.4
                0x0000000000000000       0xbc build/default/production/_ext/1360937237/fcm360w_driver.o
 .rodata.FCM360W_DRIVER_Set_QMTCLOSE_Command.str1.4
                0x0000000000000000        0xc build/default/production/_ext/1360937237/fcm360w_driver.o
 .rodata.FCM360W_DRIVER_Set_QMTCONN_Command.str1.4
                0x0000000000000000       0x1c build/default/production/_ext/1360937237/fcm360w_driver.o
 .rodata.FCM360W_DRIVER_Set_QMTDISC_Command.str1.4
                0x0000000000000000        0xc build/default/production/_ext/1360937237/fcm360w_driver.o
 .rodata.FCM360W_DRIVER_Set_QMTOPEN_Command.str1.4
                0x0000000000000000       0x1c build/default/production/_ext/1360937237/fcm360w_driver.o
 .rodata.FCM360W_DRIVER_Set_QMTPUB_Command.str1.4
                0x0000000000000000       0x24 build/default/production/_ext/1360937237/fcm360w_driver.o
 .rodata.FCM360W_DRIVER_Set_QMTRECV_Command.str1.4
                0x0000000000000000       0x18 build/default/production/_ext/1360937237/fcm360w_driver.o
 .rodata.FCM360W_DRIVER_Set_QMTSUB_Command.str1.4
                0x0000000000000000        0xc build/default/production/_ext/1360937237/fcm360w_driver.o
 .rodata.FCM360W_DRIVER_Set_QMTUNS_Command.str1.4
                0x0000000000000000       0x1c build/default/production/_ext/1360937237/fcm360w_driver.o
 .rodata.FCM360W_DRIVER_Set_QPING_Command.str1.4
                0x0000000000000000        0xc build/default/production/_ext/1360937237/fcm360w_driver.o
 .rodata.FCM360W_DRIVER_Set_QPPPEXIT_Command.str1.4
                0x0000000000000000        0x4 build/default/production/_ext/1360937237/fcm360w_driver.o
 .rodata.FCM360W_DRIVER_Set_QSETBAND_Command.str1.4
                0x0000000000000000       0x20 build/default/production/_ext/1360937237/fcm360w_driver.o
 .rodata.FCM360W_DRIVER_Set_QSOFTAPSTOP_Command.str1.4
                0x0000000000000000       0x10 build/default/production/_ext/1360937237/fcm360w_driver.o
 .rodata.FCM360W_DRIVER_Set_QSOFTAP_Command.str1.4
                0x0000000000000000       0x18 build/default/production/_ext/1360937237/fcm360w_driver.o
 .rodata.FCM360W_DRIVER_Set_QSSLCFG_Command.str1.4
                0x0000000000000000       0xac build/default/production/_ext/1360937237/fcm360w_driver.o
 .rodata.FCM360W_DRIVER_Set_QSSLCLOSE_Command.str1.4
                0x0000000000000000       0x10 build/default/production/_ext/1360937237/fcm360w_driver.o
 .rodata.FCM360W_DRIVER_Set_QSSLOPEN_Command.str1.4
                0x0000000000000000       0x20 build/default/production/_ext/1360937237/fcm360w_driver.o
 .rodata.FCM360W_DRIVER_Set_QSSLRECV_Command.str1.4
                0x0000000000000000        0xc build/default/production/_ext/1360937237/fcm360w_driver.o
 .rodata.FCM360W_DRIVER_Set_QSSLSEND_Command.str1.4
                0x0000000000000000        0xc build/default/production/_ext/1360937237/fcm360w_driver.o
 .rodata.FCM360W_DRIVER_Set_QSSLSTATE_Command.str1.4
                0x0000000000000000       0x10 build/default/production/_ext/1360937237/fcm360w_driver.o
 .rodata.FCM360W_DRIVER_Set_QSTAAPINFODEF_Command.str1.4
                0x0000000000000000       0x14 build/default/production/_ext/1360937237/fcm360w_driver.o
 .rodata.FCM360W_DRIVER_Set_QSTAAPINFORMV_Command.str1.4
                0x0000000000000000       0x14 build/default/production/_ext/1360937237/fcm360w_driver.o
 .rodata.FCM360W_DRIVER_Set_QSTAAPINFO_Command.str1.4
                0x0000000000000000       0x10 build/default/production/_ext/1360937237/fcm360w_driver.o
 .rodata.FCM360W_DRIVER_Set_QSTADHCP_Command.str1.4
                0x0000000000000000        0xc build/default/production/_ext/1360937237/fcm360w_driver.o
 .rodata.FCM360W_DRIVER_Set_QSTASTOP_Command.str1.4
                0x0000000000000000        0xc build/default/production/_ext/1360937237/fcm360w_driver.o
 .rodata.FCM360W_DRIVER_Set_QSTAST_Command.str1.4
                0x0000000000000000        0xc build/default/production/_ext/1360937237/fcm360w_driver.o
 .rodata.FCM360W_DRIVER_Set_QVERSION_Command.str1.4
                0x0000000000000000        0xc build/default/production/_ext/1360937237/fcm360w_driver.o
 .rodata.FCM360W_DRIVER_Set_QWEBCFG_Command.str1.4
                0x0000000000000000        0xc build/default/production/_ext/1360937237/fcm360w_driver.o
 .rodata.FCM360W_DRIVER_Set_QWLANOTA_Command.str1.4
                0x0000000000000000       0x14 build/default/production/_ext/1360937237/fcm360w_driver.o
 .rodata.FCM360W_DRIVER_Set_QWLMAC_Command.str1.4
                0x0000000000000000        0xc build/default/production/_ext/1360937237/fcm360w_driver.o
 .rodata.FCM360W_DRIVER_Set_QWSCAN_Command.str1.4
                0x0000000000000000        0xc build/default/production/_ext/1360937237/fcm360w_driver.o
 .text          0x0000000000000000        0x0 build/default/production/_ext/1360937237/console_driver.o
 .data          0x0000000000000000        0x0 build/default/production/_ext/1360937237/console_driver.o
 .bss           0x0000000000000000        0x0 build/default/production/_ext/1360937237/console_driver.o
 .text.CONSOLE_DRIVER_Get_Task_Start_Status
                0x0000000000000000        0xc build/default/production/_ext/1360937237/console_driver.o
 .text          0x0000000000000000        0x0 build/default/production/_ext/1360937237/hdc302x_driver.o
 .data          0x0000000000000000        0x0 build/default/production/_ext/1360937237/hdc302x_driver.o
 .bss           0x0000000000000000        0x0 build/default/production/_ext/1360937237/hdc302x_driver.o
 .text.HDC302X_DRIVER_Temperature_Alert
                0x0000000000000000        0xc build/default/production/_ext/1360937237/hdc302x_driver.o
 .text.HDC302X_DRIVER_Get_Task_Start_Status
                0x0000000000000000        0xc build/default/production/_ext/1360937237/hdc302x_driver.o
 .text.HDC302X_DRIVER_Set_I2C_Address
                0x0000000000000000       0x18 build/default/production/_ext/1360937237/hdc302x_driver.o
 .text.HDC302X_DRIVER_Get_Offset_Values
                0x0000000000000000       0x34 build/default/production/_ext/1360937237/hdc302x_driver.o
 .text.HDC302X_DRIVER_Store_Offset_Values
                0x0000000000000000       0x18 build/default/production/_ext/1360937237/hdc302x_driver.o
 .text.HDC302X_DRIVER_Get_Set_High_Alert
                0x0000000000000000       0x34 build/default/production/_ext/1360937237/hdc302x_driver.o
 .text.HDC302X_DRIVER_Store_Set_High_Alert
                0x0000000000000000       0x18 build/default/production/_ext/1360937237/hdc302x_driver.o
 .text.HDC302X_DRIVER_Get_Clear_High_Alert
                0x0000000000000000       0x34 build/default/production/_ext/1360937237/hdc302x_driver.o
 .text.HDC302X_DRIVER_Store_Clear_High_Alert
                0x0000000000000000       0x18 build/default/production/_ext/1360937237/hdc302x_driver.o
 .text.HDC302X_DRIVER_Get_Set_Low_Alert
                0x0000000000000000       0x34 build/default/production/_ext/1360937237/hdc302x_driver.o
 .text.HDC302X_DRIVER_Store_Set_Low_Alert
                0x0000000000000000       0x18 build/default/production/_ext/1360937237/hdc302x_driver.o
 .text.HDC302X_DRIVER_Get_Clear_Low_Alert
                0x0000000000000000       0x34 build/default/production/_ext/1360937237/hdc302x_driver.o
 .text.HDC302X_DRIVER_Store_Clear_Low_Alert
                0x0000000000000000       0x18 build/default/production/_ext/1360937237/hdc302x_driver.o
 .text.HDC302X_DRIVER_Enter_Auto_Measurement_Mode
                0x0000000000000000       0x30 build/default/production/_ext/1360937237/hdc302x_driver.o
 .text.HDC302X_DRIVER_Exit_Auto_Measurement_Mode
                0x0000000000000000       0x30 build/default/production/_ext/1360937237/hdc302x_driver.o
 .text.HDC302X_DRIVER_Start_Manual_Measurement
                0x0000000000000000       0x30 build/default/production/_ext/1360937237/hdc302x_driver.o
 .text.HDC302X_DRIVER_Get_Manual_Measure_Values
                0x0000000000000000       0x20 build/default/production/_ext/1360937237/hdc302x_driver.o
 .text.HDC302X_DRIVER_Get_Auto_Measure_Values
                0x0000000000000000       0x34 build/default/production/_ext/1360937237/hdc302x_driver.o
 .text.HDC302X_DRIVER_Store_Measurement_Values
                0x0000000000000000       0x24 build/default/production/_ext/1360937237/hdc302x_driver.o
 .text.HDC302X_DRIVER_Get_Minimum_Temperature_Value
                0x0000000000000000       0x34 build/default/production/_ext/1360937237/hdc302x_driver.o
 .text.HDC302X_DRIVER_Store_Minimum_Temperature_Value
                0x0000000000000000       0x18 build/default/production/_ext/1360937237/hdc302x_driver.o
 .text.HDC302X_DRIVER_Get_Maximum_Temperature_Value
                0x0000000000000000       0x30 build/default/production/_ext/1360937237/hdc302x_driver.o
 .text.HDC302X_DRIVER_Store_Maximum_Temperature_Value
                0x0000000000000000       0x18 build/default/production/_ext/1360937237/hdc302x_driver.o
 .text.HDC302X_DRIVER_Get_Minimum_Humidity_Value
                0x0000000000000000       0x34 build/default/production/_ext/1360937237/hdc302x_driver.o
 .text.HDC302X_DRIVER_Store_Minimum_Humidity_Value
                0x0000000000000000       0x18 build/default/production/_ext/1360937237/hdc302x_driver.o
 .text.HDC302X_DRIVER_Get_Maximum_Humidity_Value
                0x0000000000000000       0x34 build/default/production/_ext/1360937237/hdc302x_driver.o
 .text.HDC302X_DRIVER_Store_Maximum_Humidity_Value
                0x0000000000000000       0x18 build/default/production/_ext/1360937237/hdc302x_driver.o
 .text.HDC302X_DRIVER_Calculation_Temperature
                0x0000000000000000       0x48 build/default/production/_ext/1360937237/hdc302x_driver.o
 .text.HDC302X_DRIVER_Calculation_Humidity
                0x0000000000000000       0x24 build/default/production/_ext/1360937237/hdc302x_driver.o
 .text.HDC302X_DRIVER_Get_Sensor_Status
                0x0000000000000000       0x34 build/default/production/_ext/1360937237/hdc302x_driver.o
 .text.HDC302X_DRIVER_Store_Sensor_Status
                0x0000000000000000       0x18 build/default/production/_ext/1360937237/hdc302x_driver.o
 .text.HDC302X_DRIVER_Get_NIST_3
                0x0000000000000000       0x34 build/default/production/_ext/1360937237/hdc302x_driver.o
 .text.HDC302X_DRIVER_Store_NIST_3
                0x0000000000000000       0x18 build/default/production/_ext/1360937237/hdc302x_driver.o
 .text.HDC302X_DRIVER_Get_NIST_2
                0x0000000000000000       0x34 build/default/production/_ext/1360937237/hdc302x_driver.o
 .text.HDC302X_DRIVER_Store_NIST_2
                0x0000000000000000       0x18 build/default/production/_ext/1360937237/hdc302x_driver.o
 .text.HDC302X_DRIVER_Get_NIST_1
                0x0000000000000000       0x34 build/default/production/_ext/1360937237/hdc302x_driver.o
 .text.HDC302X_DRIVER_Store_NIST_1
                0x0000000000000000       0x18 build/default/production/_ext/1360937237/hdc302x_driver.o
 .text.HDC302X_DRIVER_Soft_Reset
                0x0000000000000000       0x28 build/default/production/_ext/1360937237/hdc302x_driver.o
 .text.HDC302X_DRIVER_Enable_Heater
                0x0000000000000000       0x28 build/default/production/_ext/1360937237/hdc302x_driver.o
 .text.HDC302X_DRIVER_Disable_Heater
                0x0000000000000000       0x28 build/default/production/_ext/1360937237/hdc302x_driver.o
 .text.HDC302X_DRIVER_Calculation_CRC
                0x0000000000000000       0x40 build/default/production/_ext/1360937237/hdc302x_driver.o
 .text.HDC302X_DRIVER_Calculation_Array_CRC
                0x0000000000000000       0x16 build/default/production/_ext/1360937237/hdc302x_driver.o
 .text.HDC302X_DRIVER_Set_Offset_Values
                0x0000000000000000       0x40 build/default/production/_ext/1360937237/hdc302x_driver.o
 .text.HDC302X_DRIVER_Set_Set_High_Alert
                0x0000000000000000       0x40 build/default/production/_ext/1360937237/hdc302x_driver.o
 .text.HDC302X_DRIVER_Set_Clear_High_Alert
                0x0000000000000000       0x40 build/default/production/_ext/1360937237/hdc302x_driver.o
 .text.HDC302X_DRIVER_Set_Set_Low_Alert
                0x0000000000000000       0x40 build/default/production/_ext/1360937237/hdc302x_driver.o
 .text.HDC302X_DRIVER_Set_Clear_Low_Alert
                0x0000000000000000       0x40 build/default/production/_ext/1360937237/hdc302x_driver.o
 .text.HDC302X_DRIVER_Configuration_Heater
                0x0000000000000000       0x3c build/default/production/_ext/1360937237/hdc302x_driver.o
 .text.HDC302X_DRIVER_Set_Offset_Code
                0x0000000000000000       0x30 build/default/production/_ext/1360937237/hdc302x_driver.o
 .text.HDC302X_DRIVER_Set_ALERT_Code
                0x0000000000000000       0x28 build/default/production/_ext/1360937237/hdc302x_driver.o
 .bss.hdc302x_sensorSettings
                0x0000000000000000        0xc build/default/production/_ext/1360937237/hdc302x_driver.o
 .text          0x0000000000000000        0x0 build/default/production/_ext/1360937237/fan_driver.o
 .data          0x0000000000000000        0x0 build/default/production/_ext/1360937237/fan_driver.o
 .bss           0x0000000000000000        0x0 build/default/production/_ext/1360937237/fan_driver.o
 .text          0x0000000000000000        0x0 build/default/production/_ext/1360937237/ntc_driver.o
 .data          0x0000000000000000        0x0 build/default/production/_ext/1360937237/ntc_driver.o
 .bss           0x0000000000000000        0x0 build/default/production/_ext/1360937237/ntc_driver.o
 .text.NTC_DRIVER_Get_Task_Start_Status
                0x0000000000000000        0xc build/default/production/_ext/1360937237/ntc_driver.o
 .text.NTC_DRIVER_Set_Task_Start_Status
                0x0000000000000000        0xc build/default/production/_ext/1360937237/ntc_driver.o
 .text.NTC_DRIVER_Get_Task_Completed_Status
                0x0000000000000000        0xc build/default/production/_ext/1360937237/ntc_driver.o
 .text.NTC_DRIVER_Set_Task_Completed_Status
                0x0000000000000000        0xc build/default/production/_ext/1360937237/ntc_driver.o
 .text.NTC_DRIVER_Print_Data
                0x0000000000000000       0x24 build/default/production/_ext/1360937237/ntc_driver.o
 .rodata.NTC_DRIVER_Print_Data.str1.4
                0x0000000000000000       0x1c build/default/production/_ext/1360937237/ntc_driver.o
 .text          0x0000000000000000        0x0 build/default/production/_ext/1360937237/timer_driver.o
 .data          0x0000000000000000        0x0 build/default/production/_ext/1360937237/timer_driver.o
 .bss           0x0000000000000000        0x0 build/default/production/_ext/1360937237/timer_driver.o
 .text.TIMER_DRIVER_Set_Wait_TMR_Status
                0x0000000000000000        0xc build/default/production/_ext/1360937237/timer_driver.o
 .text          0x0000000000000000        0x0 build/default/production/_ext/1360937237/xm125_driver.o
 .data          0x0000000000000000        0x0 build/default/production/_ext/1360937237/xm125_driver.o
 .bss           0x0000000000000000        0x0 build/default/production/_ext/1360937237/xm125_driver.o
 .text          0x0000000000000000        0x0 build/default/production/_ext/1360937237/sen6x_driver.o
 .data          0x0000000000000000        0x0 build/default/production/_ext/1360937237/sen6x_driver.o
 .bss           0x0000000000000000        0x0 build/default/production/_ext/1360937237/sen6x_driver.o
 .text.SEN6X_DRIVER_Get_Task_Start_Status
                0x0000000000000000        0xc build/default/production/_ext/1360937237/sen6x_driver.o
 .text.SEN6X_DRIVER_Set_Task_Start_Status
                0x0000000000000000        0xc build/default/production/_ext/1360937237/sen6x_driver.o
 .text.SEN6X_DRIVER_Get_Task_Completed_Status
                0x0000000000000000        0xc build/default/production/_ext/1360937237/sen6x_driver.o
 .text.SEN6X_DRIVER_Set_Task_Completed_Status
                0x0000000000000000        0xc build/default/production/_ext/1360937237/sen6x_driver.o
 .text.SEN6X_DRIVER_Set_I2C_Address
                0x0000000000000000       0x10 build/default/production/_ext/1360937237/sen6x_driver.o
 .text          0x0000000000000000        0x0 build/default/production/_ext/1360937237/ws281x_driver.o
 .data          0x0000000000000000        0x0 build/default/production/_ext/1360937237/ws281x_driver.o
 .bss           0x0000000000000000        0x0 build/default/production/_ext/1360937237/ws281x_driver.o
 .text.WS281X_DRIVER_Get_Task_Start_Status
                0x0000000000000000        0xc build/default/production/_ext/1360937237/ws281x_driver.o
 .text.WS281X_DRIVER_Set_Task_Start_Status
                0x0000000000000000        0xc build/default/production/_ext/1360937237/ws281x_driver.o
 .text.WS281X_DRIVER_Get_Task_Completed_Status
                0x0000000000000000        0xc build/default/production/_ext/1360937237/ws281x_driver.o
 .text.WS281X_DRIVER_Set_Task_Completed_Status
                0x0000000000000000        0xc build/default/production/_ext/1360937237/ws281x_driver.o
 .text.WS281X_DRIVER_Set_Color
                0x0000000000000000       0x10 build/default/production/_ext/1360937237/ws281x_driver.o
 .text.WS281X_DRIVER_Print_Data
                0x0000000000000000       0x20 build/default/production/_ext/1360937237/ws281x_driver.o
 .rodata.WS281X_DRIVER_Print_Data.str1.4
                0x0000000000000000       0x40 build/default/production/_ext/1360937237/ws281x_driver.o
 .text          0x0000000000000000        0x0 build/default/production/_ext/1360937237/app.o
 .data          0x0000000000000000        0x0 build/default/production/_ext/1360937237/app.o
 .bss           0x0000000000000000        0x0 build/default/production/_ext/1360937237/app.o
 .text.APP_Get_CAN0_Error_Status
                0x0000000000000000        0xc build/default/production/_ext/1360937237/app.o
 .text.APP_Set_CAN0_Error_Status
                0x0000000000000000        0xc build/default/production/_ext/1360937237/app.o
 .text.APP_Get_I2C_Error_Status
                0x0000000000000000        0xc build/default/production/_ext/1360937237/app.o
 .text.APP_Set_I2C_Error_Status
                0x0000000000000000        0xc build/default/production/_ext/1360937237/app.o
 .text.APP_Get_SPI_Error_Status
                0x0000000000000000        0xc build/default/production/_ext/1360937237/app.o
 .text.APP_Set_SPI_Error_Status
                0x0000000000000000        0xc build/default/production/_ext/1360937237/app.o
 .text.APP_Get_UART_Error_Status
                0x0000000000000000        0xc build/default/production/_ext/1360937237/app.o
 .text.APP_Set_UART_Error_Status
                0x0000000000000000        0xc build/default/production/_ext/1360937237/app.o
 .text          0x0000000000000000        0x0 build/default/production/_ext/1360937237/main.o
 .data          0x0000000000000000        0x0 build/default/production/_ext/1360937237/main.o
 .bss           0x0000000000000000        0x0 build/default/production/_ext/1360937237/main.o
 .text          0x0000000000000000        0x0 build/default/production/_ext/1827571544/plib_systick.o
 .data          0x0000000000000000        0x0 build/default/production/_ext/1827571544/plib_systick.o
 .bss           0x0000000000000000        0x0 build/default/production/_ext/1827571544/plib_systick.o
 .text.SYSTICK_TimerRestart
                0x0000000000000000       0x1c build/default/production/_ext/1827571544/plib_systick.o
 .text.SYSTICK_TimerPeriodGet
                0x0000000000000000        0xc build/default/production/_ext/1827571544/plib_systick.o
 .text.SYSTICK_TimerCounterGet
                0x0000000000000000        0xc build/default/production/_ext/1827571544/plib_systick.o
 .text.SYSTICK_DelayMs
                0x0000000000000000       0x40 build/default/production/_ext/1827571544/plib_systick.o
 .text.SYSTICK_DelayUs
                0x0000000000000000       0x3c build/default/production/_ext/1827571544/plib_systick.o
 .text.SYSTICK_GetTickCounter
                0x0000000000000000        0xc build/default/production/_ext/1827571544/plib_systick.o
 .text.SYSTICK_StartTimeOut
                0x0000000000000000       0x24 build/default/production/_ext/1827571544/plib_systick.o
 .text.SYSTICK_ResetTimeOut
                0x0000000000000000        0xc build/default/production/_ext/1827571544/plib_systick.o
 .text.SYSTICK_IsTimeoutReached
                0x0000000000000000       0x18 build/default/production/_ext/1827571544/plib_systick.o
 .text          0x0000000000000000        0x0 build/default/production/_ext/60184501/plib_wdt.o
 .data          0x0000000000000000        0x0 build/default/production/_ext/60184501/plib_wdt.o
 .bss           0x0000000000000000        0x0 build/default/production/_ext/60184501/plib_wdt.o
 .text.WDT_Disable
                0x0000000000000000       0x20 build/default/production/_ext/60184501/plib_wdt.o
 .text.WDT_EnableWindowMode
                0x0000000000000000       0x34 build/default/production/_ext/60184501/plib_wdt.o
 .text.WDT_DisableWindowMode
                0x0000000000000000       0x34 build/default/production/_ext/60184501/plib_wdt.o
 .text.WDT_IsEnabled
                0x0000000000000000       0x14 build/default/production/_ext/60184501/plib_wdt.o
 .text.WDT_IsAlwaysOn
                0x0000000000000000        0xc build/default/production/_ext/60184501/plib_wdt.o
 .text.WDT_IsWindowModeEnabled
                0x0000000000000000       0x10 build/default/production/_ext/60184501/plib_wdt.o
 .text.WDT_ClearWithSync
                0x0000000000000000       0x1c build/default/production/_ext/60184501/plib_wdt.o
 .text          0x0000000000000000        0x0 c:/applications/microchip/xc32/bin/bin/../../lib/gcc/pic32c/8.3.1/../../../../pic32c/lib/thumb/v6-m/nofp\libpic32c.a(data_init.o)
 .data          0x0000000000000000        0x0 c:/applications/microchip/xc32/bin/bin/../../lib/gcc/pic32c/8.3.1/../../../../pic32c/lib/thumb/v6-m/nofp\libpic32c.a(data_init.o)
 .xc_stack_usage
                0x0000000000000000       0x68 c:/applications/microchip/xc32/bin/bin/../../lib/gcc/pic32c/8.3.1/../../../../pic32c/lib/thumb/v6-m/nofp\libpic32c.a(data_init.o)
 .xc_stack_usage.hdr
                0x0000000000000000        0xe c:/applications/microchip/xc32/bin/bin/../../lib/gcc/pic32c/8.3.1/../../../../pic32c/lib/thumb/v6-m/nofp\libpic32c.a(data_init.o)
 .text          0x0000000000000000        0x0 c:/applications/microchip/xc32/bin/bin/../../lib/gcc/pic32c/8.3.1/../../../../pic32c/lib/thumb/v6-m/nofp\libc-size-musl.a(memcpy.o)
 .data          0x0000000000000000        0x0 c:/applications/microchip/xc32/bin/bin/../../lib/gcc/pic32c/8.3.1/../../../../pic32c/lib/thumb/v6-m/nofp\libc-size-musl.a(memcpy.o)
 .bss           0x0000000000000000        0x0 c:/applications/microchip/xc32/bin/bin/../../lib/gcc/pic32c/8.3.1/../../../../pic32c/lib/thumb/v6-m/nofp\libc-size-musl.a(memcpy.o)
 .xc_stack_usage
                0x0000000000000000       0x14 c:/applications/microchip/xc32/bin/bin/../../lib/gcc/pic32c/8.3.1/../../../../pic32c/lib/thumb/v6-m/nofp\libc-size-musl.a(memcpy.o)
 .xc_stack_usage.hdr
                0x0000000000000000        0xe c:/applications/microchip/xc32/bin/bin/../../lib/gcc/pic32c/8.3.1/../../../../pic32c/lib/thumb/v6-m/nofp\libc-size-musl.a(memcpy.o)
 .text          0x0000000000000000        0x0 c:/applications/microchip/xc32/bin/bin/../../lib/gcc/pic32c/8.3.1/../../../../pic32c/lib/thumb/v6-m/nofp\libc-size-musl.a(memset.o)
 .data          0x0000000000000000        0x0 c:/applications/microchip/xc32/bin/bin/../../lib/gcc/pic32c/8.3.1/../../../../pic32c/lib/thumb/v6-m/nofp\libc-size-musl.a(memset.o)
 .bss           0x0000000000000000        0x0 c:/applications/microchip/xc32/bin/bin/../../lib/gcc/pic32c/8.3.1/../../../../pic32c/lib/thumb/v6-m/nofp\libc-size-musl.a(memset.o)
 .xc_stack_usage
                0x0000000000000000       0x14 c:/applications/microchip/xc32/bin/bin/../../lib/gcc/pic32c/8.3.1/../../../../pic32c/lib/thumb/v6-m/nofp\libc-size-musl.a(memset.o)
 .xc_stack_usage.hdr
                0x0000000000000000        0xe c:/applications/microchip/xc32/bin/bin/../../lib/gcc/pic32c/8.3.1/../../../../pic32c/lib/thumb/v6-m/nofp\libc-size-musl.a(memset.o)
 .text          0x0000000000000000        0x0 c:/applications/microchip/xc32/bin/bin/../../lib/gcc/pic32c/8.3.1/../../../../pic32c/lib/thumb/v6-m/nofp\libc-size-musl.a(strlen.o)
 .data          0x0000000000000000        0x0 c:/applications/microchip/xc32/bin/bin/../../lib/gcc/pic32c/8.3.1/../../../../pic32c/lib/thumb/v6-m/nofp\libc-size-musl.a(strlen.o)
 .bss           0x0000000000000000        0x0 c:/applications/microchip/xc32/bin/bin/../../lib/gcc/pic32c/8.3.1/../../../../pic32c/lib/thumb/v6-m/nofp\libc-size-musl.a(strlen.o)
 .xc_stack_usage
                0x0000000000000000       0x14 c:/applications/microchip/xc32/bin/bin/../../lib/gcc/pic32c/8.3.1/../../../../pic32c/lib/thumb/v6-m/nofp\libc-size-musl.a(strlen.o)
 .xc_stack_usage.hdr
                0x0000000000000000        0xe c:/applications/microchip/xc32/bin/bin/../../lib/gcc/pic32c/8.3.1/../../../../pic32c/lib/thumb/v6-m/nofp\libc-size-musl.a(strlen.o)
 .text          0x0000000000000000        0x0 c:/applications/microchip/xc32/bin/bin/../../lib/gcc/pic32c/8.3.1/../../../../pic32c/lib/thumb/v6-m/nofp\libc-size-musl.a(strstr.o)
 .data          0x0000000000000000        0x0 c:/applications/microchip/xc32/bin/bin/../../lib/gcc/pic32c/8.3.1/../../../../pic32c/lib/thumb/v6-m/nofp\libc-size-musl.a(strstr.o)
 .bss           0x0000000000000000        0x0 c:/applications/microchip/xc32/bin/bin/../../lib/gcc/pic32c/8.3.1/../../../../pic32c/lib/thumb/v6-m/nofp\libc-size-musl.a(strstr.o)
 .xc_stack_usage
                0x0000000000000000       0x14 c:/applications/microchip/xc32/bin/bin/../../lib/gcc/pic32c/8.3.1/../../../../pic32c/lib/thumb/v6-m/nofp\libc-size-musl.a(strstr.o)
 .xc_stack_usage.hdr
                0x0000000000000000        0xe c:/applications/microchip/xc32/bin/bin/../../lib/gcc/pic32c/8.3.1/../../../../pic32c/lib/thumb/v6-m/nofp\libc-size-musl.a(strstr.o)
 .text          0x0000000000000000        0x0 c:/applications/microchip/xc32/bin/bin/../../lib/gcc/pic32c/8.3.1/../../../../pic32c/lib/thumb/v6-m/nofp\libc-size-musl.a(strchr.o)
 .data          0x0000000000000000        0x0 c:/applications/microchip/xc32/bin/bin/../../lib/gcc/pic32c/8.3.1/../../../../pic32c/lib/thumb/v6-m/nofp\libc-size-musl.a(strchr.o)
 .bss           0x0000000000000000        0x0 c:/applications/microchip/xc32/bin/bin/../../lib/gcc/pic32c/8.3.1/../../../../pic32c/lib/thumb/v6-m/nofp\libc-size-musl.a(strchr.o)
 .xc_stack_usage
                0x0000000000000000       0x14 c:/applications/microchip/xc32/bin/bin/../../lib/gcc/pic32c/8.3.1/../../../../pic32c/lib/thumb/v6-m/nofp\libc-size-musl.a(strchr.o)
 .xc_stack_usage.hdr
                0x0000000000000000        0xe c:/applications/microchip/xc32/bin/bin/../../lib/gcc/pic32c/8.3.1/../../../../pic32c/lib/thumb/v6-m/nofp\libc-size-musl.a(strchr.o)
 .text          0x0000000000000000        0x0 c:/applications/microchip/xc32/bin/bin/../../lib/gcc/pic32c/8.3.1/../../../../pic32c/lib/thumb/v6-m/nofp\libc-size-musl.a(strchrnul.o)
 .data          0x0000000000000000        0x0 c:/applications/microchip/xc32/bin/bin/../../lib/gcc/pic32c/8.3.1/../../../../pic32c/lib/thumb/v6-m/nofp\libc-size-musl.a(strchrnul.o)
 .bss           0x0000000000000000        0x0 c:/applications/microchip/xc32/bin/bin/../../lib/gcc/pic32c/8.3.1/../../../../pic32c/lib/thumb/v6-m/nofp\libc-size-musl.a(strchrnul.o)
 .xc_stack_usage
                0x0000000000000000       0x19 c:/applications/microchip/xc32/bin/bin/../../lib/gcc/pic32c/8.3.1/../../../../pic32c/lib/thumb/v6-m/nofp\libc-size-musl.a(strchrnul.o)
 .xc_stack_usage.hdr
                0x0000000000000000        0xe c:/applications/microchip/xc32/bin/bin/../../lib/gcc/pic32c/8.3.1/../../../../pic32c/lib/thumb/v6-m/nofp\libc-size-musl.a(strchrnul.o)
 .xc_stack_usage.hdr
                0x0000000000000000        0xe c:/applications/microchip/xc32/bin/bin/../../lib/gcc/pic32c/8.3.1/../../../../pic32c/lib/thumb/v6-m/nofp\libm-fast-emfloat.a(__aeabi_fadd.o)
 .xc_stack_usage
                0x0000000000000000       0x41 c:/applications/microchip/xc32/bin/bin/../../lib/gcc/pic32c/8.3.1/../../../../pic32c/lib/thumb/v6-m/nofp\libm-fast-emfloat.a(__aeabi_fadd.o)
 .xc_stack_usage.hdr
                0x0000000000000000        0xe c:/applications/microchip/xc32/bin/bin/../../lib/gcc/pic32c/8.3.1/../../../../pic32c/lib/thumb/v6-m/nofp\libm-fast-emfloat.a(__aeabi_dadd.o)
 .xc_stack_usage
                0x0000000000000000       0x41 c:/applications/microchip/xc32/bin/bin/../../lib/gcc/pic32c/8.3.1/../../../../pic32c/lib/thumb/v6-m/nofp\libm-fast-emfloat.a(__aeabi_dadd.o)
 .xc_stack_usage.hdr
                0x0000000000000000        0xe c:/applications/microchip/xc32/bin/bin/../../lib/gcc/pic32c/8.3.1/../../../../pic32c/lib/thumb/v6-m/nofp\libm-fast-emfloat.a(__aeabi_fsub.o)
 .xc_stack_usage
                0x0000000000000000       0x1a c:/applications/microchip/xc32/bin/bin/../../lib/gcc/pic32c/8.3.1/../../../../pic32c/lib/thumb/v6-m/nofp\libm-fast-emfloat.a(__aeabi_fsub.o)
 .xc_stack_usage.hdr
                0x0000000000000000        0xe c:/applications/microchip/xc32/bin/bin/../../lib/gcc/pic32c/8.3.1/../../../../pic32c/lib/thumb/v6-m/nofp\libm-fast-emfloat.a(__aeabi_fmul.o)
 .xc_stack_usage
                0x0000000000000000       0x1a c:/applications/microchip/xc32/bin/bin/../../lib/gcc/pic32c/8.3.1/../../../../pic32c/lib/thumb/v6-m/nofp\libm-fast-emfloat.a(__aeabi_fmul.o)
 .xc_stack_usage.hdr
                0x0000000000000000        0xe c:/applications/microchip/xc32/bin/bin/../../lib/gcc/pic32c/8.3.1/../../../../pic32c/lib/thumb/v6-m/nofp\libm-fast-emfloat.a(__aeabi_dmul_aux.o)
 .xc_stack_usage
                0x0000000000000000       0x38 c:/applications/microchip/xc32/bin/bin/../../lib/gcc/pic32c/8.3.1/../../../../pic32c/lib/thumb/v6-m/nofp\libm-fast-emfloat.a(__aeabi_dmul_aux.o)
 .xc_stack_usage.hdr
                0x0000000000000000        0xe c:/applications/microchip/xc32/bin/bin/../../lib/gcc/pic32c/8.3.1/../../../../pic32c/lib/thumb/v6-m/nofp\libm-fast-emfloat.a(__aeabi_fdiv.o)
 .xc_stack_usage
                0x0000000000000000       0x1a c:/applications/microchip/xc32/bin/bin/../../lib/gcc/pic32c/8.3.1/../../../../pic32c/lib/thumb/v6-m/nofp\libm-fast-emfloat.a(__aeabi_fdiv.o)
 .ARM.attributes
                0x0000000000000000       0x1c c:/applications/microchip/xc32/bin/bin/../../lib/gcc/pic32c/8.3.1/../../../../pic32c/lib/thumb/v6-m/nofp\libm-fast-emfloat.a(__aeabi_fcmplt.o)
 .text.__aeabi_fcmplt
                0x0000000000000000       0x2e c:/applications/microchip/xc32/bin/bin/../../lib/gcc/pic32c/8.3.1/../../../../pic32c/lib/thumb/v6-m/nofp\libm-fast-emfloat.a(__aeabi_fcmplt.o)
 .xc_stack_usage.hdr
                0x0000000000000000        0xe c:/applications/microchip/xc32/bin/bin/../../lib/gcc/pic32c/8.3.1/../../../../pic32c/lib/thumb/v6-m/nofp\libm-fast-emfloat.a(__aeabi_fcmplt.o)
 .xc_stack_usage
                0x0000000000000000       0x1c c:/applications/microchip/xc32/bin/bin/../../lib/gcc/pic32c/8.3.1/../../../../pic32c/lib/thumb/v6-m/nofp\libm-fast-emfloat.a(__aeabi_fcmplt.o)
 .xc_stack_usage.hdr
                0x0000000000000000        0xe c:/applications/microchip/xc32/bin/bin/../../lib/gcc/pic32c/8.3.1/../../../../pic32c/lib/thumb/v6-m/nofp\libm-fast-emfloat.a(__aeabi_f2iz.o)
 .xc_stack_usage
                0x0000000000000000       0x1a c:/applications/microchip/xc32/bin/bin/../../lib/gcc/pic32c/8.3.1/../../../../pic32c/lib/thumb/v6-m/nofp\libm-fast-emfloat.a(__aeabi_f2iz.o)
 .xc_stack_usage.hdr
                0x0000000000000000        0xe c:/applications/microchip/xc32/bin/bin/../../lib/gcc/pic32c/8.3.1/../../../../pic32c/lib/thumb/v6-m/nofp\libm-fast-emfloat.a(__aeabi_f2uiz.o)
 .xc_stack_usage
                0x0000000000000000       0x1b c:/applications/microchip/xc32/bin/bin/../../lib/gcc/pic32c/8.3.1/../../../../pic32c/lib/thumb/v6-m/nofp\libm-fast-emfloat.a(__aeabi_f2uiz.o)
 .xc_stack_usage.hdr
                0x0000000000000000        0xe c:/applications/microchip/xc32/bin/bin/../../lib/gcc/pic32c/8.3.1/../../../../pic32c/lib/thumb/v6-m/nofp\libm-fast-emfloat.a(__aeabi_i2f.o)
 .xc_stack_usage
                0x0000000000000000       0x19 c:/applications/microchip/xc32/bin/bin/../../lib/gcc/pic32c/8.3.1/../../../../pic32c/lib/thumb/v6-m/nofp\libm-fast-emfloat.a(__aeabi_i2f.o)
 .ARM.attributes
                0x0000000000000000       0x1c c:/applications/microchip/xc32/bin/bin/../../lib/gcc/pic32c/8.3.1/../../../../pic32c/lib/thumb/v6-m/nofp\libm-fast-emfloat.a(__aeabi_l2f.o)
 .text.__aeabi_l2f
                0x0000000000000000       0x20 c:/applications/microchip/xc32/bin/bin/../../lib/gcc/pic32c/8.3.1/../../../../pic32c/lib/thumb/v6-m/nofp\libm-fast-emfloat.a(__aeabi_l2f.o)
 .xc_stack_usage.hdr
                0x0000000000000000        0xe c:/applications/microchip/xc32/bin/bin/../../lib/gcc/pic32c/8.3.1/../../../../pic32c/lib/thumb/v6-m/nofp\libm-fast-emfloat.a(__aeabi_l2f.o)
 .xc_stack_usage
                0x0000000000000000       0x19 c:/applications/microchip/xc32/bin/bin/../../lib/gcc/pic32c/8.3.1/../../../../pic32c/lib/thumb/v6-m/nofp\libm-fast-emfloat.a(__aeabi_l2f.o)
 .xc_stack_usage.hdr
                0x0000000000000000        0xe c:/applications/microchip/xc32/bin/bin/../../lib/gcc/pic32c/8.3.1/../../../../pic32c/lib/thumb/v6-m/nofp\libm-fast-emfloat.a(__aeabi_ui2f.o)
 .xc_stack_usage
                0x0000000000000000       0x1a c:/applications/microchip/xc32/bin/bin/../../lib/gcc/pic32c/8.3.1/../../../../pic32c/lib/thumb/v6-m/nofp\libm-fast-emfloat.a(__aeabi_ui2f.o)
 .ARM.attributes
                0x0000000000000000       0x1c c:/applications/microchip/xc32/bin/bin/../../lib/gcc/pic32c/8.3.1/../../../../pic32c/lib/thumb/v6-m/nofp\libm-fast-emfloat.a(__aeabi_ul2f.o)
 .text.__aeabi_ul2f
                0x0000000000000000       0x30 c:/applications/microchip/xc32/bin/bin/../../lib/gcc/pic32c/8.3.1/../../../../pic32c/lib/thumb/v6-m/nofp\libm-fast-emfloat.a(__aeabi_ul2f.o)
 .xc_stack_usage.hdr
                0x0000000000000000        0xe c:/applications/microchip/xc32/bin/bin/../../lib/gcc/pic32c/8.3.1/../../../../pic32c/lib/thumb/v6-m/nofp\libm-fast-emfloat.a(__aeabi_ul2f.o)
 .xc_stack_usage
                0x0000000000000000       0x1a c:/applications/microchip/xc32/bin/bin/../../lib/gcc/pic32c/8.3.1/../../../../pic32c/lib/thumb/v6-m/nofp\libm-fast-emfloat.a(__aeabi_ul2f.o)
 .xc_stack_usage.hdr
                0x0000000000000000        0xe c:/applications/microchip/xc32/bin/bin/../../lib/gcc/pic32c/8.3.1/../../../../pic32c/lib/thumb/v6-m/nofp\libm-fast-emfloat.a(__aeabi_f2d.o)
 .xc_stack_usage
                0x0000000000000000       0x19 c:/applications/microchip/xc32/bin/bin/../../lib/gcc/pic32c/8.3.1/../../../../pic32c/lib/thumb/v6-m/nofp\libm-fast-emfloat.a(__aeabi_f2d.o)
 .xc_stack_usage.hdr
                0x0000000000000000        0xe c:/applications/microchip/xc32/bin/bin/../../lib/gcc/pic32c/8.3.1/../../../../pic32c/lib/thumb/v6-m/nofp\libm-fast-emfloat.a(__aeabi_d2f.o)
 .xc_stack_usage
                0x0000000000000000       0x19 c:/applications/microchip/xc32/bin/bin/../../lib/gcc/pic32c/8.3.1/../../../../pic32c/lib/thumb/v6-m/nofp\libm-fast-emfloat.a(__aeabi_d2f.o)
 .text          0x0000000000000000        0x0 c:/applications/microchip/xc32/bin/bin/../../lib/gcc/pic32c/8.3.1/../../../../pic32c/lib/thumb/v6-m/nofp\libc-musl.a(__libc_start_main.o)
 .data          0x0000000000000000        0x0 c:/applications/microchip/xc32/bin/bin/../../lib/gcc/pic32c/8.3.1/../../../../pic32c/lib/thumb/v6-m/nofp\libc-musl.a(__libc_start_main.o)
 .bss           0x0000000000000000        0x0 c:/applications/microchip/xc32/bin/bin/../../lib/gcc/pic32c/8.3.1/../../../../pic32c/lib/thumb/v6-m/nofp\libc-musl.a(__libc_start_main.o)
 .xc_stack_usage
                0x0000000000000000       0x34 c:/applications/microchip/xc32/bin/bin/../../lib/gcc/pic32c/8.3.1/../../../../pic32c/lib/thumb/v6-m/nofp\libc-musl.a(__libc_start_main.o)
 .xc_stack_usage.hdr
                0x0000000000000000        0xe c:/applications/microchip/xc32/bin/bin/../../lib/gcc/pic32c/8.3.1/../../../../pic32c/lib/thumb/v6-m/nofp\libc-musl.a(__libc_start_main.o)
 .text          0x0000000000000000        0x0 c:/applications/microchip/xc32/bin/bin/../../lib/gcc/pic32c/8.3.1/../../../../pic32c/lib/thumb/v6-m/nofp\libc-musl.a(libc.o)
 .data          0x0000000000000000        0x0 c:/applications/microchip/xc32/bin/bin/../../lib/gcc/pic32c/8.3.1/../../../../pic32c/lib/thumb/v6-m/nofp\libc-musl.a(libc.o)
 .xc_stack_usage.hdr
                0x0000000000000000        0xe c:/applications/microchip/xc32/bin/bin/../../lib/gcc/pic32c/8.3.1/../../../../pic32c/lib/thumb/v6-m/nofp\libc-musl.a(libc.o)
 .text          0x0000000000000000        0x0 c:/applications/microchip/xc32/bin/bin/../../lib/gcc/pic32c/8.3.1/../../../../pic32c/lib/thumb/v6-m/nofp\libc-musl.a(vsnprintf.o)
 .data          0x0000000000000000        0x0 c:/applications/microchip/xc32/bin/bin/../../lib/gcc/pic32c/8.3.1/../../../../pic32c/lib/thumb/v6-m/nofp\libc-musl.a(vsnprintf.o)
 .bss           0x0000000000000000        0x0 c:/applications/microchip/xc32/bin/bin/../../lib/gcc/pic32c/8.3.1/../../../../pic32c/lib/thumb/v6-m/nofp\libc-musl.a(vsnprintf.o)
 .xc_stack_usage
                0x0000000000000000       0x17 c:/applications/microchip/xc32/bin/bin/../../lib/gcc/pic32c/8.3.1/../../../../pic32c/lib/thumb/v6-m/nofp\libc-musl.a(vsnprintf.o)
 .xc_stack_usage.hdr
                0x0000000000000000        0xe c:/applications/microchip/xc32/bin/bin/../../lib/gcc/pic32c/8.3.1/../../../../pic32c/lib/thumb/v6-m/nofp\libc-musl.a(vsnprintf.o)
 .text          0x0000000000000000        0x0 c:/applications/microchip/xc32/bin/bin/../../lib/gcc/pic32c/8.3.1/../../../../pic32c/lib/thumb/v6-m/nofp\libc-musl.a(sprintf.o)
 .data          0x0000000000000000        0x0 c:/applications/microchip/xc32/bin/bin/../../lib/gcc/pic32c/8.3.1/../../../../pic32c/lib/thumb/v6-m/nofp\libc-musl.a(sprintf.o)
 .bss           0x0000000000000000        0x0 c:/applications/microchip/xc32/bin/bin/../../lib/gcc/pic32c/8.3.1/../../../../pic32c/lib/thumb/v6-m/nofp\libc-musl.a(sprintf.o)
 .xc_stack_usage
                0x0000000000000000       0x15 c:/applications/microchip/xc32/bin/bin/../../lib/gcc/pic32c/8.3.1/../../../../pic32c/lib/thumb/v6-m/nofp\libc-musl.a(sprintf.o)
 .xc_stack_usage.hdr
                0x0000000000000000        0xe c:/applications/microchip/xc32/bin/bin/../../lib/gcc/pic32c/8.3.1/../../../../pic32c/lib/thumb/v6-m/nofp\libc-musl.a(sprintf.o)
 .text          0x0000000000000000        0x0 c:/applications/microchip/xc32/bin/bin/../../lib/gcc/pic32c/8.3.1/../../../../pic32c/lib/thumb/v6-m/nofp\libc-musl.a(vsprintf.o)
 .data          0x0000000000000000        0x0 c:/applications/microchip/xc32/bin/bin/../../lib/gcc/pic32c/8.3.1/../../../../pic32c/lib/thumb/v6-m/nofp\libc-musl.a(vsprintf.o)
 .bss           0x0000000000000000        0x0 c:/applications/microchip/xc32/bin/bin/../../lib/gcc/pic32c/8.3.1/../../../../pic32c/lib/thumb/v6-m/nofp\libc-musl.a(vsprintf.o)
 .xc_stack_usage
                0x0000000000000000       0x16 c:/applications/microchip/xc32/bin/bin/../../lib/gcc/pic32c/8.3.1/../../../../pic32c/lib/thumb/v6-m/nofp\libc-musl.a(vsprintf.o)
 .xc_stack_usage.hdr
                0x0000000000000000        0xe c:/applications/microchip/xc32/bin/bin/../../lib/gcc/pic32c/8.3.1/../../../../pic32c/lib/thumb/v6-m/nofp\libc-musl.a(vsprintf.o)
 .text          0x0000000000000000        0x0 c:/applications/microchip/xc32/bin/bin/../../lib/gcc/pic32c/8.3.1/../../../../pic32c/lib/thumb/v6-m/nofp\libc-musl.a(__environ.o)
 .data          0x0000000000000000        0x0 c:/applications/microchip/xc32/bin/bin/../../lib/gcc/pic32c/8.3.1/../../../../pic32c/lib/thumb/v6-m/nofp\libc-musl.a(__environ.o)
 .xc_stack_usage.hdr
                0x0000000000000000        0xe c:/applications/microchip/xc32/bin/bin/../../lib/gcc/pic32c/8.3.1/../../../../pic32c/lib/thumb/v6-m/nofp\libc-musl.a(__environ.o)
 .text          0x0000000000000000        0x0 c:/applications/microchip/xc32/bin/bin/../../lib/gcc/pic32c/8.3.1/../../../../pic32c/lib/thumb/v6-m/nofp\libc-musl.a(__errno_location.o)
 .data          0x0000000000000000        0x0 c:/applications/microchip/xc32/bin/bin/../../lib/gcc/pic32c/8.3.1/../../../../pic32c/lib/thumb/v6-m/nofp\libc-musl.a(__errno_location.o)
 .xc_stack_usage.hdr
                0x0000000000000000        0xe c:/applications/microchip/xc32/bin/bin/../../lib/gcc/pic32c/8.3.1/../../../../pic32c/lib/thumb/v6-m/nofp\libc-musl.a(__errno_location.o)
 .text          0x0000000000000000        0x0 c:/applications/microchip/xc32/bin/bin/../../lib/gcc/pic32c/8.3.1/../../../../pic32c/lib/thumb/v6-m/nofp\libc-musl.a(vfprintf.o)
 .data          0x0000000000000000        0x0 c:/applications/microchip/xc32/bin/bin/../../lib/gcc/pic32c/8.3.1/../../../../pic32c/lib/thumb/v6-m/nofp\libc-musl.a(vfprintf.o)
 .bss           0x0000000000000000        0x0 c:/applications/microchip/xc32/bin/bin/../../lib/gcc/pic32c/8.3.1/../../../../pic32c/lib/thumb/v6-m/nofp\libc-musl.a(vfprintf.o)
 .xc_stack_usage
                0x0000000000000000       0x38 c:/applications/microchip/xc32/bin/bin/../../lib/gcc/pic32c/8.3.1/../../../../pic32c/lib/thumb/v6-m/nofp\libc-musl.a(vfprintf.o)
 .xc_stack_usage.hdr
                0x0000000000000000        0xe c:/applications/microchip/xc32/bin/bin/../../lib/gcc/pic32c/8.3.1/../../../../pic32c/lib/thumb/v6-m/nofp\libc-musl.a(vfprintf.o)
 .text          0x0000000000000000        0x0 c:/applications/microchip/xc32/bin/bin/../../lib/gcc/pic32c/8.3.1/../../../../pic32c/lib/thumb/v6-m/nofp\libc-musl.a(__io_fmt_needed.o)
 .data          0x0000000000000000        0x0 c:/applications/microchip/xc32/bin/bin/../../lib/gcc/pic32c/8.3.1/../../../../pic32c/lib/thumb/v6-m/nofp\libc-musl.a(__io_fmt_needed.o)
 .bss           0x0000000000000000        0x0 c:/applications/microchip/xc32/bin/bin/../../lib/gcc/pic32c/8.3.1/../../../../pic32c/lib/thumb/v6-m/nofp\libc-musl.a(__io_fmt_needed.o)
 .xc_stack_usage
                0x0000000000000000       0x1d c:/applications/microchip/xc32/bin/bin/../../lib/gcc/pic32c/8.3.1/../../../../pic32c/lib/thumb/v6-m/nofp\libc-musl.a(__io_fmt_needed.o)
 .xc_stack_usage.hdr
                0x0000000000000000        0xe c:/applications/microchip/xc32/bin/bin/../../lib/gcc/pic32c/8.3.1/../../../../pic32c/lib/thumb/v6-m/nofp\libc-musl.a(__io_fmt_needed.o)
 .debug_info    0x0000000000000000      0x187 c:/applications/microchip/xc32/bin/bin/../../lib/gcc/pic32c/8.3.1/../../../../pic32c/lib/thumb/v6-m/nofp\libc-musl.a(__io_fmt_needed.o)
 .debug_abbrev  0x0000000000000000       0x67 c:/applications/microchip/xc32/bin/bin/../../lib/gcc/pic32c/8.3.1/../../../../pic32c/lib/thumb/v6-m/nofp\libc-musl.a(__io_fmt_needed.o)
 .debug_loc     0x0000000000000000       0x20 c:/applications/microchip/xc32/bin/bin/../../lib/gcc/pic32c/8.3.1/../../../../pic32c/lib/thumb/v6-m/nofp\libc-musl.a(__io_fmt_needed.o)
 .debug_aranges
                0x0000000000000000       0x20 c:/applications/microchip/xc32/bin/bin/../../lib/gcc/pic32c/8.3.1/../../../../pic32c/lib/thumb/v6-m/nofp\libc-musl.a(__io_fmt_needed.o)
 .debug_ranges  0x0000000000000000       0x10 c:/applications/microchip/xc32/bin/bin/../../lib/gcc/pic32c/8.3.1/../../../../pic32c/lib/thumb/v6-m/nofp\libc-musl.a(__io_fmt_needed.o)
 .debug_line    0x0000000000000000       0xc2 c:/applications/microchip/xc32/bin/bin/../../lib/gcc/pic32c/8.3.1/../../../../pic32c/lib/thumb/v6-m/nofp\libc-musl.a(__io_fmt_needed.o)
 .debug_str     0x0000000000000000      0x336 c:/applications/microchip/xc32/bin/bin/../../lib/gcc/pic32c/8.3.1/../../../../pic32c/lib/thumb/v6-m/nofp\libc-musl.a(__io_fmt_needed.o)
 .comment       0x0000000000000000       0x2c c:/applications/microchip/xc32/bin/bin/../../lib/gcc/pic32c/8.3.1/../../../../pic32c/lib/thumb/v6-m/nofp\libc-musl.a(__io_fmt_needed.o)
 .note.GNU-stack
                0x0000000000000000        0x0 c:/applications/microchip/xc32/bin/bin/../../lib/gcc/pic32c/8.3.1/../../../../pic32c/lib/thumb/v6-m/nofp\libc-musl.a(__io_fmt_needed.o)
 .debug_frame   0x0000000000000000       0x28 c:/applications/microchip/xc32/bin/bin/../../lib/gcc/pic32c/8.3.1/../../../../pic32c/lib/thumb/v6-m/nofp\libc-musl.a(__io_fmt_needed.o)
 .ARM.attributes
                0x0000000000000000       0x2e c:/applications/microchip/xc32/bin/bin/../../lib/gcc/pic32c/8.3.1/../../../../pic32c/lib/thumb/v6-m/nofp\libc-musl.a(__io_fmt_needed.o)
 .text          0x0000000000000000        0x0 c:/applications/microchip/xc32/bin/bin/../../lib/gcc/pic32c/8.3.1/../../../../pic32c/lib/thumb/v6-m/nofp\libc-musl.a(__pop_float.o)
 .data          0x0000000000000000        0x0 c:/applications/microchip/xc32/bin/bin/../../lib/gcc/pic32c/8.3.1/../../../../pic32c/lib/thumb/v6-m/nofp\libc-musl.a(__pop_float.o)
 .bss           0x0000000000000000        0x0 c:/applications/microchip/xc32/bin/bin/../../lib/gcc/pic32c/8.3.1/../../../../pic32c/lib/thumb/v6-m/nofp\libc-musl.a(__pop_float.o)
 .xc_stack_usage
                0x0000000000000000       0x19 c:/applications/microchip/xc32/bin/bin/../../lib/gcc/pic32c/8.3.1/../../../../pic32c/lib/thumb/v6-m/nofp\libc-musl.a(__pop_float.o)
 .xc_stack_usage.hdr
                0x0000000000000000        0xe c:/applications/microchip/xc32/bin/bin/../../lib/gcc/pic32c/8.3.1/../../../../pic32c/lib/thumb/v6-m/nofp\libc-musl.a(__pop_float.o)
 .text          0x0000000000000000        0x0 c:/applications/microchip/xc32/bin/bin/../../lib/gcc/pic32c/8.3.1/../../../../pic32c/lib/thumb/v6-m/nofp\libc-musl.a(__pop_int.o)
 .data          0x0000000000000000        0x0 c:/applications/microchip/xc32/bin/bin/../../lib/gcc/pic32c/8.3.1/../../../../pic32c/lib/thumb/v6-m/nofp\libc-musl.a(__pop_int.o)
 .bss           0x0000000000000000        0x0 c:/applications/microchip/xc32/bin/bin/../../lib/gcc/pic32c/8.3.1/../../../../pic32c/lib/thumb/v6-m/nofp\libc-musl.a(__pop_int.o)
 .xc_stack_usage
                0x0000000000000000       0x17 c:/applications/microchip/xc32/bin/bin/../../lib/gcc/pic32c/8.3.1/../../../../pic32c/lib/thumb/v6-m/nofp\libc-musl.a(__pop_int.o)
 .xc_stack_usage.hdr
                0x0000000000000000        0xe c:/applications/microchip/xc32/bin/bin/../../lib/gcc/pic32c/8.3.1/../../../../pic32c/lib/thumb/v6-m/nofp\libc-musl.a(__pop_int.o)
 .text          0x0000000000000000        0x0 c:/applications/microchip/xc32/bin/bin/../../lib/gcc/pic32c/8.3.1/../../../../pic32c/lib/thumb/v6-m/nofp\libc-musl.a(__pop_ptr.o)
 .data          0x0000000000000000        0x0 c:/applications/microchip/xc32/bin/bin/../../lib/gcc/pic32c/8.3.1/../../../../pic32c/lib/thumb/v6-m/nofp\libc-musl.a(__pop_ptr.o)
 .bss           0x0000000000000000        0x0 c:/applications/microchip/xc32/bin/bin/../../lib/gcc/pic32c/8.3.1/../../../../pic32c/lib/thumb/v6-m/nofp\libc-musl.a(__pop_ptr.o)
 .xc_stack_usage
                0x0000000000000000       0x17 c:/applications/microchip/xc32/bin/bin/../../lib/gcc/pic32c/8.3.1/../../../../pic32c/lib/thumb/v6-m/nofp\libc-musl.a(__pop_ptr.o)
 .xc_stack_usage.hdr
                0x0000000000000000        0xe c:/applications/microchip/xc32/bin/bin/../../lib/gcc/pic32c/8.3.1/../../../../pic32c/lib/thumb/v6-m/nofp\libc-musl.a(__pop_ptr.o)
 .text          0x0000000000000000        0x0 c:/applications/microchip/xc32/bin/bin/../../lib/gcc/pic32c/8.3.1/../../../../pic32c/lib/thumb/v6-m/nofp\libc-musl.a(__printf_core.o)
 .data          0x0000000000000000        0x0 c:/applications/microchip/xc32/bin/bin/../../lib/gcc/pic32c/8.3.1/../../../../pic32c/lib/thumb/v6-m/nofp\libc-musl.a(__printf_core.o)
 .bss           0x0000000000000000        0x0 c:/applications/microchip/xc32/bin/bin/../../lib/gcc/pic32c/8.3.1/../../../../pic32c/lib/thumb/v6-m/nofp\libc-musl.a(__printf_core.o)
 .xc_stack_usage
                0x0000000000000000       0xaf c:/applications/microchip/xc32/bin/bin/../../lib/gcc/pic32c/8.3.1/../../../../pic32c/lib/thumb/v6-m/nofp\libc-musl.a(__printf_core.o)
 .text.__dummy_fmt3
                0x0000000000000000        0x4 c:/applications/microchip/xc32/bin/bin/../../lib/gcc/pic32c/8.3.1/../../../../pic32c/lib/thumb/v6-m/nofp\libc-musl.a(__printf_core.o)
 .text.__dummy_fmt4
                0x0000000000000000        0x4 c:/applications/microchip/xc32/bin/bin/../../lib/gcc/pic32c/8.3.1/../../../../pic32c/lib/thumb/v6-m/nofp\libc-musl.a(__printf_core.o)
 .text.__dummy_fmts
                0x0000000000000000        0x4 c:/applications/microchip/xc32/bin/bin/../../lib/gcc/pic32c/8.3.1/../../../../pic32c/lib/thumb/v6-m/nofp\libc-musl.a(__printf_core.o)
 .xc_stack_usage.hdr
                0x0000000000000000        0xe c:/applications/microchip/xc32/bin/bin/../../lib/gcc/pic32c/8.3.1/../../../../pic32c/lib/thumb/v6-m/nofp\libc-musl.a(__printf_core.o)
 .text          0x0000000000000000        0x0 c:/applications/microchip/xc32/bin/bin/../../lib/gcc/pic32c/8.3.1/../../../../pic32c/lib/thumb/v6-m/nofp\libc-musl.a(atoi.o)
 .data          0x0000000000000000        0x0 c:/applications/microchip/xc32/bin/bin/../../lib/gcc/pic32c/8.3.1/../../../../pic32c/lib/thumb/v6-m/nofp\libc-musl.a(atoi.o)
 .bss           0x0000000000000000        0x0 c:/applications/microchip/xc32/bin/bin/../../lib/gcc/pic32c/8.3.1/../../../../pic32c/lib/thumb/v6-m/nofp\libc-musl.a(atoi.o)
 .xc_stack_usage
                0x0000000000000000       0x12 c:/applications/microchip/xc32/bin/bin/../../lib/gcc/pic32c/8.3.1/../../../../pic32c/lib/thumb/v6-m/nofp\libc-musl.a(atoi.o)
 .xc_stack_usage.hdr
                0x0000000000000000        0xe c:/applications/microchip/xc32/bin/bin/../../lib/gcc/pic32c/8.3.1/../../../../pic32c/lib/thumb/v6-m/nofp\libc-musl.a(atoi.o)
 .text          0x0000000000000000        0x0 c:/applications/microchip/xc32/bin/bin/../../lib/gcc/pic32c/8.3.1/../../../../pic32c/lib/thumb/v6-m/nofp\libc-musl.a(tolower.o)
 .data          0x0000000000000000        0x0 c:/applications/microchip/xc32/bin/bin/../../lib/gcc/pic32c/8.3.1/../../../../pic32c/lib/thumb/v6-m/nofp\libc-musl.a(tolower.o)
 .bss           0x0000000000000000        0x0 c:/applications/microchip/xc32/bin/bin/../../lib/gcc/pic32c/8.3.1/../../../../pic32c/lib/thumb/v6-m/nofp\libc-musl.a(tolower.o)
 .xc_stack_usage
                0x0000000000000000       0x2e c:/applications/microchip/xc32/bin/bin/../../lib/gcc/pic32c/8.3.1/../../../../pic32c/lib/thumb/v6-m/nofp\libc-musl.a(tolower.o)
 .text.__tolower_l
                0x0000000000000000        0x8 c:/applications/microchip/xc32/bin/bin/../../lib/gcc/pic32c/8.3.1/../../../../pic32c/lib/thumb/v6-m/nofp\libc-musl.a(tolower.o)
 .xc_stack_usage.hdr
                0x0000000000000000        0xe c:/applications/microchip/xc32/bin/bin/../../lib/gcc/pic32c/8.3.1/../../../../pic32c/lib/thumb/v6-m/nofp\libc-musl.a(tolower.o)
 .text          0x0000000000000000        0x0 c:/applications/microchip/xc32/bin/bin/../../lib/gcc/pic32c/8.3.1/../../../../pic32c/lib/thumb/v6-m/nofp\libc-musl.a(__fmt_a.o)
 .data          0x0000000000000000        0x0 c:/applications/microchip/xc32/bin/bin/../../lib/gcc/pic32c/8.3.1/../../../../pic32c/lib/thumb/v6-m/nofp\libc-musl.a(__fmt_a.o)
 .bss           0x0000000000000000        0x0 c:/applications/microchip/xc32/bin/bin/../../lib/gcc/pic32c/8.3.1/../../../../pic32c/lib/thumb/v6-m/nofp\libc-musl.a(__fmt_a.o)
 .xc_stack_usage
                0x0000000000000000       0x15 c:/applications/microchip/xc32/bin/bin/../../lib/gcc/pic32c/8.3.1/../../../../pic32c/lib/thumb/v6-m/nofp\libc-musl.a(__fmt_a.o)
 .xc_stack_usage.hdr
                0x0000000000000000        0xe c:/applications/microchip/xc32/bin/bin/../../lib/gcc/pic32c/8.3.1/../../../../pic32c/lib/thumb/v6-m/nofp\libc-musl.a(__fmt_a.o)
 .text          0x0000000000000000        0x0 c:/applications/microchip/xc32/bin/bin/../../lib/gcc/pic32c/8.3.1/../../../../pic32c/lib/thumb/v6-m/nofp\libc-musl.a(__fmt_d.o)
 .data          0x0000000000000000        0x0 c:/applications/microchip/xc32/bin/bin/../../lib/gcc/pic32c/8.3.1/../../../../pic32c/lib/thumb/v6-m/nofp\libc-musl.a(__fmt_d.o)
 .bss           0x0000000000000000        0x0 c:/applications/microchip/xc32/bin/bin/../../lib/gcc/pic32c/8.3.1/../../../../pic32c/lib/thumb/v6-m/nofp\libc-musl.a(__fmt_d.o)
 .xc_stack_usage
                0x0000000000000000       0x15 c:/applications/microchip/xc32/bin/bin/../../lib/gcc/pic32c/8.3.1/../../../../pic32c/lib/thumb/v6-m/nofp\libc-musl.a(__fmt_d.o)
 .xc_stack_usage.hdr
                0x0000000000000000        0xe c:/applications/microchip/xc32/bin/bin/../../lib/gcc/pic32c/8.3.1/../../../../pic32c/lib/thumb/v6-m/nofp\libc-musl.a(__fmt_d.o)
 .text          0x0000000000000000        0x0 c:/applications/microchip/xc32/bin/bin/../../lib/gcc/pic32c/8.3.1/../../../../pic32c/lib/thumb/v6-m/nofp\libc-musl.a(__fmt_fp.o)
 .data          0x0000000000000000        0x0 c:/applications/microchip/xc32/bin/bin/../../lib/gcc/pic32c/8.3.1/../../../../pic32c/lib/thumb/v6-m/nofp\libc-musl.a(__fmt_fp.o)
 .bss           0x0000000000000000        0x0 c:/applications/microchip/xc32/bin/bin/../../lib/gcc/pic32c/8.3.1/../../../../pic32c/lib/thumb/v6-m/nofp\libc-musl.a(__fmt_fp.o)
 .xc_stack_usage
                0x0000000000000000       0x16 c:/applications/microchip/xc32/bin/bin/../../lib/gcc/pic32c/8.3.1/../../../../pic32c/lib/thumb/v6-m/nofp\libc-musl.a(__fmt_fp.o)
 .xc_stack_usage.hdr
                0x0000000000000000        0xe c:/applications/microchip/xc32/bin/bin/../../lib/gcc/pic32c/8.3.1/../../../../pic32c/lib/thumb/v6-m/nofp\libc-musl.a(__fmt_fp.o)
 .text          0x0000000000000000        0x0 c:/applications/microchip/xc32/bin/bin/../../lib/gcc/pic32c/8.3.1/../../../../pic32c/lib/thumb/v6-m/nofp\libc-musl.a(__fmt_o.o)
 .data          0x0000000000000000        0x0 c:/applications/microchip/xc32/bin/bin/../../lib/gcc/pic32c/8.3.1/../../../../pic32c/lib/thumb/v6-m/nofp\libc-musl.a(__fmt_o.o)
 .bss           0x0000000000000000        0x0 c:/applications/microchip/xc32/bin/bin/../../lib/gcc/pic32c/8.3.1/../../../../pic32c/lib/thumb/v6-m/nofp\libc-musl.a(__fmt_o.o)
 .xc_stack_usage
                0x0000000000000000       0x15 c:/applications/microchip/xc32/bin/bin/../../lib/gcc/pic32c/8.3.1/../../../../pic32c/lib/thumb/v6-m/nofp\libc-musl.a(__fmt_o.o)
 .xc_stack_usage.hdr
                0x0000000000000000        0xe c:/applications/microchip/xc32/bin/bin/../../lib/gcc/pic32c/8.3.1/../../../../pic32c/lib/thumb/v6-m/nofp\libc-musl.a(__fmt_o.o)
 .text          0x0000000000000000        0x0 c:/applications/microchip/xc32/bin/bin/../../lib/gcc/pic32c/8.3.1/../../../../pic32c/lib/thumb/v6-m/nofp\libc-musl.a(__fmt_s.o)
 .data          0x0000000000000000        0x0 c:/applications/microchip/xc32/bin/bin/../../lib/gcc/pic32c/8.3.1/../../../../pic32c/lib/thumb/v6-m/nofp\libc-musl.a(__fmt_s.o)
 .bss           0x0000000000000000        0x0 c:/applications/microchip/xc32/bin/bin/../../lib/gcc/pic32c/8.3.1/../../../../pic32c/lib/thumb/v6-m/nofp\libc-musl.a(__fmt_s.o)
 .xc_stack_usage
                0x0000000000000000       0x15 c:/applications/microchip/xc32/bin/bin/../../lib/gcc/pic32c/8.3.1/../../../../pic32c/lib/thumb/v6-m/nofp\libc-musl.a(__fmt_s.o)
 .xc_stack_usage.hdr
                0x0000000000000000        0xe c:/applications/microchip/xc32/bin/bin/../../lib/gcc/pic32c/8.3.1/../../../../pic32c/lib/thumb/v6-m/nofp\libc-musl.a(__fmt_s.o)
 .text          0x0000000000000000        0x0 c:/applications/microchip/xc32/bin/bin/../../lib/gcc/pic32c/8.3.1/../../../../pic32c/lib/thumb/v6-m/nofp\libc-musl.a(__fmt_u.o)
 .data          0x0000000000000000        0x0 c:/applications/microchip/xc32/bin/bin/../../lib/gcc/pic32c/8.3.1/../../../../pic32c/lib/thumb/v6-m/nofp\libc-musl.a(__fmt_u.o)
 .bss           0x0000000000000000        0x0 c:/applications/microchip/xc32/bin/bin/../../lib/gcc/pic32c/8.3.1/../../../../pic32c/lib/thumb/v6-m/nofp\libc-musl.a(__fmt_u.o)
 .xc_stack_usage
                0x0000000000000000       0x15 c:/applications/microchip/xc32/bin/bin/../../lib/gcc/pic32c/8.3.1/../../../../pic32c/lib/thumb/v6-m/nofp\libc-musl.a(__fmt_u.o)
 .xc_stack_usage.hdr
                0x0000000000000000        0xe c:/applications/microchip/xc32/bin/bin/../../lib/gcc/pic32c/8.3.1/../../../../pic32c/lib/thumb/v6-m/nofp\libc-musl.a(__fmt_u.o)
 .text          0x0000000000000000        0x0 c:/applications/microchip/xc32/bin/bin/../../lib/gcc/pic32c/8.3.1/../../../../pic32c/lib/thumb/v6-m/nofp\libc-musl.a(__fmt_x.o)
 .data          0x0000000000000000        0x0 c:/applications/microchip/xc32/bin/bin/../../lib/gcc/pic32c/8.3.1/../../../../pic32c/lib/thumb/v6-m/nofp\libc-musl.a(__fmt_x.o)
 .bss           0x0000000000000000        0x0 c:/applications/microchip/xc32/bin/bin/../../lib/gcc/pic32c/8.3.1/../../../../pic32c/lib/thumb/v6-m/nofp\libc-musl.a(__fmt_x.o)
 .xc_stack_usage
                0x0000000000000000       0x15 c:/applications/microchip/xc32/bin/bin/../../lib/gcc/pic32c/8.3.1/../../../../pic32c/lib/thumb/v6-m/nofp\libc-musl.a(__fmt_x.o)
 .xc_stack_usage.hdr
                0x0000000000000000        0xe c:/applications/microchip/xc32/bin/bin/../../lib/gcc/pic32c/8.3.1/../../../../pic32c/lib/thumb/v6-m/nofp\libc-musl.a(__fmt_x.o)
 .text          0x0000000000000000        0x0 c:/applications/microchip/xc32/bin/bin/../../lib/gcc/pic32c/8.3.1/../../../../pic32c/lib/thumb/v6-m/nofp\libc-musl.a(toupper.o)
 .data          0x0000000000000000        0x0 c:/applications/microchip/xc32/bin/bin/../../lib/gcc/pic32c/8.3.1/../../../../pic32c/lib/thumb/v6-m/nofp\libc-musl.a(toupper.o)
 .bss           0x0000000000000000        0x0 c:/applications/microchip/xc32/bin/bin/../../lib/gcc/pic32c/8.3.1/../../../../pic32c/lib/thumb/v6-m/nofp\libc-musl.a(toupper.o)
 .xc_stack_usage
                0x0000000000000000       0x2e c:/applications/microchip/xc32/bin/bin/../../lib/gcc/pic32c/8.3.1/../../../../pic32c/lib/thumb/v6-m/nofp\libc-musl.a(toupper.o)
 .text.__toupper_l
                0x0000000000000000        0x8 c:/applications/microchip/xc32/bin/bin/../../lib/gcc/pic32c/8.3.1/../../../../pic32c/lib/thumb/v6-m/nofp\libc-musl.a(toupper.o)
 .xc_stack_usage.hdr
                0x0000000000000000        0xe c:/applications/microchip/xc32/bin/bin/../../lib/gcc/pic32c/8.3.1/../../../../pic32c/lib/thumb/v6-m/nofp\libc-musl.a(toupper.o)
 .text          0x0000000000000000        0x0 c:/applications/microchip/xc32/bin/bin/../../lib/gcc/pic32c/8.3.1/../../../../pic32c/lib/thumb/v6-m/nofp\libc-musl.a(__cvt_u.o)
 .data          0x0000000000000000        0x0 c:/applications/microchip/xc32/bin/bin/../../lib/gcc/pic32c/8.3.1/../../../../pic32c/lib/thumb/v6-m/nofp\libc-musl.a(__cvt_u.o)
 .bss           0x0000000000000000        0x0 c:/applications/microchip/xc32/bin/bin/../../lib/gcc/pic32c/8.3.1/../../../../pic32c/lib/thumb/v6-m/nofp\libc-musl.a(__cvt_u.o)
 .xc_stack_usage
                0x0000000000000000       0x15 c:/applications/microchip/xc32/bin/bin/../../lib/gcc/pic32c/8.3.1/../../../../pic32c/lib/thumb/v6-m/nofp\libc-musl.a(__cvt_u.o)
 .xc_stack_usage.hdr
                0x0000000000000000        0xe c:/applications/microchip/xc32/bin/bin/../../lib/gcc/pic32c/8.3.1/../../../../pic32c/lib/thumb/v6-m/nofp\libc-musl.a(__cvt_u.o)
 .xc_stack_usage.hdr
                0x0000000000000000        0xe c:/applications/microchip/xc32/bin/bin/../../lib/gcc/pic32c/8.3.1/../../../../pic32c/lib/thumb/v6-m/nofp\libm-fast-emfloat.a(fma.o)
 .xc_stack_usage
                0x0000000000000000       0x11 c:/applications/microchip/xc32/bin/bin/../../lib/gcc/pic32c/8.3.1/../../../../pic32c/lib/thumb/v6-m/nofp\libm-fast-emfloat.a(fma.o)
 .xc_stack_usage.hdr
                0x0000000000000000        0xe c:/applications/microchip/xc32/bin/bin/../../lib/gcc/pic32c/8.3.1/../../../../pic32c/lib/thumb/v6-m/nofp\libm-fast-emfloat.a(floor.o)
 .xc_stack_usage
                0x0000000000000000       0x13 c:/applications/microchip/xc32/bin/bin/../../lib/gcc/pic32c/8.3.1/../../../../pic32c/lib/thumb/v6-m/nofp\libm-fast-emfloat.a(floor.o)
 .xc_stack_usage.hdr
                0x0000000000000000        0xe c:/applications/microchip/xc32/bin/bin/../../lib/gcc/pic32c/8.3.1/../../../../pic32c/lib/thumb/v6-m/nofp\libm-fast-emfloat.a(__aeabi_dsub.o)
 .xc_stack_usage
                0x0000000000000000       0x1a c:/applications/microchip/xc32/bin/bin/../../lib/gcc/pic32c/8.3.1/../../../../pic32c/lib/thumb/v6-m/nofp\libm-fast-emfloat.a(__aeabi_dsub.o)
 .xc_stack_usage.hdr
                0x0000000000000000        0xe c:/applications/microchip/xc32/bin/bin/../../lib/gcc/pic32c/8.3.1/../../../../pic32c/lib/thumb/v6-m/nofp\libm-fast-emfloat.a(__aeabi_ddiv.o)
 .xc_stack_usage
                0x0000000000000000       0x1a c:/applications/microchip/xc32/bin/bin/../../lib/gcc/pic32c/8.3.1/../../../../pic32c/lib/thumb/v6-m/nofp\libm-fast-emfloat.a(__aeabi_ddiv.o)
 .xc_stack_usage.hdr
                0x0000000000000000        0xe c:/applications/microchip/xc32/bin/bin/../../lib/gcc/pic32c/8.3.1/../../../../pic32c/lib/thumb/v6-m/nofp\libm-fast-emfloat.a(__aeabi_dcmple.o)
 .xc_stack_usage
                0x0000000000000000       0x1c c:/applications/microchip/xc32/bin/bin/../../lib/gcc/pic32c/8.3.1/../../../../pic32c/lib/thumb/v6-m/nofp\libm-fast-emfloat.a(__aeabi_dcmple.o)
 .xc_stack_usage.hdr
                0x0000000000000000        0xe c:/applications/microchip/xc32/bin/bin/../../lib/gcc/pic32c/8.3.1/../../../../pic32c/lib/thumb/v6-m/nofp\libm-fast-emfloat.a(__aeabi_dcmpeq.o)
 .xc_stack_usage
                0x0000000000000000       0x1c c:/applications/microchip/xc32/bin/bin/../../lib/gcc/pic32c/8.3.1/../../../../pic32c/lib/thumb/v6-m/nofp\libm-fast-emfloat.a(__aeabi_dcmpeq.o)
 .xc_stack_usage.hdr
                0x0000000000000000        0xe c:/applications/microchip/xc32/bin/bin/../../lib/gcc/pic32c/8.3.1/../../../../pic32c/lib/thumb/v6-m/nofp\libm-fast-emfloat.a(__aeabi_dcmpgt.o)
 .xc_stack_usage
                0x0000000000000000       0x1c c:/applications/microchip/xc32/bin/bin/../../lib/gcc/pic32c/8.3.1/../../../../pic32c/lib/thumb/v6-m/nofp\libm-fast-emfloat.a(__aeabi_dcmpgt.o)
 .xc_stack_usage.hdr
                0x0000000000000000        0xe c:/applications/microchip/xc32/bin/bin/../../lib/gcc/pic32c/8.3.1/../../../../pic32c/lib/thumb/v6-m/nofp\libm-fast-emfloat.a(__aeabi_dcmplt.o)
 .xc_stack_usage
                0x0000000000000000       0x1c c:/applications/microchip/xc32/bin/bin/../../lib/gcc/pic32c/8.3.1/../../../../pic32c/lib/thumb/v6-m/nofp\libm-fast-emfloat.a(__aeabi_dcmplt.o)
 .xc_stack_usage.hdr
                0x0000000000000000        0xe c:/applications/microchip/xc32/bin/bin/../../lib/gcc/pic32c/8.3.1/../../../../pic32c/lib/thumb/v6-m/nofp\libm-fast-emfloat.a(__aeabi_d2iz.o)
 .xc_stack_usage
                0x0000000000000000       0x1a c:/applications/microchip/xc32/bin/bin/../../lib/gcc/pic32c/8.3.1/../../../../pic32c/lib/thumb/v6-m/nofp\libm-fast-emfloat.a(__aeabi_d2iz.o)
 .xc_stack_usage.hdr
                0x0000000000000000        0xe c:/applications/microchip/xc32/bin/bin/../../lib/gcc/pic32c/8.3.1/../../../../pic32c/lib/thumb/v6-m/nofp\libm-fast-emfloat.a(__aeabi_d2uiz.o)
 .xc_stack_usage
                0x0000000000000000       0x43 c:/applications/microchip/xc32/bin/bin/../../lib/gcc/pic32c/8.3.1/../../../../pic32c/lib/thumb/v6-m/nofp\libm-fast-emfloat.a(__aeabi_d2uiz.o)
 .data          0x0000000000000000        0x0 c:/applications/microchip/xc32/bin/bin/../../lib/gcc/pic32c/8.3.1/thumb/v6-m/nofp\libgcc.a(_udivsi3.o)
 .bss           0x0000000000000000        0x0 c:/applications/microchip/xc32/bin/bin/../../lib/gcc/pic32c/8.3.1/thumb/v6-m/nofp\libgcc.a(_udivsi3.o)
 .xc_stack_usage.hdr
                0x0000000000000000        0xe c:/applications/microchip/xc32/bin/bin/../../lib/gcc/pic32c/8.3.1/thumb/v6-m/nofp\libgcc.a(_udivsi3.o)
 .xc_stack_usage
                0x0000000000000000       0x35 c:/applications/microchip/xc32/bin/bin/../../lib/gcc/pic32c/8.3.1/thumb/v6-m/nofp\libgcc.a(_udivsi3.o)
 .data          0x0000000000000000        0x0 c:/applications/microchip/xc32/bin/bin/../../lib/gcc/pic32c/8.3.1/thumb/v6-m/nofp\libgcc.a(_divsi3.o)
 .bss           0x0000000000000000        0x0 c:/applications/microchip/xc32/bin/bin/../../lib/gcc/pic32c/8.3.1/thumb/v6-m/nofp\libgcc.a(_divsi3.o)
 .xc_stack_usage.hdr
                0x0000000000000000        0xe c:/applications/microchip/xc32/bin/bin/../../lib/gcc/pic32c/8.3.1/thumb/v6-m/nofp\libgcc.a(_divsi3.o)
 .xc_stack_usage
                0x0000000000000000       0x33 c:/applications/microchip/xc32/bin/bin/../../lib/gcc/pic32c/8.3.1/thumb/v6-m/nofp\libgcc.a(_divsi3.o)
 .data          0x0000000000000000        0x0 c:/applications/microchip/xc32/bin/bin/../../lib/gcc/pic32c/8.3.1/thumb/v6-m/nofp\libgcc.a(_dvmd_tls.o)
 .bss           0x0000000000000000        0x0 c:/applications/microchip/xc32/bin/bin/../../lib/gcc/pic32c/8.3.1/thumb/v6-m/nofp\libgcc.a(_dvmd_tls.o)
 .xc_stack_usage.hdr
                0x0000000000000000        0xe c:/applications/microchip/xc32/bin/bin/../../lib/gcc/pic32c/8.3.1/thumb/v6-m/nofp\libgcc.a(_dvmd_tls.o)
 .xc_stack_usage
                0x0000000000000000       0x36 c:/applications/microchip/xc32/bin/bin/../../lib/gcc/pic32c/8.3.1/thumb/v6-m/nofp\libgcc.a(_dvmd_tls.o)
 .data          0x0000000000000000        0x0 c:/applications/microchip/xc32/bin/bin/../../lib/gcc/pic32c/8.3.1/thumb/v6-m/nofp\libgcc.a(_aeabi_uldivmod.o)
 .bss           0x0000000000000000        0x0 c:/applications/microchip/xc32/bin/bin/../../lib/gcc/pic32c/8.3.1/thumb/v6-m/nofp\libgcc.a(_aeabi_uldivmod.o)
 .xc_stack_usage.hdr
                0x0000000000000000        0xe c:/applications/microchip/xc32/bin/bin/../../lib/gcc/pic32c/8.3.1/thumb/v6-m/nofp\libgcc.a(_aeabi_uldivmod.o)
 .xc_stack_usage
                0x0000000000000000       0x1e c:/applications/microchip/xc32/bin/bin/../../lib/gcc/pic32c/8.3.1/thumb/v6-m/nofp\libgcc.a(_aeabi_uldivmod.o)
 .data          0x0000000000000000        0x0 c:/applications/microchip/xc32/bin/bin/../../lib/gcc/pic32c/8.3.1/thumb/v6-m/nofp\libgcc.a(_muldi3.o)
 .bss           0x0000000000000000        0x0 c:/applications/microchip/xc32/bin/bin/../../lib/gcc/pic32c/8.3.1/thumb/v6-m/nofp\libgcc.a(_muldi3.o)
 .xc_stack_usage
                0x0000000000000000       0x16 c:/applications/microchip/xc32/bin/bin/../../lib/gcc/pic32c/8.3.1/thumb/v6-m/nofp\libgcc.a(_muldi3.o)
 .xc_stack_usage.hdr
                0x0000000000000000        0xe c:/applications/microchip/xc32/bin/bin/../../lib/gcc/pic32c/8.3.1/thumb/v6-m/nofp\libgcc.a(_muldi3.o)
 .data          0x0000000000000000        0x0 c:/applications/microchip/xc32/bin/bin/../../lib/gcc/pic32c/8.3.1/thumb/v6-m/nofp\libgcc.a(_udivmoddi4.o)
 .bss           0x0000000000000000        0x0 c:/applications/microchip/xc32/bin/bin/../../lib/gcc/pic32c/8.3.1/thumb/v6-m/nofp\libgcc.a(_udivmoddi4.o)
 .xc_stack_usage
                0x0000000000000000       0x1a c:/applications/microchip/xc32/bin/bin/../../lib/gcc/pic32c/8.3.1/thumb/v6-m/nofp\libgcc.a(_udivmoddi4.o)
 .ARM.extab     0x0000000000000000        0x0 c:/applications/microchip/xc32/bin/bin/../../lib/gcc/pic32c/8.3.1/thumb/v6-m/nofp\libgcc.a(_udivmoddi4.o)
 .xc_stack_usage.hdr
                0x0000000000000000        0xe c:/applications/microchip/xc32/bin/bin/../../lib/gcc/pic32c/8.3.1/thumb/v6-m/nofp\libgcc.a(_udivmoddi4.o)
 .data          0x0000000000000000        0x0 c:/applications/microchip/xc32/bin/bin/../../lib/gcc/pic32c/8.3.1/thumb/v6-m/nofp\libgcc.a(_lshrdi3.o)
 .bss           0x0000000000000000        0x0 c:/applications/microchip/xc32/bin/bin/../../lib/gcc/pic32c/8.3.1/thumb/v6-m/nofp\libgcc.a(_lshrdi3.o)
 .xc_stack_usage.hdr
                0x0000000000000000        0xe c:/applications/microchip/xc32/bin/bin/../../lib/gcc/pic32c/8.3.1/thumb/v6-m/nofp\libgcc.a(_lshrdi3.o)
 .xc_stack_usage
                0x0000000000000000       0x17 c:/applications/microchip/xc32/bin/bin/../../lib/gcc/pic32c/8.3.1/thumb/v6-m/nofp\libgcc.a(_lshrdi3.o)
 .data          0x0000000000000000        0x0 c:/applications/microchip/xc32/bin/bin/../../lib/gcc/pic32c/8.3.1/thumb/v6-m/nofp\libgcc.a(_ashldi3.o)
 .bss           0x0000000000000000        0x0 c:/applications/microchip/xc32/bin/bin/../../lib/gcc/pic32c/8.3.1/thumb/v6-m/nofp\libgcc.a(_ashldi3.o)
 .xc_stack_usage.hdr
                0x0000000000000000        0xe c:/applications/microchip/xc32/bin/bin/../../lib/gcc/pic32c/8.3.1/thumb/v6-m/nofp\libgcc.a(_ashldi3.o)
 .xc_stack_usage
                0x0000000000000000       0x17 c:/applications/microchip/xc32/bin/bin/../../lib/gcc/pic32c/8.3.1/thumb/v6-m/nofp\libgcc.a(_ashldi3.o)
 .data          0x0000000000000000        0x0 c:/applications/microchip/xc32/bin/bin/../../lib/gcc/pic32c/8.3.1/thumb/v6-m/nofp\libgcc.a(_clzdi2.o)
 .bss           0x0000000000000000        0x0 c:/applications/microchip/xc32/bin/bin/../../lib/gcc/pic32c/8.3.1/thumb/v6-m/nofp\libgcc.a(_clzdi2.o)
 .xc_stack_usage.hdr
                0x0000000000000000        0xe c:/applications/microchip/xc32/bin/bin/../../lib/gcc/pic32c/8.3.1/thumb/v6-m/nofp\libgcc.a(_clzdi2.o)
 .xc_stack_usage
                0x0000000000000000       0x16 c:/applications/microchip/xc32/bin/bin/../../lib/gcc/pic32c/8.3.1/thumb/v6-m/nofp\libgcc.a(_clzdi2.o)
 .data          0x0000000000000000        0x0 c:/applications/microchip/xc32/bin/bin/../../lib/gcc/pic32c/8.3.1/thumb/v6-m/nofp\libgcc.a(_clzsi2.o)
 .bss           0x0000000000000000        0x0 c:/applications/microchip/xc32/bin/bin/../../lib/gcc/pic32c/8.3.1/thumb/v6-m/nofp\libgcc.a(_clzsi2.o)
 .xc_stack_usage.hdr
                0x0000000000000000        0xe c:/applications/microchip/xc32/bin/bin/../../lib/gcc/pic32c/8.3.1/thumb/v6-m/nofp\libgcc.a(_clzsi2.o)
 .xc_stack_usage
                0x0000000000000000       0x16 c:/applications/microchip/xc32/bin/bin/../../lib/gcc/pic32c/8.3.1/thumb/v6-m/nofp\libgcc.a(_clzsi2.o)
 .text          0x0000000000000000        0x0 c:/applications/microchip/xc32/bin/bin/../../lib/gcc/pic32c/8.3.1/../../../../pic32c/lib/thumb/v6-m/nofp\libc-size-musl.a(strcpy.o)
 .data          0x0000000000000000        0x0 c:/applications/microchip/xc32/bin/bin/../../lib/gcc/pic32c/8.3.1/../../../../pic32c/lib/thumb/v6-m/nofp\libc-size-musl.a(strcpy.o)
 .bss           0x0000000000000000        0x0 c:/applications/microchip/xc32/bin/bin/../../lib/gcc/pic32c/8.3.1/../../../../pic32c/lib/thumb/v6-m/nofp\libc-size-musl.a(strcpy.o)
 .xc_stack_usage
                0x0000000000000000       0x14 c:/applications/microchip/xc32/bin/bin/../../lib/gcc/pic32c/8.3.1/../../../../pic32c/lib/thumb/v6-m/nofp\libc-size-musl.a(strcpy.o)
 .xc_stack_usage.hdr
                0x0000000000000000        0xe c:/applications/microchip/xc32/bin/bin/../../lib/gcc/pic32c/8.3.1/../../../../pic32c/lib/thumb/v6-m/nofp\libc-size-musl.a(strcpy.o)
 .text          0x0000000000000000        0x0 c:/applications/microchip/xc32/bin/bin/../../lib/gcc/pic32c/8.3.1/../../../../pic32c/lib/thumb/v6-m/nofp\libc-size-musl.a(stpcpy.o)
 .data          0x0000000000000000        0x0 c:/applications/microchip/xc32/bin/bin/../../lib/gcc/pic32c/8.3.1/../../../../pic32c/lib/thumb/v6-m/nofp\libc-size-musl.a(stpcpy.o)
 .bss           0x0000000000000000        0x0 c:/applications/microchip/xc32/bin/bin/../../lib/gcc/pic32c/8.3.1/../../../../pic32c/lib/thumb/v6-m/nofp\libc-size-musl.a(stpcpy.o)
 .xc_stack_usage
                0x0000000000000000       0x14 c:/applications/microchip/xc32/bin/bin/../../lib/gcc/pic32c/8.3.1/../../../../pic32c/lib/thumb/v6-m/nofp\libc-size-musl.a(stpcpy.o)
 .xc_stack_usage.hdr
                0x0000000000000000        0xe c:/applications/microchip/xc32/bin/bin/../../lib/gcc/pic32c/8.3.1/../../../../pic32c/lib/thumb/v6-m/nofp\libc-size-musl.a(stpcpy.o)
 .text          0x0000000000000000        0x0 c:/applications/microchip/xc32/bin/bin/../../lib/gcc/pic32c/8.3.1/thumb/v6-m/nofp/crtend.o
 .data          0x0000000000000000        0x0 c:/applications/microchip/xc32/bin/bin/../../lib/gcc/pic32c/8.3.1/thumb/v6-m/nofp/crtend.o
 .bss           0x0000000000000000        0x0 c:/applications/microchip/xc32/bin/bin/../../lib/gcc/pic32c/8.3.1/thumb/v6-m/nofp/crtend.o
 .eh_frame      0x0000000000000000        0x4 c:/applications/microchip/xc32/bin/bin/../../lib/gcc/pic32c/8.3.1/thumb/v6-m/nofp/crtend.o
 .xc_stack_usage.hdr
                0x0000000000000000        0xe c:/applications/microchip/xc32/bin/bin/../../lib/gcc/pic32c/8.3.1/thumb/v6-m/nofp/crtend.o
 .comment       0x0000000000000000       0x2c c:/applications/microchip/xc32/bin/bin/../../lib/gcc/pic32c/8.3.1/thumb/v6-m/nofp/crtend.o
 .ARM.attributes
                0x0000000000000000       0x2c c:/applications/microchip/xc32/bin/bin/../../lib/gcc/pic32c/8.3.1/thumb/v6-m/nofp/crtend.o
 .text          0x0000000000000000        0x0 c:/applications/microchip/xc32/bin/bin/../../lib/gcc/pic32c/8.3.1/thumb/v6-m/nofp/crtn.o
 .data          0x0000000000000000        0x0 c:/applications/microchip/xc32/bin/bin/../../lib/gcc/pic32c/8.3.1/thumb/v6-m/nofp/crtn.o
 .bss           0x0000000000000000        0x0 c:/applications/microchip/xc32/bin/bin/../../lib/gcc/pic32c/8.3.1/thumb/v6-m/nofp/crtn.o
 .xc_stack_usage.hdr
                0x0000000000000000        0xe c:/applications/microchip/xc32/bin/bin/../../lib/gcc/pic32c/8.3.1/thumb/v6-m/nofp/crtn.o
 .text          0x0000000000000000        0x0 c:/applications/microchip/xc32/bin/bin/../../lib/gcc/pic32c/8.3.1/../../../../pic32c/lib/thumb/v6-m/nofp\libpic32c.a(pic32_data_init_clear.o)
 .data          0x0000000000000000        0x0 c:/applications/microchip/xc32/bin/bin/../../lib/gcc/pic32c/8.3.1/../../../../pic32c/lib/thumb/v6-m/nofp\libpic32c.a(pic32_data_init_clear.o)
 .bss           0x0000000000000000        0x0 c:/applications/microchip/xc32/bin/bin/../../lib/gcc/pic32c/8.3.1/../../../../pic32c/lib/thumb/v6-m/nofp\libpic32c.a(pic32_data_init_clear.o)
 .xc_stack_usage
                0x0000000000000000       0x1b c:/applications/microchip/xc32/bin/bin/../../lib/gcc/pic32c/8.3.1/../../../../pic32c/lib/thumb/v6-m/nofp\libpic32c.a(pic32_data_init_clear.o)
 .xc_stack_usage.hdr
                0x0000000000000000        0xe c:/applications/microchip/xc32/bin/bin/../../lib/gcc/pic32c/8.3.1/../../../../pic32c/lib/thumb/v6-m/nofp\libpic32c.a(pic32_data_init_clear.o)
 .text          0x0000000000000000        0x0 c:/applications/microchip/xc32/bin/bin/../../lib/gcc/pic32c/8.3.1/../../../../pic32c/lib/thumb/v6-m/nofp\libpic32c.a(pic32_data_init_copy.o)
 .data          0x0000000000000000        0x0 c:/applications/microchip/xc32/bin/bin/../../lib/gcc/pic32c/8.3.1/../../../../pic32c/lib/thumb/v6-m/nofp\libpic32c.a(pic32_data_init_copy.o)
 .bss           0x0000000000000000        0x0 c:/applications/microchip/xc32/bin/bin/../../lib/gcc/pic32c/8.3.1/../../../../pic32c/lib/thumb/v6-m/nofp\libpic32c.a(pic32_data_init_copy.o)
 .xc_stack_usage
                0x0000000000000000       0x1a c:/applications/microchip/xc32/bin/bin/../../lib/gcc/pic32c/8.3.1/../../../../pic32c/lib/thumb/v6-m/nofp\libpic32c.a(pic32_data_init_copy.o)
 .xc_stack_usage.hdr
                0x0000000000000000        0xe c:/applications/microchip/xc32/bin/bin/../../lib/gcc/pic32c/8.3.1/../../../../pic32c/lib/thumb/v6-m/nofp\libpic32c.a(pic32_data_init_copy.o)

Memory Configuration

Name             Origin             Length             Attributes
rom              0x0000000000000000 0x0000000000080000 xrl
ram              0x0000000020000000 0x0000000000010000 xw !r
config_00804000  0x0000000000804000 0x0000000000000004
config_00804004  0x0000000000804004 0x0000000000000004
*default*        0x0000000000000000 0xffffffffffffffff

Linker script and memory map

LOAD c:/applications/microchip/xc32/bin/bin/../../lib/gcc/pic32c/8.3.1/thumb/v6-m/nofp/crti.o
LOAD c:/applications/microchip/xc32/bin/bin/../../lib/gcc/pic32c/8.3.1/thumb/v6-m/nofp/crtbegin.o
LOAD build/default/production/_ext/158385033/drv_i2c.o
LOAD build/default/production/_ext/2070931557/drv_spi.o
LOAD build/default/production/_ext/869808652/drv_usart.o
LOAD build/default/production/_ext/829343244/plib_ac.o
LOAD build/default/production/_ext/60163342/plib_adc0.o
LOAD build/default/production/_ext/60165182/plib_can0.o
LOAD build/default/production/_ext/60165242/plib_ccl.o
LOAD build/default/production/_ext/1984496892/plib_clock.o
LOAD build/default/production/_ext/60166132/plib_dac.o
LOAD build/default/production/_ext/1985337713/plib_divas.o
LOAD build/default/production/_ext/1865161661/plib_dmac.o
LOAD build/default/production/_ext/60167341/plib_eic.o
LOAD build/default/production/_ext/1986646378/plib_evsys.o
LOAD build/default/production/_ext/1987437027/plib_freqm.o
LOAD build/default/production/_ext/1865468468/plib_nvic.o
LOAD build/default/production/_ext/1593096446/plib_nvmctrl.o
LOAD build/default/production/_ext/1865510628/plib_pdec.o
LOAD build/default/production/_ext/829342769/plib_pm.o
LOAD build/default/production/_ext/1865521619/plib_port.o
LOAD build/default/production/_ext/1865585090/plib_rstc.o
LOAD build/default/production/_ext/60180175/plib_rtc_clock.o
LOAD build/default/production/_ext/508257091/plib_sercom3_i2c_master.o
LOAD build/default/production/_ext/17022449/plib_sercom2_spi_master.o
LOAD build/default/production/_ext/504274921/plib_sercom1_usart.o
LOAD build/default/production/_ext/504274921/plib_sercom0_usart.o
LOAD build/default/production/_ext/1865616679/plib_supc.o
LOAD build/default/production/_ext/829342655/plib_tc0.o
LOAD build/default/production/_ext/60181570/plib_tcc1.o
LOAD build/default/production/_ext/60181570/plib_tcc0.o
LOAD build/default/production/_ext/163028504/xc32_monitor.o
LOAD build/default/production/_ext/1832805299/sys_console_uart.o
LOAD build/default/production/_ext/1832805299/sys_console.o
LOAD build/default/production/_ext/14461671/sys_dma.o
LOAD build/default/production/_ext/1881668453/sys_int.o
LOAD build/default/production/_ext/101884895/sys_time.o
LOAD build/default/production/_ext/1171490990/tasks.o
LOAD build/default/production/_ext/1171490990/initialization.o
LOAD build/default/production/_ext/1171490990/interrupts.o
LOAD build/default/production/_ext/1171490990/exceptions.o
LOAD build/default/production/_ext/1171490990/startup_xc32.o
LOAD build/default/production/_ext/1171490990/libc_syscalls.o
LOAD build/default/production/_ext/1360937237/can0_driver.o
LOAD build/default/production/_ext/1360937237/sht4x_driver.o
LOAD build/default/production/_ext/1360937237/rstc_driver.o
LOAD build/default/production/_ext/1360937237/ad9954_driver.o
LOAD build/default/production/_ext/1360937237/rtc_driver.o
LOAD build/default/production/_ext/1360937237/mcp9808_driver.o
LOAD build/default/production/_ext/1360937237/bme690_driver.o
LOAD build/default/production/_ext/1360937237/fcm360w_driver.o
LOAD build/default/production/_ext/1360937237/console_driver.o
LOAD build/default/production/_ext/1360937237/hdc302x_driver.o
LOAD build/default/production/_ext/1360937237/fan_driver.o
LOAD build/default/production/_ext/1360937237/ntc_driver.o
LOAD build/default/production/_ext/1360937237/timer_driver.o
LOAD build/default/production/_ext/1360937237/xm125_driver.o
LOAD build/default/production/_ext/1360937237/sen6x_driver.o
LOAD build/default/production/_ext/1360937237/ws281x_driver.o
LOAD build/default/production/_ext/1360937237/app.o
LOAD build/default/production/_ext/1360937237/main.o
LOAD build/default/production/_ext/1827571544/plib_systick.o
LOAD build/default/production/_ext/60184501/plib_wdt.o
                0x0000000000000001                __MPLAB_BUILD = 0x1
                0x0000000000080000                __rom_end = (ORIGIN (rom) + LENGTH (rom))
                0x0000000020010000                __ram_end = (ORIGIN (ram) + LENGTH (ram))

.config_00804000
 *(.config_00804000)

.config_00804004
 *(.config_00804004)

.vectors        0x0000000000000000       0xc0
                0x0000000000000000                . = ALIGN (0x4)
                0x0000000000000000                _sfixed = .
 *(.vectors .vectors.* .vectors_default .vectors_default.*)
 .vectors.exception_table
                0x0000000000000000       0xc0 build/default/production/_ext/1171490990/interrupts.o
                0x0000000000000000                exception_table
 *(.isr_vector)
 *(.reset*)
 *(.after_vectors)

.text           0x00000000000000c0       0x20
                0x00000000000000c0                . = ALIGN (0x4)
 *(.glue_7t)
 .glue_7t       0x00000000000000c0        0x0 linker stubs
 *(.glue_7)
 .glue_7        0x00000000000000c0        0x0 linker stubs
 *(.gnu.linkonce.r.*)
 *(.ARM.extab* .gnu.linkonce.armextab.*)
                0x00000000000000c0                . = ALIGN (0x4)
 *(.init)
 .init          0x00000000000000c0        0x4 c:/applications/microchip/xc32/bin/bin/../../lib/gcc/pic32c/8.3.1/thumb/v6-m/nofp/crti.o
                0x00000000000000c0                _init
 .init          0x00000000000000c4        0x8 c:/applications/microchip/xc32/bin/bin/../../lib/gcc/pic32c/8.3.1/thumb/v6-m/nofp/crtn.o
                0x00000000000000cc                . = ALIGN (0x4)
                0x00000000000000cc                __preinit_array_start = .
 *(.preinit_array)
                0x00000000000000cc                __preinit_array_end = .
                0x00000000000000cc                . = ALIGN (0x4)
                0x00000000000000cc                __init_array_start = .
 *(SORT_BY_NAME(.init_array.*))
 *(.init_array)
 .init_array    0x00000000000000cc        0x4 c:/applications/microchip/xc32/bin/bin/../../lib/gcc/pic32c/8.3.1/thumb/v6-m/nofp/crtbegin.o
                0x00000000000000d0                __init_array_end = .
                0x00000000000000d0                . = ALIGN (0x4)
 *crtbegin.o(.ctors)
 *(EXCLUDE_FILE(*crtend.o) .ctors)
 *(SORT_BY_NAME(.ctors.*))
 *crtend.o(.ctors)
                0x00000000000000d0                . = ALIGN (0x4)
 *(.fini)
 .fini          0x00000000000000d0        0x4 c:/applications/microchip/xc32/bin/bin/../../lib/gcc/pic32c/8.3.1/thumb/v6-m/nofp/crti.o
                0x00000000000000d0                _fini
 .fini          0x00000000000000d4        0x8 c:/applications/microchip/xc32/bin/bin/../../lib/gcc/pic32c/8.3.1/thumb/v6-m/nofp/crtn.o
                0x00000000000000dc                . = ALIGN (0x4)
                0x00000000000000dc                __fini_array_start = .
 *(.fini_array)
 .fini_array    0x00000000000000dc        0x4 c:/applications/microchip/xc32/bin/bin/../../lib/gcc/pic32c/8.3.1/thumb/v6-m/nofp/crtbegin.o
 *(SORT_BY_NAME(.fini_array.*))
                0x00000000000000e0                __fini_array_end = .
 *crtbegin.o(.dtors)
 *(EXCLUDE_FILE(*crtend.o) .dtors)
 *(SORT_BY_NAME(.dtors.*))
 *crtend.o(.dtors)
                0x00000000000000e0                . = ALIGN (0x4)
                0x00000000000000e0                _efixed = .
                [!provide]                        PROVIDE (__exidx_start = .)

.ARM.exidx      0x00000000000000e0        0x8
 *(.ARM.exidx* .gnu.linkonce.armexidx.*)
 .ARM.exidx     0x00000000000000e0        0x8 c:/applications/microchip/xc32/bin/bin/../../lib/gcc/pic32c/8.3.1/thumb/v6-m/nofp\libgcc.a(_udivmoddi4.o)
                [!provide]                        PROVIDE (__exidx_end = .)
                0x00000000000000e8                . = ALIGN (0x4)
                0x00000000000000e8                _etext = .

.bss            0x0000000020000000        0x0
                0x0000000020000000                . = ALIGN (0x4)
                0x0000000020000000                __bss_start__ = .
                0x0000000020000000                _sbss = .
                0x0000000020000000                _szero = .
 *(COMMON)
                0x0000000020000000                . = ALIGN (0x4)
                0x0000000020000000                __bss_end__ = .
                0x0000000020000000                _ebss = .
                0x0000000020000000                _ezero = .
                0x0000000020000000                . = ALIGN (0x4)
                0x0000000020000000                _end = .
                0x000000002000ffff                _ram_end_ = ((ORIGIN (ram) + LENGTH (ram)) - 0x1)
                0x0000000000000200                _min_heap_size = 0x200
START GROUP
LOAD c:/applications/microchip/xc32/bin/bin/../../lib/gcc/pic32c/8.3.1/../../../../pic32c/lib/thumb/v6-m/nofp\libpic32c.a
LOAD c:/applications/microchip/xc32/bin/bin/../../lib/gcc/pic32c/8.3.1/../../../../pic32c/lib/thumb/v6-m/nofp\libc-size-musl.a
LOAD c:/applications/microchip/xc32/bin/bin/../../lib/gcc/pic32c/8.3.1/../../../../pic32c/lib/thumb/v6-m/nofp\liblmalloc-musl.a
LOAD c:/applications/microchip/xc32/bin/bin/../../lib/gcc/pic32c/8.3.1/../../../../pic32c/lib/thumb/v6-m/nofp\libm-fast-emfloat.a
LOAD c:/applications/microchip/xc32/bin/bin/../../lib/gcc/pic32c/8.3.1/../../../../pic32c/lib/thumb/v6-m/nofp\libm-musl.a
LOAD c:/applications/microchip/xc32/bin/bin/../../lib/gcc/pic32c/8.3.1/../../../../pic32c/lib/thumb/v6-m/nofp\libc-musl.a
LOAD c:/applications/microchip/xc32/bin/bin/../../lib/gcc/pic32c/8.3.1/../../../../pic32c/lib/thumb/v6-m/nofp\libm-fast-emfloat.a
LOAD c:/applications/microchip/xc32/bin/bin/../../lib/gcc/pic32c/8.3.1/../../../../pic32c/lib/thumb/v6-m/nofp\libm-musl.a
LOAD c:/applications/microchip/xc32/bin/bin/../../lib/gcc/pic32c/8.3.1/thumb/v6-m/nofp\libgcc.a
END GROUP
LOAD c:/applications/microchip/xc32/bin/bin/../../lib/gcc/pic32c/8.3.1/thumb/v6-m/nofp/crtend.o
LOAD c:/applications/microchip/xc32/bin/bin/../../lib/gcc/pic32c/8.3.1/thumb/v6-m/nofp/crtn.o
OUTPUT(dist/default/production/PIC32CMxxxxJH01_DRIVER.X.production.elf elf32-littlearm)
LOAD data_init
LOAD stack

.ARM.attributes
                0x0000000000000000       0x2a
 .ARM.attributes
                0x0000000000000000       0x1e c:/applications/microchip/xc32/bin/bin/../../lib/gcc/pic32c/8.3.1/thumb/v6-m/nofp/crti.o
 .ARM.attributes
                0x000000000000001e       0x2c c:/applications/microchip/xc32/bin/bin/../../lib/gcc/pic32c/8.3.1/thumb/v6-m/nofp/crtbegin.o
 .ARM.attributes
                0x000000000000004a       0x2c build/default/production/_ext/158385033/drv_i2c.o
 .ARM.attributes
                0x0000000000000076       0x2c build/default/production/_ext/2070931557/drv_spi.o
 .ARM.attributes
                0x00000000000000a2       0x2c build/default/production/_ext/869808652/drv_usart.o
 .ARM.attributes
                0x00000000000000ce       0x2c build/default/production/_ext/829343244/plib_ac.o
 .ARM.attributes
                0x00000000000000fa       0x2c build/default/production/_ext/60163342/plib_adc0.o
 .ARM.attributes
                0x0000000000000126       0x2c build/default/production/_ext/60165182/plib_can0.o
 .ARM.attributes
                0x0000000000000152       0x2c build/default/production/_ext/60165242/plib_ccl.o
 .ARM.attributes
                0x000000000000017e       0x2c build/default/production/_ext/1984496892/plib_clock.o
 .ARM.attributes
                0x00000000000001aa       0x2c build/default/production/_ext/60166132/plib_dac.o
 .ARM.attributes
                0x00000000000001d6       0x2c build/default/production/_ext/1865161661/plib_dmac.o
 .ARM.attributes
                0x0000000000000202       0x2c build/default/production/_ext/60167341/plib_eic.o
 .ARM.attributes
                0x000000000000022e       0x2c build/default/production/_ext/1986646378/plib_evsys.o
 .ARM.attributes
                0x000000000000025a       0x2c build/default/production/_ext/1987437027/plib_freqm.o
 .ARM.attributes
                0x0000000000000286       0x2c build/default/production/_ext/1865468468/plib_nvic.o
 .ARM.attributes
                0x00000000000002b2       0x2c build/default/production/_ext/1593096446/plib_nvmctrl.o
 .ARM.attributes
                0x00000000000002de       0x2c build/default/production/_ext/1865510628/plib_pdec.o
 .ARM.attributes
                0x000000000000030a       0x2c build/default/production/_ext/829342769/plib_pm.o
 .ARM.attributes
                0x0000000000000336       0x2c build/default/production/_ext/1865521619/plib_port.o
 .ARM.attributes
                0x0000000000000362       0x2c build/default/production/_ext/1865585090/plib_rstc.o
 .ARM.attributes
                0x000000000000038e       0x2c build/default/production/_ext/60180175/plib_rtc_clock.o
 .ARM.attributes
                0x00000000000003ba       0x2c build/default/production/_ext/508257091/plib_sercom3_i2c_master.o
 .ARM.attributes
                0x00000000000003e6       0x2c build/default/production/_ext/17022449/plib_sercom2_spi_master.o
 .ARM.attributes
                0x0000000000000412       0x2c build/default/production/_ext/504274921/plib_sercom1_usart.o
 .ARM.attributes
                0x000000000000043e       0x2c build/default/production/_ext/504274921/plib_sercom0_usart.o
 .ARM.attributes
                0x000000000000046a       0x2c build/default/production/_ext/1865616679/plib_supc.o
 .ARM.attributes
                0x0000000000000496       0x2c build/default/production/_ext/829342655/plib_tc0.o
 .ARM.attributes
                0x00000000000004c2       0x2c build/default/production/_ext/60181570/plib_tcc1.o
 .ARM.attributes
                0x00000000000004ee       0x2c build/default/production/_ext/60181570/plib_tcc0.o
 .ARM.attributes
                0x000000000000051a       0x2c build/default/production/_ext/1832805299/sys_console_uart.o
 .ARM.attributes
                0x0000000000000546       0x2c build/default/production/_ext/1832805299/sys_console.o
 .ARM.attributes
                0x0000000000000572       0x2c build/default/production/_ext/14461671/sys_dma.o
 .ARM.attributes
                0x000000000000059e       0x2c build/default/production/_ext/1881668453/sys_int.o
 .ARM.attributes
                0x00000000000005ca       0x2c build/default/production/_ext/101884895/sys_time.o
 .ARM.attributes
                0x00000000000005f6       0x2c build/default/production/_ext/1171490990/tasks.o
 .ARM.attributes
                0x0000000000000622       0x2c build/default/production/_ext/1171490990/initialization.o
 .ARM.attributes
                0x000000000000064e       0x2c build/default/production/_ext/1171490990/interrupts.o
 .ARM.attributes
                0x000000000000067a       0x2c build/default/production/_ext/1171490990/exceptions.o
 .ARM.attributes
                0x00000000000006a6       0x2c build/default/production/_ext/1171490990/startup_xc32.o
 .ARM.attributes
                0x00000000000006d2       0x2c build/default/production/_ext/1360937237/can0_driver.o
 .ARM.attributes
                0x00000000000006fe       0x2c build/default/production/_ext/1360937237/sht4x_driver.o
 .ARM.attributes
                0x000000000000072a       0x2c build/default/production/_ext/1360937237/rstc_driver.o
 .ARM.attributes
                0x0000000000000756       0x2c build/default/production/_ext/1360937237/ad9954_driver.o
 .ARM.attributes
                0x0000000000000782       0x2c build/default/production/_ext/1360937237/rtc_driver.o
 .ARM.attributes
                0x00000000000007ae       0x2c build/default/production/_ext/1360937237/mcp9808_driver.o
 .ARM.attributes
                0x00000000000007da       0x2c build/default/production/_ext/1360937237/bme690_driver.o
 .ARM.attributes
                0x0000000000000806       0x2c build/default/production/_ext/1360937237/fcm360w_driver.o
 .ARM.attributes
                0x0000000000000832       0x2c build/default/production/_ext/1360937237/console_driver.o
 .ARM.attributes
                0x000000000000085e       0x2c build/default/production/_ext/1360937237/hdc302x_driver.o
 .ARM.attributes
                0x000000000000088a       0x2c build/default/production/_ext/1360937237/fan_driver.o
 .ARM.attributes
                0x00000000000008b6       0x2c build/default/production/_ext/1360937237/ntc_driver.o
 .ARM.attributes
                0x00000000000008e2       0x2c build/default/production/_ext/1360937237/timer_driver.o
 .ARM.attributes
                0x000000000000090e       0x2c build/default/production/_ext/1360937237/xm125_driver.o
 .ARM.attributes
                0x000000000000093a       0x2c build/default/production/_ext/1360937237/sen6x_driver.o
 .ARM.attributes
                0x0000000000000966       0x2c build/default/production/_ext/1360937237/ws281x_driver.o
 .ARM.attributes
                0x0000000000000992       0x2c build/default/production/_ext/1360937237/app.o
 .ARM.attributes
                0x00000000000009be       0x2c build/default/production/_ext/1360937237/main.o
 .ARM.attributes
                0x00000000000009ea       0x2c build/default/production/_ext/1827571544/plib_systick.o
 .ARM.attributes
                0x0000000000000a16       0x2c build/default/production/_ext/60184501/plib_wdt.o
 .ARM.attributes
                0x0000000000000a42       0x2c c:/applications/microchip/xc32/bin/bin/../../lib/gcc/pic32c/8.3.1/../../../../pic32c/lib/thumb/v6-m/nofp\libpic32c.a(data_init.o)
 .ARM.attributes
                0x0000000000000a6e       0x2e c:/applications/microchip/xc32/bin/bin/../../lib/gcc/pic32c/8.3.1/../../../../pic32c/lib/thumb/v6-m/nofp\libc-size-musl.a(memcpy.o)
 .ARM.attributes
                0x0000000000000a9c       0x2e c:/applications/microchip/xc32/bin/bin/../../lib/gcc/pic32c/8.3.1/../../../../pic32c/lib/thumb/v6-m/nofp\libc-size-musl.a(memset.o)
 .ARM.attributes
                0x0000000000000aca       0x2e c:/applications/microchip/xc32/bin/bin/../../lib/gcc/pic32c/8.3.1/../../../../pic32c/lib/thumb/v6-m/nofp\libc-size-musl.a(strlen.o)
 .ARM.attributes
                0x0000000000000af8       0x2e c:/applications/microchip/xc32/bin/bin/../../lib/gcc/pic32c/8.3.1/../../../../pic32c/lib/thumb/v6-m/nofp\libc-size-musl.a(strstr.o)
 .ARM.attributes
                0x0000000000000b26       0x2e c:/applications/microchip/xc32/bin/bin/../../lib/gcc/pic32c/8.3.1/../../../../pic32c/lib/thumb/v6-m/nofp\libc-size-musl.a(strchr.o)
 .ARM.attributes
                0x0000000000000b54       0x2e c:/applications/microchip/xc32/bin/bin/../../lib/gcc/pic32c/8.3.1/../../../../pic32c/lib/thumb/v6-m/nofp\libc-size-musl.a(strchrnul.o)
 .ARM.attributes
                0x0000000000000b82       0x1c c:/applications/microchip/xc32/bin/bin/../../lib/gcc/pic32c/8.3.1/../../../../pic32c/lib/thumb/v6-m/nofp\libm-fast-emfloat.a(__aeabi_fadd.o)
 .ARM.attributes
                0x0000000000000b9e       0x1c c:/applications/microchip/xc32/bin/bin/../../lib/gcc/pic32c/8.3.1/../../../../pic32c/lib/thumb/v6-m/nofp\libm-fast-emfloat.a(__aeabi_dadd.o)
 .ARM.attributes
                0x0000000000000bba       0x1c c:/applications/microchip/xc32/bin/bin/../../lib/gcc/pic32c/8.3.1/../../../../pic32c/lib/thumb/v6-m/nofp\libm-fast-emfloat.a(__aeabi_fsub.o)
 .ARM.attributes
                0x0000000000000bd6       0x1c c:/applications/microchip/xc32/bin/bin/../../lib/gcc/pic32c/8.3.1/../../../../pic32c/lib/thumb/v6-m/nofp\libm-fast-emfloat.a(__aeabi_fmul.o)
 .ARM.attributes
                0x0000000000000bf2       0x1c c:/applications/microchip/xc32/bin/bin/../../lib/gcc/pic32c/8.3.1/../../../../pic32c/lib/thumb/v6-m/nofp\libm-fast-emfloat.a(__aeabi_dmul_aux.o)
 .ARM.attributes
                0x0000000000000c0e       0x1c c:/applications/microchip/xc32/bin/bin/../../lib/gcc/pic32c/8.3.1/../../../../pic32c/lib/thumb/v6-m/nofp\libm-fast-emfloat.a(__aeabi_fdiv.o)
 .ARM.attributes
                0x0000000000000c2a       0x1c c:/applications/microchip/xc32/bin/bin/../../lib/gcc/pic32c/8.3.1/../../../../pic32c/lib/thumb/v6-m/nofp\libm-fast-emfloat.a(__aeabi_f2iz.o)
 .ARM.attributes
                0x0000000000000c46       0x1c c:/applications/microchip/xc32/bin/bin/../../lib/gcc/pic32c/8.3.1/../../../../pic32c/lib/thumb/v6-m/nofp\libm-fast-emfloat.a(__aeabi_f2uiz.o)
 .ARM.attributes
                0x0000000000000c62       0x1c c:/applications/microchip/xc32/bin/bin/../../lib/gcc/pic32c/8.3.1/../../../../pic32c/lib/thumb/v6-m/nofp\libm-fast-emfloat.a(__aeabi_i2f.o)
 .ARM.attributes
                0x0000000000000c7e       0x1c c:/applications/microchip/xc32/bin/bin/../../lib/gcc/pic32c/8.3.1/../../../../pic32c/lib/thumb/v6-m/nofp\libm-fast-emfloat.a(__aeabi_ui2f.o)
 .ARM.attributes
                0x0000000000000c9a       0x1c c:/applications/microchip/xc32/bin/bin/../../lib/gcc/pic32c/8.3.1/../../../../pic32c/lib/thumb/v6-m/nofp\libm-fast-emfloat.a(__aeabi_f2d.o)
 .ARM.attributes
                0x0000000000000cb6       0x1c c:/applications/microchip/xc32/bin/bin/../../lib/gcc/pic32c/8.3.1/../../../../pic32c/lib/thumb/v6-m/nofp\libm-fast-emfloat.a(__aeabi_d2f.o)
 .ARM.attributes
                0x0000000000000cd2       0x2e c:/applications/microchip/xc32/bin/bin/../../lib/gcc/pic32c/8.3.1/../../../../pic32c/lib/thumb/v6-m/nofp\libc-musl.a(__libc_start_main.o)
 .ARM.attributes
                0x0000000000000d00       0x2e c:/applications/microchip/xc32/bin/bin/../../lib/gcc/pic32c/8.3.1/../../../../pic32c/lib/thumb/v6-m/nofp\libc-musl.a(libc.o)
 .ARM.attributes
                0x0000000000000d2e       0x2e c:/applications/microchip/xc32/bin/bin/../../lib/gcc/pic32c/8.3.1/../../../../pic32c/lib/thumb/v6-m/nofp\libc-musl.a(vsnprintf.o)
 .ARM.attributes
                0x0000000000000d5c       0x2e c:/applications/microchip/xc32/bin/bin/../../lib/gcc/pic32c/8.3.1/../../../../pic32c/lib/thumb/v6-m/nofp\libc-musl.a(sprintf.o)
 .ARM.attributes
                0x0000000000000d8a       0x2e c:/applications/microchip/xc32/bin/bin/../../lib/gcc/pic32c/8.3.1/../../../../pic32c/lib/thumb/v6-m/nofp\libc-musl.a(vsprintf.o)
 .ARM.attributes
                0x0000000000000db8       0x2e c:/applications/microchip/xc32/bin/bin/../../lib/gcc/pic32c/8.3.1/../../../../pic32c/lib/thumb/v6-m/nofp\libc-musl.a(__environ.o)
 .ARM.attributes
                0x0000000000000de6       0x2e c:/applications/microchip/xc32/bin/bin/../../lib/gcc/pic32c/8.3.1/../../../../pic32c/lib/thumb/v6-m/nofp\libc-musl.a(__errno_location.o)
 .ARM.attributes
                0x0000000000000e14       0x2e c:/applications/microchip/xc32/bin/bin/../../lib/gcc/pic32c/8.3.1/../../../../pic32c/lib/thumb/v6-m/nofp\libc-musl.a(vfprintf.o)
 .ARM.attributes
                0x0000000000000e42       0x2e c:/applications/microchip/xc32/bin/bin/../../lib/gcc/pic32c/8.3.1/../../../../pic32c/lib/thumb/v6-m/nofp\libc-musl.a(__pop_float.o)
 .ARM.attributes
                0x0000000000000e70       0x2e c:/applications/microchip/xc32/bin/bin/../../lib/gcc/pic32c/8.3.1/../../../../pic32c/lib/thumb/v6-m/nofp\libc-musl.a(__pop_int.o)
 .ARM.attributes
                0x0000000000000e9e       0x2e c:/applications/microchip/xc32/bin/bin/../../lib/gcc/pic32c/8.3.1/../../../../pic32c/lib/thumb/v6-m/nofp\libc-musl.a(__pop_ptr.o)
 .ARM.attributes
                0x0000000000000ecc       0x2e c:/applications/microchip/xc32/bin/bin/../../lib/gcc/pic32c/8.3.1/../../../../pic32c/lib/thumb/v6-m/nofp\libc-musl.a(__printf_core.o)
 .ARM.attributes
                0x0000000000000efa       0x2e c:/applications/microchip/xc32/bin/bin/../../lib/gcc/pic32c/8.3.1/../../../../pic32c/lib/thumb/v6-m/nofp\libc-musl.a(atoi.o)
 .ARM.attributes
                0x0000000000000f28       0x2e c:/applications/microchip/xc32/bin/bin/../../lib/gcc/pic32c/8.3.1/../../../../pic32c/lib/thumb/v6-m/nofp\libc-musl.a(tolower.o)
 .ARM.attributes
                0x0000000000000f56       0x2e c:/applications/microchip/xc32/bin/bin/../../lib/gcc/pic32c/8.3.1/../../../../pic32c/lib/thumb/v6-m/nofp\libc-musl.a(__fmt_a.o)
 .ARM.attributes
                0x0000000000000f84       0x2e c:/applications/microchip/xc32/bin/bin/../../lib/gcc/pic32c/8.3.1/../../../../pic32c/lib/thumb/v6-m/nofp\libc-musl.a(__fmt_d.o)
 .ARM.attributes
                0x0000000000000fb2       0x2e c:/applications/microchip/xc32/bin/bin/../../lib/gcc/pic32c/8.3.1/../../../../pic32c/lib/thumb/v6-m/nofp\libc-musl.a(__fmt_fp.o)
 .ARM.attributes
                0x0000000000000fe0       0x2e c:/applications/microchip/xc32/bin/bin/../../lib/gcc/pic32c/8.3.1/../../../../pic32c/lib/thumb/v6-m/nofp\libc-musl.a(__fmt_o.o)
 .ARM.attributes
                0x000000000000100e       0x2e c:/applications/microchip/xc32/bin/bin/../../lib/gcc/pic32c/8.3.1/../../../../pic32c/lib/thumb/v6-m/nofp\libc-musl.a(__fmt_s.o)
 .ARM.attributes
                0x000000000000103c       0x2e c:/applications/microchip/xc32/bin/bin/../../lib/gcc/pic32c/8.3.1/../../../../pic32c/lib/thumb/v6-m/nofp\libc-musl.a(__fmt_u.o)
 .ARM.attributes
                0x000000000000106a       0x2e c:/applications/microchip/xc32/bin/bin/../../lib/gcc/pic32c/8.3.1/../../../../pic32c/lib/thumb/v6-m/nofp\libc-musl.a(__fmt_x.o)
 .ARM.attributes
                0x0000000000001098       0x2e c:/applications/microchip/xc32/bin/bin/../../lib/gcc/pic32c/8.3.1/../../../../pic32c/lib/thumb/v6-m/nofp\libc-musl.a(toupper.o)
 .ARM.attributes
                0x00000000000010c6       0x2e c:/applications/microchip/xc32/bin/bin/../../lib/gcc/pic32c/8.3.1/../../../../pic32c/lib/thumb/v6-m/nofp\libc-musl.a(__cvt_u.o)
 .ARM.attributes
                0x00000000000010f4       0x2c c:/applications/microchip/xc32/bin/bin/../../lib/gcc/pic32c/8.3.1/../../../../pic32c/lib/thumb/v6-m/nofp\libm-fast-emfloat.a(fma.o)
 .ARM.attributes
                0x0000000000001120       0x2c c:/applications/microchip/xc32/bin/bin/../../lib/gcc/pic32c/8.3.1/../../../../pic32c/lib/thumb/v6-m/nofp\libm-fast-emfloat.a(floor.o)
 .ARM.attributes
                0x000000000000114c       0x1c c:/applications/microchip/xc32/bin/bin/../../lib/gcc/pic32c/8.3.1/../../../../pic32c/lib/thumb/v6-m/nofp\libm-fast-emfloat.a(__aeabi_dsub.o)
 .ARM.attributes
                0x0000000000001168       0x1c c:/applications/microchip/xc32/bin/bin/../../lib/gcc/pic32c/8.3.1/../../../../pic32c/lib/thumb/v6-m/nofp\libm-fast-emfloat.a(__aeabi_ddiv.o)
 .ARM.attributes
                0x0000000000001184       0x1c c:/applications/microchip/xc32/bin/bin/../../lib/gcc/pic32c/8.3.1/../../../../pic32c/lib/thumb/v6-m/nofp\libm-fast-emfloat.a(__aeabi_dcmple.o)
 .ARM.attributes
                0x00000000000011a0       0x1c c:/applications/microchip/xc32/bin/bin/../../lib/gcc/pic32c/8.3.1/../../../../pic32c/lib/thumb/v6-m/nofp\libm-fast-emfloat.a(__aeabi_dcmpeq.o)
 .ARM.attributes
                0x00000000000011bc       0x1c c:/applications/microchip/xc32/bin/bin/../../lib/gcc/pic32c/8.3.1/../../../../pic32c/lib/thumb/v6-m/nofp\libm-fast-emfloat.a(__aeabi_dcmpgt.o)
 .ARM.attributes
                0x00000000000011d8       0x1c c:/applications/microchip/xc32/bin/bin/../../lib/gcc/pic32c/8.3.1/../../../../pic32c/lib/thumb/v6-m/nofp\libm-fast-emfloat.a(__aeabi_dcmplt.o)
 .ARM.attributes
                0x00000000000011f4       0x1c c:/applications/microchip/xc32/bin/bin/../../lib/gcc/pic32c/8.3.1/../../../../pic32c/lib/thumb/v6-m/nofp\libm-fast-emfloat.a(__aeabi_d2iz.o)
 .ARM.attributes
                0x0000000000001210       0x1c c:/applications/microchip/xc32/bin/bin/../../lib/gcc/pic32c/8.3.1/../../../../pic32c/lib/thumb/v6-m/nofp\libm-fast-emfloat.a(__aeabi_d2uiz.o)
 .ARM.attributes
                0x000000000000122c       0x1e c:/applications/microchip/xc32/bin/bin/../../lib/gcc/pic32c/8.3.1/thumb/v6-m/nofp\libgcc.a(_udivsi3.o)
 .ARM.attributes
                0x000000000000124a       0x1e c:/applications/microchip/xc32/bin/bin/../../lib/gcc/pic32c/8.3.1/thumb/v6-m/nofp\libgcc.a(_divsi3.o)
 .ARM.attributes
                0x0000000000001268       0x1e c:/applications/microchip/xc32/bin/bin/../../lib/gcc/pic32c/8.3.1/thumb/v6-m/nofp\libgcc.a(_dvmd_tls.o)
 .ARM.attributes
                0x0000000000001286       0x1e c:/applications/microchip/xc32/bin/bin/../../lib/gcc/pic32c/8.3.1/thumb/v6-m/nofp\libgcc.a(_aeabi_uldivmod.o)
 .ARM.attributes
                0x00000000000012a4       0x2c c:/applications/microchip/xc32/bin/bin/../../lib/gcc/pic32c/8.3.1/thumb/v6-m/nofp\libgcc.a(_muldi3.o)
 .ARM.attributes
                0x00000000000012d0       0x2c c:/applications/microchip/xc32/bin/bin/../../lib/gcc/pic32c/8.3.1/thumb/v6-m/nofp\libgcc.a(_udivmoddi4.o)
 .ARM.attributes
                0x00000000000012fc       0x1e c:/applications/microchip/xc32/bin/bin/../../lib/gcc/pic32c/8.3.1/thumb/v6-m/nofp\libgcc.a(_lshrdi3.o)
 .ARM.attributes
                0x000000000000131a       0x1e c:/applications/microchip/xc32/bin/bin/../../lib/gcc/pic32c/8.3.1/thumb/v6-m/nofp\libgcc.a(_ashldi3.o)
 .ARM.attributes
                0x0000000000001338       0x1e c:/applications/microchip/xc32/bin/bin/../../lib/gcc/pic32c/8.3.1/thumb/v6-m/nofp\libgcc.a(_clzdi2.o)
 .ARM.attributes
                0x0000000000001356       0x1e c:/applications/microchip/xc32/bin/bin/../../lib/gcc/pic32c/8.3.1/thumb/v6-m/nofp\libgcc.a(_clzsi2.o)
 .ARM.attributes
                0x0000000000001374       0x2e c:/applications/microchip/xc32/bin/bin/../../lib/gcc/pic32c/8.3.1/../../../../pic32c/lib/thumb/v6-m/nofp\libc-size-musl.a(strcpy.o)
 .ARM.attributes
                0x00000000000013a2       0x2e c:/applications/microchip/xc32/bin/bin/../../lib/gcc/pic32c/8.3.1/../../../../pic32c/lib/thumb/v6-m/nofp\libc-size-musl.a(stpcpy.o)
 .ARM.attributes
                0x00000000000013d0       0x1e c:/applications/microchip/xc32/bin/bin/../../lib/gcc/pic32c/8.3.1/thumb/v6-m/nofp/crtn.o
 .ARM.attributes
                0x00000000000013ee       0x2c c:/applications/microchip/xc32/bin/bin/../../lib/gcc/pic32c/8.3.1/../../../../pic32c/lib/thumb/v6-m/nofp\libpic32c.a(pic32_data_init_clear.o)
 .ARM.attributes
                0x000000000000141a       0x2c c:/applications/microchip/xc32/bin/bin/../../lib/gcc/pic32c/8.3.1/../../../../pic32c/lib/thumb/v6-m/nofp\libpic32c.a(pic32_data_init_copy.o)

.comment        0x0000000000000000       0x2b
 .comment       0x0000000000000000       0x2b c:/applications/microchip/xc32/bin/bin/../../lib/gcc/pic32c/8.3.1/thumb/v6-m/nofp/crtbegin.o
                                         0x2c (size before relaxing)
 .comment       0x000000000000002b       0x2c build/default/production/_ext/158385033/drv_i2c.o
 .comment       0x000000000000002b       0x2c build/default/production/_ext/2070931557/drv_spi.o
 .comment       0x000000000000002b       0x2c build/default/production/_ext/869808652/drv_usart.o
 .comment       0x000000000000002b       0x2c build/default/production/_ext/829343244/plib_ac.o
 .comment       0x000000000000002b       0x2c build/default/production/_ext/60163342/plib_adc0.o
 .comment       0x000000000000002b       0x2c build/default/production/_ext/60165182/plib_can0.o
 .comment       0x000000000000002b       0x2c build/default/production/_ext/60165242/plib_ccl.o
 .comment       0x000000000000002b       0x2c build/default/production/_ext/1984496892/plib_clock.o
 .comment       0x000000000000002b       0x2c build/default/production/_ext/60166132/plib_dac.o
 .comment       0x000000000000002b       0x2c build/default/production/_ext/1865161661/plib_dmac.o
 .comment       0x000000000000002b       0x2c build/default/production/_ext/60167341/plib_eic.o
 .comment       0x000000000000002b       0x2c build/default/production/_ext/1986646378/plib_evsys.o
 .comment       0x000000000000002b       0x2c build/default/production/_ext/1987437027/plib_freqm.o
 .comment       0x000000000000002b       0x2c build/default/production/_ext/1865468468/plib_nvic.o
 .comment       0x000000000000002b       0x2c build/default/production/_ext/1593096446/plib_nvmctrl.o
 .comment       0x000000000000002b       0x2c build/default/production/_ext/1865510628/plib_pdec.o
 .comment       0x000000000000002b       0x2c build/default/production/_ext/829342769/plib_pm.o
 .comment       0x000000000000002b       0x2c build/default/production/_ext/1865521619/plib_port.o
 .comment       0x000000000000002b       0x2c build/default/production/_ext/1865585090/plib_rstc.o
 .comment       0x000000000000002b       0x2c build/default/production/_ext/60180175/plib_rtc_clock.o
 .comment       0x000000000000002b       0x2c build/default/production/_ext/508257091/plib_sercom3_i2c_master.o
 .comment       0x000000000000002b       0x2c build/default/production/_ext/17022449/plib_sercom2_spi_master.o
 .comment       0x000000000000002b       0x2c build/default/production/_ext/504274921/plib_sercom1_usart.o
 .comment       0x000000000000002b       0x2c build/default/production/_ext/504274921/plib_sercom0_usart.o
 .comment       0x000000000000002b       0x2c build/default/production/_ext/1865616679/plib_supc.o
 .comment       0x000000000000002b       0x2c build/default/production/_ext/829342655/plib_tc0.o
 .comment       0x000000000000002b       0x2c build/default/production/_ext/60181570/plib_tcc1.o
 .comment       0x000000000000002b       0x2c build/default/production/_ext/60181570/plib_tcc0.o
 .comment       0x000000000000002b       0x2c build/default/production/_ext/1832805299/sys_console_uart.o
 .comment       0x000000000000002b       0x2c build/default/production/_ext/1832805299/sys_console.o
 .comment       0x000000000000002b       0x2c build/default/production/_ext/14461671/sys_dma.o
 .comment       0x000000000000002b       0x2c build/default/production/_ext/1881668453/sys_int.o
 .comment       0x000000000000002b       0x2c build/default/production/_ext/101884895/sys_time.o
 .comment       0x000000000000002b       0x2c build/default/production/_ext/1171490990/tasks.o
 .comment       0x000000000000002b       0x2c build/default/production/_ext/1171490990/initialization.o
 .comment       0x000000000000002b       0x2c build/default/production/_ext/1171490990/interrupts.o
 .comment       0x000000000000002b       0x2c build/default/production/_ext/1171490990/exceptions.o
 .comment       0x000000000000002b       0x2c build/default/production/_ext/1171490990/startup_xc32.o
 .comment       0x000000000000002b       0x2c build/default/production/_ext/1360937237/can0_driver.o
 .comment       0x000000000000002b       0x2c build/default/production/_ext/1360937237/sht4x_driver.o
 .comment       0x000000000000002b       0x2c build/default/production/_ext/1360937237/rstc_driver.o
 .comment       0x000000000000002b       0x2c build/default/production/_ext/1360937237/ad9954_driver.o
 .comment       0x000000000000002b       0x2c build/default/production/_ext/1360937237/rtc_driver.o
 .comment       0x000000000000002b       0x2c build/default/production/_ext/1360937237/mcp9808_driver.o
 .comment       0x000000000000002b       0x2c build/default/production/_ext/1360937237/bme690_driver.o
 .comment       0x000000000000002b       0x2c build/default/production/_ext/1360937237/fcm360w_driver.o
 .comment       0x000000000000002b       0x2c build/default/production/_ext/1360937237/console_driver.o
 .comment       0x000000000000002b       0x2c build/default/production/_ext/1360937237/hdc302x_driver.o
 .comment       0x000000000000002b       0x2c build/default/production/_ext/1360937237/fan_driver.o
 .comment       0x000000000000002b       0x2c build/default/production/_ext/1360937237/ntc_driver.o
 .comment       0x000000000000002b       0x2c build/default/production/_ext/1360937237/timer_driver.o
 .comment       0x000000000000002b       0x2c build/default/production/_ext/1360937237/xm125_driver.o
 .comment       0x000000000000002b       0x2c build/default/production/_ext/1360937237/sen6x_driver.o
 .comment       0x000000000000002b       0x2c build/default/production/_ext/1360937237/ws281x_driver.o
 .comment       0x000000000000002b       0x2c build/default/production/_ext/1360937237/app.o
 .comment       0x000000000000002b       0x2c build/default/production/_ext/1360937237/main.o
 .comment       0x000000000000002b       0x2c build/default/production/_ext/1827571544/plib_systick.o
 .comment       0x000000000000002b       0x2c build/default/production/_ext/60184501/plib_wdt.o
 .comment       0x000000000000002b       0x2c c:/applications/microchip/xc32/bin/bin/../../lib/gcc/pic32c/8.3.1/../../../../pic32c/lib/thumb/v6-m/nofp\libpic32c.a(data_init.o)
 .comment       0x000000000000002b       0x2c c:/applications/microchip/xc32/bin/bin/../../lib/gcc/pic32c/8.3.1/../../../../pic32c/lib/thumb/v6-m/nofp\libc-size-musl.a(memcpy.o)
 .comment       0x000000000000002b       0x2c c:/applications/microchip/xc32/bin/bin/../../lib/gcc/pic32c/8.3.1/../../../../pic32c/lib/thumb/v6-m/nofp\libc-size-musl.a(memset.o)
 .comment       0x000000000000002b       0x2c c:/applications/microchip/xc32/bin/bin/../../lib/gcc/pic32c/8.3.1/../../../../pic32c/lib/thumb/v6-m/nofp\libc-size-musl.a(strlen.o)
 .comment       0x000000000000002b       0x2c c:/applications/microchip/xc32/bin/bin/../../lib/gcc/pic32c/8.3.1/../../../../pic32c/lib/thumb/v6-m/nofp\libc-size-musl.a(strstr.o)
 .comment       0x000000000000002b       0x2c c:/applications/microchip/xc32/bin/bin/../../lib/gcc/pic32c/8.3.1/../../../../pic32c/lib/thumb/v6-m/nofp\libc-size-musl.a(strchr.o)
 .comment       0x000000000000002b       0x2c c:/applications/microchip/xc32/bin/bin/../../lib/gcc/pic32c/8.3.1/../../../../pic32c/lib/thumb/v6-m/nofp\libc-size-musl.a(strchrnul.o)
 .comment       0x000000000000002b       0x2c c:/applications/microchip/xc32/bin/bin/../../lib/gcc/pic32c/8.3.1/../../../../pic32c/lib/thumb/v6-m/nofp\libc-musl.a(__libc_start_main.o)
 .comment       0x000000000000002b       0x2c c:/applications/microchip/xc32/bin/bin/../../lib/gcc/pic32c/8.3.1/../../../../pic32c/lib/thumb/v6-m/nofp\libc-musl.a(libc.o)
 .comment       0x000000000000002b       0x2c c:/applications/microchip/xc32/bin/bin/../../lib/gcc/pic32c/8.3.1/../../../../pic32c/lib/thumb/v6-m/nofp\libc-musl.a(vsnprintf.o)
 .comment       0x000000000000002b       0x2c c:/applications/microchip/xc32/bin/bin/../../lib/gcc/pic32c/8.3.1/../../../../pic32c/lib/thumb/v6-m/nofp\libc-musl.a(sprintf.o)
 .comment       0x000000000000002b       0x2c c:/applications/microchip/xc32/bin/bin/../../lib/gcc/pic32c/8.3.1/../../../../pic32c/lib/thumb/v6-m/nofp\libc-musl.a(vsprintf.o)
 .comment       0x000000000000002b       0x2c c:/applications/microchip/xc32/bin/bin/../../lib/gcc/pic32c/8.3.1/../../../../pic32c/lib/thumb/v6-m/nofp\libc-musl.a(__environ.o)
 .comment       0x000000000000002b       0x2c c:/applications/microchip/xc32/bin/bin/../../lib/gcc/pic32c/8.3.1/../../../../pic32c/lib/thumb/v6-m/nofp\libc-musl.a(__errno_location.o)
 .comment       0x000000000000002b       0x2c c:/applications/microchip/xc32/bin/bin/../../lib/gcc/pic32c/8.3.1/../../../../pic32c/lib/thumb/v6-m/nofp\libc-musl.a(vfprintf.o)
 .comment       0x000000000000002b       0x2c c:/applications/microchip/xc32/bin/bin/../../lib/gcc/pic32c/8.3.1/../../../../pic32c/lib/thumb/v6-m/nofp\libc-musl.a(__pop_float.o)
 .comment       0x000000000000002b       0x2c c:/applications/microchip/xc32/bin/bin/../../lib/gcc/pic32c/8.3.1/../../../../pic32c/lib/thumb/v6-m/nofp\libc-musl.a(__pop_int.o)
 .comment       0x000000000000002b       0x2c c:/applications/microchip/xc32/bin/bin/../../lib/gcc/pic32c/8.3.1/../../../../pic32c/lib/thumb/v6-m/nofp\libc-musl.a(__pop_ptr.o)
 .comment       0x000000000000002b       0x2c c:/applications/microchip/xc32/bin/bin/../../lib/gcc/pic32c/8.3.1/../../../../pic32c/lib/thumb/v6-m/nofp\libc-musl.a(__printf_core.o)
 .comment       0x000000000000002b       0x2c c:/applications/microchip/xc32/bin/bin/../../lib/gcc/pic32c/8.3.1/../../../../pic32c/lib/thumb/v6-m/nofp\libc-musl.a(atoi.o)
 .comment       0x000000000000002b       0x2c c:/applications/microchip/xc32/bin/bin/../../lib/gcc/pic32c/8.3.1/../../../../pic32c/lib/thumb/v6-m/nofp\libc-musl.a(tolower.o)
 .comment       0x000000000000002b       0x2c c:/applications/microchip/xc32/bin/bin/../../lib/gcc/pic32c/8.3.1/../../../../pic32c/lib/thumb/v6-m/nofp\libc-musl.a(__fmt_a.o)
 .comment       0x000000000000002b       0x2c c:/applications/microchip/xc32/bin/bin/../../lib/gcc/pic32c/8.3.1/../../../../pic32c/lib/thumb/v6-m/nofp\libc-musl.a(__fmt_d.o)
 .comment       0x000000000000002b       0x2c c:/applications/microchip/xc32/bin/bin/../../lib/gcc/pic32c/8.3.1/../../../../pic32c/lib/thumb/v6-m/nofp\libc-musl.a(__fmt_fp.o)
 .comment       0x000000000000002b       0x2c c:/applications/microchip/xc32/bin/bin/../../lib/gcc/pic32c/8.3.1/../../../../pic32c/lib/thumb/v6-m/nofp\libc-musl.a(__fmt_o.o)
 .comment       0x000000000000002b       0x2c c:/applications/microchip/xc32/bin/bin/../../lib/gcc/pic32c/8.3.1/../../../../pic32c/lib/thumb/v6-m/nofp\libc-musl.a(__fmt_s.o)
 .comment       0x000000000000002b       0x2c c:/applications/microchip/xc32/bin/bin/../../lib/gcc/pic32c/8.3.1/../../../../pic32c/lib/thumb/v6-m/nofp\libc-musl.a(__fmt_u.o)
 .comment       0x000000000000002b       0x2c c:/applications/microchip/xc32/bin/bin/../../lib/gcc/pic32c/8.3.1/../../../../pic32c/lib/thumb/v6-m/nofp\libc-musl.a(__fmt_x.o)
 .comment       0x000000000000002b       0x2c c:/applications/microchip/xc32/bin/bin/../../lib/gcc/pic32c/8.3.1/../../../../pic32c/lib/thumb/v6-m/nofp\libc-musl.a(toupper.o)
 .comment       0x000000000000002b       0x2c c:/applications/microchip/xc32/bin/bin/../../lib/gcc/pic32c/8.3.1/../../../../pic32c/lib/thumb/v6-m/nofp\libc-musl.a(__cvt_u.o)
 .comment       0x000000000000002b       0x2c c:/applications/microchip/xc32/bin/bin/../../lib/gcc/pic32c/8.3.1/../../../../pic32c/lib/thumb/v6-m/nofp\libm-fast-emfloat.a(fma.o)
 .comment       0x000000000000002b       0x2c c:/applications/microchip/xc32/bin/bin/../../lib/gcc/pic32c/8.3.1/../../../../pic32c/lib/thumb/v6-m/nofp\libm-fast-emfloat.a(floor.o)
 .comment       0x000000000000002b       0x2c c:/applications/microchip/xc32/bin/bin/../../lib/gcc/pic32c/8.3.1/thumb/v6-m/nofp\libgcc.a(_muldi3.o)
 .comment       0x000000000000002b       0x2c c:/applications/microchip/xc32/bin/bin/../../lib/gcc/pic32c/8.3.1/thumb/v6-m/nofp\libgcc.a(_udivmoddi4.o)
 .comment       0x000000000000002b       0x2c c:/applications/microchip/xc32/bin/bin/../../lib/gcc/pic32c/8.3.1/../../../../pic32c/lib/thumb/v6-m/nofp\libc-size-musl.a(strcpy.o)
 .comment       0x000000000000002b       0x2c c:/applications/microchip/xc32/bin/bin/../../lib/gcc/pic32c/8.3.1/../../../../pic32c/lib/thumb/v6-m/nofp\libc-size-musl.a(stpcpy.o)
 .comment       0x000000000000002b       0x2c c:/applications/microchip/xc32/bin/bin/../../lib/gcc/pic32c/8.3.1/../../../../pic32c/lib/thumb/v6-m/nofp\libpic32c.a(pic32_data_init_clear.o)
 .comment       0x000000000000002b       0x2c c:/applications/microchip/xc32/bin/bin/../../lib/gcc/pic32c/8.3.1/../../../../pic32c/lib/thumb/v6-m/nofp\libpic32c.a(pic32_data_init_copy.o)

.debug_info     0x0000000000000000    0x2eaca
 .debug_info    0x0000000000000000     0x1eb8 build/default/production/_ext/158385033/drv_i2c.o
 .debug_info    0x0000000000001eb8     0x293b build/default/production/_ext/2070931557/drv_spi.o
 .debug_info    0x00000000000047f3     0x29f0 build/default/production/_ext/869808652/drv_usart.o
 .debug_info    0x00000000000071e3      0x4e6 build/default/production/_ext/829343244/plib_ac.o
 .debug_info    0x00000000000076c9      0x6bd build/default/production/_ext/60163342/plib_adc0.o
 .debug_info    0x0000000000007d86     0x1325 build/default/production/_ext/60165182/plib_can0.o
 .debug_info    0x00000000000090ab      0x17b build/default/production/_ext/60165242/plib_ccl.o
 .debug_info    0x0000000000009226      0x6ad build/default/production/_ext/1984496892/plib_clock.o
 .debug_info    0x00000000000098d3      0x24b build/default/production/_ext/60166132/plib_dac.o
 .debug_info    0x0000000000009b1e      0xc0d build/default/production/_ext/1865161661/plib_dmac.o
 .debug_info    0x000000000000a72b      0x3c6 build/default/production/_ext/60167341/plib_eic.o
 .debug_info    0x000000000000aaf1      0x2ca build/default/production/_ext/1986646378/plib_evsys.o
 .debug_info    0x000000000000adbb      0x2e2 build/default/production/_ext/1987437027/plib_freqm.o
 .debug_info    0x000000000000b09d      0xadc build/default/production/_ext/1865468468/plib_nvic.o
 .debug_info    0x000000000000bb79      0x809 build/default/production/_ext/1593096446/plib_nvmctrl.o
 .debug_info    0x000000000000c382      0x378 build/default/production/_ext/1865510628/plib_pdec.o
 .debug_info    0x000000000000c6fa      0x175 build/default/production/_ext/829342769/plib_pm.o
 .debug_info    0x000000000000c86f      0x5fe build/default/production/_ext/1865521619/plib_port.o
 .debug_info    0x000000000000ce6d       0xf3 build/default/production/_ext/1865585090/plib_rstc.o
 .debug_info    0x000000000000cf60      0x895 build/default/production/_ext/60180175/plib_rtc_clock.o
 .debug_info    0x000000000000d7f5     0x12ed build/default/production/_ext/508257091/plib_sercom3_i2c_master.o
 .debug_info    0x000000000000eae2      0xf10 build/default/production/_ext/17022449/plib_sercom2_spi_master.o
 .debug_info    0x000000000000f9f2     0x17df build/default/production/_ext/504274921/plib_sercom1_usart.o
 .debug_info    0x00000000000111d1     0x11cc build/default/production/_ext/504274921/plib_sercom0_usart.o
 .debug_info    0x000000000001239d      0x186 build/default/production/_ext/1865616679/plib_supc.o
 .debug_info    0x0000000000012523      0x7c2 build/default/production/_ext/829342655/plib_tc0.o
 .debug_info    0x0000000000012ce5      0x4e6 build/default/production/_ext/60181570/plib_tcc1.o
 .debug_info    0x00000000000131cb      0x529 build/default/production/_ext/60181570/plib_tcc0.o
 .debug_info    0x00000000000136f4      0xdd1 build/default/production/_ext/1832805299/sys_console_uart.o
 .debug_info    0x00000000000144c5      0xc75 build/default/production/_ext/1832805299/sys_console.o
 .debug_info    0x000000000001513a      0x2fc build/default/production/_ext/14461671/sys_dma.o
 .debug_info    0x0000000000015436      0x59f build/default/production/_ext/1881668453/sys_int.o
 .debug_info    0x00000000000159d5     0x1a0f build/default/production/_ext/101884895/sys_time.o
 .debug_info    0x00000000000173e4      0x221 build/default/production/_ext/1171490990/tasks.o
 .debug_info    0x0000000000017605     0x2e74 build/default/production/_ext/1171490990/initialization.o
 .debug_info    0x000000000001a479      0x49d build/default/production/_ext/1171490990/interrupts.o
 .debug_info    0x000000000001a916       0xc1 build/default/production/_ext/1171490990/exceptions.o
 .debug_info    0x000000000001a9d7      0x332 build/default/production/_ext/1171490990/startup_xc32.o
 .debug_info    0x000000000001ad09      0xd5b build/default/production/_ext/1360937237/can0_driver.o
 .debug_info    0x000000000001ba64      0x9cd build/default/production/_ext/1360937237/sht4x_driver.o
 .debug_info    0x000000000001c431      0x508 build/default/production/_ext/1360937237/rstc_driver.o
 .debug_info    0x000000000001c939     0x155b build/default/production/_ext/1360937237/ad9954_driver.o
 .debug_info    0x000000000001de94      0x5fe build/default/production/_ext/1360937237/rtc_driver.o
 .debug_info    0x000000000001e492      0xbc1 build/default/production/_ext/1360937237/mcp9808_driver.o
 .debug_info    0x000000000001f053     0x1be7 build/default/production/_ext/1360937237/bme690_driver.o
 .debug_info    0x0000000000020c3a     0x4fed build/default/production/_ext/1360937237/fcm360w_driver.o
 .debug_info    0x0000000000025c27      0x318 build/default/production/_ext/1360937237/console_driver.o
 .debug_info    0x0000000000025f3f     0x1618 build/default/production/_ext/1360937237/hdc302x_driver.o
 .debug_info    0x0000000000027557      0x110 build/default/production/_ext/1360937237/fan_driver.o
 .debug_info    0x0000000000027667      0x44d build/default/production/_ext/1360937237/ntc_driver.o
 .debug_info    0x0000000000027ab4      0x496 build/default/production/_ext/1360937237/timer_driver.o
 .debug_info    0x0000000000027f4a      0x16b build/default/production/_ext/1360937237/xm125_driver.o
 .debug_info    0x00000000000280b5      0x522 build/default/production/_ext/1360937237/sen6x_driver.o
 .debug_info    0x00000000000285d7      0x849 build/default/production/_ext/1360937237/ws281x_driver.o
 .debug_info    0x0000000000028e20      0x55d build/default/production/_ext/1360937237/app.o
 .debug_info    0x000000000002937d       0xeb build/default/production/_ext/1360937237/main.o
 .debug_info    0x0000000000029468      0x6df build/default/production/_ext/1827571544/plib_systick.o
 .debug_info    0x0000000000029b47      0x27f build/default/production/_ext/60184501/plib_wdt.o
 .debug_info    0x0000000000029dc6       0x68 c:/applications/microchip/xc32/bin/bin/../../lib/gcc/pic32c/8.3.1/../../../../pic32c/lib/thumb/v6-m/nofp\libpic32c.a(data_init.o)
 .debug_info    0x0000000000029e2e       0xed c:/applications/microchip/xc32/bin/bin/../../lib/gcc/pic32c/8.3.1/../../../../pic32c/lib/thumb/v6-m/nofp\libc-size-musl.a(memcpy.o)
 .debug_info    0x0000000000029f1b       0xbb c:/applications/microchip/xc32/bin/bin/../../lib/gcc/pic32c/8.3.1/../../../../pic32c/lib/thumb/v6-m/nofp\libc-size-musl.a(memset.o)
 .debug_info    0x0000000000029fd6       0xa4 c:/applications/microchip/xc32/bin/bin/../../lib/gcc/pic32c/8.3.1/../../../../pic32c/lib/thumb/v6-m/nofp\libc-size-musl.a(strlen.o)
 .debug_info    0x000000000002a07a       0xc7 c:/applications/microchip/xc32/bin/bin/../../lib/gcc/pic32c/8.3.1/../../../../pic32c/lib/thumb/v6-m/nofp\libc-size-musl.a(strstr.o)
 .debug_info    0x000000000002a141       0xd2 c:/applications/microchip/xc32/bin/bin/../../lib/gcc/pic32c/8.3.1/../../../../pic32c/lib/thumb/v6-m/nofp\libc-size-musl.a(strchr.o)
 .debug_info    0x000000000002a213      0x133 c:/applications/microchip/xc32/bin/bin/../../lib/gcc/pic32c/8.3.1/../../../../pic32c/lib/thumb/v6-m/nofp\libc-size-musl.a(strchrnul.o)
 .debug_info    0x000000000002a346      0x2fb c:/applications/microchip/xc32/bin/bin/../../lib/gcc/pic32c/8.3.1/../../../../pic32c/lib/thumb/v6-m/nofp\libc-musl.a(__libc_start_main.o)
 .debug_info    0x000000000002a641      0x276 c:/applications/microchip/xc32/bin/bin/../../lib/gcc/pic32c/8.3.1/../../../../pic32c/lib/thumb/v6-m/nofp\libc-musl.a(libc.o)
 .debug_info    0x000000000002a8b7      0x43a c:/applications/microchip/xc32/bin/bin/../../lib/gcc/pic32c/8.3.1/../../../../pic32c/lib/thumb/v6-m/nofp\libc-musl.a(vsnprintf.o)
 .debug_info    0x000000000002acf1      0x116 c:/applications/microchip/xc32/bin/bin/../../lib/gcc/pic32c/8.3.1/../../../../pic32c/lib/thumb/v6-m/nofp\libc-musl.a(sprintf.o)
 .debug_info    0x000000000002ae07      0x10e c:/applications/microchip/xc32/bin/bin/../../lib/gcc/pic32c/8.3.1/../../../../pic32c/lib/thumb/v6-m/nofp\libc-musl.a(vsprintf.o)
 .debug_info    0x000000000002af15       0x97 c:/applications/microchip/xc32/bin/bin/../../lib/gcc/pic32c/8.3.1/../../../../pic32c/lib/thumb/v6-m/nofp\libc-musl.a(__environ.o)
 .debug_info    0x000000000002afac       0x5b c:/applications/microchip/xc32/bin/bin/../../lib/gcc/pic32c/8.3.1/../../../../pic32c/lib/thumb/v6-m/nofp\libc-musl.a(__errno_location.o)
 .debug_info    0x000000000002b007      0x40e c:/applications/microchip/xc32/bin/bin/../../lib/gcc/pic32c/8.3.1/../../../../pic32c/lib/thumb/v6-m/nofp\libc-musl.a(vfprintf.o)
 .debug_info    0x000000000002b415      0x162 c:/applications/microchip/xc32/bin/bin/../../lib/gcc/pic32c/8.3.1/../../../../pic32c/lib/thumb/v6-m/nofp\libc-musl.a(__pop_float.o)
 .debug_info    0x000000000002b577      0x183 c:/applications/microchip/xc32/bin/bin/../../lib/gcc/pic32c/8.3.1/../../../../pic32c/lib/thumb/v6-m/nofp\libc-musl.a(__pop_int.o)
 .debug_info    0x000000000002b6fa      0x18d c:/applications/microchip/xc32/bin/bin/../../lib/gcc/pic32c/8.3.1/../../../../pic32c/lib/thumb/v6-m/nofp\libc-musl.a(__pop_ptr.o)
 .debug_info    0x000000000002b887      0xa6f c:/applications/microchip/xc32/bin/bin/../../lib/gcc/pic32c/8.3.1/../../../../pic32c/lib/thumb/v6-m/nofp\libc-musl.a(__printf_core.o)
 .debug_info    0x000000000002c2f6       0xf4 c:/applications/microchip/xc32/bin/bin/../../lib/gcc/pic32c/8.3.1/../../../../pic32c/lib/thumb/v6-m/nofp\libc-musl.a(atoi.o)
 .debug_info    0x000000000002c3ea      0x131 c:/applications/microchip/xc32/bin/bin/../../lib/gcc/pic32c/8.3.1/../../../../pic32c/lib/thumb/v6-m/nofp\libc-musl.a(tolower.o)
 .debug_info    0x000000000002c51b      0x5fb c:/applications/microchip/xc32/bin/bin/../../lib/gcc/pic32c/8.3.1/../../../../pic32c/lib/thumb/v6-m/nofp\libc-musl.a(__fmt_a.o)
 .debug_info    0x000000000002cb16      0x330 c:/applications/microchip/xc32/bin/bin/../../lib/gcc/pic32c/8.3.1/../../../../pic32c/lib/thumb/v6-m/nofp\libc-musl.a(__fmt_d.o)
 .debug_info    0x000000000002ce46      0x676 c:/applications/microchip/xc32/bin/bin/../../lib/gcc/pic32c/8.3.1/../../../../pic32c/lib/thumb/v6-m/nofp\libc-musl.a(__fmt_fp.o)
 .debug_info    0x000000000002d4bc      0x301 c:/applications/microchip/xc32/bin/bin/../../lib/gcc/pic32c/8.3.1/../../../../pic32c/lib/thumb/v6-m/nofp\libc-musl.a(__fmt_o.o)
 .debug_info    0x000000000002d7bd      0x2e9 c:/applications/microchip/xc32/bin/bin/../../lib/gcc/pic32c/8.3.1/../../../../pic32c/lib/thumb/v6-m/nofp\libc-musl.a(__fmt_s.o)
 .debug_info    0x000000000002daa6      0x301 c:/applications/microchip/xc32/bin/bin/../../lib/gcc/pic32c/8.3.1/../../../../pic32c/lib/thumb/v6-m/nofp\libc-musl.a(__fmt_u.o)
 .debug_info    0x000000000002dda7      0x335 c:/applications/microchip/xc32/bin/bin/../../lib/gcc/pic32c/8.3.1/../../../../pic32c/lib/thumb/v6-m/nofp\libc-musl.a(__fmt_x.o)
 .debug_info    0x000000000002e0dc      0x131 c:/applications/microchip/xc32/bin/bin/../../lib/gcc/pic32c/8.3.1/../../../../pic32c/lib/thumb/v6-m/nofp\libc-musl.a(toupper.o)
 .debug_info    0x000000000002e20d      0x1cf c:/applications/microchip/xc32/bin/bin/../../lib/gcc/pic32c/8.3.1/../../../../pic32c/lib/thumb/v6-m/nofp\libc-musl.a(__cvt_u.o)
 .debug_info    0x000000000002e3dc       0x26 c:/applications/microchip/xc32/bin/bin/../../lib/gcc/pic32c/8.3.1/thumb/v6-m/nofp\libgcc.a(_udivsi3.o)
 .debug_info    0x000000000002e402       0x26 c:/applications/microchip/xc32/bin/bin/../../lib/gcc/pic32c/8.3.1/thumb/v6-m/nofp\libgcc.a(_divsi3.o)
 .debug_info    0x000000000002e428       0x26 c:/applications/microchip/xc32/bin/bin/../../lib/gcc/pic32c/8.3.1/thumb/v6-m/nofp\libgcc.a(_dvmd_tls.o)
 .debug_info    0x000000000002e44e       0x26 c:/applications/microchip/xc32/bin/bin/../../lib/gcc/pic32c/8.3.1/thumb/v6-m/nofp\libgcc.a(_aeabi_uldivmod.o)
 .debug_info    0x000000000002e474      0x243 c:/applications/microchip/xc32/bin/bin/../../lib/gcc/pic32c/8.3.1/thumb/v6-m/nofp\libgcc.a(_muldi3.o)
 .debug_info    0x000000000002e6b7      0x193 c:/applications/microchip/xc32/bin/bin/../../lib/gcc/pic32c/8.3.1/thumb/v6-m/nofp\libgcc.a(_udivmoddi4.o)
 .debug_info    0x000000000002e84a       0x26 c:/applications/microchip/xc32/bin/bin/../../lib/gcc/pic32c/8.3.1/thumb/v6-m/nofp\libgcc.a(_lshrdi3.o)
 .debug_info    0x000000000002e870       0x26 c:/applications/microchip/xc32/bin/bin/../../lib/gcc/pic32c/8.3.1/thumb/v6-m/nofp\libgcc.a(_ashldi3.o)
 .debug_info    0x000000000002e896       0x26 c:/applications/microchip/xc32/bin/bin/../../lib/gcc/pic32c/8.3.1/thumb/v6-m/nofp\libgcc.a(_clzdi2.o)
 .debug_info    0x000000000002e8bc       0x26 c:/applications/microchip/xc32/bin/bin/../../lib/gcc/pic32c/8.3.1/thumb/v6-m/nofp\libgcc.a(_clzsi2.o)
 .debug_info    0x000000000002e8e2       0xbd c:/applications/microchip/xc32/bin/bin/../../lib/gcc/pic32c/8.3.1/../../../../pic32c/lib/thumb/v6-m/nofp\libc-size-musl.a(strcpy.o)
 .debug_info    0x000000000002e99f       0xac c:/applications/microchip/xc32/bin/bin/../../lib/gcc/pic32c/8.3.1/../../../../pic32c/lib/thumb/v6-m/nofp\libc-size-musl.a(stpcpy.o)
 .debug_info    0x000000000002ea4b       0x3f c:/applications/microchip/xc32/bin/bin/../../lib/gcc/pic32c/8.3.1/../../../../pic32c/lib/thumb/v6-m/nofp\libpic32c.a(pic32_data_init_clear.o)
 .debug_info    0x000000000002ea8a       0x40 c:/applications/microchip/xc32/bin/bin/../../lib/gcc/pic32c/8.3.1/../../../../pic32c/lib/thumb/v6-m/nofp\libpic32c.a(pic32_data_init_copy.o)

.debug_abbrev   0x0000000000000000     0x9d6a
 .debug_abbrev  0x0000000000000000      0x4a4 build/default/production/_ext/158385033/drv_i2c.o
 .debug_abbrev  0x00000000000004a4      0x4ec build/default/production/_ext/2070931557/drv_spi.o
 .debug_abbrev  0x0000000000000990      0x523 build/default/production/_ext/869808652/drv_usart.o
 .debug_abbrev  0x0000000000000eb3      0x1a2 build/default/production/_ext/829343244/plib_ac.o
 .debug_abbrev  0x0000000000001055      0x1e1 build/default/production/_ext/60163342/plib_adc0.o
 .debug_abbrev  0x0000000000001236      0x31b build/default/production/_ext/60165182/plib_can0.o
 .debug_abbrev  0x0000000000001551       0xa4 build/default/production/_ext/60165242/plib_ccl.o
 .debug_abbrev  0x00000000000015f5      0x1b4 build/default/production/_ext/1984496892/plib_clock.o
 .debug_abbrev  0x00000000000017a9       0xf0 build/default/production/_ext/60166132/plib_dac.o
 .debug_abbrev  0x0000000000001899      0x2b9 build/default/production/_ext/1865161661/plib_dmac.o
 .debug_abbrev  0x0000000000001b52      0x195 build/default/production/_ext/60167341/plib_eic.o
 .debug_abbrev  0x0000000000001ce7       0xe5 build/default/production/_ext/1986646378/plib_evsys.o
 .debug_abbrev  0x0000000000001dcc      0x138 build/default/production/_ext/1987437027/plib_freqm.o
 .debug_abbrev  0x0000000000001f04      0x282 build/default/production/_ext/1865468468/plib_nvic.o
 .debug_abbrev  0x0000000000002186      0x1f2 build/default/production/_ext/1593096446/plib_nvmctrl.o
 .debug_abbrev  0x0000000000002378       0xf2 build/default/production/_ext/1865510628/plib_pdec.o
 .debug_abbrev  0x000000000000246a       0xa4 build/default/production/_ext/829342769/plib_pm.o
 .debug_abbrev  0x000000000000250e      0x1e8 build/default/production/_ext/1865521619/plib_port.o
 .debug_abbrev  0x00000000000026f6       0x94 build/default/production/_ext/1865585090/plib_rstc.o
 .debug_abbrev  0x000000000000278a      0x1ed build/default/production/_ext/60180175/plib_rtc_clock.o
 .debug_abbrev  0x0000000000002977      0x3a9 build/default/production/_ext/508257091/plib_sercom3_i2c_master.o
 .debug_abbrev  0x0000000000002d20      0x276 build/default/production/_ext/17022449/plib_sercom2_spi_master.o
 .debug_abbrev  0x0000000000002f96      0x43d build/default/production/_ext/504274921/plib_sercom1_usart.o
 .debug_abbrev  0x00000000000033d3      0x318 build/default/production/_ext/504274921/plib_sercom0_usart.o
 .debug_abbrev  0x00000000000036eb       0xb8 build/default/production/_ext/1865616679/plib_supc.o
 .debug_abbrev  0x00000000000037a3      0x1be build/default/production/_ext/829342655/plib_tc0.o
 .debug_abbrev  0x0000000000003961      0x122 build/default/production/_ext/60181570/plib_tcc1.o
 .debug_abbrev  0x0000000000003a83      0x122 build/default/production/_ext/60181570/plib_tcc0.o
 .debug_abbrev  0x0000000000003ba5      0x31c build/default/production/_ext/1832805299/sys_console_uart.o
 .debug_abbrev  0x0000000000003ec1      0x3c1 build/default/production/_ext/1832805299/sys_console.o
 .debug_abbrev  0x0000000000004282       0xfd build/default/production/_ext/14461671/sys_dma.o
 .debug_abbrev  0x000000000000437f      0x262 build/default/production/_ext/1881668453/sys_int.o
 .debug_abbrev  0x00000000000045e1      0x4f4 build/default/production/_ext/101884895/sys_time.o
 .debug_abbrev  0x0000000000004ad5       0x7b build/default/production/_ext/1171490990/tasks.o
 .debug_abbrev  0x0000000000004b50      0x271 build/default/production/_ext/1171490990/initialization.o
 .debug_abbrev  0x0000000000004dc1      0x11e build/default/production/_ext/1171490990/interrupts.o
 .debug_abbrev  0x0000000000004edf       0x49 build/default/production/_ext/1171490990/exceptions.o
 .debug_abbrev  0x0000000000004f28      0x187 build/default/production/_ext/1171490990/startup_xc32.o
 .debug_abbrev  0x00000000000050af      0x3b9 build/default/production/_ext/1360937237/can0_driver.o
 .debug_abbrev  0x0000000000005468      0x258 build/default/production/_ext/1360937237/sht4x_driver.o
 .debug_abbrev  0x00000000000056c0      0x21d build/default/production/_ext/1360937237/rstc_driver.o
 .debug_abbrev  0x00000000000058dd      0x2a2 build/default/production/_ext/1360937237/ad9954_driver.o
 .debug_abbrev  0x0000000000005b7f      0x25c build/default/production/_ext/1360937237/rtc_driver.o
 .debug_abbrev  0x0000000000005ddb      0x272 build/default/production/_ext/1360937237/mcp9808_driver.o
 .debug_abbrev  0x000000000000604d      0x2d0 build/default/production/_ext/1360937237/bme690_driver.o
 .debug_abbrev  0x000000000000631d      0x34d build/default/production/_ext/1360937237/fcm360w_driver.o
 .debug_abbrev  0x000000000000666a      0x210 build/default/production/_ext/1360937237/console_driver.o
 .debug_abbrev  0x000000000000687a      0x31f build/default/production/_ext/1360937237/hdc302x_driver.o
 .debug_abbrev  0x0000000000006b99       0xa4 build/default/production/_ext/1360937237/fan_driver.o
 .debug_abbrev  0x0000000000006c3d      0x233 build/default/production/_ext/1360937237/ntc_driver.o
 .debug_abbrev  0x0000000000006e70      0x146 build/default/production/_ext/1360937237/timer_driver.o
 .debug_abbrev  0x0000000000006fb6       0xbc build/default/production/_ext/1360937237/xm125_driver.o
 .debug_abbrev  0x0000000000007072      0x207 build/default/production/_ext/1360937237/sen6x_driver.o
 .debug_abbrev  0x0000000000007279      0x274 build/default/production/_ext/1360937237/ws281x_driver.o
 .debug_abbrev  0x00000000000074ed      0x199 build/default/production/_ext/1360937237/app.o
 .debug_abbrev  0x0000000000007686       0x82 build/default/production/_ext/1360937237/main.o
 .debug_abbrev  0x0000000000007708      0x220 build/default/production/_ext/1827571544/plib_systick.o
 .debug_abbrev  0x0000000000007928       0xed build/default/production/_ext/60184501/plib_wdt.o
 .debug_abbrev  0x0000000000007a15       0x44 c:/applications/microchip/xc32/bin/bin/../../lib/gcc/pic32c/8.3.1/../../../../pic32c/lib/thumb/v6-m/nofp\libpic32c.a(data_init.o)
 .debug_abbrev  0x0000000000007a59       0xbb c:/applications/microchip/xc32/bin/bin/../../lib/gcc/pic32c/8.3.1/../../../../pic32c/lib/thumb/v6-m/nofp\libc-size-musl.a(memcpy.o)
 .debug_abbrev  0x0000000000007b14       0xa2 c:/applications/microchip/xc32/bin/bin/../../lib/gcc/pic32c/8.3.1/../../../../pic32c/lib/thumb/v6-m/nofp\libc-size-musl.a(memset.o)
 .debug_abbrev  0x0000000000007bb6       0x91 c:/applications/microchip/xc32/bin/bin/../../lib/gcc/pic32c/8.3.1/../../../../pic32c/lib/thumb/v6-m/nofp\libc-size-musl.a(strlen.o)
 .debug_abbrev  0x0000000000007c47       0xa2 c:/applications/microchip/xc32/bin/bin/../../lib/gcc/pic32c/8.3.1/../../../../pic32c/lib/thumb/v6-m/nofp\libc-size-musl.a(strstr.o)
 .debug_abbrev  0x0000000000007ce9       0xad c:/applications/microchip/xc32/bin/bin/../../lib/gcc/pic32c/8.3.1/../../../../pic32c/lib/thumb/v6-m/nofp\libc-size-musl.a(strchr.o)
 .debug_abbrev  0x0000000000007d96       0xbc c:/applications/microchip/xc32/bin/bin/../../lib/gcc/pic32c/8.3.1/../../../../pic32c/lib/thumb/v6-m/nofp\libc-size-musl.a(strchrnul.o)
 .debug_abbrev  0x0000000000007e52      0x133 c:/applications/microchip/xc32/bin/bin/../../lib/gcc/pic32c/8.3.1/../../../../pic32c/lib/thumb/v6-m/nofp\libc-musl.a(__libc_start_main.o)
 .debug_abbrev  0x0000000000007f85       0xd4 c:/applications/microchip/xc32/bin/bin/../../lib/gcc/pic32c/8.3.1/../../../../pic32c/lib/thumb/v6-m/nofp\libc-musl.a(libc.o)
 .debug_abbrev  0x0000000000008059      0x195 c:/applications/microchip/xc32/bin/bin/../../lib/gcc/pic32c/8.3.1/../../../../pic32c/lib/thumb/v6-m/nofp\libc-musl.a(vsnprintf.o)
 .debug_abbrev  0x00000000000081ee      0x106 c:/applications/microchip/xc32/bin/bin/../../lib/gcc/pic32c/8.3.1/../../../../pic32c/lib/thumb/v6-m/nofp\libc-musl.a(sprintf.o)
 .debug_abbrev  0x00000000000082f4       0xcb c:/applications/microchip/xc32/bin/bin/../../lib/gcc/pic32c/8.3.1/../../../../pic32c/lib/thumb/v6-m/nofp\libc-musl.a(vsprintf.o)
 .debug_abbrev  0x00000000000083bf       0x62 c:/applications/microchip/xc32/bin/bin/../../lib/gcc/pic32c/8.3.1/../../../../pic32c/lib/thumb/v6-m/nofp\libc-musl.a(__environ.o)
 .debug_abbrev  0x0000000000008421       0x39 c:/applications/microchip/xc32/bin/bin/../../lib/gcc/pic32c/8.3.1/../../../../pic32c/lib/thumb/v6-m/nofp\libc-musl.a(__errno_location.o)
 .debug_abbrev  0x000000000000845a      0x18b c:/applications/microchip/xc32/bin/bin/../../lib/gcc/pic32c/8.3.1/../../../../pic32c/lib/thumb/v6-m/nofp\libc-musl.a(vfprintf.o)
 .debug_abbrev  0x00000000000085e5       0xdc c:/applications/microchip/xc32/bin/bin/../../lib/gcc/pic32c/8.3.1/../../../../pic32c/lib/thumb/v6-m/nofp\libc-musl.a(__pop_float.o)
 .debug_abbrev  0x00000000000086c1       0xdc c:/applications/microchip/xc32/bin/bin/../../lib/gcc/pic32c/8.3.1/../../../../pic32c/lib/thumb/v6-m/nofp\libc-musl.a(__pop_int.o)
 .debug_abbrev  0x000000000000879d       0xdc c:/applications/microchip/xc32/bin/bin/../../lib/gcc/pic32c/8.3.1/../../../../pic32c/lib/thumb/v6-m/nofp\libc-musl.a(__pop_ptr.o)
 .debug_abbrev  0x0000000000008879      0x317 c:/applications/microchip/xc32/bin/bin/../../lib/gcc/pic32c/8.3.1/../../../../pic32c/lib/thumb/v6-m/nofp\libc-musl.a(__printf_core.o)
 .debug_abbrev  0x0000000000008b90       0xc6 c:/applications/microchip/xc32/bin/bin/../../lib/gcc/pic32c/8.3.1/../../../../pic32c/lib/thumb/v6-m/nofp\libc-musl.a(atoi.o)
 .debug_abbrev  0x0000000000008c56       0xf4 c:/applications/microchip/xc32/bin/bin/../../lib/gcc/pic32c/8.3.1/../../../../pic32c/lib/thumb/v6-m/nofp\libc-musl.a(tolower.o)
 .debug_abbrev  0x0000000000008d4a      0x1d5 c:/applications/microchip/xc32/bin/bin/../../lib/gcc/pic32c/8.3.1/../../../../pic32c/lib/thumb/v6-m/nofp\libc-musl.a(__fmt_a.o)
 .debug_abbrev  0x0000000000008f1f      0x161 c:/applications/microchip/xc32/bin/bin/../../lib/gcc/pic32c/8.3.1/../../../../pic32c/lib/thumb/v6-m/nofp\libc-musl.a(__fmt_d.o)
 .debug_abbrev  0x0000000000009080      0x1e3 c:/applications/microchip/xc32/bin/bin/../../lib/gcc/pic32c/8.3.1/../../../../pic32c/lib/thumb/v6-m/nofp\libc-musl.a(__fmt_fp.o)
 .debug_abbrev  0x0000000000009263      0x161 c:/applications/microchip/xc32/bin/bin/../../lib/gcc/pic32c/8.3.1/../../../../pic32c/lib/thumb/v6-m/nofp\libc-musl.a(__fmt_o.o)
 .debug_abbrev  0x00000000000093c4      0x15e c:/applications/microchip/xc32/bin/bin/../../lib/gcc/pic32c/8.3.1/../../../../pic32c/lib/thumb/v6-m/nofp\libc-musl.a(__fmt_s.o)
 .debug_abbrev  0x0000000000009522      0x161 c:/applications/microchip/xc32/bin/bin/../../lib/gcc/pic32c/8.3.1/../../../../pic32c/lib/thumb/v6-m/nofp\libc-musl.a(__fmt_u.o)
 .debug_abbrev  0x0000000000009683      0x150 c:/applications/microchip/xc32/bin/bin/../../lib/gcc/pic32c/8.3.1/../../../../pic32c/lib/thumb/v6-m/nofp\libc-musl.a(__fmt_x.o)
 .debug_abbrev  0x00000000000097d3       0xf4 c:/applications/microchip/xc32/bin/bin/../../lib/gcc/pic32c/8.3.1/../../../../pic32c/lib/thumb/v6-m/nofp\libc-musl.a(toupper.o)
 .debug_abbrev  0x00000000000098c7       0xf3 c:/applications/microchip/xc32/bin/bin/../../lib/gcc/pic32c/8.3.1/../../../../pic32c/lib/thumb/v6-m/nofp\libc-musl.a(__cvt_u.o)
 .debug_abbrev  0x00000000000099ba       0x14 c:/applications/microchip/xc32/bin/bin/../../lib/gcc/pic32c/8.3.1/thumb/v6-m/nofp\libgcc.a(_udivsi3.o)
 .debug_abbrev  0x00000000000099ce       0x14 c:/applications/microchip/xc32/bin/bin/../../lib/gcc/pic32c/8.3.1/thumb/v6-m/nofp\libgcc.a(_divsi3.o)
 .debug_abbrev  0x00000000000099e2       0x14 c:/applications/microchip/xc32/bin/bin/../../lib/gcc/pic32c/8.3.1/thumb/v6-m/nofp\libgcc.a(_dvmd_tls.o)
 .debug_abbrev  0x00000000000099f6       0x14 c:/applications/microchip/xc32/bin/bin/../../lib/gcc/pic32c/8.3.1/thumb/v6-m/nofp\libgcc.a(_aeabi_uldivmod.o)
 .debug_abbrev  0x0000000000009a0a      0x10b c:/applications/microchip/xc32/bin/bin/../../lib/gcc/pic32c/8.3.1/thumb/v6-m/nofp\libgcc.a(_muldi3.o)
 .debug_abbrev  0x0000000000009b15       0x99 c:/applications/microchip/xc32/bin/bin/../../lib/gcc/pic32c/8.3.1/thumb/v6-m/nofp\libgcc.a(_udivmoddi4.o)
 .debug_abbrev  0x0000000000009bae       0x14 c:/applications/microchip/xc32/bin/bin/../../lib/gcc/pic32c/8.3.1/thumb/v6-m/nofp\libgcc.a(_lshrdi3.o)
 .debug_abbrev  0x0000000000009bc2       0x14 c:/applications/microchip/xc32/bin/bin/../../lib/gcc/pic32c/8.3.1/thumb/v6-m/nofp\libgcc.a(_ashldi3.o)
 .debug_abbrev  0x0000000000009bd6       0x14 c:/applications/microchip/xc32/bin/bin/../../lib/gcc/pic32c/8.3.1/thumb/v6-m/nofp\libgcc.a(_clzdi2.o)
 .debug_abbrev  0x0000000000009bea       0x14 c:/applications/microchip/xc32/bin/bin/../../lib/gcc/pic32c/8.3.1/thumb/v6-m/nofp\libgcc.a(_clzsi2.o)
 .debug_abbrev  0x0000000000009bfe       0xa2 c:/applications/microchip/xc32/bin/bin/../../lib/gcc/pic32c/8.3.1/../../../../pic32c/lib/thumb/v6-m/nofp\libc-size-musl.a(strcpy.o)
 .debug_abbrev  0x0000000000009ca0       0x6e c:/applications/microchip/xc32/bin/bin/../../lib/gcc/pic32c/8.3.1/../../../../pic32c/lib/thumb/v6-m/nofp\libc-size-musl.a(stpcpy.o)
 .debug_abbrev  0x0000000000009d0e       0x2e c:/applications/microchip/xc32/bin/bin/../../lib/gcc/pic32c/8.3.1/../../../../pic32c/lib/thumb/v6-m/nofp\libpic32c.a(pic32_data_init_clear.o)
 .debug_abbrev  0x0000000000009d3c       0x2e c:/applications/microchip/xc32/bin/bin/../../lib/gcc/pic32c/8.3.1/../../../../pic32c/lib/thumb/v6-m/nofp\libpic32c.a(pic32_data_init_copy.o)

.debug_loc      0x0000000000000000    0x1dd74
 .debug_loc     0x0000000000000000     0x1b2f build/default/production/_ext/158385033/drv_i2c.o
 .debug_loc     0x0000000000001b2f     0x226f build/default/production/_ext/2070931557/drv_spi.o
 .debug_loc     0x0000000000003d9e     0x28d9 build/default/production/_ext/869808652/drv_usart.o
 .debug_loc     0x0000000000006677      0x12f build/default/production/_ext/829343244/plib_ac.o
 .debug_loc     0x00000000000067a6      0x17a build/default/production/_ext/60163342/plib_adc0.o
 .debug_loc     0x0000000000006920      0xd37 build/default/production/_ext/60165182/plib_can0.o
 .debug_loc     0x0000000000007657       0x6f build/default/production/_ext/1984496892/plib_clock.o
 .debug_loc     0x00000000000076c6       0x25 build/default/production/_ext/60166132/plib_dac.o
 .debug_loc     0x00000000000076eb      0xb09 build/default/production/_ext/1865161661/plib_dmac.o
 .debug_loc     0x00000000000081f4       0xfe build/default/production/_ext/60167341/plib_eic.o
 .debug_loc     0x00000000000082f2       0xc8 build/default/production/_ext/1986646378/plib_evsys.o
 .debug_loc     0x00000000000083ba      0x10a build/default/production/_ext/1987437027/plib_freqm.o
 .debug_loc     0x00000000000084c4      0x3bb build/default/production/_ext/1865468468/plib_nvic.o
 .debug_loc     0x000000000000887f      0x685 build/default/production/_ext/1593096446/plib_nvmctrl.o
 .debug_loc     0x0000000000008f04       0x15 build/default/production/_ext/1865510628/plib_pdec.o
 .debug_loc     0x0000000000008f19      0x29b build/default/production/_ext/1865521619/plib_port.o
 .debug_loc     0x00000000000091b4      0x1e6 build/default/production/_ext/60180175/plib_rtc_clock.o
 .debug_loc     0x000000000000939a      0xcad build/default/production/_ext/508257091/plib_sercom3_i2c_master.o
 .debug_loc     0x000000000000a047      0x68a build/default/production/_ext/17022449/plib_sercom2_spi_master.o
 .debug_loc     0x000000000000a6d1      0xf01 build/default/production/_ext/504274921/plib_sercom1_usart.o
 .debug_loc     0x000000000000b5d2      0x892 build/default/production/_ext/504274921/plib_sercom0_usart.o
 .debug_loc     0x000000000000be64       0x39 build/default/production/_ext/1865616679/plib_supc.o
 .debug_loc     0x000000000000be9d       0x74 build/default/production/_ext/829342655/plib_tc0.o
 .debug_loc     0x000000000000bf11      0x10b build/default/production/_ext/60181570/plib_tcc1.o
 .debug_loc     0x000000000000c01c      0x155 build/default/production/_ext/60181570/plib_tcc0.o
 .debug_loc     0x000000000000c171      0x997 build/default/production/_ext/1832805299/sys_console_uart.o
 .debug_loc     0x000000000000cb08      0xc4c build/default/production/_ext/1832805299/sys_console.o
 .debug_loc     0x000000000000d754      0x186 build/default/production/_ext/14461671/sys_dma.o
 .debug_loc     0x000000000000d8da      0x17d build/default/production/_ext/1881668453/sys_int.o
 .debug_loc     0x000000000000da57     0x1fc2 build/default/production/_ext/101884895/sys_time.o
 .debug_loc     0x000000000000fa19       0x20 build/default/production/_ext/1171490990/tasks.o
 .debug_loc     0x000000000000fa39       0x45 build/default/production/_ext/1171490990/initialization.o
 .debug_loc     0x000000000000fa7e       0x40 build/default/production/_ext/1171490990/interrupts.o
 .debug_loc     0x000000000000fabe       0x4f build/default/production/_ext/1171490990/startup_xc32.o
 .debug_loc     0x000000000000fb0d      0x3a2 build/default/production/_ext/1360937237/can0_driver.o
 .debug_loc     0x000000000000feaf      0x303 build/default/production/_ext/1360937237/sht4x_driver.o
 .debug_loc     0x00000000000101b2      0x16d build/default/production/_ext/1360937237/rstc_driver.o
 .debug_loc     0x000000000001031f     0x1176 build/default/production/_ext/1360937237/ad9954_driver.o
 .debug_loc     0x0000000000011495      0x142 build/default/production/_ext/1360937237/rtc_driver.o
 .debug_loc     0x00000000000115d7      0x43c build/default/production/_ext/1360937237/mcp9808_driver.o
 .debug_loc     0x0000000000011a13      0x85c build/default/production/_ext/1360937237/bme690_driver.o
 .debug_loc     0x000000000001226f     0x61d2 build/default/production/_ext/1360937237/fcm360w_driver.o
 .debug_loc     0x0000000000018441       0x36 build/default/production/_ext/1360937237/console_driver.o
 .debug_loc     0x0000000000018477      0xdea build/default/production/_ext/1360937237/hdc302x_driver.o
 .debug_loc     0x0000000000019261       0xed build/default/production/_ext/1360937237/ntc_driver.o
 .debug_loc     0x000000000001934e       0xe0 build/default/production/_ext/1360937237/timer_driver.o
 .debug_loc     0x000000000001942e       0x8e build/default/production/_ext/1360937237/sen6x_driver.o
 .debug_loc     0x00000000000194bc      0x204 build/default/production/_ext/1360937237/ws281x_driver.o
 .debug_loc     0x00000000000196c0       0x40 build/default/production/_ext/1360937237/app.o
 .debug_loc     0x0000000000019700       0x20 build/default/production/_ext/1360937237/main.o
 .debug_loc     0x0000000000019720      0x47f build/default/production/_ext/1827571544/plib_systick.o
 .debug_loc     0x0000000000019b9f       0x14 c:/applications/microchip/xc32/bin/bin/../../lib/gcc/pic32c/8.3.1/../../../../pic32c/lib/thumb/v6-m/nofp\libpic32c.a(data_init.o)
 .debug_loc     0x0000000000019bb3      0x12d c:/applications/microchip/xc32/bin/bin/../../lib/gcc/pic32c/8.3.1/../../../../pic32c/lib/thumb/v6-m/nofp\libc-size-musl.a(memcpy.o)
 .debug_loc     0x0000000000019ce0       0xcd c:/applications/microchip/xc32/bin/bin/../../lib/gcc/pic32c/8.3.1/../../../../pic32c/lib/thumb/v6-m/nofp\libc-size-musl.a(memset.o)
 .debug_loc     0x0000000000019dad       0x81 c:/applications/microchip/xc32/bin/bin/../../lib/gcc/pic32c/8.3.1/../../../../pic32c/lib/thumb/v6-m/nofp\libc-size-musl.a(strlen.o)
 .debug_loc     0x0000000000019e2e       0xa2 c:/applications/microchip/xc32/bin/bin/../../lib/gcc/pic32c/8.3.1/../../../../pic32c/lib/thumb/v6-m/nofp\libc-size-musl.a(strstr.o)
 .debug_loc     0x0000000000019ed0       0x8c c:/applications/microchip/xc32/bin/bin/../../lib/gcc/pic32c/8.3.1/../../../../pic32c/lib/thumb/v6-m/nofp\libc-size-musl.a(strchr.o)
 .debug_loc     0x0000000000019f5c       0xd5 c:/applications/microchip/xc32/bin/bin/../../lib/gcc/pic32c/8.3.1/../../../../pic32c/lib/thumb/v6-m/nofp\libc-size-musl.a(strchrnul.o)
 .debug_loc     0x000000000001a031       0x5e c:/applications/microchip/xc32/bin/bin/../../lib/gcc/pic32c/8.3.1/../../../../pic32c/lib/thumb/v6-m/nofp\libc-musl.a(__libc_start_main.o)
 .debug_loc     0x000000000001a08f      0x10c c:/applications/microchip/xc32/bin/bin/../../lib/gcc/pic32c/8.3.1/../../../../pic32c/lib/thumb/v6-m/nofp\libc-musl.a(vsnprintf.o)
 .debug_loc     0x000000000001a19b       0x66 c:/applications/microchip/xc32/bin/bin/../../lib/gcc/pic32c/8.3.1/../../../../pic32c/lib/thumb/v6-m/nofp\libc-musl.a(sprintf.o)
 .debug_loc     0x000000000001a201       0x8c c:/applications/microchip/xc32/bin/bin/../../lib/gcc/pic32c/8.3.1/../../../../pic32c/lib/thumb/v6-m/nofp\libc-musl.a(vsprintf.o)
 .debug_loc     0x000000000001a28d       0xd0 c:/applications/microchip/xc32/bin/bin/../../lib/gcc/pic32c/8.3.1/../../../../pic32c/lib/thumb/v6-m/nofp\libc-musl.a(vfprintf.o)
 .debug_loc     0x000000000001a35d       0x6f c:/applications/microchip/xc32/bin/bin/../../lib/gcc/pic32c/8.3.1/../../../../pic32c/lib/thumb/v6-m/nofp\libc-musl.a(__pop_float.o)
 .debug_loc     0x000000000001a3cc      0x34c c:/applications/microchip/xc32/bin/bin/../../lib/gcc/pic32c/8.3.1/../../../../pic32c/lib/thumb/v6-m/nofp\libc-musl.a(__pop_int.o)
 .debug_loc     0x000000000001a718      0x1fe c:/applications/microchip/xc32/bin/bin/../../lib/gcc/pic32c/8.3.1/../../../../pic32c/lib/thumb/v6-m/nofp\libc-musl.a(__pop_ptr.o)
 .debug_loc     0x000000000001a916      0x6d9 c:/applications/microchip/xc32/bin/bin/../../lib/gcc/pic32c/8.3.1/../../../../pic32c/lib/thumb/v6-m/nofp\libc-musl.a(__printf_core.o)
 .debug_loc     0x000000000001afef       0xdc c:/applications/microchip/xc32/bin/bin/../../lib/gcc/pic32c/8.3.1/../../../../pic32c/lib/thumb/v6-m/nofp\libc-musl.a(atoi.o)
 .debug_loc     0x000000000001b0cb       0x8f c:/applications/microchip/xc32/bin/bin/../../lib/gcc/pic32c/8.3.1/../../../../pic32c/lib/thumb/v6-m/nofp\libc-musl.a(tolower.o)
 .debug_loc     0x000000000001b15a      0xdb0 c:/applications/microchip/xc32/bin/bin/../../lib/gcc/pic32c/8.3.1/../../../../pic32c/lib/thumb/v6-m/nofp\libc-musl.a(__fmt_a.o)
 .debug_loc     0x000000000001bf0a      0x2a6 c:/applications/microchip/xc32/bin/bin/../../lib/gcc/pic32c/8.3.1/../../../../pic32c/lib/thumb/v6-m/nofp\libc-musl.a(__fmt_d.o)
 .debug_loc     0x000000000001c1b0      0xc94 c:/applications/microchip/xc32/bin/bin/../../lib/gcc/pic32c/8.3.1/../../../../pic32c/lib/thumb/v6-m/nofp\libc-musl.a(__fmt_fp.o)
 .debug_loc     0x000000000001ce44      0x12d c:/applications/microchip/xc32/bin/bin/../../lib/gcc/pic32c/8.3.1/../../../../pic32c/lib/thumb/v6-m/nofp\libc-musl.a(__fmt_o.o)
 .debug_loc     0x000000000001cf71      0x144 c:/applications/microchip/xc32/bin/bin/../../lib/gcc/pic32c/8.3.1/../../../../pic32c/lib/thumb/v6-m/nofp\libc-musl.a(__fmt_s.o)
 .debug_loc     0x000000000001d0b5      0x12d c:/applications/microchip/xc32/bin/bin/../../lib/gcc/pic32c/8.3.1/../../../../pic32c/lib/thumb/v6-m/nofp\libc-musl.a(__fmt_u.o)
 .debug_loc     0x000000000001d1e2      0x3be c:/applications/microchip/xc32/bin/bin/../../lib/gcc/pic32c/8.3.1/../../../../pic32c/lib/thumb/v6-m/nofp\libc-musl.a(__fmt_x.o)
 .debug_loc     0x000000000001d5a0       0x8f c:/applications/microchip/xc32/bin/bin/../../lib/gcc/pic32c/8.3.1/../../../../pic32c/lib/thumb/v6-m/nofp\libc-musl.a(toupper.o)
 .debug_loc     0x000000000001d62f      0x1d3 c:/applications/microchip/xc32/bin/bin/../../lib/gcc/pic32c/8.3.1/../../../../pic32c/lib/thumb/v6-m/nofp\libc-musl.a(__cvt_u.o)
 .debug_loc     0x000000000001d802      0x176 c:/applications/microchip/xc32/bin/bin/../../lib/gcc/pic32c/8.3.1/thumb/v6-m/nofp\libgcc.a(_muldi3.o)
 .debug_loc     0x000000000001d978      0x2e4 c:/applications/microchip/xc32/bin/bin/../../lib/gcc/pic32c/8.3.1/thumb/v6-m/nofp\libgcc.a(_udivmoddi4.o)
 .debug_loc     0x000000000001dc5c       0x74 c:/applications/microchip/xc32/bin/bin/../../lib/gcc/pic32c/8.3.1/../../../../pic32c/lib/thumb/v6-m/nofp\libc-size-musl.a(strcpy.o)
 .debug_loc     0x000000000001dcd0       0x90 c:/applications/microchip/xc32/bin/bin/../../lib/gcc/pic32c/8.3.1/../../../../pic32c/lib/thumb/v6-m/nofp\libc-size-musl.a(stpcpy.o)
 .debug_loc     0x000000000001dd60       0x14 c:/applications/microchip/xc32/bin/bin/../../lib/gcc/pic32c/8.3.1/../../../../pic32c/lib/thumb/v6-m/nofp\libpic32c.a(pic32_data_init_copy.o)

.debug_aranges  0x0000000000000000     0x25b8
 .debug_aranges
                0x0000000000000000       0xc0 build/default/production/_ext/158385033/drv_i2c.o
 .debug_aranges
                0x00000000000000c0       0xb8 build/default/production/_ext/2070931557/drv_spi.o
 .debug_aranges
                0x0000000000000178      0x110 build/default/production/_ext/869808652/drv_usart.o
 .debug_aranges
                0x0000000000000288       0x50 build/default/production/_ext/829343244/plib_ac.o
 .debug_aranges
                0x00000000000002d8       0x88 build/default/production/_ext/60163342/plib_adc0.o
 .debug_aranges
                0x0000000000000360       0xa0 build/default/production/_ext/60165182/plib_can0.o
 .debug_aranges
                0x0000000000000400       0x20 build/default/production/_ext/60165242/plib_ccl.o
 .debug_aranges
                0x0000000000000420       0x30 build/default/production/_ext/1984496892/plib_clock.o
 .debug_aranges
                0x0000000000000450       0x30 build/default/production/_ext/60166132/plib_dac.o
 .debug_aranges
                0x0000000000000480       0x98 build/default/production/_ext/1865161661/plib_dmac.o
 .debug_aranges
                0x0000000000000518       0x40 build/default/production/_ext/60167341/plib_eic.o
 .debug_aranges
                0x0000000000000558       0x40 build/default/production/_ext/1986646378/plib_evsys.o
 .debug_aranges
                0x0000000000000598       0x40 build/default/production/_ext/1987437027/plib_freqm.o
 .debug_aranges
                0x00000000000005d8       0x48 build/default/production/_ext/1865468468/plib_nvic.o
 .debug_aranges
                0x0000000000000620       0xb0 build/default/production/_ext/1593096446/plib_nvmctrl.o
 .debug_aranges
                0x00000000000006d0       0x50 build/default/production/_ext/1865510628/plib_pdec.o
 .debug_aranges
                0x0000000000000720       0x30 build/default/production/_ext/829342769/plib_pm.o
 .debug_aranges
                0x0000000000000750       0x68 build/default/production/_ext/1865521619/plib_port.o
 .debug_aranges
                0x00000000000007b8       0x20 build/default/production/_ext/1865585090/plib_rstc.o
 .debug_aranges
                0x00000000000007d8       0x58 build/default/production/_ext/60180175/plib_rtc_clock.o
 .debug_aranges
                0x0000000000000830       0x78 build/default/production/_ext/508257091/plib_sercom3_i2c_master.o
 .debug_aranges
                0x00000000000008a8       0x60 build/default/production/_ext/17022449/plib_sercom2_spi_master.o
 .debug_aranges
                0x0000000000000908       0xe8 build/default/production/_ext/504274921/plib_sercom1_usart.o
 .debug_aranges
                0x00000000000009f0       0xe0 build/default/production/_ext/504274921/plib_sercom0_usart.o
 .debug_aranges
                0x0000000000000ad0       0x20 build/default/production/_ext/1865616679/plib_supc.o
 .debug_aranges
                0x0000000000000af0       0x60 build/default/production/_ext/829342655/plib_tc0.o
 .debug_aranges
                0x0000000000000b50       0x78 build/default/production/_ext/60181570/plib_tcc1.o
 .debug_aranges
                0x0000000000000bc8       0x80 build/default/production/_ext/60181570/plib_tcc0.o
 .debug_aranges
                0x0000000000000c48       0x68 build/default/production/_ext/1832805299/sys_console_uart.o
 .debug_aranges
                0x0000000000000cb0       0x88 build/default/production/_ext/1832805299/sys_console.o
 .debug_aranges
                0x0000000000000d38       0x28 build/default/production/_ext/14461671/sys_dma.o
 .debug_aranges
                0x0000000000000d60       0x40 build/default/production/_ext/1881668453/sys_int.o
 .debug_aranges
                0x0000000000000da0      0x108 build/default/production/_ext/101884895/sys_time.o
 .debug_aranges
                0x0000000000000ea8       0x20 build/default/production/_ext/1171490990/tasks.o
 .debug_aranges
                0x0000000000000ec8       0x20 build/default/production/_ext/1171490990/initialization.o
 .debug_aranges
                0x0000000000000ee8       0x30 build/default/production/_ext/1171490990/interrupts.o
 .debug_aranges
                0x0000000000000f18       0x28 build/default/production/_ext/1171490990/exceptions.o
 .debug_aranges
                0x0000000000000f40       0x28 build/default/production/_ext/1171490990/startup_xc32.o
 .debug_aranges
                0x0000000000000f68       0x78 build/default/production/_ext/1360937237/can0_driver.o
 .debug_aranges
                0x0000000000000fe0       0x98 build/default/production/_ext/1360937237/sht4x_driver.o
 .debug_aranges
                0x0000000000001078       0x50 build/default/production/_ext/1360937237/rstc_driver.o
 .debug_aranges
                0x00000000000010c8      0x198 build/default/production/_ext/1360937237/ad9954_driver.o
 .debug_aranges
                0x0000000000001260       0x78 build/default/production/_ext/1360937237/rtc_driver.o
 .debug_aranges
                0x00000000000012d8       0xc8 build/default/production/_ext/1360937237/mcp9808_driver.o
 .debug_aranges
                0x00000000000013a0      0x3d8 build/default/production/_ext/1360937237/bme690_driver.o
 .debug_aranges
                0x0000000000001778      0x2a0 build/default/production/_ext/1360937237/fcm360w_driver.o
 .debug_aranges
                0x0000000000001a18       0x48 build/default/production/_ext/1360937237/console_driver.o
 .debug_aranges
                0x0000000000001a60      0x1e0 build/default/production/_ext/1360937237/hdc302x_driver.o
 .debug_aranges
                0x0000000000001c40       0x28 build/default/production/_ext/1360937237/fan_driver.o
 .debug_aranges
                0x0000000000001c68       0x60 build/default/production/_ext/1360937237/ntc_driver.o
 .debug_aranges
                0x0000000000001cc8       0x98 build/default/production/_ext/1360937237/timer_driver.o
 .debug_aranges
                0x0000000000001d60       0x28 build/default/production/_ext/1360937237/xm125_driver.o
 .debug_aranges
                0x0000000000001d88       0x58 build/default/production/_ext/1360937237/sen6x_driver.o
 .debug_aranges
                0x0000000000001de0       0x70 build/default/production/_ext/1360937237/ws281x_driver.o
 .debug_aranges
                0x0000000000001e50       0x68 build/default/production/_ext/1360937237/app.o
 .debug_aranges
                0x0000000000001eb8       0x20 build/default/production/_ext/1360937237/main.o
 .debug_aranges
                0x0000000000001ed8       0xb0 build/default/production/_ext/1827571544/plib_systick.o
 .debug_aranges
                0x0000000000001f88       0x68 build/default/production/_ext/60184501/plib_wdt.o
 .debug_aranges
                0x0000000000001ff0       0x30 c:/applications/microchip/xc32/bin/bin/../../lib/gcc/pic32c/8.3.1/../../../../pic32c/lib/thumb/v6-m/nofp\libpic32c.a(data_init.o)
 .debug_aranges
                0x0000000000002020       0x20 c:/applications/microchip/xc32/bin/bin/../../lib/gcc/pic32c/8.3.1/../../../../pic32c/lib/thumb/v6-m/nofp\libc-size-musl.a(memcpy.o)
 .debug_aranges
                0x0000000000002040       0x20 c:/applications/microchip/xc32/bin/bin/../../lib/gcc/pic32c/8.3.1/../../../../pic32c/lib/thumb/v6-m/nofp\libc-size-musl.a(memset.o)
 .debug_aranges
                0x0000000000002060       0x20 c:/applications/microchip/xc32/bin/bin/../../lib/gcc/pic32c/8.3.1/../../../../pic32c/lib/thumb/v6-m/nofp\libc-size-musl.a(strlen.o)
 .debug_aranges
                0x0000000000002080       0x20 c:/applications/microchip/xc32/bin/bin/../../lib/gcc/pic32c/8.3.1/../../../../pic32c/lib/thumb/v6-m/nofp\libc-size-musl.a(strstr.o)
 .debug_aranges
                0x00000000000020a0       0x20 c:/applications/microchip/xc32/bin/bin/../../lib/gcc/pic32c/8.3.1/../../../../pic32c/lib/thumb/v6-m/nofp\libc-size-musl.a(strchr.o)
 .debug_aranges
                0x00000000000020c0       0x20 c:/applications/microchip/xc32/bin/bin/../../lib/gcc/pic32c/8.3.1/../../../../pic32c/lib/thumb/v6-m/nofp\libc-size-musl.a(strchrnul.o)
 .debug_aranges
                0x00000000000020e0       0x28 c:/applications/microchip/xc32/bin/bin/../../lib/gcc/pic32c/8.3.1/../../../../pic32c/lib/thumb/v6-m/nofp\libc-musl.a(__libc_start_main.o)
 .debug_aranges
                0x0000000000002108       0x18 c:/applications/microchip/xc32/bin/bin/../../lib/gcc/pic32c/8.3.1/../../../../pic32c/lib/thumb/v6-m/nofp\libc-musl.a(libc.o)
 .debug_aranges
                0x0000000000002120       0x20 c:/applications/microchip/xc32/bin/bin/../../lib/gcc/pic32c/8.3.1/../../../../pic32c/lib/thumb/v6-m/nofp\libc-musl.a(vsnprintf.o)
 .debug_aranges
                0x0000000000002140       0x20 c:/applications/microchip/xc32/bin/bin/../../lib/gcc/pic32c/8.3.1/../../../../pic32c/lib/thumb/v6-m/nofp\libc-musl.a(sprintf.o)
 .debug_aranges
                0x0000000000002160       0x20 c:/applications/microchip/xc32/bin/bin/../../lib/gcc/pic32c/8.3.1/../../../../pic32c/lib/thumb/v6-m/nofp\libc-musl.a(vsprintf.o)
 .debug_aranges
                0x0000000000002180       0x18 c:/applications/microchip/xc32/bin/bin/../../lib/gcc/pic32c/8.3.1/../../../../pic32c/lib/thumb/v6-m/nofp\libc-musl.a(__environ.o)
 .debug_aranges
                0x0000000000002198       0x18 c:/applications/microchip/xc32/bin/bin/../../lib/gcc/pic32c/8.3.1/../../../../pic32c/lib/thumb/v6-m/nofp\libc-musl.a(__errno_location.o)
 .debug_aranges
                0x00000000000021b0       0x28 c:/applications/microchip/xc32/bin/bin/../../lib/gcc/pic32c/8.3.1/../../../../pic32c/lib/thumb/v6-m/nofp\libc-musl.a(vfprintf.o)
 .debug_aranges
                0x00000000000021d8       0x20 c:/applications/microchip/xc32/bin/bin/../../lib/gcc/pic32c/8.3.1/../../../../pic32c/lib/thumb/v6-m/nofp\libc-musl.a(__pop_float.o)
 .debug_aranges
                0x00000000000021f8       0x20 c:/applications/microchip/xc32/bin/bin/../../lib/gcc/pic32c/8.3.1/../../../../pic32c/lib/thumb/v6-m/nofp\libc-musl.a(__pop_int.o)
 .debug_aranges
                0x0000000000002218       0x20 c:/applications/microchip/xc32/bin/bin/../../lib/gcc/pic32c/8.3.1/../../../../pic32c/lib/thumb/v6-m/nofp\libc-musl.a(__pop_ptr.o)
 .debug_aranges
                0x0000000000002238       0x50 c:/applications/microchip/xc32/bin/bin/../../lib/gcc/pic32c/8.3.1/../../../../pic32c/lib/thumb/v6-m/nofp\libc-musl.a(__printf_core.o)
 .debug_aranges
                0x0000000000002288       0x20 c:/applications/microchip/xc32/bin/bin/../../lib/gcc/pic32c/8.3.1/../../../../pic32c/lib/thumb/v6-m/nofp\libc-musl.a(atoi.o)
 .debug_aranges
                0x00000000000022a8       0x28 c:/applications/microchip/xc32/bin/bin/../../lib/gcc/pic32c/8.3.1/../../../../pic32c/lib/thumb/v6-m/nofp\libc-musl.a(tolower.o)
 .debug_aranges
                0x00000000000022d0       0x20 c:/applications/microchip/xc32/bin/bin/../../lib/gcc/pic32c/8.3.1/../../../../pic32c/lib/thumb/v6-m/nofp\libc-musl.a(__fmt_a.o)
 .debug_aranges
                0x00000000000022f0       0x20 c:/applications/microchip/xc32/bin/bin/../../lib/gcc/pic32c/8.3.1/../../../../pic32c/lib/thumb/v6-m/nofp\libc-musl.a(__fmt_d.o)
 .debug_aranges
                0x0000000000002310       0x20 c:/applications/microchip/xc32/bin/bin/../../lib/gcc/pic32c/8.3.1/../../../../pic32c/lib/thumb/v6-m/nofp\libc-musl.a(__fmt_fp.o)
 .debug_aranges
                0x0000000000002330       0x20 c:/applications/microchip/xc32/bin/bin/../../lib/gcc/pic32c/8.3.1/../../../../pic32c/lib/thumb/v6-m/nofp\libc-musl.a(__fmt_o.o)
 .debug_aranges
                0x0000000000002350       0x20 c:/applications/microchip/xc32/bin/bin/../../lib/gcc/pic32c/8.3.1/../../../../pic32c/lib/thumb/v6-m/nofp\libc-musl.a(__fmt_s.o)
 .debug_aranges
                0x0000000000002370       0x20 c:/applications/microchip/xc32/bin/bin/../../lib/gcc/pic32c/8.3.1/../../../../pic32c/lib/thumb/v6-m/nofp\libc-musl.a(__fmt_u.o)
 .debug_aranges
                0x0000000000002390       0x20 c:/applications/microchip/xc32/bin/bin/../../lib/gcc/pic32c/8.3.1/../../../../pic32c/lib/thumb/v6-m/nofp\libc-musl.a(__fmt_x.o)
 .debug_aranges
                0x00000000000023b0       0x28 c:/applications/microchip/xc32/bin/bin/../../lib/gcc/pic32c/8.3.1/../../../../pic32c/lib/thumb/v6-m/nofp\libc-musl.a(toupper.o)
 .debug_aranges
                0x00000000000023d8       0x20 c:/applications/microchip/xc32/bin/bin/../../lib/gcc/pic32c/8.3.1/../../../../pic32c/lib/thumb/v6-m/nofp\libc-musl.a(__cvt_u.o)
 .debug_aranges
                0x00000000000023f8       0x20 c:/applications/microchip/xc32/bin/bin/../../lib/gcc/pic32c/8.3.1/thumb/v6-m/nofp\libgcc.a(_udivsi3.o)
 .debug_aranges
                0x0000000000002418       0x20 c:/applications/microchip/xc32/bin/bin/../../lib/gcc/pic32c/8.3.1/thumb/v6-m/nofp\libgcc.a(_divsi3.o)
 .debug_aranges
                0x0000000000002438       0x20 c:/applications/microchip/xc32/bin/bin/../../lib/gcc/pic32c/8.3.1/thumb/v6-m/nofp\libgcc.a(_dvmd_tls.o)
 .debug_aranges
                0x0000000000002458       0x20 c:/applications/microchip/xc32/bin/bin/../../lib/gcc/pic32c/8.3.1/thumb/v6-m/nofp\libgcc.a(_aeabi_uldivmod.o)
 .debug_aranges
                0x0000000000002478       0x20 c:/applications/microchip/xc32/bin/bin/../../lib/gcc/pic32c/8.3.1/thumb/v6-m/nofp\libgcc.a(_muldi3.o)
 .debug_aranges
                0x0000000000002498       0x20 c:/applications/microchip/xc32/bin/bin/../../lib/gcc/pic32c/8.3.1/thumb/v6-m/nofp\libgcc.a(_udivmoddi4.o)
 .debug_aranges
                0x00000000000024b8       0x20 c:/applications/microchip/xc32/bin/bin/../../lib/gcc/pic32c/8.3.1/thumb/v6-m/nofp\libgcc.a(_lshrdi3.o)
 .debug_aranges
                0x00000000000024d8       0x20 c:/applications/microchip/xc32/bin/bin/../../lib/gcc/pic32c/8.3.1/thumb/v6-m/nofp\libgcc.a(_ashldi3.o)
 .debug_aranges
                0x00000000000024f8       0x20 c:/applications/microchip/xc32/bin/bin/../../lib/gcc/pic32c/8.3.1/thumb/v6-m/nofp\libgcc.a(_clzdi2.o)
 .debug_aranges
                0x0000000000002518       0x20 c:/applications/microchip/xc32/bin/bin/../../lib/gcc/pic32c/8.3.1/thumb/v6-m/nofp\libgcc.a(_clzsi2.o)
 .debug_aranges
                0x0000000000002538       0x20 c:/applications/microchip/xc32/bin/bin/../../lib/gcc/pic32c/8.3.1/../../../../pic32c/lib/thumb/v6-m/nofp\libc-size-musl.a(strcpy.o)
 .debug_aranges
                0x0000000000002558       0x20 c:/applications/microchip/xc32/bin/bin/../../lib/gcc/pic32c/8.3.1/../../../../pic32c/lib/thumb/v6-m/nofp\libc-size-musl.a(stpcpy.o)
 .debug_aranges
                0x0000000000002578       0x20 c:/applications/microchip/xc32/bin/bin/../../lib/gcc/pic32c/8.3.1/../../../../pic32c/lib/thumb/v6-m/nofp\libpic32c.a(pic32_data_init_clear.o)
 .debug_aranges
                0x0000000000002598       0x20 c:/applications/microchip/xc32/bin/bin/../../lib/gcc/pic32c/8.3.1/../../../../pic32c/lib/thumb/v6-m/nofp\libpic32c.a(pic32_data_init_copy.o)

.debug_ranges   0x0000000000000000     0x2760
 .debug_ranges  0x0000000000000000      0x190 build/default/production/_ext/158385033/drv_i2c.o
 .debug_ranges  0x0000000000000190      0x1d0 build/default/production/_ext/2070931557/drv_spi.o
 .debug_ranges  0x0000000000000360      0x248 build/default/production/_ext/869808652/drv_usart.o
 .debug_ranges  0x00000000000005a8       0x40 build/default/production/_ext/829343244/plib_ac.o
 .debug_ranges  0x00000000000005e8       0x78 build/default/production/_ext/60163342/plib_adc0.o
 .debug_ranges  0x0000000000000660       0x90 build/default/production/_ext/60165182/plib_can0.o
 .debug_ranges  0x00000000000006f0       0x10 build/default/production/_ext/60165242/plib_ccl.o
 .debug_ranges  0x0000000000000700       0x20 build/default/production/_ext/1984496892/plib_clock.o
 .debug_ranges  0x0000000000000720       0x20 build/default/production/_ext/60166132/plib_dac.o
 .debug_ranges  0x0000000000000740       0xa0 build/default/production/_ext/1865161661/plib_dmac.o
 .debug_ranges  0x00000000000007e0       0x30 build/default/production/_ext/60167341/plib_eic.o
 .debug_ranges  0x0000000000000810       0x30 build/default/production/_ext/1986646378/plib_evsys.o
 .debug_ranges  0x0000000000000840       0x48 build/default/production/_ext/1987437027/plib_freqm.o
 .debug_ranges  0x0000000000000888       0x50 build/default/production/_ext/1865468468/plib_nvic.o
 .debug_ranges  0x00000000000008d8       0xa0 build/default/production/_ext/1593096446/plib_nvmctrl.o
 .debug_ranges  0x0000000000000978       0x40 build/default/production/_ext/1865510628/plib_pdec.o
 .debug_ranges  0x00000000000009b8       0x20 build/default/production/_ext/829342769/plib_pm.o
 .debug_ranges  0x00000000000009d8       0x58 build/default/production/_ext/1865521619/plib_port.o
 .debug_ranges  0x0000000000000a30       0x10 build/default/production/_ext/1865585090/plib_rstc.o
 .debug_ranges  0x0000000000000a40       0x48 build/default/production/_ext/60180175/plib_rtc_clock.o
 .debug_ranges  0x0000000000000a88      0x130 build/default/production/_ext/508257091/plib_sercom3_i2c_master.o
 .debug_ranges  0x0000000000000bb8       0x68 build/default/production/_ext/17022449/plib_sercom2_spi_master.o
 .debug_ranges  0x0000000000000c20      0x1e8 build/default/production/_ext/504274921/plib_sercom1_usart.o
 .debug_ranges  0x0000000000000e08      0x120 build/default/production/_ext/504274921/plib_sercom0_usart.o
 .debug_ranges  0x0000000000000f28       0x10 build/default/production/_ext/1865616679/plib_supc.o
 .debug_ranges  0x0000000000000f38       0x50 build/default/production/_ext/829342655/plib_tc0.o
 .debug_ranges  0x0000000000000f88       0x68 build/default/production/_ext/60181570/plib_tcc1.o
 .debug_ranges  0x0000000000000ff0       0x70 build/default/production/_ext/60181570/plib_tcc0.o
 .debug_ranges  0x0000000000001060      0x1a8 build/default/production/_ext/1832805299/sys_console_uart.o
 .debug_ranges  0x0000000000001208       0x90 build/default/production/_ext/1832805299/sys_console.o
 .debug_ranges  0x0000000000001298       0x18 build/default/production/_ext/14461671/sys_dma.o
 .debug_ranges  0x00000000000012b0       0x48 build/default/production/_ext/1881668453/sys_int.o
 .debug_ranges  0x00000000000012f8      0x160 build/default/production/_ext/101884895/sys_time.o
 .debug_ranges  0x0000000000001458       0x10 build/default/production/_ext/1171490990/tasks.o
 .debug_ranges  0x0000000000001468       0x10 build/default/production/_ext/1171490990/initialization.o
 .debug_ranges  0x0000000000001478       0x20 build/default/production/_ext/1171490990/interrupts.o
 .debug_ranges  0x0000000000001498       0x18 build/default/production/_ext/1171490990/exceptions.o
 .debug_ranges  0x00000000000014b0       0x18 build/default/production/_ext/1171490990/startup_xc32.o
 .debug_ranges  0x00000000000014c8       0xc8 build/default/production/_ext/1360937237/can0_driver.o
 .debug_ranges  0x0000000000001590       0x88 build/default/production/_ext/1360937237/sht4x_driver.o
 .debug_ranges  0x0000000000001618       0x40 build/default/production/_ext/1360937237/rstc_driver.o
 .debug_ranges  0x0000000000001658      0x188 build/default/production/_ext/1360937237/ad9954_driver.o
 .debug_ranges  0x00000000000017e0       0x68 build/default/production/_ext/1360937237/rtc_driver.o
 .debug_ranges  0x0000000000001848       0xb8 build/default/production/_ext/1360937237/mcp9808_driver.o
 .debug_ranges  0x0000000000001900      0x3c8 build/default/production/_ext/1360937237/bme690_driver.o
 .debug_ranges  0x0000000000001cc8      0x290 build/default/production/_ext/1360937237/fcm360w_driver.o
 .debug_ranges  0x0000000000001f58       0x38 build/default/production/_ext/1360937237/console_driver.o
 .debug_ranges  0x0000000000001f90      0x1e8 build/default/production/_ext/1360937237/hdc302x_driver.o
 .debug_ranges  0x0000000000002178       0x18 build/default/production/_ext/1360937237/fan_driver.o
 .debug_ranges  0x0000000000002190       0x50 build/default/production/_ext/1360937237/ntc_driver.o
 .debug_ranges  0x00000000000021e0       0x88 build/default/production/_ext/1360937237/timer_driver.o
 .debug_ranges  0x0000000000002268       0x18 build/default/production/_ext/1360937237/xm125_driver.o
 .debug_ranges  0x0000000000002280       0x48 build/default/production/_ext/1360937237/sen6x_driver.o
 .debug_ranges  0x00000000000022c8       0x90 build/default/production/_ext/1360937237/ws281x_driver.o
 .debug_ranges  0x0000000000002358       0x58 build/default/production/_ext/1360937237/app.o
 .debug_ranges  0x00000000000023b0       0x10 build/default/production/_ext/1360937237/main.o
 .debug_ranges  0x00000000000023c0       0xa0 build/default/production/_ext/1827571544/plib_systick.o
 .debug_ranges  0x0000000000002460       0x58 build/default/production/_ext/60184501/plib_wdt.o
 .debug_ranges  0x00000000000024b8       0x20 c:/applications/microchip/xc32/bin/bin/../../lib/gcc/pic32c/8.3.1/../../../../pic32c/lib/thumb/v6-m/nofp\libpic32c.a(data_init.o)
 .debug_ranges  0x00000000000024d8       0x10 c:/applications/microchip/xc32/bin/bin/../../lib/gcc/pic32c/8.3.1/../../../../pic32c/lib/thumb/v6-m/nofp\libc-size-musl.a(memcpy.o)
 .debug_ranges  0x00000000000024e8       0x10 c:/applications/microchip/xc32/bin/bin/../../lib/gcc/pic32c/8.3.1/../../../../pic32c/lib/thumb/v6-m/nofp\libc-size-musl.a(memset.o)
 .debug_ranges  0x00000000000024f8       0x10 c:/applications/microchip/xc32/bin/bin/../../lib/gcc/pic32c/8.3.1/../../../../pic32c/lib/thumb/v6-m/nofp\libc-size-musl.a(strlen.o)
 .debug_ranges  0x0000000000002508       0x10 c:/applications/microchip/xc32/bin/bin/../../lib/gcc/pic32c/8.3.1/../../../../pic32c/lib/thumb/v6-m/nofp\libc-size-musl.a(strstr.o)
 .debug_ranges  0x0000000000002518       0x10 c:/applications/microchip/xc32/bin/bin/../../lib/gcc/pic32c/8.3.1/../../../../pic32c/lib/thumb/v6-m/nofp\libc-size-musl.a(strchr.o)
 .debug_ranges  0x0000000000002528       0x10 c:/applications/microchip/xc32/bin/bin/../../lib/gcc/pic32c/8.3.1/../../../../pic32c/lib/thumb/v6-m/nofp\libc-size-musl.a(strchrnul.o)
 .debug_ranges  0x0000000000002538       0x30 c:/applications/microchip/xc32/bin/bin/../../lib/gcc/pic32c/8.3.1/../../../../pic32c/lib/thumb/v6-m/nofp\libc-musl.a(__libc_start_main.o)
 .debug_ranges  0x0000000000002568       0x10 c:/applications/microchip/xc32/bin/bin/../../lib/gcc/pic32c/8.3.1/../../../../pic32c/lib/thumb/v6-m/nofp\libc-musl.a(vsnprintf.o)
 .debug_ranges  0x0000000000002578       0x10 c:/applications/microchip/xc32/bin/bin/../../lib/gcc/pic32c/8.3.1/../../../../pic32c/lib/thumb/v6-m/nofp\libc-musl.a(sprintf.o)
 .debug_ranges  0x0000000000002588       0x10 c:/applications/microchip/xc32/bin/bin/../../lib/gcc/pic32c/8.3.1/../../../../pic32c/lib/thumb/v6-m/nofp\libc-musl.a(vsprintf.o)
 .debug_ranges  0x0000000000002598       0x18 c:/applications/microchip/xc32/bin/bin/../../lib/gcc/pic32c/8.3.1/../../../../pic32c/lib/thumb/v6-m/nofp\libc-musl.a(vfprintf.o)
 .debug_ranges  0x00000000000025b0       0x10 c:/applications/microchip/xc32/bin/bin/../../lib/gcc/pic32c/8.3.1/../../../../pic32c/lib/thumb/v6-m/nofp\libc-musl.a(__pop_float.o)
 .debug_ranges  0x00000000000025c0       0x10 c:/applications/microchip/xc32/bin/bin/../../lib/gcc/pic32c/8.3.1/../../../../pic32c/lib/thumb/v6-m/nofp\libc-musl.a(__pop_int.o)
 .debug_ranges  0x00000000000025d0       0x10 c:/applications/microchip/xc32/bin/bin/../../lib/gcc/pic32c/8.3.1/../../../../pic32c/lib/thumb/v6-m/nofp\libc-musl.a(__pop_ptr.o)
 .debug_ranges  0x00000000000025e0       0x58 c:/applications/microchip/xc32/bin/bin/../../lib/gcc/pic32c/8.3.1/../../../../pic32c/lib/thumb/v6-m/nofp\libc-musl.a(__printf_core.o)
 .debug_ranges  0x0000000000002638       0x10 c:/applications/microchip/xc32/bin/bin/../../lib/gcc/pic32c/8.3.1/../../../../pic32c/lib/thumb/v6-m/nofp\libc-musl.a(atoi.o)
 .debug_ranges  0x0000000000002648       0x18 c:/applications/microchip/xc32/bin/bin/../../lib/gcc/pic32c/8.3.1/../../../../pic32c/lib/thumb/v6-m/nofp\libc-musl.a(tolower.o)
 .debug_ranges  0x0000000000002660       0x10 c:/applications/microchip/xc32/bin/bin/../../lib/gcc/pic32c/8.3.1/../../../../pic32c/lib/thumb/v6-m/nofp\libc-musl.a(__fmt_a.o)
 .debug_ranges  0x0000000000002670       0x10 c:/applications/microchip/xc32/bin/bin/../../lib/gcc/pic32c/8.3.1/../../../../pic32c/lib/thumb/v6-m/nofp\libc-musl.a(__fmt_d.o)
 .debug_ranges  0x0000000000002680       0x10 c:/applications/microchip/xc32/bin/bin/../../lib/gcc/pic32c/8.3.1/../../../../pic32c/lib/thumb/v6-m/nofp\libc-musl.a(__fmt_fp.o)
 .debug_ranges  0x0000000000002690       0x10 c:/applications/microchip/xc32/bin/bin/../../lib/gcc/pic32c/8.3.1/../../../../pic32c/lib/thumb/v6-m/nofp\libc-musl.a(__fmt_o.o)
 .debug_ranges  0x00000000000026a0       0x10 c:/applications/microchip/xc32/bin/bin/../../lib/gcc/pic32c/8.3.1/../../../../pic32c/lib/thumb/v6-m/nofp\libc-musl.a(__fmt_s.o)
 .debug_ranges  0x00000000000026b0       0x10 c:/applications/microchip/xc32/bin/bin/../../lib/gcc/pic32c/8.3.1/../../../../pic32c/lib/thumb/v6-m/nofp\libc-musl.a(__fmt_u.o)
 .debug_ranges  0x00000000000026c0       0x10 c:/applications/microchip/xc32/bin/bin/../../lib/gcc/pic32c/8.3.1/../../../../pic32c/lib/thumb/v6-m/nofp\libc-musl.a(__fmt_x.o)
 .debug_ranges  0x00000000000026d0       0x18 c:/applications/microchip/xc32/bin/bin/../../lib/gcc/pic32c/8.3.1/../../../../pic32c/lib/thumb/v6-m/nofp\libc-musl.a(toupper.o)
 .debug_ranges  0x00000000000026e8       0x10 c:/applications/microchip/xc32/bin/bin/../../lib/gcc/pic32c/8.3.1/../../../../pic32c/lib/thumb/v6-m/nofp\libc-musl.a(__cvt_u.o)
 .debug_ranges  0x00000000000026f8       0x28 c:/applications/microchip/xc32/bin/bin/../../lib/gcc/pic32c/8.3.1/thumb/v6-m/nofp\libgcc.a(_muldi3.o)
 .debug_ranges  0x0000000000002720       0x10 c:/applications/microchip/xc32/bin/bin/../../lib/gcc/pic32c/8.3.1/../../../../pic32c/lib/thumb/v6-m/nofp\libc-size-musl.a(strcpy.o)
 .debug_ranges  0x0000000000002730       0x10 c:/applications/microchip/xc32/bin/bin/../../lib/gcc/pic32c/8.3.1/../../../../pic32c/lib/thumb/v6-m/nofp\libc-size-musl.a(stpcpy.o)
 .debug_ranges  0x0000000000002740       0x10 c:/applications/microchip/xc32/bin/bin/../../lib/gcc/pic32c/8.3.1/../../../../pic32c/lib/thumb/v6-m/nofp\libpic32c.a(pic32_data_init_clear.o)
 .debug_ranges  0x0000000000002750       0x10 c:/applications/microchip/xc32/bin/bin/../../lib/gcc/pic32c/8.3.1/../../../../pic32c/lib/thumb/v6-m/nofp\libpic32c.a(pic32_data_init_copy.o)

.debug_line     0x0000000000000000    0x18e77
 .debug_line    0x0000000000000000      0xf70 build/default/production/_ext/158385033/drv_i2c.o
 .debug_line    0x0000000000000f70     0x1506 build/default/production/_ext/2070931557/drv_spi.o
 .debug_line    0x0000000000002476     0x1432 build/default/production/_ext/869808652/drv_usart.o
 .debug_line    0x00000000000038a8      0x27b build/default/production/_ext/829343244/plib_ac.o
 .debug_line    0x0000000000003b23      0x3d3 build/default/production/_ext/60163342/plib_adc0.o
 .debug_line    0x0000000000003ef6      0x8f8 build/default/production/_ext/60165182/plib_can0.o
 .debug_line    0x00000000000047ee      0x129 build/default/production/_ext/60165242/plib_ccl.o
 .debug_line    0x0000000000004917      0x406 build/default/production/_ext/1984496892/plib_clock.o
 .debug_line    0x0000000000004d1d      0x160 build/default/production/_ext/60166132/plib_dac.o
 .debug_line    0x0000000000004e7d      0x792 build/default/production/_ext/1865161661/plib_dmac.o
 .debug_line    0x000000000000560f      0x2c8 build/default/production/_ext/60167341/plib_eic.o
 .debug_line    0x00000000000058d7      0x18f build/default/production/_ext/1986646378/plib_evsys.o
 .debug_line    0x0000000000005a66      0x1e2 build/default/production/_ext/1987437027/plib_freqm.o
 .debug_line    0x0000000000005c48      0x668 build/default/production/_ext/1865468468/plib_nvic.o
 .debug_line    0x00000000000062b0      0x49b build/default/production/_ext/1593096446/plib_nvmctrl.o
 .debug_line    0x000000000000674b      0x2da build/default/production/_ext/1865510628/plib_pdec.o
 .debug_line    0x0000000000006a25      0x150 build/default/production/_ext/829342769/plib_pm.o
 .debug_line    0x0000000000006b75      0x28f build/default/production/_ext/1865521619/plib_port.o
 .debug_line    0x0000000000006e04       0xfa build/default/production/_ext/1865585090/plib_rstc.o
 .debug_line    0x0000000000006efe      0x3e3 build/default/production/_ext/60180175/plib_rtc_clock.o
 .debug_line    0x00000000000072e1      0x92f build/default/production/_ext/508257091/plib_sercom3_i2c_master.o
 .debug_line    0x0000000000007c10      0x791 build/default/production/_ext/17022449/plib_sercom2_spi_master.o
 .debug_line    0x00000000000083a1      0xd39 build/default/production/_ext/504274921/plib_sercom1_usart.o
 .debug_line    0x00000000000090da      0x9d0 build/default/production/_ext/504274921/plib_sercom0_usart.o
 .debug_line    0x0000000000009aaa      0x14c build/default/production/_ext/1865616679/plib_supc.o
 .debug_line    0x0000000000009bf6      0x294 build/default/production/_ext/829342655/plib_tc0.o
 .debug_line    0x0000000000009e8a      0x361 build/default/production/_ext/60181570/plib_tcc1.o
 .debug_line    0x000000000000a1eb      0x3b1 build/default/production/_ext/60181570/plib_tcc0.o
 .debug_line    0x000000000000a59c      0x603 build/default/production/_ext/1832805299/sys_console_uart.o
 .debug_line    0x000000000000ab9f      0x64b build/default/production/_ext/1832805299/sys_console.o
 .debug_line    0x000000000000b1ea      0x141 build/default/production/_ext/14461671/sys_dma.o
 .debug_line    0x000000000000b32b      0x2e4 build/default/production/_ext/1881668453/sys_int.o
 .debug_line    0x000000000000b60f      0xeba build/default/production/_ext/101884895/sys_time.o
 .debug_line    0x000000000000c4c9      0x189 build/default/production/_ext/1171490990/tasks.o
 .debug_line    0x000000000000c652      0xb15 build/default/production/_ext/1171490990/initialization.o
 .debug_line    0x000000000000d167      0x125 build/default/production/_ext/1171490990/interrupts.o
 .debug_line    0x000000000000d28c       0x6f build/default/production/_ext/1171490990/exceptions.o
 .debug_line    0x000000000000d2fb      0x24c build/default/production/_ext/1171490990/startup_xc32.o
 .debug_line    0x000000000000d547      0x59c build/default/production/_ext/1360937237/can0_driver.o
 .debug_line    0x000000000000dae3      0x59a build/default/production/_ext/1360937237/sht4x_driver.o
 .debug_line    0x000000000000e07d      0x438 build/default/production/_ext/1360937237/rstc_driver.o
 .debug_line    0x000000000000e4b5      0xc28 build/default/production/_ext/1360937237/ad9954_driver.o
 .debug_line    0x000000000000f0dd      0x3e1 build/default/production/_ext/1360937237/rtc_driver.o
 .debug_line    0x000000000000f4be      0x756 build/default/production/_ext/1360937237/mcp9808_driver.o
 .debug_line    0x000000000000fc14      0xf96 build/default/production/_ext/1360937237/bme690_driver.o
 .debug_line    0x0000000000010baa     0x1651 build/default/production/_ext/1360937237/fcm360w_driver.o
 .debug_line    0x00000000000121fb      0x23a build/default/production/_ext/1360937237/console_driver.o
 .debug_line    0x0000000000012435      0xc73 build/default/production/_ext/1360937237/hdc302x_driver.o
 .debug_line    0x00000000000130a8       0x8e build/default/production/_ext/1360937237/fan_driver.o
 .debug_line    0x0000000000013136      0x2ec build/default/production/_ext/1360937237/ntc_driver.o
 .debug_line    0x0000000000013422      0x2e9 build/default/production/_ext/1360937237/timer_driver.o
 .debug_line    0x000000000001370b      0x108 build/default/production/_ext/1360937237/xm125_driver.o
 .debug_line    0x0000000000013813      0x299 build/default/production/_ext/1360937237/sen6x_driver.o
 .debug_line    0x0000000000013aac      0x3f2 build/default/production/_ext/1360937237/ws281x_driver.o
 .debug_line    0x0000000000013e9e      0x323 build/default/production/_ext/1360937237/app.o
 .debug_line    0x00000000000141c1       0x6d build/default/production/_ext/1360937237/main.o
 .debug_line    0x000000000001422e      0x50c build/default/production/_ext/1827571544/plib_systick.o
 .debug_line    0x000000000001473a      0x2c4 build/default/production/_ext/60184501/plib_wdt.o
 .debug_line    0x00000000000149fe       0xa5 c:/applications/microchip/xc32/bin/bin/../../lib/gcc/pic32c/8.3.1/../../../../pic32c/lib/thumb/v6-m/nofp\libpic32c.a(data_init.o)
 .debug_line    0x0000000000014aa3       0xee c:/applications/microchip/xc32/bin/bin/../../lib/gcc/pic32c/8.3.1/../../../../pic32c/lib/thumb/v6-m/nofp\libc-size-musl.a(memcpy.o)
 .debug_line    0x0000000000014b91       0xe3 c:/applications/microchip/xc32/bin/bin/../../lib/gcc/pic32c/8.3.1/../../../../pic32c/lib/thumb/v6-m/nofp\libc-size-musl.a(memset.o)
 .debug_line    0x0000000000014c74       0xee c:/applications/microchip/xc32/bin/bin/../../lib/gcc/pic32c/8.3.1/../../../../pic32c/lib/thumb/v6-m/nofp\libc-size-musl.a(strlen.o)
 .debug_line    0x0000000000014d62      0x127 c:/applications/microchip/xc32/bin/bin/../../lib/gcc/pic32c/8.3.1/../../../../pic32c/lib/thumb/v6-m/nofp\libc-size-musl.a(strstr.o)
 .debug_line    0x0000000000014e89       0xb2 c:/applications/microchip/xc32/bin/bin/../../lib/gcc/pic32c/8.3.1/../../../../pic32c/lib/thumb/v6-m/nofp\libc-size-musl.a(strchr.o)
 .debug_line    0x0000000000014f3b      0x19c c:/applications/microchip/xc32/bin/bin/../../lib/gcc/pic32c/8.3.1/../../../../pic32c/lib/thumb/v6-m/nofp\libc-size-musl.a(strchrnul.o)
 .debug_line    0x00000000000150d7      0x1bc c:/applications/microchip/xc32/bin/bin/../../lib/gcc/pic32c/8.3.1/../../../../pic32c/lib/thumb/v6-m/nofp\libc-musl.a(__libc_start_main.o)
 .debug_line    0x0000000000015293       0xb5 c:/applications/microchip/xc32/bin/bin/../../lib/gcc/pic32c/8.3.1/../../../../pic32c/lib/thumb/v6-m/nofp\libc-musl.a(libc.o)
 .debug_line    0x0000000000015348      0x23a c:/applications/microchip/xc32/bin/bin/../../lib/gcc/pic32c/8.3.1/../../../../pic32c/lib/thumb/v6-m/nofp\libc-musl.a(vsnprintf.o)
 .debug_line    0x0000000000015582      0x151 c:/applications/microchip/xc32/bin/bin/../../lib/gcc/pic32c/8.3.1/../../../../pic32c/lib/thumb/v6-m/nofp\libc-musl.a(sprintf.o)
 .debug_line    0x00000000000156d3      0x146 c:/applications/microchip/xc32/bin/bin/../../lib/gcc/pic32c/8.3.1/../../../../pic32c/lib/thumb/v6-m/nofp\libc-musl.a(vsprintf.o)
 .debug_line    0x0000000000015819       0xfb c:/applications/microchip/xc32/bin/bin/../../lib/gcc/pic32c/8.3.1/../../../../pic32c/lib/thumb/v6-m/nofp\libc-musl.a(__environ.o)
 .debug_line    0x0000000000015914       0x9a c:/applications/microchip/xc32/bin/bin/../../lib/gcc/pic32c/8.3.1/../../../../pic32c/lib/thumb/v6-m/nofp\libc-musl.a(__errno_location.o)
 .debug_line    0x00000000000159ae      0x1fa c:/applications/microchip/xc32/bin/bin/../../lib/gcc/pic32c/8.3.1/../../../../pic32c/lib/thumb/v6-m/nofp\libc-musl.a(vfprintf.o)
 .debug_line    0x0000000000015ba8      0x166 c:/applications/microchip/xc32/bin/bin/../../lib/gcc/pic32c/8.3.1/../../../../pic32c/lib/thumb/v6-m/nofp\libc-musl.a(__pop_float.o)
 .debug_line    0x0000000000015d0e      0x211 c:/applications/microchip/xc32/bin/bin/../../lib/gcc/pic32c/8.3.1/../../../../pic32c/lib/thumb/v6-m/nofp\libc-musl.a(__pop_int.o)
 .debug_line    0x0000000000015f1f      0x1c8 c:/applications/microchip/xc32/bin/bin/../../lib/gcc/pic32c/8.3.1/../../../../pic32c/lib/thumb/v6-m/nofp\libc-musl.a(__pop_ptr.o)
 .debug_line    0x00000000000160e7      0x6c7 c:/applications/microchip/xc32/bin/bin/../../lib/gcc/pic32c/8.3.1/../../../../pic32c/lib/thumb/v6-m/nofp\libc-musl.a(__printf_core.o)
 .debug_line    0x00000000000167ae      0x173 c:/applications/microchip/xc32/bin/bin/../../lib/gcc/pic32c/8.3.1/../../../../pic32c/lib/thumb/v6-m/nofp\libc-musl.a(atoi.o)
 .debug_line    0x0000000000016921      0x15c c:/applications/microchip/xc32/bin/bin/../../lib/gcc/pic32c/8.3.1/../../../../pic32c/lib/thumb/v6-m/nofp\libc-musl.a(tolower.o)
 .debug_line    0x0000000000016a7d      0x646 c:/applications/microchip/xc32/bin/bin/../../lib/gcc/pic32c/8.3.1/../../../../pic32c/lib/thumb/v6-m/nofp\libc-musl.a(__fmt_a.o)
 .debug_line    0x00000000000170c3      0x20b c:/applications/microchip/xc32/bin/bin/../../lib/gcc/pic32c/8.3.1/../../../../pic32c/lib/thumb/v6-m/nofp\libc-musl.a(__fmt_d.o)
 .debug_line    0x00000000000172ce      0x66d c:/applications/microchip/xc32/bin/bin/../../lib/gcc/pic32c/8.3.1/../../../../pic32c/lib/thumb/v6-m/nofp\libc-musl.a(__fmt_fp.o)
 .debug_line    0x000000000001793b      0x1b6 c:/applications/microchip/xc32/bin/bin/../../lib/gcc/pic32c/8.3.1/../../../../pic32c/lib/thumb/v6-m/nofp\libc-musl.a(__fmt_o.o)
 .debug_line    0x0000000000017af1      0x204 c:/applications/microchip/xc32/bin/bin/../../lib/gcc/pic32c/8.3.1/../../../../pic32c/lib/thumb/v6-m/nofp\libc-musl.a(__fmt_s.o)
 .debug_line    0x0000000000017cf5      0x187 c:/applications/microchip/xc32/bin/bin/../../lib/gcc/pic32c/8.3.1/../../../../pic32c/lib/thumb/v6-m/nofp\libc-musl.a(__fmt_u.o)
 .debug_line    0x0000000000017e7c      0x2ec c:/applications/microchip/xc32/bin/bin/../../lib/gcc/pic32c/8.3.1/../../../../pic32c/lib/thumb/v6-m/nofp\libc-musl.a(__fmt_x.o)
 .debug_line    0x0000000000018168      0x15c c:/applications/microchip/xc32/bin/bin/../../lib/gcc/pic32c/8.3.1/../../../../pic32c/lib/thumb/v6-m/nofp\libc-musl.a(toupper.o)
 .debug_line    0x00000000000182c4      0x1d7 c:/applications/microchip/xc32/bin/bin/../../lib/gcc/pic32c/8.3.1/../../../../pic32c/lib/thumb/v6-m/nofp\libc-musl.a(__cvt_u.o)
 .debug_line    0x000000000001849b       0xa8 c:/applications/microchip/xc32/bin/bin/../../lib/gcc/pic32c/8.3.1/thumb/v6-m/nofp\libgcc.a(_udivsi3.o)
 .debug_line    0x0000000000018543       0xb6 c:/applications/microchip/xc32/bin/bin/../../lib/gcc/pic32c/8.3.1/thumb/v6-m/nofp\libgcc.a(_divsi3.o)
 .debug_line    0x00000000000185f9       0x91 c:/applications/microchip/xc32/bin/bin/../../lib/gcc/pic32c/8.3.1/thumb/v6-m/nofp\libgcc.a(_dvmd_tls.o)
 .debug_line    0x000000000001868a       0x9c c:/applications/microchip/xc32/bin/bin/../../lib/gcc/pic32c/8.3.1/thumb/v6-m/nofp\libgcc.a(_aeabi_uldivmod.o)
 .debug_line    0x0000000000018726       0xe7 c:/applications/microchip/xc32/bin/bin/../../lib/gcc/pic32c/8.3.1/thumb/v6-m/nofp\libgcc.a(_muldi3.o)
 .debug_line    0x000000000001880d      0x188 c:/applications/microchip/xc32/bin/bin/../../lib/gcc/pic32c/8.3.1/thumb/v6-m/nofp\libgcc.a(_udivmoddi4.o)
 .debug_line    0x0000000000018995       0x9c c:/applications/microchip/xc32/bin/bin/../../lib/gcc/pic32c/8.3.1/thumb/v6-m/nofp\libgcc.a(_lshrdi3.o)
 .debug_line    0x0000000000018a31       0x9c c:/applications/microchip/xc32/bin/bin/../../lib/gcc/pic32c/8.3.1/thumb/v6-m/nofp\libgcc.a(_ashldi3.o)
 .debug_line    0x0000000000018acd       0x9b c:/applications/microchip/xc32/bin/bin/../../lib/gcc/pic32c/8.3.1/thumb/v6-m/nofp\libgcc.a(_clzdi2.o)
 .debug_line    0x0000000000018b68       0xa5 c:/applications/microchip/xc32/bin/bin/../../lib/gcc/pic32c/8.3.1/thumb/v6-m/nofp\libgcc.a(_clzsi2.o)
 .debug_line    0x0000000000018c0d       0xb2 c:/applications/microchip/xc32/bin/bin/../../lib/gcc/pic32c/8.3.1/../../../../pic32c/lib/thumb/v6-m/nofp\libc-size-musl.a(strcpy.o)
 .debug_line    0x0000000000018cbf       0xc1 c:/applications/microchip/xc32/bin/bin/../../lib/gcc/pic32c/8.3.1/../../../../pic32c/lib/thumb/v6-m/nofp\libc-size-musl.a(stpcpy.o)
 .debug_line    0x0000000000018d80       0x6f c:/applications/microchip/xc32/bin/bin/../../lib/gcc/pic32c/8.3.1/../../../../pic32c/lib/thumb/v6-m/nofp\libpic32c.a(pic32_data_init_clear.o)
 .debug_line    0x0000000000018def       0x88 c:/applications/microchip/xc32/bin/bin/../../lib/gcc/pic32c/8.3.1/../../../../pic32c/lib/thumb/v6-m/nofp\libpic32c.a(pic32_data_init_copy.o)

.debug_str      0x0000000000000000    0x2a117
 .debug_str     0x0000000000000000     0x11f4 build/default/production/_ext/158385033/drv_i2c.o
 .debug_str     0x00000000000011f4     0x1d74 build/default/production/_ext/2070931557/drv_spi.o
 .debug_str     0x0000000000002f68     0x1980 build/default/production/_ext/869808652/drv_usart.o
 .debug_str     0x00000000000048e8      0x5f3 build/default/production/_ext/829343244/plib_ac.o
 .debug_str     0x0000000000004edb      0x84f build/default/production/_ext/60163342/plib_adc0.o
 .debug_str     0x000000000000572a      0xe84 build/default/production/_ext/60165182/plib_can0.o
 .debug_str     0x00000000000065ae      0x338 build/default/production/_ext/60165242/plib_ccl.o
 .debug_str     0x00000000000068e6      0x71e build/default/production/_ext/1984496892/plib_clock.o
 .debug_str     0x0000000000007004      0x3d9 build/default/production/_ext/60166132/plib_dac.o
 .debug_str     0x00000000000073dd      0x94e build/default/production/_ext/1865161661/plib_dmac.o
 .debug_str     0x0000000000007d2b      0x4a8 build/default/production/_ext/60167341/plib_eic.o
 .debug_str     0x00000000000081d3      0x3fe build/default/production/_ext/1986646378/plib_evsys.o
 .debug_str     0x00000000000085d1      0x437 build/default/production/_ext/1987437027/plib_freqm.o
 .debug_str     0x0000000000008a08      0x695 build/default/production/_ext/1865468468/plib_nvic.o
 .debug_str     0x000000000000909d      0x6a7 build/default/production/_ext/1593096446/plib_nvmctrl.o
 .debug_str     0x0000000000009744      0x4ae build/default/production/_ext/1865510628/plib_pdec.o
 .debug_str     0x0000000000009bf2      0x35c build/default/production/_ext/829342769/plib_pm.o
 .debug_str     0x0000000000009f4e      0x73f build/default/production/_ext/1865521619/plib_port.o
 .debug_str     0x000000000000a68d      0x333 build/default/production/_ext/1865585090/plib_rstc.o
 .debug_str     0x000000000000a9c0      0x687 build/default/production/_ext/60180175/plib_rtc_clock.o
 .debug_str     0x000000000000b047      0x99b build/default/production/_ext/508257091/plib_sercom3_i2c_master.o
 .debug_str     0x000000000000b9e2      0x851 build/default/production/_ext/17022449/plib_sercom2_spi_master.o
 .debug_str     0x000000000000c233      0xdef build/default/production/_ext/504274921/plib_sercom1_usart.o
 .debug_str     0x000000000000d022      0xac1 build/default/production/_ext/504274921/plib_sercom0_usart.o
 .debug_str     0x000000000000dae3      0x37c build/default/production/_ext/1865616679/plib_supc.o
 .debug_str     0x000000000000de5f      0x5ee build/default/production/_ext/829342655/plib_tc0.o
 .debug_str     0x000000000000e44d      0x590 build/default/production/_ext/60181570/plib_tcc1.o
 .debug_str     0x000000000000e9dd      0x5bf build/default/production/_ext/60181570/plib_tcc0.o
 .debug_str     0x000000000000ef9c      0xb3d build/default/production/_ext/1832805299/sys_console_uart.o
 .debug_str     0x000000000000fad9      0xa82 build/default/production/_ext/1832805299/sys_console.o
 .debug_str     0x000000000001055b      0x67f build/default/production/_ext/14461671/sys_dma.o
 .debug_str     0x0000000000010bda      0x63e build/default/production/_ext/1881668453/sys_int.o
 .debug_str     0x0000000000011218      0xe34 build/default/production/_ext/101884895/sys_time.o
 .debug_str     0x000000000001204c      0x40d build/default/production/_ext/1171490990/tasks.o
 .debug_str     0x0000000000012459     0x2b3c build/default/production/_ext/1171490990/initialization.o
 .debug_str     0x0000000000014f95      0x745 build/default/production/_ext/1171490990/interrupts.o
 .debug_str     0x00000000000156da      0x307 build/default/production/_ext/1171490990/exceptions.o
 .debug_str     0x00000000000159e1      0x40f build/default/production/_ext/1171490990/startup_xc32.o
 .debug_str     0x0000000000015df0      0xd40 build/default/production/_ext/1360937237/can0_driver.o
 .debug_str     0x0000000000016b30     0x101a build/default/production/_ext/1360937237/sht4x_driver.o
 .debug_str     0x0000000000017b4a      0x621 build/default/production/_ext/1360937237/rstc_driver.o
 .debug_str     0x000000000001816b     0x1181 build/default/production/_ext/1360937237/ad9954_driver.o
 .debug_str     0x00000000000192ec      0x7bd build/default/production/_ext/1360937237/rtc_driver.o
 .debug_str     0x0000000000019aa9      0xf27 build/default/production/_ext/1360937237/mcp9808_driver.o
 .debug_str     0x000000000001a9d0     0x1f92 build/default/production/_ext/1360937237/bme690_driver.o
 .debug_str     0x000000000001c962     0x199e build/default/production/_ext/1360937237/fcm360w_driver.o
 .debug_str     0x000000000001e300      0x5b8 build/default/production/_ext/1360937237/console_driver.o
 .debug_str     0x000000000001e8b8     0x15b7 build/default/production/_ext/1360937237/hdc302x_driver.o
 .debug_str     0x000000000001fe6f      0x356 build/default/production/_ext/1360937237/fan_driver.o
 .debug_str     0x00000000000201c5      0x6b6 build/default/production/_ext/1360937237/ntc_driver.o
 .debug_str     0x000000000002087b      0x636 build/default/production/_ext/1360937237/timer_driver.o
 .debug_str     0x0000000000020eb1      0x426 build/default/production/_ext/1360937237/xm125_driver.o
 .debug_str     0x00000000000212d7      0xc00 build/default/production/_ext/1360937237/sen6x_driver.o
 .debug_str     0x0000000000021ed7      0x907 build/default/production/_ext/1360937237/ws281x_driver.o
 .debug_str     0x00000000000227de      0x7d3 build/default/production/_ext/1360937237/app.o
 .debug_str     0x0000000000022fb1      0x2e7 build/default/production/_ext/1360937237/main.o
 .debug_str     0x0000000000023298      0x602 build/default/production/_ext/1827571544/plib_systick.o
 .debug_str     0x000000000002389a      0x42d build/default/production/_ext/60184501/plib_wdt.o
 .debug_str     0x0000000000023cc7      0x1fc c:/applications/microchip/xc32/bin/bin/../../lib/gcc/pic32c/8.3.1/../../../../pic32c/lib/thumb/v6-m/nofp\libpic32c.a(data_init.o)
 .debug_str     0x0000000000023ec3      0x225 c:/applications/microchip/xc32/bin/bin/../../lib/gcc/pic32c/8.3.1/../../../../pic32c/lib/thumb/v6-m/nofp\libc-size-musl.a(memcpy.o)
 .debug_str     0x00000000000240e8      0x211 c:/applications/microchip/xc32/bin/bin/../../lib/gcc/pic32c/8.3.1/../../../../pic32c/lib/thumb/v6-m/nofp\libc-size-musl.a(memset.o)
 .debug_str     0x00000000000242f9      0x217 c:/applications/microchip/xc32/bin/bin/../../lib/gcc/pic32c/8.3.1/../../../../pic32c/lib/thumb/v6-m/nofp\libc-size-musl.a(strlen.o)
 .debug_str     0x0000000000024510      0x211 c:/applications/microchip/xc32/bin/bin/../../lib/gcc/pic32c/8.3.1/../../../../pic32c/lib/thumb/v6-m/nofp\libc-size-musl.a(strstr.o)
 .debug_str     0x0000000000024721      0x20b c:/applications/microchip/xc32/bin/bin/../../lib/gcc/pic32c/8.3.1/../../../../pic32c/lib/thumb/v6-m/nofp\libc-size-musl.a(strchr.o)
 .debug_str     0x000000000002492c      0x296 c:/applications/microchip/xc32/bin/bin/../../lib/gcc/pic32c/8.3.1/../../../../pic32c/lib/thumb/v6-m/nofp\libc-size-musl.a(strchrnul.o)
 .debug_str     0x0000000000024bc2      0x3ca c:/applications/microchip/xc32/bin/bin/../../lib/gcc/pic32c/8.3.1/../../../../pic32c/lib/thumb/v6-m/nofp\libc-musl.a(__libc_start_main.o)
 .debug_str     0x0000000000024f8c      0x335 c:/applications/microchip/xc32/bin/bin/../../lib/gcc/pic32c/8.3.1/../../../../pic32c/lib/thumb/v6-m/nofp\libc-musl.a(libc.o)
 .debug_str     0x00000000000252c1      0x381 c:/applications/microchip/xc32/bin/bin/../../lib/gcc/pic32c/8.3.1/../../../../pic32c/lib/thumb/v6-m/nofp\libc-musl.a(vsnprintf.o)
 .debug_str     0x0000000000025642      0x229 c:/applications/microchip/xc32/bin/bin/../../lib/gcc/pic32c/8.3.1/../../../../pic32c/lib/thumb/v6-m/nofp\libc-musl.a(sprintf.o)
 .debug_str     0x000000000002586b      0x22c c:/applications/microchip/xc32/bin/bin/../../lib/gcc/pic32c/8.3.1/../../../../pic32c/lib/thumb/v6-m/nofp\libc-musl.a(vsprintf.o)
 .debug_str     0x0000000000025a97      0x235 c:/applications/microchip/xc32/bin/bin/../../lib/gcc/pic32c/8.3.1/../../../../pic32c/lib/thumb/v6-m/nofp\libc-musl.a(__environ.o)
 .debug_str     0x0000000000025ccc      0x229 c:/applications/microchip/xc32/bin/bin/../../lib/gcc/pic32c/8.3.1/../../../../pic32c/lib/thumb/v6-m/nofp\libc-musl.a(__errno_location.o)
 .debug_str     0x0000000000025ef5      0x37f c:/applications/microchip/xc32/bin/bin/../../lib/gcc/pic32c/8.3.1/../../../../pic32c/lib/thumb/v6-m/nofp\libc-musl.a(vfprintf.o)
 .debug_str     0x0000000000026274      0x2c0 c:/applications/microchip/xc32/bin/bin/../../lib/gcc/pic32c/8.3.1/../../../../pic32c/lib/thumb/v6-m/nofp\libc-musl.a(__pop_float.o)
 .debug_str     0x0000000000026534      0x2cb c:/applications/microchip/xc32/bin/bin/../../lib/gcc/pic32c/8.3.1/../../../../pic32c/lib/thumb/v6-m/nofp\libc-musl.a(__pop_int.o)
 .debug_str     0x00000000000267ff      0x2cd c:/applications/microchip/xc32/bin/bin/../../lib/gcc/pic32c/8.3.1/../../../../pic32c/lib/thumb/v6-m/nofp\libc-musl.a(__pop_ptr.o)
 .debug_str     0x0000000000026acc      0x3e7 c:/applications/microchip/xc32/bin/bin/../../lib/gcc/pic32c/8.3.1/../../../../pic32c/lib/thumb/v6-m/nofp\libc-musl.a(__printf_core.o)
 .debug_str     0x0000000000026eb3      0x21c c:/applications/microchip/xc32/bin/bin/../../lib/gcc/pic32c/8.3.1/../../../../pic32c/lib/thumb/v6-m/nofp\libc-musl.a(atoi.o)
 .debug_str     0x00000000000270cf      0x249 c:/applications/microchip/xc32/bin/bin/../../lib/gcc/pic32c/8.3.1/../../../../pic32c/lib/thumb/v6-m/nofp\libc-musl.a(tolower.o)
 .debug_str     0x0000000000027318      0x333 c:/applications/microchip/xc32/bin/bin/../../lib/gcc/pic32c/8.3.1/../../../../pic32c/lib/thumb/v6-m/nofp\libc-musl.a(__fmt_a.o)
 .debug_str     0x000000000002764b      0x2f5 c:/applications/microchip/xc32/bin/bin/../../lib/gcc/pic32c/8.3.1/../../../../pic32c/lib/thumb/v6-m/nofp\libc-musl.a(__fmt_d.o)
 .debug_str     0x0000000000027940      0x354 c:/applications/microchip/xc32/bin/bin/../../lib/gcc/pic32c/8.3.1/../../../../pic32c/lib/thumb/v6-m/nofp\libc-musl.a(__fmt_fp.o)
 .debug_str     0x0000000000027c94      0x2f5 c:/applications/microchip/xc32/bin/bin/../../lib/gcc/pic32c/8.3.1/../../../../pic32c/lib/thumb/v6-m/nofp\libc-musl.a(__fmt_o.o)
 .debug_str     0x0000000000027f89      0x2f9 c:/applications/microchip/xc32/bin/bin/../../lib/gcc/pic32c/8.3.1/../../../../pic32c/lib/thumb/v6-m/nofp\libc-musl.a(__fmt_s.o)
 .debug_str     0x0000000000028282      0x2f5 c:/applications/microchip/xc32/bin/bin/../../lib/gcc/pic32c/8.3.1/../../../../pic32c/lib/thumb/v6-m/nofp\libc-musl.a(__fmt_u.o)
 .debug_str     0x0000000000028577      0x2f5 c:/applications/microchip/xc32/bin/bin/../../lib/gcc/pic32c/8.3.1/../../../../pic32c/lib/thumb/v6-m/nofp\libc-musl.a(__fmt_x.o)
 .debug_str     0x000000000002886c      0x249 c:/applications/microchip/xc32/bin/bin/../../lib/gcc/pic32c/8.3.1/../../../../pic32c/lib/thumb/v6-m/nofp\libc-musl.a(toupper.o)
 .debug_str     0x0000000000028ab5      0x2b1 c:/applications/microchip/xc32/bin/bin/../../lib/gcc/pic32c/8.3.1/../../../../pic32c/lib/thumb/v6-m/nofp\libc-musl.a(__cvt_u.o)
 .debug_str     0x0000000000028d66       0xd6 c:/applications/microchip/xc32/bin/bin/../../lib/gcc/pic32c/8.3.1/thumb/v6-m/nofp\libgcc.a(_udivsi3.o)
 .debug_str     0x0000000000028e3c       0xd6 c:/applications/microchip/xc32/bin/bin/../../lib/gcc/pic32c/8.3.1/thumb/v6-m/nofp\libgcc.a(_divsi3.o)
 .debug_str     0x0000000000028f12       0xd6 c:/applications/microchip/xc32/bin/bin/../../lib/gcc/pic32c/8.3.1/thumb/v6-m/nofp\libgcc.a(_dvmd_tls.o)
 .debug_str     0x0000000000028fe8       0xd6 c:/applications/microchip/xc32/bin/bin/../../lib/gcc/pic32c/8.3.1/thumb/v6-m/nofp\libgcc.a(_aeabi_uldivmod.o)
 .debug_str     0x00000000000290be      0x2af c:/applications/microchip/xc32/bin/bin/../../lib/gcc/pic32c/8.3.1/thumb/v6-m/nofp\libgcc.a(_muldi3.o)
 .debug_str     0x000000000002936d      0x27c c:/applications/microchip/xc32/bin/bin/../../lib/gcc/pic32c/8.3.1/thumb/v6-m/nofp\libgcc.a(_udivmoddi4.o)
 .debug_str     0x00000000000295e9       0xd6 c:/applications/microchip/xc32/bin/bin/../../lib/gcc/pic32c/8.3.1/thumb/v6-m/nofp\libgcc.a(_lshrdi3.o)
 .debug_str     0x00000000000296bf       0xd6 c:/applications/microchip/xc32/bin/bin/../../lib/gcc/pic32c/8.3.1/thumb/v6-m/nofp\libgcc.a(_ashldi3.o)
 .debug_str     0x0000000000029795       0xd6 c:/applications/microchip/xc32/bin/bin/../../lib/gcc/pic32c/8.3.1/thumb/v6-m/nofp\libgcc.a(_clzdi2.o)
 .debug_str     0x000000000002986b       0xd6 c:/applications/microchip/xc32/bin/bin/../../lib/gcc/pic32c/8.3.1/thumb/v6-m/nofp\libgcc.a(_clzsi2.o)
 .debug_str     0x0000000000029941      0x20d c:/applications/microchip/xc32/bin/bin/../../lib/gcc/pic32c/8.3.1/../../../../pic32c/lib/thumb/v6-m/nofp\libc-size-musl.a(strcpy.o)
 .debug_str     0x0000000000029b4e      0x221 c:/applications/microchip/xc32/bin/bin/../../lib/gcc/pic32c/8.3.1/../../../../pic32c/lib/thumb/v6-m/nofp\libc-size-musl.a(stpcpy.o)
 .debug_str     0x0000000000029d6f      0x1d5 c:/applications/microchip/xc32/bin/bin/../../lib/gcc/pic32c/8.3.1/../../../../pic32c/lib/thumb/v6-m/nofp\libpic32c.a(pic32_data_init_clear.o)
 .debug_str     0x0000000000029f44      0x1d3 c:/applications/microchip/xc32/bin/bin/../../lib/gcc/pic32c/8.3.1/../../../../pic32c/lib/thumb/v6-m/nofp\libpic32c.a(pic32_data_init_copy.o)

.debug_frame    0x0000000000000000     0x50dc
 .debug_frame   0x0000000000000000      0x250 build/default/production/_ext/158385033/drv_i2c.o
 .debug_frame   0x0000000000000250      0x23c build/default/production/_ext/2070931557/drv_spi.o
 .debug_frame   0x000000000000048c      0x348 build/default/production/_ext/869808652/drv_usart.o
 .debug_frame   0x00000000000007d4       0x88 build/default/production/_ext/829343244/plib_ac.o
 .debug_frame   0x000000000000085c       0xf8 build/default/production/_ext/60163342/plib_adc0.o
 .debug_frame   0x0000000000000954      0x180 build/default/production/_ext/60165182/plib_can0.o
 .debug_frame   0x0000000000000ad4       0x20 build/default/production/_ext/60165242/plib_ccl.o
 .debug_frame   0x0000000000000af4       0x48 build/default/production/_ext/1984496892/plib_clock.o
 .debug_frame   0x0000000000000b3c       0x40 build/default/production/_ext/60166132/plib_dac.o
 .debug_frame   0x0000000000000b7c      0x18c build/default/production/_ext/1865161661/plib_dmac.o
 .debug_frame   0x0000000000000d08       0x7c build/default/production/_ext/60167341/plib_eic.o
 .debug_frame   0x0000000000000d84       0x60 build/default/production/_ext/1986646378/plib_evsys.o
 .debug_frame   0x0000000000000de4       0x68 build/default/production/_ext/1987437027/plib_freqm.o
 .debug_frame   0x0000000000000e4c       0x90 build/default/production/_ext/1865468468/plib_nvic.o
 .debug_frame   0x0000000000000edc      0x16c build/default/production/_ext/1593096446/plib_nvmctrl.o
 .debug_frame   0x0000000000001048       0x80 build/default/production/_ext/1865510628/plib_pdec.o
 .debug_frame   0x00000000000010c8       0x40 build/default/production/_ext/829342769/plib_pm.o
 .debug_frame   0x0000000000001108       0xc8 build/default/production/_ext/1865521619/plib_port.o
 .debug_frame   0x00000000000011d0       0x20 build/default/production/_ext/1865585090/plib_rstc.o
 .debug_frame   0x00000000000011f0       0xa0 build/default/production/_ext/60180175/plib_rtc_clock.o
 .debug_frame   0x0000000000001290      0x124 build/default/production/_ext/508257091/plib_sercom3_i2c_master.o
 .debug_frame   0x00000000000013b4       0xd4 build/default/production/_ext/17022449/plib_sercom2_spi_master.o
 .debug_frame   0x0000000000001488      0x254 build/default/production/_ext/504274921/plib_sercom1_usart.o
 .debug_frame   0x00000000000016dc      0x1f0 build/default/production/_ext/504274921/plib_sercom0_usart.o
 .debug_frame   0x00000000000018cc       0x28 build/default/production/_ext/1865616679/plib_supc.o
 .debug_frame   0x00000000000018f4       0xa8 build/default/production/_ext/829342655/plib_tc0.o
 .debug_frame   0x000000000000199c       0xd0 build/default/production/_ext/60181570/plib_tcc1.o
 .debug_frame   0x0000000000001a6c       0xe0 build/default/production/_ext/60181570/plib_tcc0.o
 .debug_frame   0x0000000000001b4c       0xe8 build/default/production/_ext/1832805299/sys_console_uart.o
 .debug_frame   0x0000000000001c34      0x15c build/default/production/_ext/1832805299/sys_console.o
 .debug_frame   0x0000000000001d90       0x48 build/default/production/_ext/14461671/sys_dma.o
 .debug_frame   0x0000000000001dd8       0x84 build/default/production/_ext/1881668453/sys_int.o
 .debug_frame   0x0000000000001e5c      0x334 build/default/production/_ext/101884895/sys_time.o
 .debug_frame   0x0000000000002190       0x28 build/default/production/_ext/1171490990/tasks.o
 .debug_frame   0x00000000000021b8       0x28 build/default/production/_ext/1171490990/initialization.o
 .debug_frame   0x00000000000021e0       0x50 build/default/production/_ext/1171490990/interrupts.o
 .debug_frame   0x0000000000002230       0x30 build/default/production/_ext/1171490990/exceptions.o
 .debug_frame   0x0000000000002260       0x40 build/default/production/_ext/1171490990/startup_xc32.o
 .debug_frame   0x00000000000022a0      0x120 build/default/production/_ext/1360937237/can0_driver.o
 .debug_frame   0x00000000000023c0      0x160 build/default/production/_ext/1360937237/sht4x_driver.o
 .debug_frame   0x0000000000002520       0x90 build/default/production/_ext/1360937237/rstc_driver.o
 .debug_frame   0x00000000000025b0      0x43c build/default/production/_ext/1360937237/ad9954_driver.o
 .debug_frame   0x00000000000029ec      0x104 build/default/production/_ext/1360937237/rtc_driver.o
 .debug_frame   0x0000000000002af0      0x1e8 build/default/production/_ext/1360937237/mcp9808_driver.o
 .debug_frame   0x0000000000002cd8      0x87c build/default/production/_ext/1360937237/bme690_driver.o
 .debug_frame   0x0000000000003554      0x828 build/default/production/_ext/1360937237/fcm360w_driver.o
 .debug_frame   0x0000000000003d7c       0x78 build/default/production/_ext/1360937237/console_driver.o
 .debug_frame   0x0000000000003df4      0x524 build/default/production/_ext/1360937237/hdc302x_driver.o
 .debug_frame   0x0000000000004318       0x30 build/default/production/_ext/1360937237/fan_driver.o
 .debug_frame   0x0000000000004348       0xc0 build/default/production/_ext/1360937237/ntc_driver.o
 .debug_frame   0x0000000000004408      0x148 build/default/production/_ext/1360937237/timer_driver.o
 .debug_frame   0x0000000000004550       0x30 build/default/production/_ext/1360937237/xm125_driver.o
 .debug_frame   0x0000000000004580       0x98 build/default/production/_ext/1360937237/sen6x_driver.o
 .debug_frame   0x0000000000004618       0xf8 build/default/production/_ext/1360937237/ws281x_driver.o
 .debug_frame   0x0000000000004710       0xc0 build/default/production/_ext/1360937237/app.o
 .debug_frame   0x00000000000047d0       0x28 build/default/production/_ext/1360937237/main.o
 .debug_frame   0x00000000000047f8      0x178 build/default/production/_ext/1827571544/plib_systick.o
 .debug_frame   0x0000000000004970       0xb0 build/default/production/_ext/60184501/plib_wdt.o
 .debug_frame   0x0000000000004a20       0x48 c:/applications/microchip/xc32/bin/bin/../../lib/gcc/pic32c/8.3.1/../../../../pic32c/lib/thumb/v6-m/nofp\libpic32c.a(data_init.o)
 .debug_frame   0x0000000000004a68       0x28 c:/applications/microchip/xc32/bin/bin/../../lib/gcc/pic32c/8.3.1/../../../../pic32c/lib/thumb/v6-m/nofp\libc-size-musl.a(memcpy.o)
 .debug_frame   0x0000000000004a90       0x20 c:/applications/microchip/xc32/bin/bin/../../lib/gcc/pic32c/8.3.1/../../../../pic32c/lib/thumb/v6-m/nofp\libc-size-musl.a(memset.o)
 .debug_frame   0x0000000000004ab0       0x20 c:/applications/microchip/xc32/bin/bin/../../lib/gcc/pic32c/8.3.1/../../../../pic32c/lib/thumb/v6-m/nofp\libc-size-musl.a(strlen.o)
 .debug_frame   0x0000000000004ad0       0x30 c:/applications/microchip/xc32/bin/bin/../../lib/gcc/pic32c/8.3.1/../../../../pic32c/lib/thumb/v6-m/nofp\libc-size-musl.a(strstr.o)
 .debug_frame   0x0000000000004b00       0x28 c:/applications/microchip/xc32/bin/bin/../../lib/gcc/pic32c/8.3.1/../../../../pic32c/lib/thumb/v6-m/nofp\libc-size-musl.a(strchr.o)
 .debug_frame   0x0000000000004b28       0x2c c:/applications/microchip/xc32/bin/bin/../../lib/gcc/pic32c/8.3.1/../../../../pic32c/lib/thumb/v6-m/nofp\libc-size-musl.a(strchrnul.o)
 .debug_frame   0x0000000000004b54       0x38 c:/applications/microchip/xc32/bin/bin/../../lib/gcc/pic32c/8.3.1/../../../../pic32c/lib/thumb/v6-m/nofp\libc-musl.a(__libc_start_main.o)
 .debug_frame   0x0000000000004b8c       0x34 c:/applications/microchip/xc32/bin/bin/../../lib/gcc/pic32c/8.3.1/../../../../pic32c/lib/thumb/v6-m/nofp\libc-musl.a(vsnprintf.o)
 .debug_frame   0x0000000000004bc0       0x2c c:/applications/microchip/xc32/bin/bin/../../lib/gcc/pic32c/8.3.1/../../../../pic32c/lib/thumb/v6-m/nofp\libc-musl.a(sprintf.o)
 .debug_frame   0x0000000000004bec       0x28 c:/applications/microchip/xc32/bin/bin/../../lib/gcc/pic32c/8.3.1/../../../../pic32c/lib/thumb/v6-m/nofp\libc-musl.a(vsprintf.o)
 .debug_frame   0x0000000000004c14       0x44 c:/applications/microchip/xc32/bin/bin/../../lib/gcc/pic32c/8.3.1/../../../../pic32c/lib/thumb/v6-m/nofp\libc-musl.a(vfprintf.o)
 .debug_frame   0x0000000000004c58       0x20 c:/applications/microchip/xc32/bin/bin/../../lib/gcc/pic32c/8.3.1/../../../../pic32c/lib/thumb/v6-m/nofp\libc-musl.a(__pop_float.o)
 .debug_frame   0x0000000000004c78       0x28 c:/applications/microchip/xc32/bin/bin/../../lib/gcc/pic32c/8.3.1/../../../../pic32c/lib/thumb/v6-m/nofp\libc-musl.a(__pop_int.o)
 .debug_frame   0x0000000000004ca0       0x28 c:/applications/microchip/xc32/bin/bin/../../lib/gcc/pic32c/8.3.1/../../../../pic32c/lib/thumb/v6-m/nofp\libc-musl.a(__pop_ptr.o)
 .debug_frame   0x0000000000004cc8       0xc0 c:/applications/microchip/xc32/bin/bin/../../lib/gcc/pic32c/8.3.1/../../../../pic32c/lib/thumb/v6-m/nofp\libc-musl.a(__printf_core.o)
 .debug_frame   0x0000000000004d88       0x28 c:/applications/microchip/xc32/bin/bin/../../lib/gcc/pic32c/8.3.1/../../../../pic32c/lib/thumb/v6-m/nofp\libc-musl.a(atoi.o)
 .debug_frame   0x0000000000004db0       0x38 c:/applications/microchip/xc32/bin/bin/../../lib/gcc/pic32c/8.3.1/../../../../pic32c/lib/thumb/v6-m/nofp\libc-musl.a(tolower.o)
 .debug_frame   0x0000000000004de8       0x30 c:/applications/microchip/xc32/bin/bin/../../lib/gcc/pic32c/8.3.1/../../../../pic32c/lib/thumb/v6-m/nofp\libc-musl.a(__fmt_a.o)
 .debug_frame   0x0000000000004e18       0x30 c:/applications/microchip/xc32/bin/bin/../../lib/gcc/pic32c/8.3.1/../../../../pic32c/lib/thumb/v6-m/nofp\libc-musl.a(__fmt_d.o)
 .debug_frame   0x0000000000004e48       0x34 c:/applications/microchip/xc32/bin/bin/../../lib/gcc/pic32c/8.3.1/../../../../pic32c/lib/thumb/v6-m/nofp\libc-musl.a(__fmt_fp.o)
 .debug_frame   0x0000000000004e7c       0x30 c:/applications/microchip/xc32/bin/bin/../../lib/gcc/pic32c/8.3.1/../../../../pic32c/lib/thumb/v6-m/nofp\libc-musl.a(__fmt_o.o)
 .debug_frame   0x0000000000004eac       0x30 c:/applications/microchip/xc32/bin/bin/../../lib/gcc/pic32c/8.3.1/../../../../pic32c/lib/thumb/v6-m/nofp\libc-musl.a(__fmt_s.o)
 .debug_frame   0x0000000000004edc       0x30 c:/applications/microchip/xc32/bin/bin/../../lib/gcc/pic32c/8.3.1/../../../../pic32c/lib/thumb/v6-m/nofp\libc-musl.a(__fmt_u.o)
 .debug_frame   0x0000000000004f0c       0x30 c:/applications/microchip/xc32/bin/bin/../../lib/gcc/pic32c/8.3.1/../../../../pic32c/lib/thumb/v6-m/nofp\libc-musl.a(__fmt_x.o)
 .debug_frame   0x0000000000004f3c       0x38 c:/applications/microchip/xc32/bin/bin/../../lib/gcc/pic32c/8.3.1/../../../../pic32c/lib/thumb/v6-m/nofp\libc-musl.a(toupper.o)
 .debug_frame   0x0000000000004f74       0x34 c:/applications/microchip/xc32/bin/bin/../../lib/gcc/pic32c/8.3.1/../../../../pic32c/lib/thumb/v6-m/nofp\libc-musl.a(__cvt_u.o)
 .debug_frame   0x0000000000004fa8       0x20 c:/applications/microchip/xc32/bin/bin/../../lib/gcc/pic32c/8.3.1/thumb/v6-m/nofp\libgcc.a(_udivsi3.o)
 .debug_frame   0x0000000000004fc8       0x20 c:/applications/microchip/xc32/bin/bin/../../lib/gcc/pic32c/8.3.1/thumb/v6-m/nofp\libgcc.a(_divsi3.o)
 .debug_frame   0x0000000000004fe8       0x34 c:/applications/microchip/xc32/bin/bin/../../lib/gcc/pic32c/8.3.1/thumb/v6-m/nofp\libgcc.a(_muldi3.o)
 .debug_frame   0x000000000000501c       0x30 c:/applications/microchip/xc32/bin/bin/../../lib/gcc/pic32c/8.3.1/thumb/v6-m/nofp\libgcc.a(_udivmoddi4.o)
 .debug_frame   0x000000000000504c       0x28 c:/applications/microchip/xc32/bin/bin/../../lib/gcc/pic32c/8.3.1/../../../../pic32c/lib/thumb/v6-m/nofp\libc-size-musl.a(strcpy.o)
 .debug_frame   0x0000000000005074       0x20 c:/applications/microchip/xc32/bin/bin/../../lib/gcc/pic32c/8.3.1/../../../../pic32c/lib/thumb/v6-m/nofp\libc-size-musl.a(stpcpy.o)
 .debug_frame   0x0000000000005094       0x20 c:/applications/microchip/xc32/bin/bin/../../lib/gcc/pic32c/8.3.1/../../../../pic32c/lib/thumb/v6-m/nofp\libpic32c.a(pic32_data_init_clear.o)
 .debug_frame   0x00000000000050b4       0x28 c:/applications/microchip/xc32/bin/bin/../../lib/gcc/pic32c/8.3.1/../../../../pic32c/lib/thumb/v6-m/nofp\libpic32c.a(pic32_data_init_copy.o)

.note.GNU-stack
                0x0000000000000000        0x0
 .note.GNU-stack
                0x0000000000000000        0x0 c:/applications/microchip/xc32/bin/bin/../../lib/gcc/pic32c/8.3.1/../../../../pic32c/lib/thumb/v6-m/nofp\libc-size-musl.a(memcpy.o)
 .note.GNU-stack
                0x0000000000000000        0x0 c:/applications/microchip/xc32/bin/bin/../../lib/gcc/pic32c/8.3.1/../../../../pic32c/lib/thumb/v6-m/nofp\libc-size-musl.a(memset.o)
 .note.GNU-stack
                0x0000000000000000        0x0 c:/applications/microchip/xc32/bin/bin/../../lib/gcc/pic32c/8.3.1/../../../../pic32c/lib/thumb/v6-m/nofp\libc-size-musl.a(strlen.o)
 .note.GNU-stack
                0x0000000000000000        0x0 c:/applications/microchip/xc32/bin/bin/../../lib/gcc/pic32c/8.3.1/../../../../pic32c/lib/thumb/v6-m/nofp\libc-size-musl.a(strstr.o)
 .note.GNU-stack
                0x0000000000000000        0x0 c:/applications/microchip/xc32/bin/bin/../../lib/gcc/pic32c/8.3.1/../../../../pic32c/lib/thumb/v6-m/nofp\libc-size-musl.a(strchr.o)
 .note.GNU-stack
                0x0000000000000000        0x0 c:/applications/microchip/xc32/bin/bin/../../lib/gcc/pic32c/8.3.1/../../../../pic32c/lib/thumb/v6-m/nofp\libc-size-musl.a(strchrnul.o)
 .note.GNU-stack
                0x0000000000000000        0x0 c:/applications/microchip/xc32/bin/bin/../../lib/gcc/pic32c/8.3.1/../../../../pic32c/lib/thumb/v6-m/nofp\libc-musl.a(__libc_start_main.o)
 .note.GNU-stack
                0x0000000000000000        0x0 c:/applications/microchip/xc32/bin/bin/../../lib/gcc/pic32c/8.3.1/../../../../pic32c/lib/thumb/v6-m/nofp\libc-musl.a(libc.o)
 .note.GNU-stack
                0x0000000000000000        0x0 c:/applications/microchip/xc32/bin/bin/../../lib/gcc/pic32c/8.3.1/../../../../pic32c/lib/thumb/v6-m/nofp\libc-musl.a(vsnprintf.o)
 .note.GNU-stack
                0x0000000000000000        0x0 c:/applications/microchip/xc32/bin/bin/../../lib/gcc/pic32c/8.3.1/../../../../pic32c/lib/thumb/v6-m/nofp\libc-musl.a(sprintf.o)
 .note.GNU-stack
                0x0000000000000000        0x0 c:/applications/microchip/xc32/bin/bin/../../lib/gcc/pic32c/8.3.1/../../../../pic32c/lib/thumb/v6-m/nofp\libc-musl.a(vsprintf.o)
 .note.GNU-stack
                0x0000000000000000        0x0 c:/applications/microchip/xc32/bin/bin/../../lib/gcc/pic32c/8.3.1/../../../../pic32c/lib/thumb/v6-m/nofp\libc-musl.a(__environ.o)
 .note.GNU-stack
                0x0000000000000000        0x0 c:/applications/microchip/xc32/bin/bin/../../lib/gcc/pic32c/8.3.1/../../../../pic32c/lib/thumb/v6-m/nofp\libc-musl.a(__errno_location.o)
 .note.GNU-stack
                0x0000000000000000        0x0 c:/applications/microchip/xc32/bin/bin/../../lib/gcc/pic32c/8.3.1/../../../../pic32c/lib/thumb/v6-m/nofp\libc-musl.a(vfprintf.o)
 .note.GNU-stack
                0x0000000000000000        0x0 c:/applications/microchip/xc32/bin/bin/../../lib/gcc/pic32c/8.3.1/../../../../pic32c/lib/thumb/v6-m/nofp\libc-musl.a(__pop_float.o)
 .note.GNU-stack
                0x0000000000000000        0x0 c:/applications/microchip/xc32/bin/bin/../../lib/gcc/pic32c/8.3.1/../../../../pic32c/lib/thumb/v6-m/nofp\libc-musl.a(__pop_int.o)
 .note.GNU-stack
                0x0000000000000000        0x0 c:/applications/microchip/xc32/bin/bin/../../lib/gcc/pic32c/8.3.1/../../../../pic32c/lib/thumb/v6-m/nofp\libc-musl.a(__pop_ptr.o)
 .note.GNU-stack
                0x0000000000000000        0x0 c:/applications/microchip/xc32/bin/bin/../../lib/gcc/pic32c/8.3.1/../../../../pic32c/lib/thumb/v6-m/nofp\libc-musl.a(__printf_core.o)
 .note.GNU-stack
                0x0000000000000000        0x0 c:/applications/microchip/xc32/bin/bin/../../lib/gcc/pic32c/8.3.1/../../../../pic32c/lib/thumb/v6-m/nofp\libc-musl.a(atoi.o)
 .note.GNU-stack
                0x0000000000000000        0x0 c:/applications/microchip/xc32/bin/bin/../../lib/gcc/pic32c/8.3.1/../../../../pic32c/lib/thumb/v6-m/nofp\libc-musl.a(tolower.o)
 .note.GNU-stack
                0x0000000000000000        0x0 c:/applications/microchip/xc32/bin/bin/../../lib/gcc/pic32c/8.3.1/../../../../pic32c/lib/thumb/v6-m/nofp\libc-musl.a(__fmt_a.o)
 .note.GNU-stack
                0x0000000000000000        0x0 c:/applications/microchip/xc32/bin/bin/../../lib/gcc/pic32c/8.3.1/../../../../pic32c/lib/thumb/v6-m/nofp\libc-musl.a(__fmt_d.o)
 .note.GNU-stack
                0x0000000000000000        0x0 c:/applications/microchip/xc32/bin/bin/../../lib/gcc/pic32c/8.3.1/../../../../pic32c/lib/thumb/v6-m/nofp\libc-musl.a(__fmt_fp.o)
 .note.GNU-stack
                0x0000000000000000        0x0 c:/applications/microchip/xc32/bin/bin/../../lib/gcc/pic32c/8.3.1/../../../../pic32c/lib/thumb/v6-m/nofp\libc-musl.a(__fmt_o.o)
 .note.GNU-stack
                0x0000000000000000        0x0 c:/applications/microchip/xc32/bin/bin/../../lib/gcc/pic32c/8.3.1/../../../../pic32c/lib/thumb/v6-m/nofp\libc-musl.a(__fmt_s.o)
 .note.GNU-stack
                0x0000000000000000        0x0 c:/applications/microchip/xc32/bin/bin/../../lib/gcc/pic32c/8.3.1/../../../../pic32c/lib/thumb/v6-m/nofp\libc-musl.a(__fmt_u.o)
 .note.GNU-stack
                0x0000000000000000        0x0 c:/applications/microchip/xc32/bin/bin/../../lib/gcc/pic32c/8.3.1/../../../../pic32c/lib/thumb/v6-m/nofp\libc-musl.a(__fmt_x.o)
 .note.GNU-stack
                0x0000000000000000        0x0 c:/applications/microchip/xc32/bin/bin/../../lib/gcc/pic32c/8.3.1/../../../../pic32c/lib/thumb/v6-m/nofp\libc-musl.a(toupper.o)
 .note.GNU-stack
                0x0000000000000000        0x0 c:/applications/microchip/xc32/bin/bin/../../lib/gcc/pic32c/8.3.1/../../../../pic32c/lib/thumb/v6-m/nofp\libc-musl.a(__cvt_u.o)
 .note.GNU-stack
                0x0000000000000000        0x0 c:/applications/microchip/xc32/bin/bin/../../lib/gcc/pic32c/8.3.1/../../../../pic32c/lib/thumb/v6-m/nofp\libc-size-musl.a(strcpy.o)
 .note.GNU-stack
                0x0000000000000000        0x0 c:/applications/microchip/xc32/bin/bin/../../lib/gcc/pic32c/8.3.1/../../../../pic32c/lib/thumb/v6-m/nofp\libc-size-musl.a(stpcpy.o)

__xc_reference_data
                0x0000000000000000       0x5c
 __xc_reference_data
                0x0000000000000000        0x8 c:/applications/microchip/xc32/bin/bin/../../lib/gcc/pic32c/8.3.1/../../../../pic32c/lib/thumb/v6-m/nofp\libc-musl.a(vfprintf.o)
                0x0000000000000000                __vfprintf_needs_fmt
 __xc_reference_data
                0x0000000000000008       0x54 c:/applications/microchip/xc32/bin/bin/../../lib/gcc/pic32c/8.3.1/../../../../pic32c/lib/thumb/v6-m/nofp\libc-musl.a(__io_fmt_needed.o)
                0x0000000000000008                __io_fmt_needed

.stack          0x000000002000b4f8      0x100
 .stack         0x000000002000b4f8      0x100 stack

.bss.can0_driverData%1
                0x0000000020000000     0x5b40
 .bss.can0_driverData
                0x0000000020000000     0x5b40 build/default/production/_ext/1360937237/can0_driver.o
                0x0000000020000000                can0_driverData

.bss.consolePrintBuffer%2
                0x0000000020005b40     0x2000
 .bss.consolePrintBuffer
                0x0000000020005b40     0x2000 build/default/production/_ext/1832805299/sys_console.o

.bss.SERCOM1_USART_ReadBuffer%3
                0x0000000020007b40     0x1000
 .bss.SERCOM1_USART_ReadBuffer
                0x0000000020007b40     0x1000 build/default/production/_ext/504274921/plib_sercom1_usart.o

.bss.SERCOM1_USART_WriteBuffer%4
                0x0000000020008b40     0x1000
 .bss.SERCOM1_USART_WriteBuffer
                0x0000000020008b40     0x1000 build/default/production/_ext/504274921/plib_sercom1_usart.o

.bss.ws281x_driverData%5
                0x0000000020009b40      0x788
 .bss.ws281x_driverData
                0x0000000020009b40      0x788 build/default/production/_ext/1360937237/ws281x_driver.o
                0x0000000020009b40                ws281x_driverData

.bss.timers%6   0x000000002000a2c8      0x640
 .bss.timers    0x000000002000a2c8      0x640 build/default/production/_ext/101884895/sys_time.o

.bss.fcm360w_driverData%7
                0x000000002000a908      0x214
 .bss.fcm360w_driverData
                0x000000002000a908      0x214 build/default/production/_ext/1360937237/fcm360w_driver.o
                0x000000002000a908                fcm360w_driverData

.bss.eicCallbackObject%8
                0x000000002000ab1c       0xc0
 .bss.eicCallbackObject
                0x000000002000ab1c       0xc0 build/default/production/_ext/60167341/plib_eic.o

.bss.rtc_driverData%9
                0x000000002000abdc       0x90
 .bss.rtc_driverData
                0x000000002000abdc       0x90 build/default/production/_ext/1360937237/rtc_driver.o
                0x000000002000abdc                rtc_driverData

.bss.gDrvSPIObj%10
                0x000000002000ac6c       0x74
 .bss.gDrvSPIObj
                0x000000002000ac6c       0x74 build/default/production/_ext/2070931557/drv_spi.o

.bss.gDrvUSARTObj%11
                0x000000002000ace0       0x60
 .bss.gDrvUSARTObj
                0x000000002000ace0       0x60 build/default/production/_ext/869808652/drv_usart.o

.bss.descriptor_section%12
                0x000000002000ad40       0x50
 .bss.descriptor_section
                0x000000002000ad40       0x50 build/default/production/_ext/1865161661/plib_dmac.o

.bss.dmacChannelObj%13
                0x000000002000ad90       0x50
 .bss.dmacChannelObj
                0x000000002000ad90       0x50 build/default/production/_ext/1865161661/plib_dmac.o

.bss.write_back_section%14
                0x000000002000ade0       0x50
 .bss.write_back_section
                0x000000002000ade0       0x50 build/default/production/_ext/1865161661/plib_dmac.o

.bss.ad9954_driverData%15
                0x000000002000ae30       0x50
 .bss.ad9954_driverData
                0x000000002000ae30       0x50 build/default/production/_ext/1360937237/ad9954_driver.o
                0x000000002000ae30                ad9954_driverData

.bss%16         0x000000002000ae80       0x50
 .bss           0x000000002000ae80       0x50 c:/applications/microchip/xc32/bin/bin/../../lib/gcc/pic32c/8.3.1/../../../../pic32c/lib/thumb/v6-m/nofp\libc-musl.a(libc.o)
                0x000000002000ae80                __progname_full
                0x000000002000ae80                program_invocation_name
                0x000000002000ae84                program_invocation_short_name
                0x000000002000ae84                __progname
                0x000000002000ae88                __sysinfo
                0x000000002000ae8c                __hwcap
                0x000000002000ae90                __libc

.bss.sercom1USARTObj%17
                0x000000002000aed0       0x40
 .bss.sercom1USARTObj
                0x000000002000aed0       0x40 build/default/production/_ext/504274921/plib_sercom1_usart.o

.bss.can0DataTx%18
                0x000000002000af10       0x40
 .bss.can0DataTx
                0x000000002000af10       0x40 build/default/production/_ext/1360937237/can0_driver.o
                0x000000002000af10                can0DataTx

.bss.gDrvI2CObj%19
                0x000000002000af50       0x3c
 .bss.gDrvI2CObj
                0x000000002000af50       0x3c build/default/production/_ext/158385033/drv_i2c.o

.bss.sercom0USARTObj%20
                0x000000002000af8c       0x30
 .bss.sercom0USARTObj
                0x000000002000af8c       0x30 build/default/production/_ext/504274921/plib_sercom0_usart.o

.bss.gSystemCounterObj%21
                0x000000002000afc0       0x30
 .bss.gSystemCounterObj
                0x000000002000afc0       0x30 build/default/production/_ext/101884895/sys_time.o

.bss.sercom3I2CObj%22
                0x000000002000aff0       0x2c
 .bss.sercom3I2CObj
                0x000000002000aff0       0x2c build/default/production/_ext/508257091/plib_sercom3_i2c_master.o

.bss.sercom2SPIObj%23
                0x000000002000b01c       0x2c
 .bss.sercom2SPIObj
                0x000000002000b01c       0x2c build/default/production/_ext/17022449/plib_sercom2_spi_master.o

.bss.drvI2C0TransferObj%24
                0x000000002000b048       0x2c
 .bss.drvI2C0TransferObj
                0x000000002000b048       0x2c build/default/production/_ext/1171490990/initialization.o

.bss.drvSPI0ClientObjPool%25
                0x000000002000b074       0x28
 .bss.drvSPI0ClientObjPool
                0x000000002000b074       0x28 build/default/production/_ext/1171490990/initialization.o

.bss.mcp9808_driverData%26
                0x000000002000b09c       0x28
 .bss.mcp9808_driverData
                0x000000002000b09c       0x28 build/default/production/_ext/1360937237/mcp9808_driver.o
                0x000000002000b09c                mcp9808_driverData

.bss.drvSPI0TransferObjPool%27
                0x000000002000b0c4       0x24
 .bss.drvSPI0TransferObjPool
                0x000000002000b0c4       0x24 build/default/production/_ext/1171490990/initialization.o

.bss.drvUSART0BufferObjPool%28
                0x000000002000b0e8       0x24
 .bss.drvUSART0BufferObjPool
                0x000000002000b0e8       0x24 build/default/production/_ext/1171490990/initialization.o

.bss.hdc302x_driverData%29
                0x000000002000b10c       0x24
 .bss.hdc302x_driverData
                0x000000002000b10c       0x24 build/default/production/_ext/1360937237/hdc302x_driver.o
                0x000000002000b10c                hdc302x_driverData

.bss.hdc302x_sensorData%30
                0x000000002000b130       0x24
 .bss.hdc302x_sensorData
                0x000000002000b130       0x24 build/default/production/_ext/1360937237/hdc302x_driver.o
                0x000000002000b130                hdc302x_sensorData

.bss.sen6x_driverData%31
                0x000000002000b154       0x24
 .bss.sen6x_driverData
                0x000000002000b154       0x24 build/default/production/_ext/1360937237/sen6x_driver.o
                0x000000002000b154                sen6x_driverData

.bss.sht4x_driverData%32
                0x000000002000b178       0x20
 .bss.sht4x_driverData
                0x000000002000b178       0x20 build/default/production/_ext/1360937237/sht4x_driver.o
                0x000000002000b178                sht4x_driverData

.bss.bme690_driverData%33
                0x000000002000b198       0x20
 .bss.bme690_driverData
                0x000000002000b198       0x20 build/default/production/_ext/1360937237/bme690_driver.o
                0x000000002000b198                bme690_driverData

.bss%34         0x000000002000b1b8       0x1c
 .bss           0x000000002000b1b8       0x1c c:/applications/microchip/xc32/bin/bin/../../lib/gcc/pic32c/8.3.1/thumb/v6-m/nofp/crtbegin.o

.bss.can0Obj%35
                0x000000002000b1d4       0x1c
 .bss.can0Obj   0x000000002000b1d4       0x1c build/default/production/_ext/60165182/plib_can0.o

.bss.drvI2C0ClientObjPool%36
                0x000000002000b1f0       0x18
 .bss.drvI2C0ClientObjPool
                0x000000002000b1f0       0x18 build/default/production/_ext/1171490990/initialization.o

.bss.sysObj%37  0x000000002000b208       0x14
 .bss.sysObj    0x000000002000b208       0x14 build/default/production/_ext/1171490990/initialization.o
                0x000000002000b208                sysObj

.bss.sht4x_sensorData%38
                0x000000002000b21c       0x14
 .bss.sht4x_sensorData
                0x000000002000b21c       0x14 build/default/production/_ext/1360937237/sht4x_driver.o
                0x000000002000b21c                sht4x_sensorData

.bss.drvUSART0ClientObjPool%39
                0x000000002000b230       0x10
 .bss.drvUSART0ClientObjPool
                0x000000002000b230       0x10 build/default/production/_ext/1171490990/initialization.o

.bss.mcp9808_sensorData%40
                0x000000002000b240       0x10
 .bss.mcp9808_sensorData
                0x000000002000b240       0x10 build/default/production/_ext/1360937237/mcp9808_driver.o
                0x000000002000b240                mcp9808_sensorData

.bss.timer_driverData%41
                0x000000002000b250       0x10
 .bss.timer_driverData
                0x000000002000b250       0x10 build/default/production/_ext/1360937237/timer_driver.o
                0x000000002000b250                timer_driverData

.bss.rtcObj%42  0x000000002000b260        0xc
 .bss.rtcObj    0x000000002000b260        0xc build/default/production/_ext/60180175/plib_rtc_clock.o

.bss.consoleDeviceInstance%43
                0x000000002000b26c        0xc
 .bss.consoleDeviceInstance
                0x000000002000b26c        0xc build/default/production/_ext/1832805299/sys_console.o

.bss.console_driverData%44
                0x000000002000b278        0xc
 .bss.console_driverData
                0x000000002000b278        0xc build/default/production/_ext/1360937237/console_driver.o
                0x000000002000b278                console_driverData

.bss.systick%45
                0x000000002000b284        0xc
 .bss.systick   0x000000002000b284        0xc build/default/production/_ext/1827571544/plib_systick.o

.bss.ADC0_CallbackObject%46
                0x000000002000b290        0x8
 .bss.ADC0_CallbackObject
                0x000000002000b290        0x8 build/default/production/_ext/60163342/plib_adc0.o

.bss.osc32kctrlObj%47
                0x000000002000b298        0x8
 .bss.osc32kctrlObj
                0x000000002000b298        0x8 build/default/production/_ext/1984496892/plib_clock.o

.bss.TC0_CallbackObject%48
                0x000000002000b2a0        0x8
 .bss.TC0_CallbackObject
                0x000000002000b2a0        0x8 build/default/production/_ext/829342655/plib_tc0.o

.bss.gConsoleUartData%49
                0x000000002000b2a8        0x8
 .bss.gConsoleUartData
                0x000000002000b2a8        0x8 build/default/production/_ext/1832805299/sys_console_uart.o

.bss.ntc_sensorData%50
                0x000000002000b2b0        0x8
 .bss.ntc_sensorData
                0x000000002000b2b0        0x8 build/default/production/_ext/1360937237/ntc_driver.o
                0x000000002000b2b0                ntc_sensorData

.bss.appData%51
                0x000000002000b2b8        0x5
 .bss.appData   0x000000002000b2b8        0x5 build/default/production/_ext/1360937237/app.o
                0x000000002000b2b8                appData

.bss.txDummyData%52
                0x000000002000afbc        0x4
 .bss.txDummyData
                0x000000002000afbc        0x4 build/default/production/_ext/2070931557/drv_spi.o

.bss.rstc_driverData%53
                0x000000002000b2c0        0x4
 .bss.rstc_driverData
                0x000000002000b2c0        0x4 build/default/production/_ext/1360937237/rstc_driver.o
                0x000000002000b2c0                rstc_driverData

.bss.ntc_driverData%54
                0x000000002000b2c4        0x4
 .bss.ntc_driverData
                0x000000002000b2c4        0x4 build/default/production/_ext/1360937237/ntc_driver.o
                0x000000002000b2c4                ntc_driverData

.bss%55         0x000000002000b2c8        0x4
 .bss           0x000000002000b2c8        0x4 c:/applications/microchip/xc32/bin/bin/../../lib/gcc/pic32c/8.3.1/../../../../pic32c/lib/thumb/v6-m/nofp\libpic32c.a(data_init.o)

.bss%56         0x000000002000b2cc        0x4
 .bss           0x000000002000b2cc        0x4 c:/applications/microchip/xc32/bin/bin/../../lib/gcc/pic32c/8.3.1/../../../../pic32c/lib/thumb/v6-m/nofp\libc-musl.a(__environ.o)
                0x000000002000b2cc                __environ
                0x000000002000b2cc                environ
                0x000000002000b2cc                ___environ
                0x000000002000b2cc                _environ

.bss%57         0x000000002000b2d0        0x4
 .bss           0x000000002000b2d0        0x4 c:/applications/microchip/xc32/bin/bin/../../lib/gcc/pic32c/8.3.1/../../../../pic32c/lib/thumb/v6-m/nofp\libc-musl.a(__errno_location.o)
                0x000000002000b2d0                __errno_val

.bss.xm125_driverData%58
                0x000000002000b2d4        0x1
 .bss.xm125_driverData
                0x000000002000b2d4        0x1 build/default/production/_ext/1360937237/xm125_driver.o
                0x000000002000b2d4                xm125_driverData

.bss.fan_driverData%59
                0x000000002000b2d8        0x1
 .bss.fan_driverData
                0x000000002000b2d8        0x1 build/default/production/_ext/1360937237/fan_driver.o
                0x000000002000b2d8                fan_driverData

.bss.isLastByteTransferInProgress.5776%60
                0x000000002000b2bd        0x1
 .bss.isLastByteTransferInProgress.5776
                0x000000002000b2bd        0x1 build/default/production/_ext/17022449/plib_sercom2_spi_master.o

.bss.consolePrintBufferMutex%61
                0x000000002000b2be        0x1
 .bss.consolePrintBufferMutex
                0x000000002000b2be        0x1 build/default/production/_ext/1832805299/sys_console.o

.bss.isConsoleMutexCreated%62
                0x000000002000b2bf        0x1
 .bss.isConsoleMutexCreated
                0x000000002000b2bf        0x1 build/default/production/_ext/1832805299/sys_console.o

.data.gSysTimeTokenCount%63
                0x000000002000b2d6        0x2
 .data.gSysTimeTokenCount
                0x000000002000b2d6        0x2 build/default/production/_ext/101884895/sys_time.o

.eh_frame%z1    0x0000000000000000        0x0
 .eh_frame      0x0000000000000000        0x0 c:/applications/microchip/xc32/bin/bin/../../lib/gcc/pic32c/8.3.1/thumb/v6-m/nofp/crtbegin.o

.config_00804000.__config_00804000%64
                0x0000000000804000        0x4
 .config_00804000.__config_00804000
                0x0000000000804000        0x4 build/default/production/_ext/1171490990/initialization.o
                0x0000000000804000                __config_00804000

.config_00804004.__config_00804004%65
                0x0000000000804004        0x4
 .config_00804004.__config_00804004
                0x0000000000804004        0x4 build/default/production/_ext/1171490990/initialization.o
                0x0000000000804004                __config_00804004

.text.__fmt_fp%66
                0x00000000000000e8      0x4c0
 .text.__fmt_fp
                0x00000000000000e8      0x4c0 c:/applications/microchip/xc32/bin/bin/../../lib/gcc/pic32c/8.3.1/../../../../pic32c/lib/thumb/v6-m/nofp\libc-musl.a(__fmt_fp.o)
                0x00000000000000e8                __fmt_f_needed
                0x00000000000000e8                __fmt_fp

.text.__fmt_a%67
                0x00000000000005a8      0x484
 .text.__fmt_a  0x00000000000005a8      0x484 c:/applications/microchip/xc32/bin/bin/../../lib/gcc/pic32c/8.3.1/../../../../pic32c/lib/thumb/v6-m/nofp\libc-musl.a(__fmt_a.o)
                0x00000000000005a8                __fmt_a_needed
                0x00000000000005a8                __fmt_a

.text.__printf_core%68
                0x0000000000000a2c      0x33c
 .text.__printf_core
                0x0000000000000a2c      0x33c c:/applications/microchip/xc32/bin/bin/../../lib/gcc/pic32c/8.3.1/../../../../pic32c/lib/thumb/v6-m/nofp\libc-musl.a(__printf_core.o)
                0x0000000000000a2c                __printf_core

.text.AD9954_DRIVER_Tasks%69
                0x0000000000000d68      0x2f4
 .text.AD9954_DRIVER_Tasks
                0x0000000000000d68      0x2f4 build/default/production/_ext/1360937237/ad9954_driver.o
                0x0000000000000d68                AD9954_DRIVER_Tasks

.dinit%70       0x000000000000105c      0x2a0
 .dinit         0x000000000000105c      0x2a0 data_init

.text.MCP9808_DRIVER_Tasks%71
                0x00000000000012fc      0x294
 .text.MCP9808_DRIVER_Tasks
                0x00000000000012fc      0x294 build/default/production/_ext/1360937237/mcp9808_driver.o
                0x00000000000012fc                MCP9808_DRIVER_Tasks

.text.lDRV_I2C_WriteReadTransferAdd%72
                0x0000000000001590      0x254
 .text.lDRV_I2C_WriteReadTransferAdd
                0x0000000000001590      0x254 build/default/production/_ext/158385033/drv_i2c.o

.text.FCM360W_DRIVER_Tasks%73
                0x00000000000017e4      0x1f0
 .text.FCM360W_DRIVER_Tasks
                0x00000000000017e4      0x1f0 build/default/production/_ext/1360937237/fcm360w_driver.o
                0x00000000000017e4                FCM360W_DRIVER_Tasks

.text.DRV_SPI_WriteReadTransferAdd%74
                0x00000000000019d4      0x1d8
 .text.DRV_SPI_WriteReadTransferAdd
                0x00000000000019d4      0x1d8 build/default/production/_ext/2070931557/drv_spi.o
                0x00000000000019d4                DRV_SPI_WriteReadTransferAdd

.text.CAN0_DRIVER_Tasks%75
                0x0000000000001bac      0x1d0
 .text.CAN0_DRIVER_Tasks
                0x0000000000001bac      0x1d0 build/default/production/_ext/1360937237/can0_driver.o
                0x0000000000001bac                CAN0_DRIVER_Tasks

.text.__aeabi_dadd%76
                0x0000000000001d7c      0x1c8
 .text.__aeabi_dadd
                0x0000000000001d7c      0x1c8 c:/applications/microchip/xc32/bin/bin/../../lib/gcc/pic32c/8.3.1/../../../../pic32c/lib/thumb/v6-m/nofp\libm-fast-emfloat.a(__aeabi_dadd.o)
                0x0000000000001d7c                __aeabi_dadd
                0x0000000000001d82                .L__aeabi_dadd_fast_entry

.text.SERCOM3_I2C_InterruptHandler%77
                0x0000000000001f44      0x1bc
 .text.SERCOM3_I2C_InterruptHandler
                0x0000000000001f44      0x1bc build/default/production/_ext/508257091/plib_sercom3_i2c_master.o
                0x0000000000001f44                SERCOM3_I2C_InterruptHandler

.text.CLOCK_Initialize%78
                0x0000000000002100      0x1b8
 .text.CLOCK_Initialize
                0x0000000000002100      0x1b8 build/default/production/_ext/1984496892/plib_clock.o
                0x0000000000002100                CLOCK_Initialize

.text.SHT4X_DRIVER_Tasks%79
                0x00000000000022b8      0x1b0
 .text.SHT4X_DRIVER_Tasks
                0x00000000000022b8      0x1b0 build/default/production/_ext/1360937237/sht4x_driver.o
                0x00000000000022b8                SHT4X_DRIVER_Tasks

.text.lDRV_SPI_StartDMATransfer%80
                0x0000000000002468      0x1a0
 .text.lDRV_SPI_StartDMATransfer
                0x0000000000002468      0x1a0 build/default/production/_ext/2070931557/drv_spi.o

.text.__aeabi_dmul_aux%81
                0x0000000000002608      0x18a
 .text.__aeabi_dmul_aux
                0x0000000000002608      0x18a c:/applications/microchip/xc32/bin/bin/../../lib/gcc/pic32c/8.3.1/../../../../pic32c/lib/thumb/v6-m/nofp\libm-fast-emfloat.a(__aeabi_dmul_aux.o)
                0x0000000000002608                __aeabi_dmul_aux
                0x0000000000002640                __aeabi_dmul

.text.lDRV_USART_BufferAdd%82
                0x0000000000002794      0x180
 .text.lDRV_USART_BufferAdd
                0x0000000000002794      0x180 build/default/production/_ext/869808652/drv_usart.o

.text.SERCOM2_SPI_WriteRead%83
                0x0000000000002914      0x178
 .text.SERCOM2_SPI_WriteRead
                0x0000000000002914      0x178 build/default/production/_ext/17022449/plib_sercom2_spi_master.o
                0x0000000000002914                SERCOM2_SPI_WriteRead

.text.lDRV_SPI_RX_DMA_CallbackHandler%84
                0x0000000000002a8c      0x15c
 .text.lDRV_SPI_RX_DMA_CallbackHandler
                0x0000000000002a8c      0x15c build/default/production/_ext/2070931557/drv_spi.o

.text.SERCOM2_SPI_InterruptHandler%85
                0x0000000000002be8      0x154
 .text.SERCOM2_SPI_InterruptHandler
                0x0000000000002be8      0x154 build/default/production/_ext/17022449/plib_sercom2_spi_master.o
                0x0000000000002be8                SERCOM2_SPI_InterruptHandler

.text.SERCOM0_USART_SerialSetup%86
                0x0000000000002d3c      0x148
 .text.SERCOM0_USART_SerialSetup
                0x0000000000002d3c      0x148 build/default/production/_ext/504274921/plib_sercom0_usart.o
                0x0000000000002d3c                SERCOM0_USART_SerialSetup

.text.__aeabi_fadd%87
                0x0000000000002e84      0x13a
 .text.__aeabi_fadd
                0x0000000000002e84      0x13a c:/applications/microchip/xc32/bin/bin/../../lib/gcc/pic32c/8.3.1/../../../../pic32c/lib/thumb/v6-m/nofp\libm-fast-emfloat.a(__aeabi_fadd.o)
                0x0000000000002e84                __aeabi_fadd
                0x0000000000002e88                .L__aeabi_fadd_fast_entry

.text.__fmt_x%88
                0x0000000000002fbe      0x132
 .text.__fmt_x  0x0000000000002fbe      0x132 c:/applications/microchip/xc32/bin/bin/../../lib/gcc/pic32c/8.3.1/../../../../pic32c/lib/thumb/v6-m/nofp\libc-musl.a(__fmt_x.o)
                0x0000000000002fbe                __fmt_x_needed
                0x0000000000002fbe                __fmt_x

.text.APP_Tasks%89
                0x00000000000030f0      0x110
 .text.APP_Tasks
                0x00000000000030f0      0x110 build/default/production/_ext/1360937237/app.o
                0x00000000000030f0                APP_Tasks

.text.SERCOM3_I2C_TransferSetup%90
                0x0000000000003200      0x10c
 .text.SERCOM3_I2C_TransferSetup
                0x0000000000003200      0x10c build/default/production/_ext/508257091/plib_sercom3_i2c_master.o
                0x0000000000003200                SERCOM3_I2C_TransferSetup

.text.RSTC_DRIVER_Tasks%91
                0x000000000000330c      0x108
 .text.RSTC_DRIVER_Tasks
                0x000000000000330c      0x108 build/default/production/_ext/1360937237/rstc_driver.o
                0x000000000000330c                RSTC_DRIVER_Tasks

.text.DRV_SPI_Open%92
                0x0000000000003414      0x104
 .text.DRV_SPI_Open
                0x0000000000003414      0x104 build/default/production/_ext/2070931557/drv_spi.o
                0x0000000000003414                DRV_SPI_Open

.text.SERCOM1_USART_Write%93
                0x0000000000003518      0x104
 .text.SERCOM1_USART_Write
                0x0000000000003518      0x104 build/default/production/_ext/504274921/plib_sercom1_usart.o
                0x0000000000003518                SERCOM1_USART_Write

.text.DRV_I2C_Open%94
                0x000000000000361c      0x100
 .text.DRV_I2C_Open
                0x000000000000361c      0x100 build/default/production/_ext/158385033/drv_i2c.o
                0x000000000000361c                DRV_I2C_Open

.text.SYS_Initialize%95
                0x000000000000371c      0x100
 .text.SYS_Initialize
                0x000000000000371c      0x100 build/default/production/_ext/1171490990/initialization.o
                0x000000000000371c                SYS_Initialize

.text.DRV_USART_Open%96
                0x000000000000381c       0xf8
 .text.DRV_USART_Open
                0x000000000000381c       0xf8 build/default/production/_ext/869808652/drv_usart.o
                0x000000000000381c                DRV_USART_Open

.text.lDRV_USART_BufferQueueTask%97
                0x0000000000003914       0xf4
 .text.lDRV_USART_BufferQueueTask
                0x0000000000003914       0xf4 build/default/production/_ext/869808652/drv_usart.o

.text.SERCOM1_USART_ISR_RX_Handler%98
                0x0000000000003a08       0xec
 .text.SERCOM1_USART_ISR_RX_Handler
                0x0000000000003a08       0xec build/default/production/_ext/504274921/plib_sercom1_usart.o

.text%99        0x0000000000003af4       0xe2
 .text          0x0000000000003af4       0xe2 c:/applications/microchip/xc32/bin/bin/../../lib/gcc/pic32c/8.3.1/thumb/v6-m/nofp\libgcc.a(_udivmoddi4.o)
                0x0000000000003af4                __udivmoddi4

.text.SERCOM1_USART_ISR_TX_Handler%100
                0x0000000000003bd8       0xe0
 .text.SERCOM1_USART_ISR_TX_Handler
                0x0000000000003bd8       0xe0 build/default/production/_ext/504274921/plib_sercom1_usart.o

.text.lDRV_SPI_PlibCallbackHandler%101
                0x0000000000003cb8       0xdc
 .text.lDRV_SPI_PlibCallbackHandler
                0x0000000000003cb8       0xdc build/default/production/_ext/2070931557/drv_spi.o

.text.NVIC_Initialize%102
                0x0000000000003d94       0xdc
 .text.NVIC_Initialize
                0x0000000000003d94       0xdc build/default/production/_ext/1865468468/plib_nvic.o
                0x0000000000003d94                NVIC_Initialize

.text.lDRV_SPI_UpdateTransferSetupAndAssertCS%103
                0x0000000000003e70       0xd0
 .text.lDRV_SPI_UpdateTransferSetupAndAssertCS
                0x0000000000003e70       0xd0 build/default/production/_ext/2070931557/drv_spi.o

.text.DMAC_Initialize%104
                0x0000000000003f40       0xd0
 .text.DMAC_Initialize
                0x0000000000003f40       0xd0 build/default/production/_ext/1865161661/plib_dmac.o
                0x0000000000003f40                DMAC_Initialize

.text.SYS_TIME_AddToList%105
                0x0000000000004010       0xd0
 .text.SYS_TIME_AddToList
                0x0000000000004010       0xd0 build/default/production/_ext/101884895/sys_time.o

.text.SYS_TIME_PLIBCallback%106
                0x00000000000040e0       0xd0
 .text.SYS_TIME_PLIBCallback
                0x00000000000040e0       0xd0 build/default/production/_ext/101884895/sys_time.o

.text.DRV_USART_Initialize%107
                0x00000000000041b0       0xcc
 .text.DRV_USART_Initialize
                0x00000000000041b0       0xcc build/default/production/_ext/869808652/drv_usart.o
                0x00000000000041b0                DRV_USART_Initialize

.text.CAN0_MessageReceiveFifo%108
                0x000000000000427c       0xcc
 .text.CAN0_MessageReceiveFifo
                0x000000000000427c       0xcc build/default/production/_ext/60165182/plib_can0.o
                0x000000000000427c                CAN0_MessageReceiveFifo

.text.Reset_Handler%109
                0x0000000000004348       0xcc
 .text.Reset_Handler
                0x0000000000004348       0xcc build/default/production/_ext/1171490990/startup_xc32.o
                0x0000000000004348                Reset_Handler

.text.lDRV_USART_ResourceLock%110
                0x0000000000004414       0xca
 .text.lDRV_USART_ResourceLock
                0x0000000000004414       0xca build/default/production/_ext/869808652/drv_usart.o

.text.DMAC_ChannelTransfer%111
                0x00000000000044e0       0xc8
 .text.DMAC_ChannelTransfer
                0x00000000000044e0       0xc8 build/default/production/_ext/1865161661/plib_dmac.o
                0x00000000000044e0                DMAC_ChannelTransfer

.text.lDRV_SPI_ResourceLock%112
                0x00000000000045a8       0xc6
 .text.lDRV_SPI_ResourceLock
                0x00000000000045a8       0xc6 build/default/production/_ext/2070931557/drv_spi.o

.text.DRV_SPI_Close%113
                0x0000000000004670       0xc4
 .text.DRV_SPI_Close
                0x0000000000004670       0xc4 build/default/production/_ext/2070931557/drv_spi.o
                0x0000000000004670                DRV_SPI_Close

.text.__aeabi_ddiv%114
                0x0000000000004734       0xc4
 .text.__aeabi_ddiv
                0x0000000000004734       0xc4 c:/applications/microchip/xc32/bin/bin/../../lib/gcc/pic32c/8.3.1/../../../../pic32c/lib/thumb/v6-m/nofp\libm-fast-emfloat.a(__aeabi_ddiv.o)
                0x0000000000004734                __aeabi_ddiv

.text.lDRV_I2C_NextTransferInitiate%115
                0x00000000000047f8       0xc0
 .text.lDRV_I2C_NextTransferInitiate
                0x00000000000047f8       0xc0 build/default/production/_ext/158385033/drv_i2c.o

.text.SYS_TIME_TimerObjectCreate%116
                0x00000000000048b8       0xc0
 .text.SYS_TIME_TimerObjectCreate
                0x00000000000048b8       0xc0 build/default/production/_ext/101884895/sys_time.o

.text.lDRV_USART_ResourceUnlock%117
                0x0000000000004978       0xbe
 .text.lDRV_USART_ResourceUnlock
                0x0000000000004978       0xbe build/default/production/_ext/869808652/drv_usart.o

.text.__pop_int%118
                0x0000000000004a36       0xbe
 .text.__pop_int
                0x0000000000004a36       0xbe c:/applications/microchip/xc32/bin/bin/../../lib/gcc/pic32c/8.3.1/../../../../pic32c/lib/thumb/v6-m/nofp\libc-musl.a(__pop_int.o)
                0x0000000000004a36                __pop_int_needed
                0x0000000000004a36                __pop_int

.text.__aeabi_fmul%119
                0x0000000000004af4       0xb6
 .text.__aeabi_fmul
                0x0000000000004af4       0xb6 c:/applications/microchip/xc32/bin/bin/../../lib/gcc/pic32c/8.3.1/../../../../pic32c/lib/thumb/v6-m/nofp\libm-fast-emfloat.a(__aeabi_fmul.o)
                0x0000000000004af4                __aeabi_fmul

.text.lDRV_SPI_ResourceUnlock%120
                0x0000000000004baa       0xb4
 .text.lDRV_SPI_ResourceUnlock
                0x0000000000004baa       0xb4 build/default/production/_ext/2070931557/drv_spi.o

.text.EIC_Initialize%121
                0x0000000000004c60       0xb4
 .text.EIC_Initialize
                0x0000000000004c60       0xb4 build/default/production/_ext/60167341/plib_eic.o
                0x0000000000004c60                EIC_Initialize

.text.floor%122
                0x0000000000004d14       0xb4
 .text.floor    0x0000000000004d14       0xb4 c:/applications/microchip/xc32/bin/bin/../../lib/gcc/pic32c/8.3.1/../../../../pic32c/lib/thumb/v6-m/nofp\libm-fast-emfloat.a(floor.o)
                0x0000000000004d14                floor

.text.__fmt_d%123
                0x0000000000004dc8       0xb2
 .text.__fmt_d  0x0000000000004dc8       0xb2 c:/applications/microchip/xc32/bin/bin/../../lib/gcc/pic32c/8.3.1/../../../../pic32c/lib/thumb/v6-m/nofp\libc-musl.a(__fmt_d.o)
                0x0000000000004dc8                __fmt_d
                0x0000000000004dc8                __fmt_d_needed

.text.DRV_SPI_Initialize%124
                0x0000000000004e7c       0xb0
 .text.DRV_SPI_Initialize
                0x0000000000004e7c       0xb0 build/default/production/_ext/2070931557/drv_spi.o
                0x0000000000004e7c                DRV_SPI_Initialize

.text%125       0x0000000000004f2c       0xa8
 .text          0x0000000000004f2c       0xa8 c:/applications/microchip/xc32/bin/bin/../../lib/gcc/pic32c/8.3.1/thumb/v6-m/nofp\libgcc.a(_divsi3.o)
                0x0000000000004f2c                __divsi3
                0x0000000000004f2c                __aeabi_idiv
                0x0000000000004fc0                __aeabi_idivmod

.text.SERCOM2_SPI_TransferSetup%126
                0x0000000000004fd4       0xa0
 .text.SERCOM2_SPI_TransferSetup
                0x0000000000004fd4       0xa0 build/default/production/_ext/17022449/plib_sercom2_spi_master.o
                0x0000000000004fd4                SERCOM2_SPI_TransferSetup

.text.CAN0_MessageRAMConfigSet%127
                0x0000000000005074       0x9c
 .text.CAN0_MessageRAMConfigSet
                0x0000000000005074       0x9c build/default/production/_ext/60165182/plib_can0.o
                0x0000000000005074                CAN0_MessageRAMConfigSet

.text.SERCOM1_USART_Read%128
                0x0000000000005110       0x94
 .text.SERCOM1_USART_Read
                0x0000000000005110       0x94 build/default/production/_ext/504274921/plib_sercom1_usart.o
                0x0000000000005110                SERCOM1_USART_Read

.text.__aeabi_fdiv%129
                0x00000000000051a4       0x94
 .text.__aeabi_fdiv
                0x00000000000051a4       0x94 c:/applications/microchip/xc32/bin/bin/../../lib/gcc/pic32c/8.3.1/../../../../pic32c/lib/thumb/v6-m/nofp\libm-fast-emfloat.a(__aeabi_fdiv.o)
                0x00000000000051a4                __aeabi_fdiv

.text%130       0x0000000000005238       0x8c
 .text          0x0000000000005238       0x8c c:/applications/microchip/xc32/bin/bin/../../lib/gcc/pic32c/8.3.1/thumb/v6-m/nofp\libgcc.a(_udivsi3.o)
                0x0000000000005238                __aeabi_uidiv
                0x0000000000005238                __udivsi3
                0x00000000000052b0                __aeabi_uidivmod

.text.lDRV_I2C_ResourceLock%131
                0x00000000000052c4       0x8a
 .text.lDRV_I2C_ResourceLock
                0x00000000000052c4       0x8a build/default/production/_ext/158385033/drv_i2c.o

.text.SERCOM1_USART_Initialize%132
                0x0000000000005350       0x88
 .text.SERCOM1_USART_Initialize
                0x0000000000005350       0x88 build/default/production/_ext/504274921/plib_sercom1_usart.o
                0x0000000000005350                SERCOM1_USART_Initialize

.text.SERCOM0_USART_ISR_TX_Handler%133
                0x00000000000053d8       0x84
 .text.SERCOM0_USART_ISR_TX_Handler
                0x00000000000053d8       0x84 build/default/production/_ext/504274921/plib_sercom0_usart.o

.text.DRV_USART_Close%134
                0x000000000000545c       0x80
 .text.DRV_USART_Close
                0x000000000000545c       0x80 build/default/production/_ext/869808652/drv_usart.o
                0x000000000000545c                DRV_USART_Close

.text.NTC_DRIVER_Tasks%135
                0x00000000000054dc       0x80
 .text.NTC_DRIVER_Tasks
                0x00000000000054dc       0x80 build/default/production/_ext/1360937237/ntc_driver.o
                0x00000000000054dc                NTC_DRIVER_Tasks

.text.WS281X_DRIVER_Set_LED_Strip_Data%136
                0x000000000000555c       0x80
 .text.WS281X_DRIVER_Set_LED_Strip_Data
                0x000000000000555c       0x80 build/default/production/_ext/1360937237/ws281x_driver.o
                0x000000000000555c                WS281X_DRIVER_Set_LED_Strip_Data

.text.lDRV_I2C_ResourceUnlock%137
                0x00000000000055dc       0x7c
 .text.lDRV_I2C_ResourceUnlock
                0x00000000000055dc       0x7c build/default/production/_ext/158385033/drv_i2c.o

.text.DMAC_InterruptHandler%138
                0x0000000000005658       0x7c
 .text.DMAC_InterruptHandler
                0x0000000000005658       0x7c build/default/production/_ext/1865161661/plib_dmac.o
                0x0000000000005658                DMAC_InterruptHandler

.text.WS281X_DRIVER_Tasks%139
                0x00000000000056d4       0x7c
 .text.WS281X_DRIVER_Tasks
                0x00000000000056d4       0x7c build/default/production/_ext/1360937237/ws281x_driver.o
                0x00000000000056d4                WS281X_DRIVER_Tasks

.text.__pad%140
                0x0000000000005750       0x7a
 .text.__pad    0x0000000000005750       0x7a c:/applications/microchip/xc32/bin/bin/../../lib/gcc/pic32c/8.3.1/../../../../pic32c/lib/thumb/v6-m/nofp\libc-musl.a(__printf_core.o)
                0x0000000000005750                __pad

.text.CAN0_MessageTransmitFifo%141
                0x00000000000057cc       0x78
 .text.CAN0_MessageTransmitFifo
                0x00000000000057cc       0x78 build/default/production/_ext/60165182/plib_can0.o
                0x00000000000057cc                CAN0_MessageTransmitFifo

.text.SYS_CONSOLE_Print%142
                0x0000000000005844       0x78
 .text.SYS_CONSOLE_Print
                0x0000000000005844       0x78 build/default/production/_ext/1832805299/sys_console.o
                0x0000000000005844                SYS_CONSOLE_Print

.text.BME690_DRIVER_Tasks%143
                0x00000000000058bc       0x78
 .text.BME690_DRIVER_Tasks
                0x00000000000058bc       0x78 build/default/production/_ext/1360937237/bme690_driver.o
                0x00000000000058bc                BME690_DRIVER_Tasks

.text.HDC302X_DRIVER_Tasks%144
                0x0000000000005934       0x78
 .text.HDC302X_DRIVER_Tasks
                0x0000000000005934       0x78 build/default/production/_ext/1360937237/hdc302x_driver.o
                0x0000000000005934                HDC302X_DRIVER_Tasks

.text.SEN6X_DRIVER_Tasks%145
                0x00000000000059ac       0x78
 .text.SEN6X_DRIVER_Tasks
                0x00000000000059ac       0x78 build/default/production/_ext/1360937237/sen6x_driver.o
                0x00000000000059ac                SEN6X_DRIVER_Tasks

.text.__cvt_u%146
                0x0000000000005a24       0x76
 .text.__cvt_u  0x0000000000005a24       0x76 c:/applications/microchip/xc32/bin/bin/../../lib/gcc/pic32c/8.3.1/../../../../pic32c/lib/thumb/v6-m/nofp\libc-musl.a(__cvt_u.o)
                0x0000000000005a24                __cvt_u

.text.DRV_I2C_Close%147
                0x0000000000005a9c       0x74
 .text.DRV_I2C_Close
                0x0000000000005a9c       0x74 build/default/production/_ext/158385033/drv_i2c.o
                0x0000000000005a9c                DRV_I2C_Close

.text.SERCOM0_USART_Write%148
                0x0000000000005b10       0x74
 .text.SERCOM0_USART_Write
                0x0000000000005b10       0x74 build/default/production/_ext/504274921/plib_sercom0_usart.o
                0x0000000000005b10                SERCOM0_USART_Write

.text.CAN0_DRIVER_Get_Received_Data%149
                0x0000000000005b84       0x74
 .text.CAN0_DRIVER_Get_Received_Data
                0x0000000000005b84       0x74 build/default/production/_ext/1360937237/can0_driver.o
                0x0000000000005b84                CAN0_DRIVER_Get_Received_Data

.text.RTC_DRIVER_Tasks%150
                0x0000000000005bf8       0x74
 .text.RTC_DRIVER_Tasks
                0x0000000000005bf8       0x74 build/default/production/_ext/1360937237/rtc_driver.o
                0x0000000000005bf8                RTC_DRIVER_Tasks

.text.SERCOM0_USART_ISR_RX_Handler%151
                0x0000000000005c6c       0x70
 .text.SERCOM0_USART_ISR_RX_Handler
                0x0000000000005c6c       0x70 build/default/production/_ext/504274921/plib_sercom0_usart.o

.text.__fmt_o%152
                0x0000000000005cdc       0x6e
 .text.__fmt_o  0x0000000000005cdc       0x6e c:/applications/microchip/xc32/bin/bin/../../lib/gcc/pic32c/8.3.1/../../../../pic32c/lib/thumb/v6-m/nofp\libc-musl.a(__fmt_o.o)
                0x0000000000005cdc                __fmt_o
                0x0000000000005cdc                __fmt_o_needed

.text.DRV_I2C_Initialize%153
                0x0000000000005d4c       0x6c
 .text.DRV_I2C_Initialize
                0x0000000000005d4c       0x6c build/default/production/_ext/158385033/drv_i2c.o
                0x0000000000005d4c                DRV_I2C_Initialize

.text.CAN0_Initialize%154
                0x0000000000005db8       0x6c
 .text.CAN0_Initialize
                0x0000000000005db8       0x6c build/default/production/_ext/60165182/plib_can0.o
                0x0000000000005db8                CAN0_Initialize

.text.SYS_TIME_Initialize%155
                0x0000000000005e24       0x6c
 .text.SYS_TIME_Initialize
                0x0000000000005e24       0x6c build/default/production/_ext/101884895/sys_time.o
                0x0000000000005e24                SYS_TIME_Initialize

.text.__pop_ptr%156
                0x0000000000005e90       0x68
 .text.__pop_ptr
                0x0000000000005e90       0x68 c:/applications/microchip/xc32/bin/bin/../../lib/gcc/pic32c/8.3.1/../../../../pic32c/lib/thumb/v6-m/nofp\libc-musl.a(__pop_ptr.o)
                0x0000000000005e90                __pop_ptr
                0x0000000000005e90                __pop_ptr_needed

.text.lDRV_USART_ReadSubmit%157
                0x0000000000005ef8       0x66
 .text.lDRV_USART_ReadSubmit
                0x0000000000005ef8       0x66 build/default/production/_ext/869808652/drv_usart.o

.rodata.MCP9808_DRIVER_Tasks%158
                0x0000000000005f60       0x64
 .rodata.MCP9808_DRIVER_Tasks
                0x0000000000005f60       0x64 build/default/production/_ext/1360937237/mcp9808_driver.o

.text.TIMER_DRIVER_Initialize%159
                0x0000000000005fc4       0x64
 .text.TIMER_DRIVER_Initialize
                0x0000000000005fc4       0x64 build/default/production/_ext/1360937237/timer_driver.o
                0x0000000000005fc4                TIMER_DRIVER_Initialize

.text.vsnprintf%160
                0x0000000000006028       0x64
 .text.vsnprintf
                0x0000000000006028       0x64 c:/applications/microchip/xc32/bin/bin/../../lib/gcc/pic32c/8.3.1/../../../../pic32c/lib/thumb/v6-m/nofp\libc-musl.a(vsnprintf.o)
                0x0000000000006028                vsnprintf

.text.__aeabi_d2f%161
                0x000000000000608c       0x62
 .text.__aeabi_d2f
                0x000000000000608c       0x62 c:/applications/microchip/xc32/bin/bin/../../lib/gcc/pic32c/8.3.1/../../../../pic32c/lib/thumb/v6-m/nofp\libm-fast-emfloat.a(__aeabi_d2f.o)
                0x000000000000608c                __aeabi_d2f

.text.lDRV_USART_WriteSubmit%162
                0x00000000000060ee       0x60
 .text.lDRV_USART_WriteSubmit
                0x00000000000060ee       0x60 build/default/production/_ext/869808652/drv_usart.o

.text.EIC_InterruptHandler%163
                0x0000000000006150       0x60
 .text.EIC_InterruptHandler
                0x0000000000006150       0x60 build/default/production/_ext/60167341/plib_eic.o
                0x0000000000006150                EIC_InterruptHandler

.text.RTC_RTCCTimeGet%164
                0x00000000000061b0       0x60
 .text.RTC_RTCCTimeGet
                0x00000000000061b0       0x60 build/default/production/_ext/60180175/plib_rtc_clock.o
                0x00000000000061b0                RTC_RTCCTimeGet

.text.SERCOM3_I2C_Initialize%165
                0x0000000000006210       0x60
 .text.SERCOM3_I2C_Initialize
                0x0000000000006210       0x60 build/default/production/_ext/508257091/plib_sercom3_i2c_master.o
                0x0000000000006210                SERCOM3_I2C_Initialize

.text.CONSOLE_DRIVER_Tasks%166
                0x0000000000006270       0x60
 .text.CONSOLE_DRIVER_Tasks
                0x0000000000006270       0x60 build/default/production/_ext/1360937237/console_driver.o
                0x0000000000006270                CONSOLE_DRIVER_Tasks

.text.__strchrnul%167
                0x00000000000062d0       0x60
 .text.__strchrnul
                0x00000000000062d0       0x60 c:/applications/microchip/xc32/bin/bin/../../lib/gcc/pic32c/8.3.1/../../../../pic32c/lib/thumb/v6-m/nofp\libc-size-musl.a(strchrnul.o)
                0x00000000000062d0                strchrnul
                0x00000000000062d0                __strchrnul

.text.SYS_CONSOLE_Initialize%168
                0x0000000000006330       0x5c
 .text.SYS_CONSOLE_Initialize
                0x0000000000006330       0x5c build/default/production/_ext/1832805299/sys_console.o
                0x0000000000006330                SYS_CONSOLE_Initialize

.text.__libc_start_init%169
                0x000000000000638c       0x5c
 .text.__libc_start_init
                0x000000000000638c       0x5c c:/applications/microchip/xc32/bin/bin/../../lib/gcc/pic32c/8.3.1/../../../../pic32c/lib/thumb/v6-m/nofp\libc-musl.a(__libc_start_main.o)
                0x000000000000638c                __libc_init_array

.text.lDRV_I2C_PLibCallbackHandler%170
                0x00000000000063e8       0x58
 .text.lDRV_I2C_PLibCallbackHandler
                0x00000000000063e8       0x58 build/default/production/_ext/158385033/drv_i2c.o

.text.SYS_TIME_CallbackRegisterMS%171
                0x0000000000006440       0x58
 .text.SYS_TIME_CallbackRegisterMS
                0x0000000000006440       0x58 build/default/production/_ext/101884895/sys_time.o
                0x0000000000006440                SYS_TIME_CallbackRegisterMS

.text.__fmt_u%172
                0x0000000000006498       0x56
 .text.__fmt_u  0x0000000000006498       0x56 c:/applications/microchip/xc32/bin/bin/../../lib/gcc/pic32c/8.3.1/../../../../pic32c/lib/thumb/v6-m/nofp\libc-musl.a(__fmt_u.o)
                0x0000000000006498                __fmt_u_needed
                0x0000000000006498                __fmt_u

.text.lDRV_SPI_TX_DMA_CallbackHandler%173
                0x00000000000064f0       0x54
 .text.lDRV_SPI_TX_DMA_CallbackHandler
                0x00000000000064f0       0x54 build/default/production/_ext/2070931557/drv_spi.o

.text.ADC0_Initialize%174
                0x0000000000006544       0x54
 .text.ADC0_Initialize
                0x0000000000006544       0x54 build/default/production/_ext/60163342/plib_adc0.o
                0x0000000000006544                ADC0_Initialize

.text.SERCOM3_I2C_InitiateTransfer%175
                0x0000000000006598       0x54
 .text.SERCOM3_I2C_InitiateTransfer
                0x0000000000006598       0x54 build/default/production/_ext/508257091/plib_sercom3_i2c_master.o

.text.SERCOM1_USART_InterruptHandler%176
                0x00000000000065ec       0x54
 .text.SERCOM1_USART_InterruptHandler
                0x00000000000065ec       0x54 build/default/production/_ext/504274921/plib_sercom1_usart.o
                0x00000000000065ec                SERCOM1_USART_InterruptHandler

.text.SERCOM0_USART_Initialize%177
                0x0000000000006640       0x54
 .text.SERCOM0_USART_Initialize
                0x0000000000006640       0x54 build/default/production/_ext/504274921/plib_sercom0_usart.o
                0x0000000000006640                SERCOM0_USART_Initialize

.text.SERCOM0_USART_InterruptHandler%178
                0x0000000000006694       0x54
 .text.SERCOM0_USART_InterruptHandler
                0x0000000000006694       0x54 build/default/production/_ext/504274921/plib_sercom0_usart.o
                0x0000000000006694                SERCOM0_USART_InterruptHandler

.text.SUPC_Initialize%179
                0x00000000000066e8       0x54
 .text.SUPC_Initialize
                0x00000000000066e8       0x54 build/default/production/_ext/1865616679/plib_supc.o
                0x00000000000066e8                SUPC_Initialize

.text.SYS_TIME_RemoveFromList%180
                0x000000000000673c       0x54
 .text.SYS_TIME_RemoveFromList
                0x000000000000673c       0x54 build/default/production/_ext/101884895/sys_time.o

.text.MCP9808_DRIVER_Calculate_Temperature%181
                0x0000000000006790       0x54
 .text.MCP9808_DRIVER_Calculate_Temperature
                0x0000000000006790       0x54 build/default/production/_ext/1360937237/mcp9808_driver.o
                0x0000000000006790                MCP9808_DRIVER_Calculate_Temperature

.rodata.AD9954_DRIVER_Tasks%182
                0x00000000000067e4       0x50
 .rodata.AD9954_DRIVER_Tasks
                0x00000000000067e4       0x50 build/default/production/_ext/1360937237/ad9954_driver.o

.text.__fmt_s%183
                0x0000000000006834       0x50
 .text.__fmt_s  0x0000000000006834       0x50 c:/applications/microchip/xc32/bin/bin/../../lib/gcc/pic32c/8.3.1/../../../../pic32c/lib/thumb/v6-m/nofp\libc-musl.a(__fmt_s.o)
                0x0000000000006834                __fmt_s
                0x0000000000006834                __fmt_0_needed
                0x0000000000006834                __fmt_s_needed

.text.lDRV_I2C_DriverHandleValidate%184
                0x0000000000006884       0x4c
 .text.lDRV_I2C_DriverHandleValidate
                0x0000000000006884       0x4c build/default/production/_ext/158385033/drv_i2c.o

.text.lDRV_SPI_DriverHandleValidate%185
                0x00000000000068d0       0x4c
 .text.lDRV_SPI_DriverHandleValidate
                0x00000000000068d0       0x4c build/default/production/_ext/2070931557/drv_spi.o

.text.SERCOM1_USART_ISR_ERR_Handler%186
                0x000000000000691c       0x4c
 .text.SERCOM1_USART_ISR_ERR_Handler
                0x000000000000691c       0x4c build/default/production/_ext/504274921/plib_sercom1_usart.o

.text.SYS_TIME_TimerStart%187
                0x0000000000006968       0x4a
 .text.SYS_TIME_TimerStart
                0x0000000000006968       0x4a build/default/production/_ext/101884895/sys_time.o
                0x0000000000006968                SYS_TIME_TimerStart

.text%188       0x00000000000069b4       0x48
 .text          0x00000000000069b4       0x48 c:/applications/microchip/xc32/bin/bin/../../lib/gcc/pic32c/8.3.1/thumb/v6-m/nofp/crtbegin.o

.text.lDRV_I2C_ClientCallback%189
                0x00000000000069fc       0x48
 .text.lDRV_I2C_ClientCallback
                0x00000000000069fc       0x48 build/default/production/_ext/158385033/drv_i2c.o

.text.lDRV_USART_DriverHandleValidate%190
                0x0000000000006a44       0x48
 .text.lDRV_USART_DriverHandleValidate
                0x0000000000006a44       0x48 build/default/production/_ext/869808652/drv_usart.o

.text.SHT4X_DRIVER_Calculation_Temperature%191
                0x0000000000006a8c       0x48
 .text.SHT4X_DRIVER_Calculation_Temperature
                0x0000000000006a8c       0x48 build/default/production/_ext/1360937237/sht4x_driver.o
                0x0000000000006a8c                SHT4X_DRIVER_Calculation_Temperature

.text.strstr%192
                0x0000000000006ad4       0x48
 .text.strstr   0x0000000000006ad4       0x48 c:/applications/microchip/xc32/bin/bin/../../lib/gcc/pic32c/8.3.1/../../../../pic32c/lib/thumb/v6-m/nofp\libc-size-musl.a(strstr.o)
                0x0000000000006ad4                strstr

.text.RTC_Initialize%193
                0x0000000000006b1c       0x44
 .text.RTC_Initialize
                0x0000000000006b1c       0x44 build/default/production/_ext/60180175/plib_rtc_clock.o
                0x0000000000006b1c                RTC_Initialize

.text.SERCOM3_I2C_TransferAbort%194
                0x0000000000006b60       0x44
 .text.SERCOM3_I2C_TransferAbort
                0x0000000000006b60       0x44 build/default/production/_ext/508257091/plib_sercom3_i2c_master.o
                0x0000000000006b60                SERCOM3_I2C_TransferAbort

.text.SERCOM0_USART_Read%195
                0x0000000000006ba4       0x44
 .text.SERCOM0_USART_Read
                0x0000000000006ba4       0x44 build/default/production/_ext/504274921/plib_sercom0_usart.o
                0x0000000000006ba4                SERCOM0_USART_Read

.text.TCC0_PWMInitialize%196
                0x0000000000006be8       0x44
 .text.TCC0_PWMInitialize
                0x0000000000006be8       0x44 build/default/production/_ext/60181570/plib_tcc0.o
                0x0000000000006be8                TCC0_PWMInitialize

.text.SYS_Tasks%197
                0x0000000000006c2c       0x44
 .text.SYS_Tasks
                0x0000000000006c2c       0x44 build/default/production/_ext/1171490990/tasks.o
                0x0000000000006c2c                SYS_Tasks

.text.CAN0_DRIVER_Set_Message_Content%198
                0x0000000000006c70       0x44
 .text.CAN0_DRIVER_Set_Message_Content
                0x0000000000006c70       0x44 build/default/production/_ext/1360937237/can0_driver.o
                0x0000000000006c70                CAN0_DRIVER_Set_Message_Content

.rodata.HDC302X_DRIVER_Print_Data.str1.4%199
                0x0000000000006cb4       0x44
 .rodata.HDC302X_DRIVER_Print_Data.str1.4
                0x0000000000006cb4       0x44 build/default/production/_ext/1360937237/hdc302x_driver.o

.text.__aeabi_f2d%200
                0x0000000000006cf8       0x44
 .text.__aeabi_f2d
                0x0000000000006cf8       0x44 c:/applications/microchip/xc32/bin/bin/../../lib/gcc/pic32c/8.3.1/../../../../pic32c/lib/thumb/v6-m/nofp\libm-fast-emfloat.a(__aeabi_f2d.o)
                0x0000000000006cf8                __aeabi_f2d

.text.__aeabi_dcmple%201
                0x0000000000006d3c       0x44
 .text.__aeabi_dcmple
                0x0000000000006d3c       0x44 c:/applications/microchip/xc32/bin/bin/../../lib/gcc/pic32c/8.3.1/../../../../pic32c/lib/thumb/v6-m/nofp\libm-fast-emfloat.a(__aeabi_dcmple.o)
                0x0000000000006d3c                __aeabi_dcmple

.text%202       0x0000000000006d80       0x44
 .text          0x0000000000006d80       0x44 c:/applications/microchip/xc32/bin/bin/../../lib/gcc/pic32c/8.3.1/thumb/v6-m/nofp\libgcc.a(_muldi3.o)
                0x0000000000006d80                __muldi3
                0x0000000000006d80                __aeabi_lmul

.text.SYS_TIME_GetTimerObject%203
                0x0000000000006dc4       0x40
 .text.SYS_TIME_GetTimerObject
                0x0000000000006dc4       0x40 build/default/production/_ext/101884895/sys_time.o

.text.SYS_TIME_TimerDestroy%204
                0x0000000000006e04       0x40
 .text.SYS_TIME_TimerDestroy
                0x0000000000006e04       0x40 build/default/production/_ext/101884895/sys_time.o
                0x0000000000006e04                SYS_TIME_TimerDestroy

.text.SYS_TIME_TimerStop%205
                0x0000000000006e44       0x40
 .text.SYS_TIME_TimerStop
                0x0000000000006e44       0x40 build/default/production/_ext/101884895/sys_time.o
                0x0000000000006e44                SYS_TIME_TimerStop

.text.FCM360W_DRIVER_Set_QRESET_Command%206
                0x0000000000006e84       0x40
 .text.FCM360W_DRIVER_Set_QRESET_Command
                0x0000000000006e84       0x40 build/default/production/_ext/1360937237/fcm360w_driver.o
                0x0000000000006e84                FCM360W_DRIVER_Set_QRESET_Command

.text.HDC302X_DRIVER_Print_Data%207
                0x0000000000006ec4       0x40
 .text.HDC302X_DRIVER_Print_Data
                0x0000000000006ec4       0x40 build/default/production/_ext/1360937237/hdc302x_driver.o
                0x0000000000006ec4                HDC302X_DRIVER_Print_Data

.text.atoi%208  0x0000000000006f04       0x40
 .text.atoi     0x0000000000006f04       0x40 c:/applications/microchip/xc32/bin/bin/../../lib/gcc/pic32c/8.3.1/../../../../pic32c/lib/thumb/v6-m/nofp\libc-musl.a(atoi.o)
                0x0000000000006f04                atoi

.text%209       0x0000000000006f44       0x40
 .text          0x0000000000006f44       0x40 c:/applications/microchip/xc32/bin/bin/../../lib/gcc/pic32c/8.3.1/thumb/v6-m/nofp\libgcc.a(_aeabi_uldivmod.o)
                0x0000000000006f44                __aeabi_uldivmod

.text.lDRV_USART_RemoveClientTransfersFromList%210
                0x0000000000006f84       0x3e
 .text.lDRV_USART_RemoveClientTransfersFromList
                0x0000000000006f84       0x3e build/default/production/_ext/869808652/drv_usart.o

.text.__aeabi_f2iz%211
                0x0000000000006fc2       0x3e
 .text.__aeabi_f2iz
                0x0000000000006fc2       0x3e c:/applications/microchip/xc32/bin/bin/../../lib/gcc/pic32c/8.3.1/../../../../pic32c/lib/thumb/v6-m/nofp\libm-fast-emfloat.a(__aeabi_f2iz.o)
                0x0000000000006fc2                __aeabi_f2iz

.text.__aeabi_dcmpgt%212
                0x0000000000007000       0x3e
 .text.__aeabi_dcmpgt
                0x0000000000007000       0x3e c:/applications/microchip/xc32/bin/bin/../../lib/gcc/pic32c/8.3.1/../../../../pic32c/lib/thumb/v6-m/nofp\libm-fast-emfloat.a(__aeabi_dcmpgt.o)
                0x0000000000007000                __aeabi_dcmpgt

.text.__aeabi_dcmplt%213
                0x000000000000703e       0x3e
 .text.__aeabi_dcmplt
                0x000000000000703e       0x3e c:/applications/microchip/xc32/bin/bin/../../lib/gcc/pic32c/8.3.1/../../../../pic32c/lib/thumb/v6-m/nofp\libm-fast-emfloat.a(__aeabi_dcmplt.o)
                0x000000000000703e                __aeabi_dcmplt

.text.DMAC_ChannelSettingsSet%214
                0x000000000000707c       0x3c
 .text.DMAC_ChannelSettingsSet
                0x000000000000707c       0x3c build/default/production/_ext/1865161661/plib_dmac.o
                0x000000000000707c                DMAC_ChannelSettingsSet

.text.PDEC_QDECInitialize%215
                0x00000000000070b8       0x3c
 .text.PDEC_QDECInitialize
                0x00000000000070b8       0x3c build/default/production/_ext/1865510628/plib_pdec.o
                0x00000000000070b8                PDEC_QDECInitialize

.text.SERCOM2_SPI_Initialize%216
                0x00000000000070f4       0x3c
 .text.SERCOM2_SPI_Initialize
                0x00000000000070f4       0x3c build/default/production/_ext/17022449/plib_sercom2_spi_master.o
                0x00000000000070f4                SERCOM2_SPI_Initialize

.text.SERCOM0_USART_ISR_ERR_Handler%217
                0x0000000000007130       0x3c
 .text.SERCOM0_USART_ISR_ERR_Handler
                0x0000000000007130       0x3c build/default/production/_ext/504274921/plib_sercom0_usart.o

.text.SYS_INT_SourceDisable%218
                0x000000000000716c       0x3c
 .text.SYS_INT_SourceDisable
                0x000000000000716c       0x3c build/default/production/_ext/1881668453/sys_int.o
                0x000000000000716c                SYS_INT_SourceDisable

.rodata.drvUsart0InitData%219
                0x00000000000071a8       0x3c
 .rodata.drvUsart0InitData
                0x00000000000071a8       0x3c build/default/production/_ext/1171490990/initialization.o

.text.RTC_DRIVER_Print_Data%220
                0x00000000000071e4       0x3c
 .text.RTC_DRIVER_Print_Data
                0x00000000000071e4       0x3c build/default/production/_ext/1360937237/rtc_driver.o
                0x00000000000071e4                RTC_DRIVER_Print_Data

.rodata.FCM360W_DRIVER_Tasks%221
                0x0000000000007220       0x3c
 .rodata.FCM360W_DRIVER_Tasks
                0x0000000000007220       0x3c build/default/production/_ext/1360937237/fcm360w_driver.o

.text%222       0x000000000000725c       0x3c
 .text          0x000000000000725c       0x3c c:/applications/microchip/xc32/bin/bin/../../lib/gcc/pic32c/8.3.1/thumb/v6-m/nofp\libgcc.a(_clzsi2.o)
                0x000000000000725c                __clzsi2

.text.DRV_I2C_TransferEventHandlerSet%223
                0x0000000000007298       0x38
 .text.DRV_I2C_TransferEventHandlerSet
                0x0000000000007298       0x38 build/default/production/_ext/158385033/drv_i2c.o
                0x0000000000007298                DRV_I2C_TransferEventHandlerSet

.text.DRV_USART_BufferEventHandlerSet%224
                0x00000000000072d0       0x38
 .text.DRV_USART_BufferEventHandlerSet
                0x00000000000072d0       0x38 build/default/production/_ext/869808652/drv_usart.o
                0x00000000000072d0                DRV_USART_BufferEventHandlerSet

.text.SERCOM3_I2C_Read%225
                0x0000000000007308       0x38
 .text.SERCOM3_I2C_Read
                0x0000000000007308       0x38 build/default/production/_ext/508257091/plib_sercom3_i2c_master.o
                0x0000000000007308                SERCOM3_I2C_Read

.text.SERCOM3_I2C_WriteRead%226
                0x0000000000007340       0x38
 .text.SERCOM3_I2C_WriteRead
                0x0000000000007340       0x38 build/default/production/_ext/508257091/plib_sercom3_i2c_master.o
                0x0000000000007340                SERCOM3_I2C_WriteRead

.text.Console_UART_Read%227
                0x0000000000007378       0x38
 .text.Console_UART_Read
                0x0000000000007378       0x38 build/default/production/_ext/1832805299/sys_console_uart.o
                0x0000000000007378                Console_UART_Read

.text.Console_UART_Write%228
                0x00000000000073b0       0x38
 .text.Console_UART_Write
                0x00000000000073b0       0x38 build/default/production/_ext/1832805299/sys_console_uart.o
                0x00000000000073b0                Console_UART_Write

.rodata.SHT4X_DRIVER_Tasks%229
                0x00000000000073e8       0x38
 .rodata.SHT4X_DRIVER_Tasks
                0x00000000000073e8       0x38 build/default/production/_ext/1360937237/sht4x_driver.o

.text.AD9954_DRIVER_Set_NLSCW_Register%230
                0x0000000000007420       0x38
 .text.AD9954_DRIVER_Set_NLSCW_Register
                0x0000000000007420       0x38 build/default/production/_ext/1360937237/ad9954_driver.o
                0x0000000000007420                AD9954_DRIVER_Set_NLSCW_Register

.text.__pic32c_data_initialization%231
                0x0000000000007458       0x38
 .text.__pic32c_data_initialization
                0x0000000000007458       0x38 c:/applications/microchip/xc32/bin/bin/../../lib/gcc/pic32c/8.3.1/../../../../pic32c/lib/thumb/v6-m/nofp\libpic32c.a(data_init.o)
                0x0000000000007458                __pic32c_data_initialization

.text.DRV_SPI_TransferEventHandlerSet%232
                0x0000000000007490       0x34
 .text.DRV_SPI_TransferEventHandlerSet
                0x0000000000007490       0x34 build/default/production/_ext/2070931557/drv_spi.o
                0x0000000000007490                DRV_SPI_TransferEventHandlerSet

.text.SERCOM3_I2C_Write%233
                0x00000000000074c4       0x34
 .text.SERCOM3_I2C_Write
                0x00000000000074c4       0x34 build/default/production/_ext/508257091/plib_sercom3_i2c_master.o
                0x00000000000074c4                SERCOM3_I2C_Write

.text.TC0_CaptureInitialize%234
                0x00000000000074f8       0x34
 .text.TC0_CaptureInitialize
                0x00000000000074f8       0x34 build/default/production/_ext/829342655/plib_tc0.o
                0x00000000000074f8                TC0_CaptureInitialize

.text.TC0_CaptureInterruptHandler%235
                0x000000000000752c       0x34
 .text.TC0_CaptureInterruptHandler
                0x000000000000752c       0x34 build/default/production/_ext/829342655/plib_tc0.o
                0x000000000000752c                TC0_CaptureInterruptHandler

.text.TCC1_PWMInitialize%236
                0x0000000000007560       0x34
 .text.TCC1_PWMInitialize
                0x0000000000007560       0x34 build/default/production/_ext/60181570/plib_tcc1.o
                0x0000000000007560                TCC1_PWMInitialize

.text.SYS_CONSOLE_Message%237
                0x0000000000007594       0x34
 .text.SYS_CONSOLE_Message
                0x0000000000007594       0x34 build/default/production/_ext/1832805299/sys_console.o
                0x0000000000007594                SYS_CONSOLE_Message

.text.SYS_TIME_ResourceLock%238
                0x00000000000075c8       0x34
 .text.SYS_TIME_ResourceLock
                0x00000000000075c8       0x34 build/default/production/_ext/101884895/sys_time.o

.rodata.drvSPI0InitData%239
                0x00000000000075fc       0x34
 .rodata.drvSPI0InitData
                0x00000000000075fc       0x34 build/default/production/_ext/1171490990/initialization.o

.rodata.CAN0_DRIVER_Tasks%240
                0x0000000000007630       0x34
 .rodata.CAN0_DRIVER_Tasks
                0x0000000000007630       0x34 build/default/production/_ext/1360937237/can0_driver.o

.rodata.CAN0_DRIVER_Print_Data.str1.4%241
                0x0000000000007664       0x34
 .rodata.CAN0_DRIVER_Print_Data.str1.4
                0x0000000000007664       0x34 build/default/production/_ext/1360937237/can0_driver.o

.text.FCM360W_DRIVER_Get_Module_Response_Status%242
                0x0000000000007698       0x34
 .text.FCM360W_DRIVER_Get_Module_Response_Status
                0x0000000000007698       0x34 build/default/production/_ext/1360937237/fcm360w_driver.o
                0x0000000000007698                FCM360W_DRIVER_Get_Module_Response_Status

.text.__fmt_state%243
                0x00000000000076cc       0x34
 .text.__fmt_state
                0x00000000000076cc       0x34 c:/applications/microchip/xc32/bin/bin/../../lib/gcc/pic32c/8.3.1/../../../../pic32c/lib/thumb/v6-m/nofp\libc-musl.a(__printf_core.o)
                0x00000000000076cc                __fmt_state

.text.__aeabi_d2iz%244
                0x0000000000007700       0x34
 .text.__aeabi_d2iz
                0x0000000000007700       0x34 c:/applications/microchip/xc32/bin/bin/../../lib/gcc/pic32c/8.3.1/../../../../pic32c/lib/thumb/v6-m/nofp\libm-fast-emfloat.a(__aeabi_d2iz.o)
                0x0000000000007700                __aeabi_d2iz

.text.lDRV_I2C_RemoveClientTransfersFromList%245
                0x0000000000007734       0x32
 .text.lDRV_I2C_RemoveClientTransfersFromList
                0x0000000000007734       0x32 build/default/production/_ext/158385033/drv_i2c.o

.text.RTC_InterruptHandler%246
                0x0000000000007768       0x30
 .text.RTC_InterruptHandler
                0x0000000000007768       0x30 build/default/production/_ext/60180175/plib_rtc_clock.o
                0x0000000000007768                RTC_InterruptHandler

.text.Console_UART_WriteCountGet%247
                0x0000000000007798       0x30
 .text.Console_UART_WriteCountGet
                0x0000000000007798       0x30 build/default/production/_ext/1832805299/sys_console_uart.o
                0x0000000000007798                Console_UART_WriteCountGet

.text.Console_UART_WriteFreeBufferCountGet%248
                0x00000000000077c8       0x30
 .text.Console_UART_WriteFreeBufferCountGet
                0x00000000000077c8       0x30 build/default/production/_ext/1832805299/sys_console_uart.o
                0x00000000000077c8                Console_UART_WriteFreeBufferCountGet

.text.Console_UART_ReadFreeBufferCountGet%249
                0x00000000000077f8       0x30
 .text.Console_UART_ReadFreeBufferCountGet
                0x00000000000077f8       0x30 build/default/production/_ext/1832805299/sys_console_uart.o
                0x00000000000077f8                Console_UART_ReadFreeBufferCountGet

.text.Console_UART_ReadCountGet%250
                0x0000000000007828       0x30
 .text.Console_UART_ReadCountGet
                0x0000000000007828       0x30 build/default/production/_ext/1832805299/sys_console_uart.o
                0x0000000000007828                Console_UART_ReadCountGet

.text.SHT4X_DRIVER_Calculation_Humidity%251
                0x0000000000007858       0x30
 .text.SHT4X_DRIVER_Calculation_Humidity
                0x0000000000007858       0x30 build/default/production/_ext/1360937237/sht4x_driver.o
                0x0000000000007858                SHT4X_DRIVER_Calculation_Humidity

.text.AD9954_DRIVER_Set_CFR1_Register%252
                0x0000000000007888       0x30
 .text.AD9954_DRIVER_Set_CFR1_Register
                0x0000000000007888       0x30 build/default/production/_ext/1360937237/ad9954_driver.o
                0x0000000000007888                AD9954_DRIVER_Set_CFR1_Register

.text.AD9954_DRIVER_Set_FTW0_Register%253
                0x00000000000078b8       0x30
 .text.AD9954_DRIVER_Set_FTW0_Register
                0x00000000000078b8       0x30 build/default/production/_ext/1360937237/ad9954_driver.o
                0x00000000000078b8                AD9954_DRIVER_Set_FTW0_Register

.text.AD9954_DRIVER_Set_FTW1_Register%254
                0x00000000000078e8       0x30
 .text.AD9954_DRIVER_Set_FTW1_Register
                0x00000000000078e8       0x30 build/default/production/_ext/1360937237/ad9954_driver.o
                0x00000000000078e8                AD9954_DRIVER_Set_FTW1_Register

.text.MCP9808_DRIVER_Get_Temperature_Values%255
                0x0000000000007918       0x30
 .text.MCP9808_DRIVER_Get_Temperature_Values
                0x0000000000007918       0x30 build/default/production/_ext/1360937237/mcp9808_driver.o
                0x0000000000007918                MCP9808_DRIVER_Get_Temperature_Values

.text.MCP9808_DRIVER_Get_Manufacturer_ID%256
                0x0000000000007948       0x30
 .text.MCP9808_DRIVER_Get_Manufacturer_ID
                0x0000000000007948       0x30 build/default/production/_ext/1360937237/mcp9808_driver.o
                0x0000000000007948                MCP9808_DRIVER_Get_Manufacturer_ID

.text.MCP9808_DRIVER_Get_Device_ID%257
                0x0000000000007978       0x30
 .text.MCP9808_DRIVER_Get_Device_ID
                0x0000000000007978       0x30 build/default/production/_ext/1360937237/mcp9808_driver.o
                0x0000000000007978                MCP9808_DRIVER_Get_Device_ID

.text.__aeabi_dcmpeq%258
                0x00000000000079a8       0x2e
 .text.__aeabi_dcmpeq
                0x00000000000079a8       0x2e c:/applications/microchip/xc32/bin/bin/../../lib/gcc/pic32c/8.3.1/../../../../pic32c/lib/thumb/v6-m/nofp\libm-fast-emfloat.a(__aeabi_dcmpeq.o)
                0x00000000000079a8                __aeabi_dcmpeq

.text.__aeabi_d2uiz%259
                0x00000000000079d6       0x2e
 .text.__aeabi_d2uiz
                0x00000000000079d6       0x2e c:/applications/microchip/xc32/bin/bin/../../lib/gcc/pic32c/8.3.1/../../../../pic32c/lib/thumb/v6-m/nofp\libm-fast-emfloat.a(__aeabi_d2uiz.o)
                0x00000000000079d6                __aeabi_d2uiz
                0x00000000000079da                .L__aeabi_d2uiz_fast_entry

.text.lDRV_USART_RX_PLIB_CallbackHandler%260
                0x0000000000007a04       0x2c
 .text.lDRV_USART_RX_PLIB_CallbackHandler
                0x0000000000007a04       0x2c build/default/production/_ext/869808652/drv_usart.o

.text.lDRV_USART_RX_DMA_CallbackHandler%261
                0x0000000000007a30       0x2c
 .text.lDRV_USART_RX_DMA_CallbackHandler
                0x0000000000007a30       0x2c build/default/production/_ext/869808652/drv_usart.o

.text.lDRV_USART_TX_DMA_CallbackHandler%262
                0x0000000000007a5c       0x2c
 .text.lDRV_USART_TX_DMA_CallbackHandler
                0x0000000000007a5c       0x2c build/default/production/_ext/869808652/drv_usart.o

.text.CAN0_ErrorGet%263
                0x0000000000007a88       0x2c
 .text.CAN0_ErrorGet
                0x0000000000007a88       0x2c build/default/production/_ext/60165182/plib_can0.o
                0x0000000000007a88                CAN0_ErrorGet

.text.OSC32KCTRL_InterruptHandler%264
                0x0000000000007ab4       0x2c
 .text.OSC32KCTRL_InterruptHandler
                0x0000000000007ab4       0x2c build/default/production/_ext/1984496892/plib_clock.o
                0x0000000000007ab4                OSC32KCTRL_InterruptHandler

.text.SERCOM0_USART_ErrorClear%265
                0x0000000000007ae0       0x2c
 .text.SERCOM0_USART_ErrorClear
                0x0000000000007ae0       0x2c build/default/production/_ext/504274921/plib_sercom0_usart.o

.rodata.sysConsoleUARTDevDesc%266
                0x0000000000007b0c       0x2c
 .rodata.sysConsoleUARTDevDesc
                0x0000000000007b0c       0x2c build/default/production/_ext/1832805299/sys_console_uart.o
                0x0000000000007b0c                sysConsoleUARTDevDesc

.rodata.drvUsart0PlibAPI%267
                0x0000000000007b38       0x2c
 .rodata.drvUsart0PlibAPI
                0x0000000000007b38       0x2c build/default/production/_ext/1171490990/initialization.o

.text.SYSTICK_TimerInterruptEnable%268
                0x0000000000007b64       0x2c
 .text.SYSTICK_TimerInterruptEnable
                0x0000000000007b64       0x2c build/default/production/_ext/1827571544/plib_systick.o
                0x0000000000007b64                SYSTICK_TimerInterruptEnable

.text.__pop_float%269
                0x0000000000007b90       0x2a
 .text.__pop_float
                0x0000000000007b90       0x2a c:/applications/microchip/xc32/bin/bin/../../lib/gcc/pic32c/8.3.1/../../../../pic32c/lib/thumb/v6-m/nofp\libc-musl.a(__pop_float.o)
                0x0000000000007b90                __pop_float_needed
                0x0000000000007b90                __pop_float

.text.__string_out%270
                0x0000000000007bba       0x2a
 .text.__string_out
                0x0000000000007bba       0x2a c:/applications/microchip/xc32/bin/bin/../../lib/gcc/pic32c/8.3.1/../../../../pic32c/lib/thumb/v6-m/nofp\libc-musl.a(__printf_core.o)
                0x0000000000007bba                __out

.text.ADC0_InterruptHandler%271
                0x0000000000007be4       0x28
 .text.ADC0_InterruptHandler
                0x0000000000007be4       0x28 build/default/production/_ext/60163342/plib_adc0.o
                0x0000000000007be4                ADC0_InterruptHandler

.text.EIC_CallbackRegister%272
                0x0000000000007c0c       0x28
 .text.EIC_CallbackRegister
                0x0000000000007c0c       0x28 build/default/production/_ext/60167341/plib_eic.o
                0x0000000000007c0c                EIC_CallbackRegister

.text.SERCOM0_USART_ReadAbort%273
                0x0000000000007c34       0x28
 .text.SERCOM0_USART_ReadAbort
                0x0000000000007c34       0x28 build/default/production/_ext/504274921/plib_sercom0_usart.o
                0x0000000000007c34                SERCOM0_USART_ReadAbort

.rodata.drvSPI0remapDataBits%274
                0x0000000000007c5c       0x28
 .rodata.drvSPI0remapDataBits
                0x0000000000007c5c       0x28 build/default/production/_ext/1171490990/initialization.o

.text.CAN0_DRIVER_Print_Data%275
                0x0000000000007c84       0x28
 .text.CAN0_DRIVER_Print_Data
                0x0000000000007c84       0x28 build/default/production/_ext/1360937237/can0_driver.o
                0x0000000000007c84                CAN0_DRIVER_Print_Data

.text.RTC_DRIVER_Initialize%276
                0x0000000000007cac       0x28
 .text.RTC_DRIVER_Initialize
                0x0000000000007cac       0x28 build/default/production/_ext/1360937237/rtc_driver.o
                0x0000000000007cac                RTC_DRIVER_Initialize

.text.MCP9808_DRIVER_Set_Result_Resolution%277
                0x0000000000007cd4       0x28
 .text.MCP9808_DRIVER_Set_Result_Resolution
                0x0000000000007cd4       0x28 build/default/production/_ext/1360937237/mcp9808_driver.o
                0x0000000000007cd4                MCP9808_DRIVER_Set_Result_Resolution

.text.SysTick_Handler%278
                0x0000000000007cfc       0x28
 .text.SysTick_Handler
                0x0000000000007cfc       0x28 build/default/production/_ext/1827571544/plib_systick.o
                0x0000000000007cfc                SysTick_Handler

.text.__aeabi_i2f%279
                0x0000000000007d24       0x26
 .text.__aeabi_i2f
                0x0000000000007d24       0x26 c:/applications/microchip/xc32/bin/bin/../../lib/gcc/pic32c/8.3.1/../../../../pic32c/lib/thumb/v6-m/nofp\libm-fast-emfloat.a(__aeabi_i2f.o)
                0x0000000000007d24                __aeabi_i2f

.text.lDRV_USART_RemoveTransferObjFromList%280
                0x0000000000007d4a       0x24
 .text.lDRV_USART_RemoveTransferObjFromList
                0x0000000000007d4a       0x24 build/default/production/_ext/869808652/drv_usart.o

.text.AC_Initialize%281
                0x0000000000007d70       0x24
 .text.AC_Initialize
                0x0000000000007d70       0x24 build/default/production/_ext/829343244/plib_ac.o
                0x0000000000007d70                AC_Initialize

.text.SYS_DMA_AddressingModeSetup%282
                0x0000000000007d94       0x24
 .text.SYS_DMA_AddressingModeSetup
                0x0000000000007d94       0x24 build/default/production/_ext/14461671/sys_dma.o
                0x0000000000007d94                SYS_DMA_AddressingModeSetup

.text.SYS_TIME_ResourceUnlock%283
                0x0000000000007db8       0x24
 .text.SYS_TIME_ResourceUnlock
                0x0000000000007db8       0x24 build/default/production/_ext/101884895/sys_time.o

.text.SHT4X_DRIVER_Start_Measurement%284
                0x0000000000007ddc       0x24
 .text.SHT4X_DRIVER_Start_Measurement
                0x0000000000007ddc       0x24 build/default/production/_ext/1360937237/sht4x_driver.o
                0x0000000000007ddc                SHT4X_DRIVER_Start_Measurement

.rodata.RTC_DRIVER_Print_Data.str1.4%285
                0x0000000000007e00       0x24
 .rodata.RTC_DRIVER_Print_Data.str1.4
                0x0000000000007e00       0x24 build/default/production/_ext/1360937237/rtc_driver.o

.text.BME690_DRIVER_Initialize%286
                0x0000000000007e24       0x24
 .text.BME690_DRIVER_Initialize
                0x0000000000007e24       0x24 build/default/production/_ext/1360937237/bme690_driver.o
                0x0000000000007e24                BME690_DRIVER_Initialize

.rodata.APP_Tasks%287
                0x0000000000007e48       0x24
 .rodata.APP_Tasks
                0x0000000000007e48       0x24 build/default/production/_ext/1360937237/app.o

.text.SYSTICK_TimerInitialize%288
                0x0000000000007e6c       0x24
 .text.SYSTICK_TimerInitialize
                0x0000000000007e6c       0x24 build/default/production/_ext/1827571544/plib_systick.o
                0x0000000000007e6c                SYSTICK_TimerInitialize

.text.__aeabi_f2uiz%289
                0x0000000000007e90       0x24
 .text.__aeabi_f2uiz
                0x0000000000007e90       0x24 c:/applications/microchip/xc32/bin/bin/../../lib/gcc/pic32c/8.3.1/../../../../pic32c/lib/thumb/v6-m/nofp\libm-fast-emfloat.a(__aeabi_f2uiz.o)
                0x0000000000007e90                __aeabi_f2uiz

.text.CAN0_RxFifoFillLevelGet%290
                0x0000000000007eb4       0x20
 .text.CAN0_RxFifoFillLevelGet
                0x0000000000007eb4       0x20 build/default/production/_ext/60165182/plib_can0.o
                0x0000000000007eb4                CAN0_RxFifoFillLevelGet

.text.SYS_DMA_DataWidthSetup%291
                0x0000000000007ed4       0x20
 .text.SYS_DMA_DataWidthSetup
                0x0000000000007ed4       0x20 build/default/production/_ext/14461671/sys_dma.o
                0x0000000000007ed4                SYS_DMA_DataWidthSetup

.text.SHT4X_DRIVER_Get_Measure_Values%292
                0x0000000000007ef4       0x20
 .text.SHT4X_DRIVER_Get_Measure_Values
                0x0000000000007ef4       0x20 build/default/production/_ext/1360937237/sht4x_driver.o
                0x0000000000007ef4                SHT4X_DRIVER_Get_Measure_Values

.rodata.RSTC_DRIVER_Tasks%293
                0x0000000000007f14       0x20
 .rodata.RSTC_DRIVER_Tasks
                0x0000000000007f14       0x20 build/default/production/_ext/1360937237/rstc_driver.o

.text.NTC_DRIVER_Initialize%294
                0x0000000000007f34       0x20
 .text.NTC_DRIVER_Initialize
                0x0000000000007f34       0x20 build/default/production/_ext/1360937237/ntc_driver.o
                0x0000000000007f34                NTC_DRIVER_Initialize

.text.WS281X_DRIVER_Send_LED_Strip_Data%295
                0x0000000000007f54       0x20
 .text.WS281X_DRIVER_Send_LED_Strip_Data
                0x0000000000007f54       0x20 build/default/production/_ext/1360937237/ws281x_driver.o
                0x0000000000007f54                WS281X_DRIVER_Send_LED_Strip_Data

.text.WDT_Enable%296
                0x0000000000007f74       0x20
 .text.WDT_Enable
                0x0000000000007f74       0x20 build/default/production/_ext/60184501/plib_wdt.o
                0x0000000000007f74                WDT_Enable

.text.__aeabi_ui2f%297
                0x0000000000007f94       0x1e
 .text.__aeabi_ui2f
                0x0000000000007f94       0x1e c:/applications/microchip/xc32/bin/bin/../../lib/gcc/pic32c/8.3.1/../../../../pic32c/lib/thumb/v6-m/nofp\libm-fast-emfloat.a(__aeabi_ui2f.o)
                0x0000000000007f94                __aeabi_ui2f

.text.__dinit_copy%298
                0x0000000000007fb2       0x1e
 .text.__dinit_copy
                0x0000000000007fb2       0x1e c:/applications/microchip/xc32/bin/bin/../../lib/gcc/pic32c/8.3.1/../../../../pic32c/lib/thumb/v6-m/nofp\libpic32c.a(pic32_data_init_copy.o)
                0x0000000000007fb2                __dinit_copy_needed
                0x0000000000007fb2                __dinit_copy

.text.DRV_I2C_ReadTransferAdd%299
                0x0000000000007fd0       0x1c
 .text.DRV_I2C_ReadTransferAdd
                0x0000000000007fd0       0x1c build/default/production/_ext/158385033/drv_i2c.o
                0x0000000000007fd0                DRV_I2C_ReadTransferAdd

.text.DRV_I2C_WriteReadTransferAdd%300
                0x0000000000007fec       0x1c
 .text.DRV_I2C_WriteReadTransferAdd
                0x0000000000007fec       0x1c build/default/production/_ext/158385033/drv_i2c.o
                0x0000000000007fec                DRV_I2C_WriteReadTransferAdd

.text.ADC0_Enable%301
                0x0000000000008008       0x1c
 .text.ADC0_Enable
                0x0000000000008008       0x1c build/default/production/_ext/60163342/plib_adc0.o
                0x0000000000008008                ADC0_Enable

.text.ADC0_ConversionStart%302
                0x0000000000008024       0x1c
 .text.ADC0_ConversionStart
                0x0000000000008024       0x1c build/default/production/_ext/60163342/plib_adc0.o
                0x0000000000008024                ADC0_ConversionStart

.text.CCL_Initialize%303
                0x0000000000008040       0x1c
 .text.CCL_Initialize
                0x0000000000008040       0x1c build/default/production/_ext/60165242/plib_ccl.o
                0x0000000000008040                CCL_Initialize

.text.DAC_Initialize%304
                0x000000000000805c       0x1c
 .text.DAC_Initialize
                0x000000000000805c       0x1c build/default/production/_ext/60166132/plib_dac.o
                0x000000000000805c                DAC_Initialize

.text.SERCOM1_USART_WritePendingBytesGet%305
                0x0000000000008078       0x1c
 .text.SERCOM1_USART_WritePendingBytesGet
                0x0000000000008078       0x1c build/default/production/_ext/504274921/plib_sercom1_usart.o

.text.SERCOM1_USART_ReadCountGet%306
                0x0000000000008094       0x1c
 .text.SERCOM1_USART_ReadCountGet
                0x0000000000008094       0x1c build/default/production/_ext/504274921/plib_sercom1_usart.o
                0x0000000000008094                SERCOM1_USART_ReadCountGet

.text.TCC1_PWMStart%307
                0x00000000000080b0       0x1c
 .text.TCC1_PWMStart
                0x00000000000080b0       0x1c build/default/production/_ext/60181570/plib_tcc1.o
                0x00000000000080b0                TCC1_PWMStart

.text.TCC1_PWMStop%308
                0x00000000000080cc       0x1c
 .text.TCC1_PWMStop
                0x00000000000080cc       0x1c build/default/production/_ext/60181570/plib_tcc1.o
                0x00000000000080cc                TCC1_PWMStop

.text.SYS_INT_SourceRestore%309
                0x00000000000080e8       0x1c
 .text.SYS_INT_SourceRestore
                0x00000000000080e8       0x1c build/default/production/_ext/1881668453/sys_int.o
                0x00000000000080e8                SYS_INT_SourceRestore

.rodata.drvI2C0InitData%310
                0x0000000000008104       0x1c
 .rodata.drvI2C0InitData
                0x0000000000008104       0x1c build/default/production/_ext/1171490990/initialization.o

.rodata.drvI2C0PLibAPI%311
                0x0000000000008120       0x1c
 .rodata.drvI2C0PLibAPI
                0x0000000000008120       0x1c build/default/production/_ext/1171490990/initialization.o

.rodata.drvUSART0InterruptSources%312
                0x000000000000813c       0x1c
 .rodata.drvUSART0InterruptSources
                0x000000000000813c       0x1c build/default/production/_ext/1171490990/initialization.o

.rodata.sysTimePlibAPI%313
                0x0000000000008158       0x1c
 .rodata.sysTimePlibAPI
                0x0000000000008158       0x1c build/default/production/_ext/1171490990/initialization.o

.text.CAN0_DRIVER_Initialize%314
                0x0000000000008174       0x1c
 .text.CAN0_DRIVER_Initialize
                0x0000000000008174       0x1c build/default/production/_ext/1360937237/can0_driver.o
                0x0000000000008174                CAN0_DRIVER_Initialize

.text.SHT4X_DRIVER_I2C_Callback%315
                0x0000000000008190       0x1c
 .text.SHT4X_DRIVER_I2C_Callback
                0x0000000000008190       0x1c build/default/production/_ext/1360937237/sht4x_driver.o
                0x0000000000008190                SHT4X_DRIVER_I2C_Callback

.text.AD9954_DRIVER_SPI_Callback%316
                0x00000000000081ac       0x1c
 .text.AD9954_DRIVER_SPI_Callback
                0x00000000000081ac       0x1c build/default/production/_ext/1360937237/ad9954_driver.o
                0x00000000000081ac                AD9954_DRIVER_SPI_Callback

.text.MCP9808_DRIVER_I2C_Callback%317
                0x00000000000081c8       0x1c
 .text.MCP9808_DRIVER_I2C_Callback
                0x00000000000081c8       0x1c build/default/production/_ext/1360937237/mcp9808_driver.o
                0x00000000000081c8                MCP9808_DRIVER_I2C_Callback

.text.BME690_DRIVER_I2C_Callback%318
                0x00000000000081e4       0x1c
 .text.BME690_DRIVER_I2C_Callback
                0x00000000000081e4       0x1c build/default/production/_ext/1360937237/bme690_driver.o
                0x00000000000081e4                BME690_DRIVER_I2C_Callback

.text.FCM360W_DRIVER_USART_Callback%319
                0x0000000000008200       0x1c
 .text.FCM360W_DRIVER_USART_Callback
                0x0000000000008200       0x1c build/default/production/_ext/1360937237/fcm360w_driver.o
                0x0000000000008200                FCM360W_DRIVER_USART_Callback

.text.FCM360W_DRIVER_Read_Module_Response%320
                0x000000000000821c       0x1c
 .text.FCM360W_DRIVER_Read_Module_Response
                0x000000000000821c       0x1c build/default/production/_ext/1360937237/fcm360w_driver.o
                0x000000000000821c                FCM360W_DRIVER_Read_Module_Response

.text.HDC302X_DRIVER_I2C_Callback%321
                0x0000000000008238       0x1c
 .text.HDC302X_DRIVER_I2C_Callback
                0x0000000000008238       0x1c build/default/production/_ext/1360937237/hdc302x_driver.o
                0x0000000000008238                HDC302X_DRIVER_I2C_Callback

.text.NTC_DRIVER_Calculation_Temperature%322
                0x0000000000008254       0x1c
 .text.NTC_DRIVER_Calculation_Temperature
                0x0000000000008254       0x1c build/default/production/_ext/1360937237/ntc_driver.o
                0x0000000000008254                NTC_DRIVER_Calculation_Temperature

.rodata.NTC_DRIVER_Tasks%323
                0x0000000000008270       0x1c
 .rodata.NTC_DRIVER_Tasks
                0x0000000000008270       0x1c build/default/production/_ext/1360937237/ntc_driver.o

.text.SEN6X_DRIVER_I2C_Callback%324
                0x000000000000828c       0x1c
 .text.SEN6X_DRIVER_I2C_Callback
                0x000000000000828c       0x1c build/default/production/_ext/1360937237/sen6x_driver.o
                0x000000000000828c                SEN6X_DRIVER_I2C_Callback

.text.WS281X_DRIVER_Initialize%325
                0x00000000000082a8       0x1c
 .text.WS281X_DRIVER_Initialize
                0x00000000000082a8       0x1c build/default/production/_ext/1360937237/ws281x_driver.o
                0x00000000000082a8                WS281X_DRIVER_Initialize

.text.DRV_I2C_WriteTransferAdd%326
                0x00000000000082c4       0x1a
 .text.DRV_I2C_WriteTransferAdd
                0x00000000000082c4       0x1a build/default/production/_ext/158385033/drv_i2c.o
                0x00000000000082c4                DRV_I2C_WriteTransferAdd

.text.FREQM_Initialize%327
                0x00000000000082e0       0x18
 .text.FREQM_Initialize
                0x00000000000082e0       0x18 build/default/production/_ext/1987437027/plib_freqm.o
                0x00000000000082e0                FREQM_Initialize

.text.Console_UART_Initialize%328
                0x00000000000082f8       0x18
 .text.Console_UART_Initialize
                0x00000000000082f8       0x18 build/default/production/_ext/1832805299/sys_console_uart.o
                0x00000000000082f8                Console_UART_Initialize

.rodata.drvSPI0InterruptSources%329
                0x0000000000008310       0x18
 .rodata.drvSPI0InterruptSources
                0x0000000000008310       0x18 build/default/production/_ext/1171490990/initialization.o

.rodata.drvUsart0remapParity%330
                0x0000000000008328       0x18
 .rodata.drvUsart0remapParity
                0x0000000000008328       0x18 build/default/production/_ext/1171490990/initialization.o

.rodata.sysConsole0UARTPlibAPI%331
                0x0000000000008340       0x18
 .rodata.sysConsole0UARTPlibAPI
                0x0000000000008340       0x18 build/default/production/_ext/1171490990/initialization.o

.text.SHT4X_DRIVER_Initialize%332
                0x0000000000008358       0x18
 .text.SHT4X_DRIVER_Initialize
                0x0000000000008358       0x18 build/default/production/_ext/1360937237/sht4x_driver.o
                0x0000000000008358                SHT4X_DRIVER_Initialize

.text.RSTC_DRIVER_Print_Data%333
                0x0000000000008370       0x18
 .text.RSTC_DRIVER_Print_Data
                0x0000000000008370       0x18 build/default/production/_ext/1360937237/rstc_driver.o
                0x0000000000008370                RSTC_DRIVER_Print_Data

.text.AD9954_DRIVER_Initialize%334
                0x0000000000008388       0x18
 .text.AD9954_DRIVER_Initialize
                0x0000000000008388       0x18 build/default/production/_ext/1360937237/ad9954_driver.o
                0x0000000000008388                AD9954_DRIVER_Initialize

.rodata.RTC_DRIVER_Tasks%335
                0x00000000000083a0       0x18
 .rodata.RTC_DRIVER_Tasks
                0x00000000000083a0       0x18 build/default/production/_ext/1360937237/rtc_driver.o

.text.MCP9808_DRIVER_Store_Temperature_Values%336
                0x00000000000083b8       0x18
 .text.MCP9808_DRIVER_Store_Temperature_Values
                0x00000000000083b8       0x18 build/default/production/_ext/1360937237/mcp9808_driver.o
                0x00000000000083b8                MCP9808_DRIVER_Store_Temperature_Values

.text.MCP9808_DRIVER_Store_Manufacturer_ID%337
                0x00000000000083d0       0x18
 .text.MCP9808_DRIVER_Store_Manufacturer_ID
                0x00000000000083d0       0x18 build/default/production/_ext/1360937237/mcp9808_driver.o
                0x00000000000083d0                MCP9808_DRIVER_Store_Manufacturer_ID

.text.MCP9808_DRIVER_Store_Device_ID%338
                0x00000000000083e8       0x18
 .text.MCP9808_DRIVER_Store_Device_ID
                0x00000000000083e8       0x18 build/default/production/_ext/1360937237/mcp9808_driver.o
                0x00000000000083e8                MCP9808_DRIVER_Store_Device_ID

.text.MCP9808_DRIVER_Initialize%339
                0x0000000000008400       0x18
 .text.MCP9808_DRIVER_Initialize
                0x0000000000008400       0x18 build/default/production/_ext/1360937237/mcp9808_driver.o
                0x0000000000008400                MCP9808_DRIVER_Initialize

.text.FCM360W_DRIVER_Initialize%340
                0x0000000000008418       0x18
 .text.FCM360W_DRIVER_Initialize
                0x0000000000008418       0x18 build/default/production/_ext/1360937237/fcm360w_driver.o
                0x0000000000008418                FCM360W_DRIVER_Initialize

.text.HDC302X_DRIVER_Initialize%341
                0x0000000000008430       0x18
 .text.HDC302X_DRIVER_Initialize
                0x0000000000008430       0x18 build/default/production/_ext/1360937237/hdc302x_driver.o
                0x0000000000008430                HDC302X_DRIVER_Initialize

.text.SEN6X_DRIVER_Initialize%342
                0x0000000000008448       0x18
 .text.SEN6X_DRIVER_Initialize
                0x0000000000008448       0x18 build/default/production/_ext/1360937237/sen6x_driver.o
                0x0000000000008448                SEN6X_DRIVER_Initialize

.rodata.WS281X_DRIVER_Tasks%343
                0x0000000000008460       0x18
 .rodata.WS281X_DRIVER_Tasks
                0x0000000000008460       0x18 build/default/production/_ext/1360937237/ws281x_driver.o

.text.strlen%344
                0x0000000000008478       0x18
 .text.strlen   0x0000000000008478       0x18 c:/applications/microchip/xc32/bin/bin/../../lib/gcc/pic32c/8.3.1/../../../../pic32c/lib/thumb/v6-m/nofp\libc-size-musl.a(strlen.o)
                0x0000000000008478                strlen

.text.vfprintf%345
                0x0000000000008490       0x18
 .text.vfprintf
                0x0000000000008490       0x18 c:/applications/microchip/xc32/bin/bin/../../lib/gcc/pic32c/8.3.1/../../../../pic32c/lib/thumb/v6-m/nofp\libc-musl.a(vfprintf.o)
                0x0000000000008490                vfprintf

.text%346       0x00000000000084a8       0x18
 .text          0x00000000000084a8       0x18 c:/applications/microchip/xc32/bin/bin/../../lib/gcc/pic32c/8.3.1/thumb/v6-m/nofp\libgcc.a(_lshrdi3.o)
                0x00000000000084a8                __lshrdi3
                0x00000000000084a8                __aeabi_llsr

.text%347       0x00000000000084c0       0x18
 .text          0x00000000000084c0       0x18 c:/applications/microchip/xc32/bin/bin/../../lib/gcc/pic32c/8.3.1/thumb/v6-m/nofp\libgcc.a(_ashldi3.o)
                0x00000000000084c0                __aeabi_llsl
                0x00000000000084c0                __ashldi3

.text%348       0x00000000000084d8       0x18
 .text          0x00000000000084d8       0x18 c:/applications/microchip/xc32/bin/bin/../../lib/gcc/pic32c/8.3.1/thumb/v6-m/nofp\libgcc.a(_clzdi2.o)
                0x00000000000084d8                __clzdi2

.text.sprintf%349
                0x00000000000084f0       0x16
 .text.sprintf  0x00000000000084f0       0x16 c:/applications/microchip/xc32/bin/bin/../../lib/gcc/pic32c/8.3.1/../../../../pic32c/lib/thumb/v6-m/nofp\libc-musl.a(sprintf.o)
                0x00000000000084f0                sprintf

.rodata%350     0x0000000000008506       0x16
 .rodata        0x0000000000008506       0x16 c:/applications/microchip/xc32/bin/bin/../../lib/gcc/pic32c/8.3.1/../../../../pic32c/lib/thumb/v6-m/nofp\libc-musl.a(__printf_core.o)

.text.lDRV_I2C_RemoveTransferObjFromList%351
                0x000000000000851c       0x14
 .text.lDRV_I2C_RemoveTransferObjFromList
                0x000000000000851c       0x14 build/default/production/_ext/158385033/drv_i2c.o

.text.lDRV_SPI_RemoveTransferObjFromList%352
                0x0000000000008530       0x14
 .text.lDRV_SPI_RemoveTransferObjFromList
                0x0000000000008530       0x14 build/default/production/_ext/2070931557/drv_spi.o

.text.CAN0_ErrorCountGet%353
                0x0000000000008544       0x14
 .text.CAN0_ErrorCountGet
                0x0000000000008544       0x14 build/default/production/_ext/60165182/plib_can0.o
                0x0000000000008544                CAN0_ErrorCountGet

.text.CAN0_InterruptGet%354
                0x0000000000008558       0x14
 .text.CAN0_InterruptGet
                0x0000000000008558       0x14 build/default/production/_ext/60165182/plib_can0.o
                0x0000000000008558                CAN0_InterruptGet

.text.NVIC_INT_Restore%355
                0x000000000000856c       0x14
 .text.NVIC_INT_Restore
                0x000000000000856c       0x14 build/default/production/_ext/1865468468/plib_nvic.o
                0x000000000000856c                NVIC_INT_Restore

.text.SERCOM2_SPI_IsTransmitterBusy%356
                0x0000000000008580       0x14
 .text.SERCOM2_SPI_IsTransmitterBusy
                0x0000000000008580       0x14 build/default/production/_ext/17022449/plib_sercom2_spi_master.o
                0x0000000000008580                SERCOM2_SPI_IsTransmitterBusy

.text.SERCOM1_USART_ReadFreeBufferCountGet%357
                0x0000000000008594       0x14
 .text.SERCOM1_USART_ReadFreeBufferCountGet
                0x0000000000008594       0x14 build/default/production/_ext/504274921/plib_sercom1_usart.o
                0x0000000000008594                SERCOM1_USART_ReadFreeBufferCountGet

.text.SERCOM1_USART_WriteFreeBufferCountGet%358
                0x00000000000085a8       0x14
 .text.SERCOM1_USART_WriteFreeBufferCountGet
                0x00000000000085a8       0x14 build/default/production/_ext/504274921/plib_sercom1_usart.o
                0x00000000000085a8                SERCOM1_USART_WriteFreeBufferCountGet

.text.Console_UART_Status%359
                0x00000000000085bc       0x14
 .text.Console_UART_Status
                0x00000000000085bc       0x14 build/default/production/_ext/1832805299/sys_console_uart.o
                0x00000000000085bc                Console_UART_Status

.rodata.drvI2C0InterruptSources%360
                0x00000000000085d0       0x14
 .rodata.drvI2C0InterruptSources
                0x00000000000085d0       0x14 build/default/production/_ext/1171490990/initialization.o

.rodata.drvUsart0remapDataWidth%361
                0x00000000000085e4       0x14
 .rodata.drvUsart0remapDataWidth
                0x00000000000085e4       0x14 build/default/production/_ext/1171490990/initialization.o

.rodata.RSTC_DRIVER_Print_Data.str1.4%362
                0x00000000000085f8       0x14
 .rodata.RSTC_DRIVER_Print_Data.str1.4
                0x00000000000085f8       0x14 build/default/production/_ext/1360937237/rstc_driver.o

.text.RTC_DRIVER_Alarm_Callback%363
                0x000000000000860c       0x14
 .text.RTC_DRIVER_Alarm_Callback
                0x000000000000860c       0x14 build/default/production/_ext/1360937237/rtc_driver.o
                0x000000000000860c                RTC_DRIVER_Alarm_Callback

.text.FAN_DRIVER_Tasks%364
                0x0000000000008620       0x14
 .text.FAN_DRIVER_Tasks
                0x0000000000008620       0x14 build/default/production/_ext/1360937237/fan_driver.o
                0x0000000000008620                FAN_DRIVER_Tasks

.text.XM125_DRIVER_Tasks%365
                0x0000000000008634       0x14
 .text.XM125_DRIVER_Tasks
                0x0000000000008634       0x14 build/default/production/_ext/1360937237/xm125_driver.o
                0x0000000000008634                XM125_DRIVER_Tasks

.text.WS281X_DRIVER_DMAC_CH4_Callback%366
                0x0000000000008648       0x14
 .text.WS281X_DRIVER_DMAC_CH4_Callback
                0x0000000000008648       0x14 build/default/production/_ext/1360937237/ws281x_driver.o
                0x0000000000008648                WS281X_DRIVER_DMAC_CH4_Callback

.text.APP_Initialize%367
                0x000000000000865c       0x14
 .text.APP_Initialize
                0x000000000000865c       0x14 build/default/production/_ext/1360937237/app.o
                0x000000000000865c                APP_Initialize

.text.SYSTICK_TimerStart%368
                0x0000000000008670       0x14
 .text.SYSTICK_TimerStart
                0x0000000000008670       0x14 build/default/production/_ext/1827571544/plib_systick.o
                0x0000000000008670                SYSTICK_TimerStart

.text.SYSTICK_TimerInterruptDisable%369
                0x0000000000008684       0x14
 .text.SYSTICK_TimerInterruptDisable
                0x0000000000008684       0x14 build/default/production/_ext/1827571544/plib_systick.o
                0x0000000000008684                SYSTICK_TimerInterruptDisable

.text.WDT_TimeoutPeriodSet%370
                0x0000000000008698       0x14
 .text.WDT_TimeoutPeriodSet
                0x0000000000008698       0x14 build/default/production/_ext/60184501/plib_wdt.o
                0x0000000000008698                WDT_TimeoutPeriodSet

.text.WDT_Clear%371
                0x00000000000086ac       0x14
 .text.WDT_Clear
                0x00000000000086ac       0x14 build/default/production/_ext/60184501/plib_wdt.o
                0x00000000000086ac                WDT_Clear

.rodata%372     0x00000000000086c0       0x14
 .rodata        0x00000000000086c0       0x14 c:/applications/microchip/xc32/bin/bin/../../lib/gcc/pic32c/8.3.1/../../../../pic32c/lib/thumb/v6-m/nofp\libpic32c.a(data_init.o)

.text.memcpy%373
                0x00000000000086d4       0x14
 .text.memcpy   0x00000000000086d4       0x14 c:/applications/microchip/xc32/bin/bin/../../lib/gcc/pic32c/8.3.1/../../../../pic32c/lib/thumb/v6-m/nofp\libc-size-musl.a(memcpy.o)
                0x00000000000086d4                memcpy

.text.memset%374
                0x00000000000086e8       0x14
 .text.memset   0x00000000000086e8       0x14 c:/applications/microchip/xc32/bin/bin/../../lib/gcc/pic32c/8.3.1/../../../../pic32c/lib/thumb/v6-m/nofp\libc-size-musl.a(memset.o)
                0x00000000000086e8                memset

.text.strchr%375
                0x00000000000086fc       0x14
 .text.strchr   0x00000000000086fc       0x14 c:/applications/microchip/xc32/bin/bin/../../lib/gcc/pic32c/8.3.1/../../../../pic32c/lib/thumb/v6-m/nofp\libc-size-musl.a(strchr.o)
                0x00000000000086fc                strchr

.text.vsprintf%376
                0x0000000000008710       0x14
 .text.vsprintf
                0x0000000000008710       0x14 c:/applications/microchip/xc32/bin/bin/../../lib/gcc/pic32c/8.3.1/../../../../pic32c/lib/thumb/v6-m/nofp\libc-musl.a(vsprintf.o)
                0x0000000000008710                vsprintf

.text.stpcpy%377
                0x0000000000008724       0x14
 .text.stpcpy   0x0000000000008724       0x14 c:/applications/microchip/xc32/bin/bin/../../lib/gcc/pic32c/8.3.1/../../../../pic32c/lib/thumb/v6-m/nofp\libc-size-musl.a(stpcpy.o)
                0x0000000000008724                __stpcpy
                0x0000000000008724                stpcpy

.text.DRV_SPI_WriteTransferAdd%378
                0x0000000000008738       0x12
 .text.DRV_SPI_WriteTransferAdd
                0x0000000000008738       0x12 build/default/production/_ext/2070931557/drv_spi.o
                0x0000000000008738                DRV_SPI_WriteTransferAdd

.text.EVSYS_Initialize%379
                0x000000000000874a       0x12
 .text.EVSYS_Initialize
                0x000000000000874a       0x12 build/default/production/_ext/1986646378/plib_evsys.o
                0x000000000000874a                EVSYS_Initialize

.text.NVIC_INT_Disable%380
                0x000000000000875c       0x12
 .text.NVIC_INT_Disable
                0x000000000000875c       0x12 build/default/production/_ext/1865468468/plib_nvic.o
                0x000000000000875c                NVIC_INT_Disable

.text.__dinit_clear%381
                0x000000000000876e       0x12
 .text.__dinit_clear
                0x000000000000876e       0x12 c:/applications/microchip/xc32/bin/bin/../../lib/gcc/pic32c/8.3.1/../../../../pic32c/lib/thumb/v6-m/nofp\libpic32c.a(pic32_data_init_clear.o)
                0x000000000000876e                __dinit_clear
                0x000000000000876e                __dinit_clear_needed

.text.DRV_USART_WriteBufferAdd%382
                0x0000000000008780       0x10
 .text.DRV_USART_WriteBufferAdd
                0x0000000000008780       0x10 build/default/production/_ext/869808652/drv_usart.o
                0x0000000000008780                DRV_USART_WriteBufferAdd

.text.DRV_USART_ReadBufferAdd%383
                0x0000000000008790       0x10
 .text.DRV_USART_ReadBufferAdd
                0x0000000000008790       0x10 build/default/production/_ext/869808652/drv_usart.o
                0x0000000000008790                DRV_USART_ReadBufferAdd

.text.DMAC_ChannelCallbackRegister%384
                0x00000000000087a0       0x10
 .text.DMAC_ChannelCallbackRegister
                0x00000000000087a0       0x10 build/default/production/_ext/1865161661/plib_dmac.o
                0x00000000000087a0                DMAC_ChannelCallbackRegister

.text.DMAC_ChannelSettingsGet%385
                0x00000000000087b0       0x10
 .text.DMAC_ChannelSettingsGet
                0x00000000000087b0       0x10 build/default/production/_ext/1865161661/plib_dmac.o
                0x00000000000087b0                DMAC_ChannelSettingsGet

.text.PM_Initialize%386
                0x00000000000087c0       0x10
 .text.PM_Initialize
                0x00000000000087c0       0x10 build/default/production/_ext/829342769/plib_pm.o
                0x00000000000087c0                PM_Initialize

.text.SERCOM3_I2C_ErrorGet%387
                0x00000000000087d0       0x10
 .text.SERCOM3_I2C_ErrorGet
                0x00000000000087d0       0x10 build/default/production/_ext/508257091/plib_sercom3_i2c_master.o
                0x00000000000087d0                SERCOM3_I2C_ErrorGet

.text.SERCOM0_USART_ErrorGet%388
                0x00000000000087e0       0x10
 .text.SERCOM0_USART_ErrorGet
                0x00000000000087e0       0x10 build/default/production/_ext/504274921/plib_sercom0_usart.o
                0x00000000000087e0                SERCOM0_USART_ErrorGet

.text.SERCOM0_USART_ReadIsBusy%389
                0x00000000000087f0       0x10
 .text.SERCOM0_USART_ReadIsBusy
                0x00000000000087f0       0x10 build/default/production/_ext/504274921/plib_sercom0_usart.o
                0x00000000000087f0                SERCOM0_USART_ReadIsBusy

.rodata.drvSPI0PlibAPI%390
                0x0000000000008800       0x10
 .rodata.drvSPI0PlibAPI
                0x0000000000008800       0x10 build/default/production/_ext/1171490990/initialization.o

.text.RTC_DRIVER_XOSC32K_Alert_Callback%391
                0x0000000000008810       0x10
 .text.RTC_DRIVER_XOSC32K_Alert_Callback
                0x0000000000008810       0x10 build/default/production/_ext/1360937237/rtc_driver.o
                0x0000000000008810                RTC_DRIVER_XOSC32K_Alert_Callback

.text.RTC_DRIVER_Get_System_Time%392
                0x0000000000008820       0x10
 .text.RTC_DRIVER_Get_System_Time
                0x0000000000008820       0x10 build/default/production/_ext/1360937237/rtc_driver.o
                0x0000000000008820                RTC_DRIVER_Get_System_Time

.rodata.FCM360W_DRIVER_Set_QRESET_Command.str1.4%393
                0x0000000000008830       0x10
 .rodata.FCM360W_DRIVER_Set_QRESET_Command.str1.4
                0x0000000000008830       0x10 build/default/production/_ext/1360937237/fcm360w_driver.o

.text.NTC_DRIVER_Callback%394
                0x0000000000008840       0x10
 .text.NTC_DRIVER_Callback
                0x0000000000008840       0x10 build/default/production/_ext/1360937237/ntc_driver.o
                0x0000000000008840                NTC_DRIVER_Callback

.text.TIMER_DRIVER_Start_Main_TMR%395
                0x0000000000008850       0x10
 .text.TIMER_DRIVER_Start_Main_TMR
                0x0000000000008850       0x10 build/default/production/_ext/1360937237/timer_driver.o
                0x0000000000008850                TIMER_DRIVER_Start_Main_TMR

.text.TIMER_DRIVER_Stop_Main_TMR%396
                0x0000000000008860       0x10
 .text.TIMER_DRIVER_Stop_Main_TMR
                0x0000000000008860       0x10 build/default/production/_ext/1360937237/timer_driver.o
                0x0000000000008860                TIMER_DRIVER_Stop_Main_TMR

.text.TIMER_DRIVER_Start_Bus_TMR%397
                0x0000000000008870       0x10
 .text.TIMER_DRIVER_Start_Bus_TMR
                0x0000000000008870       0x10 build/default/production/_ext/1360937237/timer_driver.o
                0x0000000000008870                TIMER_DRIVER_Start_Bus_TMR

.text.TIMER_DRIVER_Stop_Bus_TMR%398
                0x0000000000008880       0x10
 .text.TIMER_DRIVER_Stop_Bus_TMR
                0x0000000000008880       0x10 build/default/production/_ext/1360937237/timer_driver.o
                0x0000000000008880                TIMER_DRIVER_Stop_Bus_TMR

.text.TIMER_DRIVER_Start_Wait_TMR%399
                0x0000000000008890       0x10
 .text.TIMER_DRIVER_Start_Wait_TMR
                0x0000000000008890       0x10 build/default/production/_ext/1360937237/timer_driver.o
                0x0000000000008890                TIMER_DRIVER_Start_Wait_TMR

.text.TIMER_DRIVER_Stop_Wait_TMR%400
                0x00000000000088a0       0x10
 .text.TIMER_DRIVER_Stop_Wait_TMR
                0x00000000000088a0       0x10 build/default/production/_ext/1360937237/timer_driver.o
                0x00000000000088a0                TIMER_DRIVER_Stop_Wait_TMR

.text.SYSTICK_TimerStop%401
                0x00000000000088b0       0x10
 .text.SYSTICK_TimerStop
                0x00000000000088b0       0x10 build/default/production/_ext/1827571544/plib_systick.o
                0x00000000000088b0                SYSTICK_TimerStop

.text.__aeabi_fsub%402
                0x00000000000088c0       0x10
 .text.__aeabi_fsub
                0x00000000000088c0       0x10 c:/applications/microchip/xc32/bin/bin/../../lib/gcc/pic32c/8.3.1/../../../../pic32c/lib/thumb/v6-m/nofp\libm-fast-emfloat.a(__aeabi_fsub.o)
                0x00000000000088c0                __aeabi_fsub

.rodata.str1.1%403
                0x00000000000088d0       0x10
 .rodata.str1.1
                0x00000000000088d0       0x10 c:/applications/microchip/xc32/bin/bin/../../lib/gcc/pic32c/8.3.1/../../../../pic32c/lib/thumb/v6-m/nofp\libc-musl.a(__fmt_a.o)

.rodata.str1.1%404
                0x00000000000088e0       0x10
 .rodata.str1.1
                0x00000000000088e0       0x10 c:/applications/microchip/xc32/bin/bin/../../lib/gcc/pic32c/8.3.1/../../../../pic32c/lib/thumb/v6-m/nofp\libc-musl.a(__fmt_fp.o)

.text.fma%405   0x00000000000088f0       0x10
 .text.fma      0x00000000000088f0       0x10 c:/applications/microchip/xc32/bin/bin/../../lib/gcc/pic32c/8.3.1/../../../../pic32c/lib/thumb/v6-m/nofp\libm-fast-emfloat.a(fma.o)
                0x00000000000088f0                fma

.text.__aeabi_dsub%406
                0x0000000000008900       0x10
 .text.__aeabi_dsub
                0x0000000000008900       0x10 c:/applications/microchip/xc32/bin/bin/../../lib/gcc/pic32c/8.3.1/../../../../pic32c/lib/thumb/v6-m/nofp\libm-fast-emfloat.a(__aeabi_dsub.o)
                0x0000000000008900                __aeabi_dsub

.text.lDRV_USART_TX_PLIB_CallbackHandler%407
                0x0000000000008910        0xe
 .text.lDRV_USART_TX_PLIB_CallbackHandler
                0x0000000000008910        0xe build/default/production/_ext/869808652/drv_usart.o

.text.main%408  0x000000000000891e        0xe
 .text.main     0x000000000000891e        0xe build/default/production/_ext/1360937237/main.o
                0x000000000000891e                main

.text.SYSTICK_TimerInterruptRestore%409
                0x000000000000892c        0xe
 .text.SYSTICK_TimerInterruptRestore
                0x000000000000892c        0xe build/default/production/_ext/1827571544/plib_systick.o
                0x000000000000892c                SYSTICK_TimerInterruptRestore

.text.tolower%410
                0x000000000000893a        0xe
 .text.tolower  0x000000000000893a        0xe c:/applications/microchip/xc32/bin/bin/../../lib/gcc/pic32c/8.3.1/../../../../pic32c/lib/thumb/v6-m/nofp\libc-musl.a(tolower.o)
                0x000000000000893a                tolower

.text.toupper%411
                0x0000000000008948        0xe
 .text.toupper  0x0000000000008948        0xe c:/applications/microchip/xc32/bin/bin/../../lib/gcc/pic32c/8.3.1/../../../../pic32c/lib/thumb/v6-m/nofp\libc-musl.a(toupper.o)
                0x0000000000008948                toupper

.text.ADC0_ConversionResultGet%412
                0x0000000000008958        0xc
 .text.ADC0_ConversionResultGet
                0x0000000000008958        0xc build/default/production/_ext/60163342/plib_adc0.o
                0x0000000000008958                ADC0_ConversionResultGet

.text.ADC0_CallbackRegister%413
                0x0000000000008964        0xc
 .text.ADC0_CallbackRegister
                0x0000000000008964        0xc build/default/production/_ext/60163342/plib_adc0.o
                0x0000000000008964                ADC0_CallbackRegister

.text.CAN0_InterruptClear%414
                0x0000000000008970        0xc
 .text.CAN0_InterruptClear
                0x0000000000008970        0xc build/default/production/_ext/60165182/plib_can0.o
                0x0000000000008970                CAN0_InterruptClear

.text.OSC32KCTRL_CallbackRegister%415
                0x000000000000897c        0xc
 .text.OSC32KCTRL_CallbackRegister
                0x000000000000897c        0xc build/default/production/_ext/1984496892/plib_clock.o
                0x000000000000897c                OSC32KCTRL_CallbackRegister

.text.NVMCTRL_Initialize%416
                0x0000000000008988        0xc
 .text.NVMCTRL_Initialize
                0x0000000000008988        0xc build/default/production/_ext/1593096446/plib_nvmctrl.o
                0x0000000000008988                NVMCTRL_Initialize

.text.RSTC_ResetCauseGet%417
                0x0000000000008994        0xc
 .text.RSTC_ResetCauseGet
                0x0000000000008994        0xc build/default/production/_ext/1865585090/plib_rstc.o
                0x0000000000008994                RSTC_ResetCauseGet

.text.RTC_RTCCCallbackRegister%418
                0x00000000000089a0        0xc
 .text.RTC_RTCCCallbackRegister
                0x00000000000089a0        0xc build/default/production/_ext/60180175/plib_rtc_clock.o
                0x00000000000089a0                RTC_RTCCCallbackRegister

.text.SERCOM3_I2C_CallbackRegister%419
                0x00000000000089ac        0xc
 .text.SERCOM3_I2C_CallbackRegister
                0x00000000000089ac        0xc build/default/production/_ext/508257091/plib_sercom3_i2c_master.o
                0x00000000000089ac                SERCOM3_I2C_CallbackRegister

.text.SERCOM2_SPI_CallbackRegister%420
                0x00000000000089b8        0xc
 .text.SERCOM2_SPI_CallbackRegister
                0x00000000000089b8        0xc build/default/production/_ext/17022449/plib_sercom2_spi_master.o
                0x00000000000089b8                SERCOM2_SPI_CallbackRegister

.text.SERCOM0_USART_WriteIsBusy%421
                0x00000000000089c4        0xc
 .text.SERCOM0_USART_WriteIsBusy
                0x00000000000089c4        0xc build/default/production/_ext/504274921/plib_sercom0_usart.o
                0x00000000000089c4                SERCOM0_USART_WriteIsBusy

.text.SERCOM0_USART_WriteCountGet%422
                0x00000000000089d0        0xc
 .text.SERCOM0_USART_WriteCountGet
                0x00000000000089d0        0xc build/default/production/_ext/504274921/plib_sercom0_usart.o
                0x00000000000089d0                SERCOM0_USART_WriteCountGet

.text.SERCOM0_USART_WriteCallbackRegister%423
                0x00000000000089dc        0xc
 .text.SERCOM0_USART_WriteCallbackRegister
                0x00000000000089dc        0xc build/default/production/_ext/504274921/plib_sercom0_usart.o
                0x00000000000089dc                SERCOM0_USART_WriteCallbackRegister

.text.SERCOM0_USART_ReadCountGet%424
                0x00000000000089e8        0xc
 .text.SERCOM0_USART_ReadCountGet
                0x00000000000089e8        0xc build/default/production/_ext/504274921/plib_sercom0_usart.o
                0x00000000000089e8                SERCOM0_USART_ReadCountGet

.text.SERCOM0_USART_ReadCallbackRegister%425
                0x00000000000089f4        0xc
 .text.SERCOM0_USART_ReadCallbackRegister
                0x00000000000089f4        0xc build/default/production/_ext/504274921/plib_sercom0_usart.o
                0x00000000000089f4                SERCOM0_USART_ReadCallbackRegister

.rodata.drvUsart0remapError%426
                0x0000000000008a00        0xc
 .rodata.drvUsart0remapError
                0x0000000000008a00        0xc build/default/production/_ext/1171490990/initialization.o

.rodata.drvUsart0remapStopBits%427
                0x0000000000008a0c        0xc
 .rodata.drvUsart0remapStopBits
                0x0000000000008a0c        0xc build/default/production/_ext/1171490990/initialization.o

.rodata.sysConsole0Init%428
                0x0000000000008a18        0xc
 .rodata.sysConsole0Init
                0x0000000000008a18        0xc build/default/production/_ext/1171490990/initialization.o

.text.CAN0_DRIVER_Set_Task_Start_Status%429
                0x0000000000008a24        0xc
 .text.CAN0_DRIVER_Set_Task_Start_Status
                0x0000000000008a24        0xc build/default/production/_ext/1360937237/can0_driver.o
                0x0000000000008a24                CAN0_DRIVER_Set_Task_Start_Status

.text.CAN0_DRIVER_Get_Task_Completed_Status%430
                0x0000000000008a30        0xc
 .text.CAN0_DRIVER_Get_Task_Completed_Status
                0x0000000000008a30        0xc build/default/production/_ext/1360937237/can0_driver.o
                0x0000000000008a30                CAN0_DRIVER_Get_Task_Completed_Status

.text.CAN0_DRIVER_Set_Task_Completed_Status%431
                0x0000000000008a3c        0xc
 .text.CAN0_DRIVER_Set_Task_Completed_Status
                0x0000000000008a3c        0xc build/default/production/_ext/1360937237/can0_driver.o
                0x0000000000008a3c                CAN0_DRIVER_Set_Task_Completed_Status

.text.RSTC_DRIVER_Initialize%432
                0x0000000000008a48        0xc
 .text.RSTC_DRIVER_Initialize
                0x0000000000008a48        0xc build/default/production/_ext/1360937237/rstc_driver.o
                0x0000000000008a48                RSTC_DRIVER_Initialize

.text.BME690_DRIVER_Alert%433
                0x0000000000008a54        0xc
 .text.BME690_DRIVER_Alert
                0x0000000000008a54        0xc build/default/production/_ext/1360937237/bme690_driver.o
                0x0000000000008a54                BME690_DRIVER_Alert

.text.CONSOLE_DRIVER_Set_Task_Start_Status%434
                0x0000000000008a60        0xc
 .text.CONSOLE_DRIVER_Set_Task_Start_Status
                0x0000000000008a60        0xc build/default/production/_ext/1360937237/console_driver.o
                0x0000000000008a60                CONSOLE_DRIVER_Set_Task_Start_Status

.text.CONSOLE_DRIVER_Get_Task_Completed_Status%435
                0x0000000000008a6c        0xc
 .text.CONSOLE_DRIVER_Get_Task_Completed_Status
                0x0000000000008a6c        0xc build/default/production/_ext/1360937237/console_driver.o
                0x0000000000008a6c                CONSOLE_DRIVER_Get_Task_Completed_Status

.text.CONSOLE_DRIVER_Set_Task_Completed_Status%436
                0x0000000000008a78        0xc
 .text.CONSOLE_DRIVER_Set_Task_Completed_Status
                0x0000000000008a78        0xc build/default/production/_ext/1360937237/console_driver.o
                0x0000000000008a78                CONSOLE_DRIVER_Set_Task_Completed_Status

.text.CONSOLE_DRIVER_Initialize%437
                0x0000000000008a84        0xc
 .text.CONSOLE_DRIVER_Initialize
                0x0000000000008a84        0xc build/default/production/_ext/1360937237/console_driver.o
                0x0000000000008a84                CONSOLE_DRIVER_Initialize

.text.HDC302X_DRIVER_Set_Task_Start_Status%438
                0x0000000000008a90        0xc
 .text.HDC302X_DRIVER_Set_Task_Start_Status
                0x0000000000008a90        0xc build/default/production/_ext/1360937237/hdc302x_driver.o
                0x0000000000008a90                HDC302X_DRIVER_Set_Task_Start_Status

.text.HDC302X_DRIVER_Get_Task_Completed_Status%439
                0x0000000000008a9c        0xc
 .text.HDC302X_DRIVER_Get_Task_Completed_Status
                0x0000000000008a9c        0xc build/default/production/_ext/1360937237/hdc302x_driver.o
                0x0000000000008a9c                HDC302X_DRIVER_Get_Task_Completed_Status

.text.HDC302X_DRIVER_Set_Task_Completed_Status%440
                0x0000000000008aa8        0xc
 .text.HDC302X_DRIVER_Set_Task_Completed_Status
                0x0000000000008aa8        0xc build/default/production/_ext/1360937237/hdc302x_driver.o
                0x0000000000008aa8                HDC302X_DRIVER_Set_Task_Completed_Status

.text.FAN_DRIVER_Initialize%441
                0x0000000000008ab4        0xc
 .text.FAN_DRIVER_Initialize
                0x0000000000008ab4        0xc build/default/production/_ext/1360937237/fan_driver.o
                0x0000000000008ab4                FAN_DRIVER_Initialize

.text.Main_TMR_Callback%442
                0x0000000000008ac0        0xc
 .text.Main_TMR_Callback
                0x0000000000008ac0        0xc build/default/production/_ext/1360937237/timer_driver.o
                0x0000000000008ac0                Main_TMR_Callback

.text.Bus_TMR_Callback%443
                0x0000000000008acc        0xc
 .text.Bus_TMR_Callback
                0x0000000000008acc        0xc build/default/production/_ext/1360937237/timer_driver.o
                0x0000000000008acc                Bus_TMR_Callback

.text.Wait_TMR_Callback%444
                0x0000000000008ad8        0xc
 .text.Wait_TMR_Callback
                0x0000000000008ad8        0xc build/default/production/_ext/1360937237/timer_driver.o
                0x0000000000008ad8                Wait_TMR_Callback

.text.TIMER_DRIVER_Get_Main_TMR_Status%445
                0x0000000000008ae4        0xc
 .text.TIMER_DRIVER_Get_Main_TMR_Status
                0x0000000000008ae4        0xc build/default/production/_ext/1360937237/timer_driver.o
                0x0000000000008ae4                TIMER_DRIVER_Get_Main_TMR_Status

.text.TIMER_DRIVER_Set_Main_TMR_Status%446
                0x0000000000008af0        0xc
 .text.TIMER_DRIVER_Set_Main_TMR_Status
                0x0000000000008af0        0xc build/default/production/_ext/1360937237/timer_driver.o
                0x0000000000008af0                TIMER_DRIVER_Set_Main_TMR_Status

.text.TIMER_DRIVER_Get_Bus_TMR_Status%447
                0x0000000000008afc        0xc
 .text.TIMER_DRIVER_Get_Bus_TMR_Status
                0x0000000000008afc        0xc build/default/production/_ext/1360937237/timer_driver.o
                0x0000000000008afc                TIMER_DRIVER_Get_Bus_TMR_Status

.text.TIMER_DRIVER_Set_Bus_TMR_Status%448
                0x0000000000008b08        0xc
 .text.TIMER_DRIVER_Set_Bus_TMR_Status
                0x0000000000008b08        0xc build/default/production/_ext/1360937237/timer_driver.o
                0x0000000000008b08                TIMER_DRIVER_Set_Bus_TMR_Status

.text.TIMER_DRIVER_Get_Wait_TMR_Status%449
                0x0000000000008b14        0xc
 .text.TIMER_DRIVER_Get_Wait_TMR_Status
                0x0000000000008b14        0xc build/default/production/_ext/1360937237/timer_driver.o
                0x0000000000008b14                TIMER_DRIVER_Get_Wait_TMR_Status

.text.XM125_DRIVER_Initialize%450
                0x0000000000008b20        0xc
 .text.XM125_DRIVER_Initialize
                0x0000000000008b20        0xc build/default/production/_ext/1360937237/xm125_driver.o
                0x0000000000008b20                XM125_DRIVER_Initialize

.text.SYSTICK_TimerPeriodSet%451
                0x0000000000008b2c        0xc
 .text.SYSTICK_TimerPeriodSet
                0x0000000000008b2c        0xc build/default/production/_ext/1827571544/plib_systick.o
                0x0000000000008b2c                SYSTICK_TimerPeriodSet

.text.SYSTICK_TimerCallbackSet%452
                0x0000000000008b38        0xc
 .text.SYSTICK_TimerCallbackSet
                0x0000000000008b38        0xc build/default/production/_ext/1827571544/plib_systick.o
                0x0000000000008b38                SYSTICK_TimerCallbackSet

.text.strcpy%453
                0x0000000000008b44        0xc
 .text.strcpy   0x0000000000008b44        0xc c:/applications/microchip/xc32/bin/bin/../../lib/gcc/pic32c/8.3.1/../../../../pic32c/lib/thumb/v6-m/nofp\libc-size-musl.a(strcpy.o)
                0x0000000000008b44                strcpy

.text.SERCOM1_USART_WriteCountGet%454
                0x0000000000008b50        0x8
 .text.SERCOM1_USART_WriteCountGet
                0x0000000000008b50        0x8 build/default/production/_ext/504274921/plib_sercom1_usart.o
                0x0000000000008b50                SERCOM1_USART_WriteCountGet

.text.SYS_INT_Disable%455
                0x0000000000008b58        0x8
 .text.SYS_INT_Disable
                0x0000000000008b58        0x8 build/default/production/_ext/1881668453/sys_int.o
                0x0000000000008b58                SYS_INT_Disable

.text.SYS_INT_Restore%456
                0x0000000000008b60        0x8
 .text.SYS_INT_Restore
                0x0000000000008b60        0x8 build/default/production/_ext/1881668453/sys_int.o
                0x0000000000008b60                SYS_INT_Restore

.rodata.drvSPI0remapClockPhase%457
                0x0000000000008b68        0x8
 .rodata.drvSPI0remapClockPhase
                0x0000000000008b68        0x8 build/default/production/_ext/1171490990/initialization.o

.rodata.drvSPI0remapClockPolarity%458
                0x0000000000008b70        0x8
 .rodata.drvSPI0remapClockPolarity
                0x0000000000008b70        0x8 build/default/production/_ext/1171490990/initialization.o

.rodata.sysTimeInitData%459
                0x0000000000008b78        0x8
 .rodata.sysTimeInitData
                0x0000000000008b78        0x8 build/default/production/_ext/1171490990/initialization.o

.text.TC0_5_Handler%460
                0x0000000000008b80        0x8
 .text.TC0_5_Handler
                0x0000000000008b80        0x8 build/default/production/_ext/1171490990/interrupts.o

.text.SYSTEM_Handler%461
                0x0000000000008b88        0x8
 .text.SYSTEM_Handler
                0x0000000000008b88        0x8 build/default/production/_ext/1171490990/interrupts.o

.text.SYSTICK_TimerFrequencyGet%462
                0x0000000000008b90        0x8
 .text.SYSTICK_TimerFrequencyGet
                0x0000000000008b90        0x8 build/default/production/_ext/1827571544/plib_systick.o
                0x0000000000008b90                SYSTICK_TimerFrequencyGet

.rodata.str1.1%463
                0x0000000000008b98        0x8
 .rodata.str1.1
                0x0000000000008b98        0x8 c:/applications/microchip/xc32/bin/bin/../../lib/gcc/pic32c/8.3.1/../../../../pic32c/lib/thumb/v6-m/nofp\libc-musl.a(__printf_core.o)

.rodata.str1.1%464
                0x0000000000008ba0        0x7
 .rodata.str1.1
                0x0000000000008ba0        0x7 c:/applications/microchip/xc32/bin/bin/../../lib/gcc/pic32c/8.3.1/../../../../pic32c/lib/thumb/v6-m/nofp\libc-musl.a(__fmt_s.o)

.text.PORT_GroupSet%465
                0x0000000000008ba8        0x4
 .text.PORT_GroupSet
                0x0000000000008ba8        0x4 build/default/production/_ext/1865521619/plib_port.o
                0x0000000000008ba8                PORT_GroupSet

.text.PORT_GroupClear%466
                0x0000000000008bac        0x4
 .text.PORT_GroupClear
                0x0000000000008bac        0x4 build/default/production/_ext/1865521619/plib_port.o
                0x0000000000008bac                PORT_GroupClear

.text.Console_UART_Flush%467
                0x0000000000008bb0        0x4
 .text.Console_UART_Flush
                0x0000000000008bb0        0x4 build/default/production/_ext/1832805299/sys_console_uart.o
                0x0000000000008bb0                Console_UART_Flush

.rodata.sysConsole0UARTInitData%468
                0x0000000000008bb4        0x4
 .rodata.sysConsole0UARTInitData
                0x0000000000008bb4        0x4 build/default/production/_ext/1171490990/initialization.o

.rodata.FCM360W_DRIVER_Get_Module_Response_Status.str1.4%469
                0x0000000000008bb8        0x4
 .rodata.FCM360W_DRIVER_Get_Module_Response_Status.str1.4
                0x0000000000008bb8        0x4 build/default/production/_ext/1360937237/fcm360w_driver.o

.rodata.CONSOLE_DRIVER_Tasks.str1.4%470
                0x0000000000008bbc        0x4
 .rodata.CONSOLE_DRIVER_Tasks.str1.4
                0x0000000000008bbc        0x4 build/default/production/_ext/1360937237/console_driver.o

.text.__dummy_decompress%471
                0x0000000000008bc0        0x4
 .text.__dummy_decompress
                0x0000000000008bc0        0x4 c:/applications/microchip/xc32/bin/bin/../../lib/gcc/pic32c/8.3.1/../../../../pic32c/lib/thumb/v6-m/nofp\libpic32c.a(data_init.o)
                0x0000000000008bc0                __dinit_decompress
                0x0000000000008bc0                __dinit_copy_val_data
                0x0000000000008bc0                __dinit_copy_emb

.text%472       0x0000000000008bc4        0x4
 .text          0x0000000000008bc4        0x4 c:/applications/microchip/xc32/bin/bin/../../lib/gcc/pic32c/8.3.1/thumb/v6-m/nofp\libgcc.a(_dvmd_tls.o)
                0x0000000000008bc4                __aeabi_idiv0
                0x0000000000008bc4                __aeabi_ldiv0

.text.Console_UART_Tasks%473
                0x0000000000002792        0x2
 .text.Console_UART_Tasks
                0x0000000000002792        0x2 build/default/production/_ext/1832805299/sys_console_uart.o
                0x0000000000002792                Console_UART_Tasks

.text.Dummy_Handler%474
                0x0000000000003bd6        0x2
 .text.Dummy_Handler
                0x0000000000003bd6        0x2 build/default/production/_ext/1171490990/interrupts.o
                0x0000000000003bd6                SVCall_Handler
                0x0000000000003bd6                AC_Handler
                0x0000000000003bd6                PendSV_Handler
                0x0000000000003bd6                TCC1_Handler
                0x0000000000003bd6                TC2_7_Handler
                0x0000000000003bd6                TCC0_Handler
                0x0000000000003bd6                TC1_6_Handler
                0x0000000000003bd6                ADC1_Handler
                0x0000000000003bd6                WDT_Handler
                0x0000000000003bd6                CAN0_Handler
                0x0000000000003bd6                TC4_Handler
                0x0000000000003bd6                TC3_Handler
                0x0000000000003bd6                Dummy_Handler
                0x0000000000003bd6                MCRAMC_Handler
                0x0000000000003bd6                PDEC_Handler
                0x0000000000003bd6                TCC2_Handler
                0x0000000000003bd6                EVSYS_Handler
                0x0000000000003bd6                NVMCTRL_Handler
                0x0000000000003bd6                DAC_Handler
                0x0000000000003bd6                PTC_Handler
                0x0000000000003bd6                FREQM_Handler
                0x0000000000003bd6                ICM_Handler

.text.NonMaskableInt_Handler%475
                0x00000000000044de        0x2
 .text.NonMaskableInt_Handler
                0x00000000000044de        0x2 build/default/production/_ext/1171490990/exceptions.o
                0x00000000000044de                NonMaskableInt_Handler

.text.HardFault_Handler%476
                0x000000000000466e        0x2
 .text.HardFault_Handler
                0x000000000000466e        0x2 build/default/production/_ext/1171490990/exceptions.o
                0x000000000000466e                HardFault_Handler

.text.Dummy_App_Func%477
                0x0000000000004c5e        0x2
 .text.Dummy_App_Func
                0x0000000000004c5e        0x2 build/default/production/_ext/1171490990/startup_xc32.o
                0x0000000000004c5e                _on_reset
                0x0000000000004c5e                _on_bootstrap
                0x0000000000004c5e                __xc32_on_reset
                0x0000000000004c5e                Dummy_App_Func
                0x0000000000004c5e                __xc32_on_bootstrap

.text.__dummy_init_tls%478
                0x0000000000004e7a        0x2
 .text.__dummy_init_tls
                0x0000000000004e7a        0x2 c:/applications/microchip/xc32/bin/bin/../../lib/gcc/pic32c/8.3.1/../../../../pic32c/lib/thumb/v6-m/nofp\libpic32c.a(data_init.o)
                0x0000000000004e7a                xc32_init_tls

.text.__dummy%479
                0x000000000000534e        0x2
 .text.__dummy  0x000000000000534e        0x2 c:/applications/microchip/xc32/bin/bin/../../lib/gcc/pic32c/8.3.1/../../../../pic32c/lib/thumb/v6-m/nofp\libc-musl.a(__libc_start_main.o)
                0x000000000000534e                __init_stdio
                0x000000000000534e                __init_host
