Archive member included to satisfy reference by file (symbol)

c:/applications/microchip/xc32/bin/bin/../../lib/gcc/pic32c/8.3.1/../../../../pic32c/lib/thumb/v6-m/nofp\libpic32c.a(data_init.o)
                              build/default/production/_ext/1171490990/startup_xc32.o (__pic32c_data_initialization)
c:/applications/microchip/xc32/bin/bin/../../lib/gcc/pic32c/8.3.1/../../../../pic32c/lib/thumb/v6-m/nofp\libc-size-musl.a(memcpy.o)
                              build/default/production/_ext/1593096446/plib_nvmctrl.o (memcpy)
c:/applications/microchip/xc32/bin/bin/../../lib/gcc/pic32c/8.3.1/../../../../pic32c/lib/thumb/v6-m/nofp\libc-size-musl.a(memset.o)
                              build/default/production/_ext/101884895/sys_time.o (memset)
c:/applications/microchip/xc32/bin/bin/../../lib/gcc/pic32c/8.3.1/../../../../pic32c/lib/thumb/v6-m/nofp\libc-size-musl.a(strlen.o)
                              build/default/production/_ext/1832805299/sys_console.o (strlen)
c:/applications/microchip/xc32/bin/bin/../../lib/gcc/pic32c/8.3.1/../../../../pic32c/lib/thumb/v6-m/nofp\libm-fast-emfloat.a(__aeabi_fadd.o)
                              build/default/production/_ext/508257091/plib_sercom0_i2c_master.o (__aeabi_fadd)
c:/applications/microchip/xc32/bin/bin/../../lib/gcc/pic32c/8.3.1/../../../../pic32c/lib/thumb/v6-m/nofp\libm-fast-emfloat.a(__aeabi_dadd.o)
                              build/default/production/_ext/1360937237/mcp9808_driver.o (__aeabi_dadd)
c:/applications/microchip/xc32/bin/bin/../../lib/gcc/pic32c/8.3.1/../../../../pic32c/lib/thumb/v6-m/nofp\libm-fast-emfloat.a(__aeabi_fsub.o)
                              build/default/production/_ext/508257091/plib_sercom0_i2c_master.o (__aeabi_fsub)
c:/applications/microchip/xc32/bin/bin/../../lib/gcc/pic32c/8.3.1/../../../../pic32c/lib/thumb/v6-m/nofp\libm-fast-emfloat.a(__aeabi_fmul.o)
                              build/default/production/_ext/508257091/plib_sercom0_i2c_master.o (__aeabi_fmul)
c:/applications/microchip/xc32/bin/bin/../../lib/gcc/pic32c/8.3.1/../../../../pic32c/lib/thumb/v6-m/nofp\libm-fast-emfloat.a(__aeabi_dmul_aux.o)
                              build/default/production/_ext/1360937237/mcp9808_driver.o (__aeabi_dmul)
c:/applications/microchip/xc32/bin/bin/../../lib/gcc/pic32c/8.3.1/../../../../pic32c/lib/thumb/v6-m/nofp\libm-fast-emfloat.a(__aeabi_fdiv.o)
                              build/default/production/_ext/508257091/plib_sercom0_i2c_master.o (__aeabi_fdiv)
c:/applications/microchip/xc32/bin/bin/../../lib/gcc/pic32c/8.3.1/../../../../pic32c/lib/thumb/v6-m/nofp\libm-fast-emfloat.a(__aeabi_fcmplt.o)
                              build/default/production/_ext/60165182/plib_can0.o (__aeabi_fcmplt)
c:/applications/microchip/xc32/bin/bin/../../lib/gcc/pic32c/8.3.1/../../../../pic32c/lib/thumb/v6-m/nofp\libm-fast-emfloat.a(__aeabi_f2iz.o)
                              build/default/production/_ext/504274921/plib_sercom3_usart.o (__aeabi_f2iz)
c:/applications/microchip/xc32/bin/bin/../../lib/gcc/pic32c/8.3.1/../../../../pic32c/lib/thumb/v6-m/nofp\libm-fast-emfloat.a(__aeabi_f2uiz.o)
                              build/default/production/_ext/508257091/plib_sercom0_i2c_master.o (__aeabi_f2uiz)
c:/applications/microchip/xc32/bin/bin/../../lib/gcc/pic32c/8.3.1/../../../../pic32c/lib/thumb/v6-m/nofp\libm-fast-emfloat.a(__aeabi_i2f.o)
                              build/default/production/_ext/504274921/plib_sercom3_usart.o (__aeabi_i2f)
c:/applications/microchip/xc32/bin/bin/../../lib/gcc/pic32c/8.3.1/../../../../pic32c/lib/thumb/v6-m/nofp\libm-fast-emfloat.a(__aeabi_ui2f.o)
                              build/default/production/_ext/508257091/plib_sercom0_i2c_master.o (__aeabi_ui2f)
c:/applications/microchip/xc32/bin/bin/../../lib/gcc/pic32c/8.3.1/../../../../pic32c/lib/thumb/v6-m/nofp\libm-fast-emfloat.a(__aeabi_f2d.o)
                              build/default/production/_ext/1360937237/bme690_driver.o (__aeabi_f2d)
c:/applications/microchip/xc32/bin/bin/../../lib/gcc/pic32c/8.3.1/../../../../pic32c/lib/thumb/v6-m/nofp\libm-fast-emfloat.a(__aeabi_d2f.o)
                              build/default/production/_ext/1360937237/mcp9808_driver.o (__aeabi_d2f)
c:/applications/microchip/xc32/bin/bin/../../lib/gcc/pic32c/8.3.1/../../../../pic32c/lib/thumb/v6-m/nofp\libc-musl.a(__libc_start_main.o)
                              build/default/production/_ext/1171490990/startup_xc32.o (__libc_init_array)
c:/applications/microchip/xc32/bin/bin/../../lib/gcc/pic32c/8.3.1/../../../../pic32c/lib/thumb/v6-m/nofp\libc-musl.a(libc.o)
                              c:/applications/microchip/xc32/bin/bin/../../lib/gcc/pic32c/8.3.1/../../../../pic32c/lib/thumb/v6-m/nofp\libc-musl.a(__libc_start_main.o) (__progname_full)
c:/applications/microchip/xc32/bin/bin/../../lib/gcc/pic32c/8.3.1/../../../../pic32c/lib/thumb/v6-m/nofp\libc-musl.a(vsnprintf.o)
                              build/default/production/_ext/1832805299/sys_console.o (vsnprintf)
c:/applications/microchip/xc32/bin/bin/../../lib/gcc/pic32c/8.3.1/../../../../pic32c/lib/thumb/v6-m/nofp\libc-musl.a(__environ.o)
                              c:/applications/microchip/xc32/bin/bin/../../lib/gcc/pic32c/8.3.1/../../../../pic32c/lib/thumb/v6-m/nofp\libc-musl.a(__libc_start_main.o) (__environ)
c:/applications/microchip/xc32/bin/bin/../../lib/gcc/pic32c/8.3.1/../../../../pic32c/lib/thumb/v6-m/nofp\libc-musl.a(__errno_location.o)
                              c:/applications/microchip/xc32/bin/bin/../../lib/gcc/pic32c/8.3.1/../../../../pic32c/lib/thumb/v6-m/nofp\libc-musl.a(vsnprintf.o) (__errno_val)
c:/applications/microchip/xc32/bin/bin/../../lib/gcc/pic32c/8.3.1/../../../../pic32c/lib/thumb/v6-m/nofp\libc-musl.a(vfprintf.o)
                              c:/applications/microchip/xc32/bin/bin/../../lib/gcc/pic32c/8.3.1/../../../../pic32c/lib/thumb/v6-m/nofp\libc-musl.a(vsnprintf.o) (vfprintf)
c:/applications/microchip/xc32/bin/bin/../../lib/gcc/pic32c/8.3.1/../../../../pic32c/lib/thumb/v6-m/nofp\libc-musl.a(__io_fmt_needed.o)
                              c:/applications/microchip/xc32/bin/bin/../../lib/gcc/pic32c/8.3.1/../../../../pic32c/lib/thumb/v6-m/nofp\libc-musl.a(vfprintf.o) (__io_fmt_needed)
c:/applications/microchip/xc32/bin/bin/../../lib/gcc/pic32c/8.3.1/../../../../pic32c/lib/thumb/v6-m/nofp\libc-musl.a(__pop_float.o)
                              c:/applications/microchip/xc32/bin/bin/../../lib/gcc/pic32c/8.3.1/../../../../pic32c/lib/thumb/v6-m/nofp\libc-musl.a(__io_fmt_needed.o) (__pop_float_needed)
c:/applications/microchip/xc32/bin/bin/../../lib/gcc/pic32c/8.3.1/../../../../pic32c/lib/thumb/v6-m/nofp\libc-musl.a(__pop_int.o)
                              c:/applications/microchip/xc32/bin/bin/../../lib/gcc/pic32c/8.3.1/../../../../pic32c/lib/thumb/v6-m/nofp\libc-musl.a(__io_fmt_needed.o) (__pop_int_needed)
c:/applications/microchip/xc32/bin/bin/../../lib/gcc/pic32c/8.3.1/../../../../pic32c/lib/thumb/v6-m/nofp\libc-musl.a(__pop_ptr.o)
                              c:/applications/microchip/xc32/bin/bin/../../lib/gcc/pic32c/8.3.1/../../../../pic32c/lib/thumb/v6-m/nofp\libc-musl.a(__io_fmt_needed.o) (__pop_ptr_needed)
c:/applications/microchip/xc32/bin/bin/../../lib/gcc/pic32c/8.3.1/../../../../pic32c/lib/thumb/v6-m/nofp\libc-musl.a(__printf_core.o)
                              c:/applications/microchip/xc32/bin/bin/../../lib/gcc/pic32c/8.3.1/../../../../pic32c/lib/thumb/v6-m/nofp\libc-musl.a(vfprintf.o) (__printf_core)
c:/applications/microchip/xc32/bin/bin/../../lib/gcc/pic32c/8.3.1/../../../../pic32c/lib/thumb/v6-m/nofp\libc-musl.a(atoi.o)
                              c:/applications/microchip/xc32/bin/bin/../../lib/gcc/pic32c/8.3.1/../../../../pic32c/lib/thumb/v6-m/nofp\libc-musl.a(__printf_core.o) (atoi)
c:/applications/microchip/xc32/bin/bin/../../lib/gcc/pic32c/8.3.1/../../../../pic32c/lib/thumb/v6-m/nofp\libc-musl.a(tolower.o)
                              c:/applications/microchip/xc32/bin/bin/../../lib/gcc/pic32c/8.3.1/../../../../pic32c/lib/thumb/v6-m/nofp\libc-musl.a(__printf_core.o) (tolower)
c:/applications/microchip/xc32/bin/bin/../../lib/gcc/pic32c/8.3.1/../../../../pic32c/lib/thumb/v6-m/nofp\libc-musl.a(__fmt_a.o)
                              c:/applications/microchip/xc32/bin/bin/../../lib/gcc/pic32c/8.3.1/../../../../pic32c/lib/thumb/v6-m/nofp\libc-musl.a(__io_fmt_needed.o) (__fmt_a_needed)
c:/applications/microchip/xc32/bin/bin/../../lib/gcc/pic32c/8.3.1/../../../../pic32c/lib/thumb/v6-m/nofp\libc-musl.a(__fmt_d.o)
                              c:/applications/microchip/xc32/bin/bin/../../lib/gcc/pic32c/8.3.1/../../../../pic32c/lib/thumb/v6-m/nofp\libc-musl.a(__io_fmt_needed.o) (__fmt_d_needed)
c:/applications/microchip/xc32/bin/bin/../../lib/gcc/pic32c/8.3.1/../../../../pic32c/lib/thumb/v6-m/nofp\libc-musl.a(__fmt_fp.o)
                              c:/applications/microchip/xc32/bin/bin/../../lib/gcc/pic32c/8.3.1/../../../../pic32c/lib/thumb/v6-m/nofp\libc-musl.a(__io_fmt_needed.o) (__fmt_f_needed)
c:/applications/microchip/xc32/bin/bin/../../lib/gcc/pic32c/8.3.1/../../../../pic32c/lib/thumb/v6-m/nofp\libc-musl.a(__fmt_o.o)
                              c:/applications/microchip/xc32/bin/bin/../../lib/gcc/pic32c/8.3.1/../../../../pic32c/lib/thumb/v6-m/nofp\libc-musl.a(__io_fmt_needed.o) (__fmt_o_needed)
c:/applications/microchip/xc32/bin/bin/../../lib/gcc/pic32c/8.3.1/../../../../pic32c/lib/thumb/v6-m/nofp\libc-musl.a(__fmt_s.o)
                              c:/applications/microchip/xc32/bin/bin/../../lib/gcc/pic32c/8.3.1/../../../../pic32c/lib/thumb/v6-m/nofp\libc-musl.a(__io_fmt_needed.o) (__fmt_s_needed)
c:/applications/microchip/xc32/bin/bin/../../lib/gcc/pic32c/8.3.1/../../../../pic32c/lib/thumb/v6-m/nofp\libc-musl.a(__fmt_u.o)
                              c:/applications/microchip/xc32/bin/bin/../../lib/gcc/pic32c/8.3.1/../../../../pic32c/lib/thumb/v6-m/nofp\libc-musl.a(__io_fmt_needed.o) (__fmt_u_needed)
c:/applications/microchip/xc32/bin/bin/../../lib/gcc/pic32c/8.3.1/../../../../pic32c/lib/thumb/v6-m/nofp\libc-musl.a(__fmt_x.o)
                              c:/applications/microchip/xc32/bin/bin/../../lib/gcc/pic32c/8.3.1/../../../../pic32c/lib/thumb/v6-m/nofp\libc-musl.a(__io_fmt_needed.o) (__fmt_x_needed)
c:/applications/microchip/xc32/bin/bin/../../lib/gcc/pic32c/8.3.1/../../../../pic32c/lib/thumb/v6-m/nofp\libc-musl.a(toupper.o)
                              c:/applications/microchip/xc32/bin/bin/../../lib/gcc/pic32c/8.3.1/../../../../pic32c/lib/thumb/v6-m/nofp\libc-musl.a(__fmt_a.o) (toupper)
c:/applications/microchip/xc32/bin/bin/../../lib/gcc/pic32c/8.3.1/../../../../pic32c/lib/thumb/v6-m/nofp\libc-musl.a(__cvt_u.o)
                              c:/applications/microchip/xc32/bin/bin/../../lib/gcc/pic32c/8.3.1/../../../../pic32c/lib/thumb/v6-m/nofp\libc-musl.a(__fmt_d.o) (__cvt_u)
c:/applications/microchip/xc32/bin/bin/../../lib/gcc/pic32c/8.3.1/../../../../pic32c/lib/thumb/v6-m/nofp\libm-fast-emfloat.a(fma.o)
                              c:/applications/microchip/xc32/bin/bin/../../lib/gcc/pic32c/8.3.1/../../../../pic32c/lib/thumb/v6-m/nofp\libc-musl.a(__fmt_fp.o) (fma)
c:/applications/microchip/xc32/bin/bin/../../lib/gcc/pic32c/8.3.1/../../../../pic32c/lib/thumb/v6-m/nofp\libm-fast-emfloat.a(floor.o)
                              c:/applications/microchip/xc32/bin/bin/../../lib/gcc/pic32c/8.3.1/../../../../pic32c/lib/thumb/v6-m/nofp\libc-musl.a(__fmt_a.o) (floor)
c:/applications/microchip/xc32/bin/bin/../../lib/gcc/pic32c/8.3.1/../../../../pic32c/lib/thumb/v6-m/nofp\libm-fast-emfloat.a(__aeabi_dsub.o)
                              c:/applications/microchip/xc32/bin/bin/../../lib/gcc/pic32c/8.3.1/../../../../pic32c/lib/thumb/v6-m/nofp\libc-musl.a(__fmt_a.o) (__aeabi_dsub)
c:/applications/microchip/xc32/bin/bin/../../lib/gcc/pic32c/8.3.1/../../../../pic32c/lib/thumb/v6-m/nofp\libm-fast-emfloat.a(__aeabi_ddiv.o)
                              c:/applications/microchip/xc32/bin/bin/../../lib/gcc/pic32c/8.3.1/../../../../pic32c/lib/thumb/v6-m/nofp\libc-musl.a(__fmt_a.o) (__aeabi_ddiv)
c:/applications/microchip/xc32/bin/bin/../../lib/gcc/pic32c/8.3.1/../../../../pic32c/lib/thumb/v6-m/nofp\libm-fast-emfloat.a(__aeabi_dcmple.o)
                              c:/applications/microchip/xc32/bin/bin/../../lib/gcc/pic32c/8.3.1/../../../../pic32c/lib/thumb/v6-m/nofp\libc-musl.a(__fmt_fp.o) (__aeabi_dcmple)
c:/applications/microchip/xc32/bin/bin/../../lib/gcc/pic32c/8.3.1/../../../../pic32c/lib/thumb/v6-m/nofp\libm-fast-emfloat.a(__aeabi_dcmpeq.o)
                              c:/applications/microchip/xc32/bin/bin/../../lib/gcc/pic32c/8.3.1/../../../../pic32c/lib/thumb/v6-m/nofp\libc-musl.a(__fmt_a.o) (__aeabi_dcmpeq)
c:/applications/microchip/xc32/bin/bin/../../lib/gcc/pic32c/8.3.1/../../../../pic32c/lib/thumb/v6-m/nofp\libm-fast-emfloat.a(__aeabi_dcmpgt.o)
                              c:/applications/microchip/xc32/bin/bin/../../lib/gcc/pic32c/8.3.1/../../../../pic32c/lib/thumb/v6-m/nofp\libc-musl.a(__fmt_fp.o) (__aeabi_dcmpgt)
c:/applications/microchip/xc32/bin/bin/../../lib/gcc/pic32c/8.3.1/../../../../pic32c/lib/thumb/v6-m/nofp\libm-fast-emfloat.a(__aeabi_dcmplt.o)
                              c:/applications/microchip/xc32/bin/bin/../../lib/gcc/pic32c/8.3.1/../../../../pic32c/lib/thumb/v6-m/nofp\libc-musl.a(__fmt_a.o) (__aeabi_dcmplt)
c:/applications/microchip/xc32/bin/bin/../../lib/gcc/pic32c/8.3.1/../../../../pic32c/lib/thumb/v6-m/nofp\libm-fast-emfloat.a(__aeabi_d2iz.o)
                              c:/applications/microchip/xc32/bin/bin/../../lib/gcc/pic32c/8.3.1/../../../../pic32c/lib/thumb/v6-m/nofp\libc-musl.a(__fmt_a.o) (__aeabi_d2iz)
c:/applications/microchip/xc32/bin/bin/../../lib/gcc/pic32c/8.3.1/../../../../pic32c/lib/thumb/v6-m/nofp\libm-fast-emfloat.a(__aeabi_d2uiz.o)
                              c:/applications/microchip/xc32/bin/bin/../../lib/gcc/pic32c/8.3.1/../../../../pic32c/lib/thumb/v6-m/nofp\libm-fast-emfloat.a(__aeabi_d2iz.o) (.L__aeabi_d2uiz_fast_entry)
c:/applications/microchip/xc32/bin/bin/../../lib/gcc/pic32c/8.3.1/thumb/v6-m/nofp\libgcc.a(_udivsi3.o)
                              build/default/production/_ext/508257091/plib_sercom0_i2c_master.o (__aeabi_uidiv)
c:/applications/microchip/xc32/bin/bin/../../lib/gcc/pic32c/8.3.1/thumb/v6-m/nofp\libgcc.a(_divsi3.o)
                              build/default/production/_ext/1360937237/hdc302x_driver.o (__aeabi_idiv)
c:/applications/microchip/xc32/bin/bin/../../lib/gcc/pic32c/8.3.1/thumb/v6-m/nofp\libgcc.a(_dvmd_tls.o)
                              c:/applications/microchip/xc32/bin/bin/../../lib/gcc/pic32c/8.3.1/thumb/v6-m/nofp\libgcc.a(_udivsi3.o) (__aeabi_idiv0)
c:/applications/microchip/xc32/bin/bin/../../lib/gcc/pic32c/8.3.1/thumb/v6-m/nofp\libgcc.a(_aeabi_uldivmod.o)
                              build/default/production/_ext/101884895/sys_time.o (__aeabi_uldivmod)
c:/applications/microchip/xc32/bin/bin/../../lib/gcc/pic32c/8.3.1/thumb/v6-m/nofp\libgcc.a(_muldi3.o)
                              build/default/production/_ext/1987437027/plib_freqm.o (__aeabi_lmul)
c:/applications/microchip/xc32/bin/bin/../../lib/gcc/pic32c/8.3.1/thumb/v6-m/nofp\libgcc.a(_udivmoddi4.o)
                              c:/applications/microchip/xc32/bin/bin/../../lib/gcc/pic32c/8.3.1/thumb/v6-m/nofp\libgcc.a(_aeabi_uldivmod.o) (__udivmoddi4)
c:/applications/microchip/xc32/bin/bin/../../lib/gcc/pic32c/8.3.1/thumb/v6-m/nofp\libgcc.a(_lshrdi3.o)
                              c:/applications/microchip/xc32/bin/bin/../../lib/gcc/pic32c/8.3.1/thumb/v6-m/nofp\libgcc.a(_udivmoddi4.o) (__aeabi_llsr)
c:/applications/microchip/xc32/bin/bin/../../lib/gcc/pic32c/8.3.1/thumb/v6-m/nofp\libgcc.a(_ashldi3.o)
                              c:/applications/microchip/xc32/bin/bin/../../lib/gcc/pic32c/8.3.1/thumb/v6-m/nofp\libgcc.a(_udivmoddi4.o) (__aeabi_llsl)
c:/applications/microchip/xc32/bin/bin/../../lib/gcc/pic32c/8.3.1/thumb/v6-m/nofp\libgcc.a(_clzdi2.o)
                              c:/applications/microchip/xc32/bin/bin/../../lib/gcc/pic32c/8.3.1/thumb/v6-m/nofp\libgcc.a(_udivmoddi4.o) (__clzdi2)
c:/applications/microchip/xc32/bin/bin/../../lib/gcc/pic32c/8.3.1/thumb/v6-m/nofp\libgcc.a(_clzsi2.o)
                              c:/applications/microchip/xc32/bin/bin/../../lib/gcc/pic32c/8.3.1/thumb/v6-m/nofp\libgcc.a(_clzdi2.o) (__clzsi2)
c:/applications/microchip/xc32/bin/bin/../../lib/gcc/pic32c/8.3.1/../../../../pic32c/lib/thumb/v6-m/nofp\libc-size-musl.a(strcpy.o)
                              c:/applications/microchip/xc32/bin/bin/../../lib/gcc/pic32c/8.3.1/../../../../pic32c/lib/thumb/v6-m/nofp\libc-musl.a(__fmt_a.o) (strcpy)
c:/applications/microchip/xc32/bin/bin/../../lib/gcc/pic32c/8.3.1/../../../../pic32c/lib/thumb/v6-m/nofp\libc-size-musl.a(stpcpy.o)
                              c:/applications/microchip/xc32/bin/bin/../../lib/gcc/pic32c/8.3.1/../../../../pic32c/lib/thumb/v6-m/nofp\libc-size-musl.a(strcpy.o) (__stpcpy)
c:/applications/microchip/xc32/bin/bin/../../lib/gcc/pic32c/8.3.1/../../../../pic32c/lib/thumb/v6-m/nofp\libpic32c.a(pic32_data_init_clear.o)
                              (__dinit_clear_needed)
c:/applications/microchip/xc32/bin/bin/../../lib/gcc/pic32c/8.3.1/../../../../pic32c/lib/thumb/v6-m/nofp\libpic32c.a(pic32_data_init_copy.o)
                              (__dinit_copy_needed)

Microchip PIC32 Memory-Usage Report

ROM Program-Memory Usage
section                    address  length [bytes]      (dec)  Description
-------                 ----------  -------------------------  -----------
.vectors                         0           0xc0         192   
.text                         0xc0           0x20          32  App's exec code 
.ARM.exidx                    0xe0            0x8           8   
.text.MCP9808_DRIVER_Ta       0xe8          0x294         660   
.text.lDRV_I2C_WriteRea      0x37c          0x254         596   
.dinit                       0x5d0          0x240         576   
.text.CAN0_DRIVER_Tasks      0x810          0x1d0         464   
.text.CLOCK_Initialize       0x9e0          0x1c8         456   
.text.__aeabi_dadd           0xba8          0x1c8         456   
.text.SERCOM0_I2C_Inter      0xd70          0x1bc         444   
.text.SHT4X_DRIVER_Task      0xf2c          0x1b4         436   
.text.__aeabi_dmul_aux      0x10e0          0x18a         394   
.text.Dummy_Handler         0x126a            0x2           2   
.text.SERCOM1_SPI_Write     0x126c          0x178         376   
.text.SERCOM1_SPI_Inter     0x13e4          0x154         340   
.text.SERCOM3_USART_Ser     0x1538          0x148         328   
.text.__aeabi_fadd          0x1680          0x13a         314   
.text.Dummy_App_Func        0x17ba            0x2           2   
.text.SERCOM0_I2C_Trans     0x17bc          0x10c         268   
.text.RSTC_DRIVER_Tasks     0x18c8          0x108         264   
.text.SERCOM2_USART_Wri     0x19d0          0x104         260   
.text.DRV_I2C_Open          0x1ad4          0x100         256   
.text.lDRV_USART_Buffer     0x1bd4           0xf4         244   
.text.SERCOM2_USART_ISR     0x1cc8           0xec         236   
.text.SYS_TIME_PLIBCall     0x1db4           0xe8         232   
.text                       0x1e9c           0xe2         226  App's exec code 
.text.EVSYS_Initialize      0x1f7e            0x2           2   
.text.SYS_Initialize        0x1f80           0xe0         224   
.text.SERCOM2_USART_ISR     0x2060           0xe0         224   
.text.SYS_TIME_AddToLis     0x2140           0xdc         220   
.text.NVIC_Initialize       0x221c           0xdc         220   
.text.lDRV_SPI_PlibCall     0x22f8           0xdc         220   
.text.lDRV_SPI_UpdateTr     0x23d4           0xd0         208   
.text.CAN0_MessageRecei     0x24a4           0xcc         204   
.text.Reset_Handler         0x2570           0xcc         204   
.text.DRV_USART_Initial     0x263c           0xcc         204   
.text.DMAC_ChannelTrans     0x2708           0xc8         200   
.text.SYS_TIME_TimerObj     0x27d0           0xc0         192   
.text.lDRV_I2C_NextTran     0x2890           0xc0         192   
.text.SYS_TIME_HwTimerC     0x2950           0xbc         188   
.text.SYS_TIME_Initiali     0x2a0c           0xbc         188   
.text.DMAC_Initialize       0x2ac8           0xb8         184   
.text.__aeabi_fmul          0x2b80           0xb6         182   
.text.Console_UART_Task     0x2c36            0x2           2   
.text.DRV_SPI_Initializ     0x2c38           0xb0         176   
.text.EIC_Initialize        0x2ce8           0xa4         164   
.text.SERCOM1_SPI_Trans     0x2d8c           0xa0         160   
.text.CAN0_MessageRAMCo     0x2e2c           0x9c         156   
.text.SERCOM2_USART_Rea     0x2ec8           0x94         148   
.text.__aeabi_fdiv          0x2f5c           0x94         148   
.text.SERCOM2_USART_Ini     0x2ff0           0x8c         140   
.text                       0x307c           0x8c         140  App's exec code 
.text.lDRV_I2C_Resource     0x3108           0x8a         138   
.text.NonMaskableInt_Ha     0x3192            0x2           2   
.text.SERCOM3_USART_ISR     0x3194           0x84         132   
.text.DMAC_InterruptHan     0x3218           0x7c         124   
.text.lDRV_I2C_Resource     0x3294           0x7c         124   
.text.TIMER_DRIVER_Init     0x3310           0x7c         124   
.text.CAN0_MessageTrans     0x338c           0x78         120   
.text.SERCOM3_USART_Wri     0x3404           0x74         116   
.text.CAN0_Initialize       0x3478           0x74         116   
.text.DRV_I2C_Close         0x34ec           0x74         116   
.text.CAN0_DRIVER_Get_R     0x3560           0x74         116   
.text.SERCOM3_USART_ISR     0x35d4           0x70         112   
.text.DRV_I2C_Initializ     0x3644           0x6c         108   
.text.RTC_DRIVER_Tasks      0x36b0           0x6c         108   
.text.lDRV_USART_ReadSu     0x371c           0x66         102   
.text.HardFault_Handler     0x3782            0x2           2   
.rodata.MCP9808_DRIVER_     0x3784           0x64         100   
.text.__aeabi_d2f           0x37e8           0x62          98   
.text.FCM360W_DRIVER_Ta     0x384a            0x2           2   
.text.SERCOM0_I2C_Initi     0x384c           0x60          96   
.text.EIC_InterruptHand     0x38ac           0x60          96   
.text.SYS_TIME_RemoveFr     0x390c           0x60          96   
.text.SYS_TIME_TimerSta     0x396c           0x60          96   
.text.lDRV_USART_WriteS     0x39cc           0x60          96   
.text.SYS_CONSOLE_Initi     0x3a2c           0x5c          92   
.text.__libc_start_init     0x3a88           0x5c          92   
.text.SUPC_Initialize       0x3ae4           0x58          88   
.text.SERCOM3_USART_Ini     0x3b3c           0x58          88   
.text.SYS_TIME_TimerAdd     0x3b94           0x58          88   
.text.SYS_TIME_Callback     0x3bec           0x58          88   
.text.lDRV_I2C_PLibCall     0x3c44           0x58          88   
.text.SERCOM0_I2C_Initi     0x3c9c           0x54          84   
.text.SERCOM3_USART_Int     0x3cf0           0x54          84   
.text.SERCOM2_USART_Int     0x3d44           0x54          84   
.text.MCP9808_DRIVER_Ca     0x3d98           0x54          84   
.text.ADC0_Initialize       0x3dec           0x4c          76   
.text.lDRV_I2C_DriverHa     0x3e38           0x4c          76   
.text.SERCOM2_USART_ISR     0x3e84           0x4c          76   
.text                       0x3ed0           0x48          72  App's exec code 
.text.lDRV_I2C_ClientCa     0x3f18           0x48          72   
.text.SHT4X_DRIVER_Calc     0x3f60           0x48          72   
.text.SERCOM0_I2C_Trans     0x3fa8           0x44          68   
.text.SERCOM3_USART_Rea     0x3fec           0x44          68   
.text.TCC0_PWMInitializ     0x4030           0x44          68   
.text.CAN0_DRIVER_Set_M     0x4074           0x44          68   
.text.__aeabi_f2d           0x40b8           0x44          68   
.text                       0x40fc           0x44          68  App's exec code 
.text.TC0_TimerInitiali     0x4140           0x40          64   
.text.TC1_TimerInitiali     0x4180           0x40          64   
.text.SYS_TIME_GetTimer     0x41c0           0x40          64   
.text.SYS_TIME_TimerDes     0x4200           0x40          64   
.text.SYS_TIME_TimerSto     0x4240           0x40          64   
.text                       0x4280           0x40          64  App's exec code 
.text.__aeabi_f2iz          0x42c0           0x3e          62   
.text.__dummy_init_tls      0x42fe            0x2           2   
.rodata.drvUsart0InitDa     0x4300           0x3c          60   
.text.SERCOM1_SPI_Initi     0x433c           0x3c          60   
.text.SERCOM3_USART_ISR     0x4378           0x3c          60   
.text.DMAC_ChannelSetti     0x43b4           0x3c          60   
.text.SYS_INT_SourceDis     0x43f0           0x3c          60   
.text.PDEC_QDECInitiali     0x442c           0x3c          60   
.text.RTC_Initialize        0x4468           0x3c          60   
.text                       0x44a4           0x3c          60  App's exec code 
.text.SERCOM0_I2C_Read      0x44e0           0x38          56   
.text.SERCOM0_I2C_Write     0x4518           0x38          56   
.text.SYS_TIME_UpdateTi     0x4550           0x38          56   
.text.SYS_TIME_Resource     0x4588           0x38          56   
.text.DRV_I2C_TransferE     0x45c0           0x38          56   
.text.Console_UART_Read     0x45f8           0x38          56   
.text.Console_UART_Writ     0x4630           0x38          56   
.rodata.SHT4X_DRIVER_Ta     0x4668           0x38          56   
.text.__pic32c_data_ini     0x46a0           0x38          56   
.text.SERCOM0_I2C_Write     0x46d8           0x34          52   
.text.TC0_TimerInterrup     0x470c           0x34          52   
.rodata.drvSPI0InitData     0x4740           0x34          52   
.text.TC1_TimerInterrup     0x4774           0x34          52   
.text.RTC_Timer32Counte     0x47a8           0x34          52   
.rodata.CAN0_DRIVER_Tas     0x47dc           0x34          52   
.text.lDRV_I2C_RemoveCl     0x4810           0x32          50   
.text.__dummy               0x4842            0x2           2   
.text.RTC_InterruptHand     0x4844           0x30          48   
.text.Console_UART_Writ     0x4874           0x30          48   
.text.Console_UART_Writ     0x48a4           0x30          48   
.text.Console_UART_Read     0x48d4           0x30          48   
.text.Console_UART_Read     0x4904           0x30          48   
.text.MCP9808_DRIVER_Ge     0x4934           0x30          48   
.text.MCP9808_DRIVER_Ge     0x4964           0x30          48   
.text.MCP9808_DRIVER_Ge     0x4994           0x30          48   
.text.SHT4X_DRIVER_Calc     0x49c4           0x30          48   
.text.SUPC_InterruptHan     0x49f4           0x2c          44   
.text.OSC32KCTRL_Interr     0x4a20           0x2c          44   
.text.TC0_Timer16bitCou     0x4a4c           0x2c          44   
.text.SYS_Tasks             0x4a78           0x2c          44   
.rodata.drvUsart0PlibAP     0x4aa4           0x2c          44   
.text.SERCOM3_USART_Err     0x4ad0           0x2c          44   
.text.CAN0_ErrorGet         0x4afc           0x2c          44   
.text.lDRV_USART_RX_PLI     0x4b28           0x2c          44   
.text.lDRV_USART_RX_DMA     0x4b54           0x2c          44   
.text.lDRV_USART_TX_DMA     0x4b80           0x2c          44   
.rodata.sysConsoleUARTD     0x4bac           0x2c          44   
.rodata.drvSPI0remapDat     0x4bd8           0x28          40   
.text.SERCOM3_USART_Rea     0x4c00           0x28          40   
.text.EIC_CallbackRegis     0x4c28           0x28          40   
.text.SYS_TIME_Resource     0x4c50           0x28          40   
.text.MCP9808_DRIVER_Se     0x4c78           0x28          40   
.text.__aeabi_i2f           0x4ca0           0x26          38   
.text.lDRV_USART_Remove     0x4cc6           0x24          36   
.text.BME690_DRIVER_Ini     0x4cec           0x24          36   
.text.SHT4X_DRIVER_Star     0x4d10           0x24          36   
.text.__aeabi_f2uiz         0x4d34           0x24          36   
.text.SYS_DMA_DataWidth     0x4d58           0x20          32   
.text.CAN0_RxFifoFillLe     0x4d78           0x20          32   
.rodata.RSTC_DRIVER_Tas     0x4d98           0x20          32   
.text.RTC_DRIVER_Initia     0x4db8           0x20          32   
.text.SHT4X_DRIVER_Get_     0x4dd8           0x20          32   
.text.__aeabi_ui2f          0x4df8           0x1e          30   
.text.__dinit_copy          0x4e16           0x1e          30   
.text.TC0_TimerStart        0x4e34           0x1c          28   
.text.TC0_TimerStop         0x4e50           0x1c          28   
.rodata.drvI2C0InitData     0x4e6c           0x1c          28   
.rodata.drvI2C0PLibAPI      0x4e88           0x1c          28   
.rodata.drvUSART0Interr     0x4ea4           0x1c          28   
.rodata.sysTimePlibAPI      0x4ec0           0x1c          28   
.text.DAC_Initialize        0x4edc           0x1c          28   
.text.SYS_TIME_GetElaps     0x4ef8           0x1c          28   
.text.CCL_Initialize        0x4f14           0x1c          28   
.text.SYS_INT_SourceRes     0x4f30           0x1c          28   
.text.DRV_I2C_ReadTrans     0x4f4c           0x1c          28   
.text.DRV_I2C_WriteRead     0x4f68           0x1c          28   
.text.RTC_Timer32Start      0x4f84           0x1c          28   
.text.SERCOM2_USART_Wri     0x4fa0           0x1c          28   
.text.SERCOM2_USART_Rea     0x4fbc           0x1c          28   
.text.CAN0_DRIVER_Initi     0x4fd8           0x1c          28   
.text.MCP9808_DRIVER_I2     0x4ff4           0x1c          28   
.text.SHT4X_DRIVER_I2C_     0x5010           0x1c          28   
.text.DRV_I2C_WriteTran     0x502c           0x1a          26   
.text.FREQM_Initialize      0x5048           0x18          24   
.rodata.drvSPI0Interrup     0x5060           0x18          24   
.rodata.drvUsart0remapP     0x5078           0x18          24   
.rodata.sysConsole0UART     0x5090           0x18          24   
.text.Console_UART_Init     0x50a8           0x18          24   
.text.HDC302X_DRIVER_In     0x50c0           0x18          24   
.text.MCP9808_DRIVER_St     0x50d8           0x18          24   
.text.MCP9808_DRIVER_St     0x50f0           0x18          24   
.text.MCP9808_DRIVER_St     0x5108           0x18          24   
.text.MCP9808_DRIVER_In     0x5120           0x18          24   
.rodata.RTC_DRIVER_Task     0x5138           0x18          24   
.text.SHT4X_DRIVER_Init     0x5150           0x18          24   
.text                       0x5168           0x18          24  App's exec code 
.text                       0x5180           0x18          24  App's exec code 
.text                       0x5198           0x18          24  App's exec code 
.text.TC0_Timer16bitPer     0x51b0           0x14          20   
.text.TC0_Timer16bitCom     0x51c4           0x14          20   
.rodata.drvI2C0Interrup     0x51d8           0x14          20   
.rodata.drvUsart0remapD     0x51ec           0x14          20   
.text.SERCOM1_SPI_IsTra     0x5200           0x14          20   
.text.CAN0_InterruptGet     0x5214           0x14          20   
.text.NVIC_INT_Restore      0x5228           0x14          20   
.text.lDRV_I2C_RemoveTr     0x523c           0x14          20   
.text.lDRV_SPI_RemoveTr     0x5250           0x14          20   
.text.Console_UART_Stat     0x5264           0x14          20   
.text.SERCOM2_USART_Rea     0x5278           0x14          20   
.text.SERCOM2_USART_Wri     0x528c           0x14          20   
.text.BME690_DRIVER_Tas     0x52a0           0x14          20   
.text.CONSOLE_DRIVER_Ta     0x52b4           0x14          20   
.text.HDC302X_DRIVER_Ta     0x52c8           0x14          20   
.text.XM125_DRIVER_Task     0x52dc           0x14          20   
.rodata                     0x52f0           0x14          20  Read-only const 
.text.memcpy                0x5304           0x14          20   
.text.memset                0x5318           0x14          20   
.text.NVIC_INT_Disable      0x532c           0x12          18   
.text.__dinit_clear         0x533e           0x12          18   
.text.SERCOM0_I2C_Error     0x5350           0x10          16   
.rodata.drvSPI0PlibAPI      0x5360           0x10          16   
.text.SERCOM3_USART_Err     0x5370           0x10          16   
.text.SERCOM3_USART_Rea     0x5380           0x10          16   
.text.PM_Initialize         0x5390           0x10          16   
.text.DMAC_ChannelCallb     0x53a0           0x10          16   
.text.DMAC_ChannelSetti     0x53b0           0x10          16   
.text.TIMER_DRIVER_Stop     0x53c0           0x10          16   
.text.TIMER_DRIVER_Star     0x53d0           0x10          16   
.text.TIMER_DRIVER_Stop     0x53e0           0x10          16   
.text.TIMER_DRIVER_Star     0x53f0           0x10          16   
.text.TIMER_DRIVER_Stop     0x5400           0x10          16   
.text.TIMER_DRIVER_Stop     0x5410           0x10          16   
.text.__aeabi_fsub          0x5420           0x10          16   
.text.main                  0x5430            0xe          14   
.text.lDRV_USART_TX_PLI     0x543e            0xe          14   
.text.OSC32KCTRL_Callba     0x544c            0xc          12   
.text.SERCOM0_I2C_Callb     0x5458            0xc          12   
.text.TC0_TimerCallback     0x5464            0xc          12   
.rodata.drvUsart0remapE     0x5470            0xc          12   
.rodata.drvUsart0remapS     0x547c            0xc          12   
.rodata.sysConsole0Init     0x5488            0xc          12   
.text.SERCOM1_SPI_Callb     0x5494            0xc          12   
.text.SYSTEM_Handler        0x54a0            0xc          12   
.text.SERCOM3_USART_Wri     0x54ac            0xc          12   
.text.SERCOM3_USART_Wri     0x54b8            0xc          12   
.text.SERCOM3_USART_Wri     0x54c4            0xc          12   
.text.SERCOM3_USART_Rea     0x54d0            0xc          12   
.text.SERCOM3_USART_Rea     0x54dc            0xc          12   
.text.NVMCTRL_Initializ     0x54e8            0xc          12   
.text.CAN0_InterruptCle     0x54f4            0xc          12   
.text.RSTC_ResetCauseGe     0x5500            0xc          12   
.text.BME690_DRIVER_Ale     0x550c            0xc          12   
.text.CONSOLE_DRIVER_In     0x5518            0xc          12   
.text.FCM360W_DRIVER_In     0x5524            0xc          12   
.text.RSTC_DRIVER_Initi     0x5530            0xc          12   
.text.RTC_DRIVER_XOSC32     0x553c            0xc          12   
.text.TMR0_Callback         0x5548            0xc          12   
.text.TMR1_Callback         0x5554            0xc          12   
.text.TMR2_Callback         0x5560            0xc          12   
.text.TMR3_Callback         0x556c            0xc          12   
.text.TIMER_DRIVER_Get_     0x5578            0xc          12   
.text.TIMER_DRIVER_Set_     0x5584            0xc          12   
.text.TIMER_DRIVER_Get_     0x5590            0xc          12   
.text.XM125_DRIVER_Init     0x559c            0xc          12   
.text.TC0_TimerFrequenc     0x55a8            0x8           8   
.rodata.drvSPI0remapClo     0x55b0            0x8           8   
.rodata.drvSPI0remapClo     0x55b8            0x8           8   
.rodata.sysTimeInitData     0x55c0            0x8           8   
.text.TC1_6_Handler         0x55c8            0x8           8   
.text.TC0_5_Handler         0x55d0            0x8           8   
.text.SYS_INT_Disable       0x55d8            0x8           8   
.text.SYS_INT_Restore       0x55e0            0x8           8   
.text.SERCOM2_USART_Wri     0x55e8            0x8           8   
.rodata.sysConsole0UART     0x55f0            0x4           4   
.text.PORT_GroupSet         0x55f4            0x4           4   
.text.PORT_GroupClear       0x55f8            0x4           4   
.text.Console_UART_Flus     0x55fc            0x4           4   
.text.__dummy_decompres     0x5600            0x4           4   
.text                       0x5604            0x4           4  App's exec code 
      Total ROM used  :      0x5604       22020  4.2% of 0x80000
        --------------------------------------------------------------------------
         Total Program Memory used  :      0x5604       22020  4.2% of 0x80000
        --------------------------------------------------------------------------


RAM Data-Memory Usage
section                    address  length [bytes]      (dec)  Description
-------                 ----------  -------------------------  -----------
.bss.can0_driverData    0x20000000         0x5b40       23360   
.bss.SERCOM2_USART_Read 0x20005b40         0x1000        4096   
.bss.SERCOM2_USART_Writ 0x20006b40         0x1000        4096   
.bss.timers             0x20007b40          0x640        1600   
.bss.eicCallbackObject  0x20008180           0xc0         192   
.bss.drvUSART0BufferObj 0x20008240           0xb4         180   
.bss.drvSPI0TransferObj 0x200082f4           0x90         144   
.bss.gDrvSPIObj         0x20008384           0x74         116   
.bss.gDrvUSARTObj       0x200083f8           0x60          96   
.bss.drvI2C0TransferObj 0x20008458           0x58          88   
.bss                    0x200084b0           0x50          80  Uninitialized data 
.bss.gSystemCounterObj  0x20008500           0x40          64   
.bss.descriptor_section 0x20008540           0x40          64   
.bss.dmacChannelObj     0x20008580           0x40          64   
.bss.write_back_section 0x200085c0           0x40          64   
.bss.sercom2USARTObj    0x20008600           0x40          64   
.bss.can0DataTx         0x20008640           0x40          64   
.bss.gDrvI2CObj         0x20008680           0x3c          60   
.bss.sercom3USARTObj    0x200086bc           0x30          48   
.bss.sercom0I2CObj      0x200086ec           0x2c          44   
.bss.sercom1SPIObj      0x20008718           0x2c          44   
.bss.drvSPI0ClientObjPo 0x20008744           0x28          40   
.bss.bme690_driverData  0x2000876c           0x20          32   
.bss.hdc302x_driverData 0x2000878c           0x20          32   
.bss.mcp9808_driverData 0x200087ac           0x20          32   
.bss.sht4x_driverData   0x200087cc           0x20          32   
.bss                    0x200087ec           0x1c          28  Uninitialized data 
.bss.can0Obj            0x20008808           0x1c          28   
.bss.drvI2C0ClientObjPo 0x20008824           0x18          24   
.bss.sysObj             0x2000883c           0x14          20   
.bss.sht4x_sensorData   0x20008850           0x14          20   
.bss.timer_driverData   0x20008864           0x14          20   
.bss.drvUSART0ClientObj 0x20008878           0x10          16   
.bss.mcp9808_sensorData 0x20008888           0x10          16   
.bss.consoleDeviceInsta 0x20008898            0xc          12   
.bss.rtcObj             0x200088a4            0xc          12   
.bss.supcCallbackObject 0x200088b0            0x8           8   
.bss.osc32kctrlObj      0x200088b8            0x8           8   
.bss.TC0_CallbackObject 0x200088c0            0x8           8   
.bss.TC1_CallbackObject 0x200088c8            0x8           8   
.bss.gConsoleUartData   0x200088d0            0x8           8   
.bss.rtc_driverData     0x200088d8            0x8           8   
.bss.txDummyData        0x200088e0            0x4           4   
.bss.rstc_driverData    0x200088e4            0x4           4   
.bss                    0x200088e8            0x4           4  Uninitialized data 
.bss                    0x200088ec            0x4           4  Uninitialized data 
.bss.xm125_driverData   0x200088f0            0x1           1   
.bss.isLastByteTransfer 0x200088f1            0x1           1   
.bss.consolePrintBuffer 0x200088f2            0x1           1   
.bss.isConsoleMutexCrea 0x200088f3            0x1           1   
.bss.fcm360w_driverData 0x200088f4            0x1           1   
.data.gSysTimeTokenCoun 0x200088f6            0x2           2   
.bss.console_driverData 0x200088f8            0x1           1   
         Total RAM used  :      0x88f8       35064  53.5% of 0x10000
        --------------------------------------------------------------------------
            Total Data Memory used  :      0x88f8       35064  53.5% of 0x10000
        --------------------------------------------------------------------------


Dynamic Data-Memory Reservation
section                    address  length [bytes]      (dec)  Description
-------                 ----------  -------------------------  -----------
heap                    0x20008900         0x1000        4096  Reserved for heap 
stack                   0x20009918         0x66d8       26328  Reserved for stack 

        --------------------------------------------------------------------------

Microchip PIC32 Memory-Usage Report By Module

        text        data         bss         dec         hex    basename                     filename
--------------------------------------------------------------------------------
         728           0       23424       24152        5e58    can0_driver.o            build/default/production/_ext/1360937237/can0_driver.o
        1272           0        8256        9528        2538    plib_sercom2_usart.o     build/default/production/_ext/504274921/plib_sercom2_usart.o
        1760           2        1664        3426         d62    sys_time.o               build/default/production/_ext/101884895/sys_time.o
        1974           0          60        2034         7f2    drv_i2c.o                build/default/production/_ext/158385033/drv_i2c.o
         732           0         512        1244         4dc    initialization.o         build/default/production/_ext/1171490990/initialization.o
        1164           0          48        1212         4bc    plib_sercom3_usart.o     build/default/production/_ext/504274921/plib_sercom3_usart.o
        1152           0          48        1200         4b0    mcp9808_driver.o         build/default/production/_ext/1360937237/mcp9808_driver.o
        1152           0          44        1196         4ac    plib_sercom0_i2c_master.obuild/default/production/_ext/508257091/plib_sercom0_i2c_master.o
         968           0          45        1013         3f5    plib_sercom1_spi_master.obuild/default/production/_ext/17022449/plib_sercom1_spi_master.o
         828           0          96         924         39c    drv_usart.o              build/default/production/_ext/869808652/drv_usart.o
         600           0         192         792         318    plib_dmac.o              build/default/production/_ext/1865161661/plib_dmac.o
         732           0          52         784         310    sht4x_driver.o           build/default/production/_ext/1360937237/sht4x_driver.o
         624           0         120         744         2e8    drv_spi.o                build/default/production/_ext/2070931557/drv_spi.o
         704           0          28         732         2dc    plib_can0.o              build/default/production/_ext/60165182/plib_can0.o
         576           0           0         576         240    data_init                data_init
         512           0           8         520         208    plib_clock.o             build/default/production/_ext/1984496892/plib_clock.o
         300           0         192         492         1ec    plib_eic.o               build/default/production/_ext/60167341/plib_eic.o
         456           0           0         456         1c8    __aeabi_dadd.o           libm-fast-emfloat.a
         398           0           8         406         196    sys_console_uart.o       build/default/production/_ext/1832805299/sys_console_uart.o
         394           0           0         394         18a    __aeabi_dmul_aux.o       libm-fast-emfloat.a
         304           0          20         324         144    timer_driver.o           build/default/production/_ext/1360937237/timer_driver.o
         314           0           0         314         13a    __aeabi_fadd.o           libm-fast-emfloat.a
         308           0           4         312         138    rstc_driver.o            build/default/production/_ext/1360937237/rstc_driver.o
         276           0           8         284         11c    plib_tc0.o               build/default/production/_ext/829342655/plib_tc0.o
         258           0           0         258         102    plib_nvic.o              build/default/production/_ext/1865468468/plib_nvic.o
         234           0           0         234          ea    _udivmoddi4.o            libgcc.a
         222           0           0         222          de    interrupts.o             build/default/production/_ext/1171490990/interrupts.o
         206           0           0         206          ce    startup_xc32.o           build/default/production/_ext/1171490990/startup_xc32.o
         188           0          12         200          c8    plib_rtc_timer.o         build/default/production/_ext/60180175/plib_rtc_timer.o
         176           0           8         184          b8    rtc_driver.o             build/default/production/_ext/1360937237/rtc_driver.o
         182           0           0         182          b6    __aeabi_fmul.o           libm-fast-emfloat.a
         148           0           0         148          94    __aeabi_fdiv.o           libm-fast-emfloat.a
         140           0           0         140          8c    _udivsi3.o               libgcc.a
         132           0           8         140          8c    plib_supc.o              build/default/production/_ext/1865616679/plib_supc.o
         116           0           8         124          7c    plib_tc1.o               build/default/production/_ext/829342655/plib_tc1.o
          80           0          28         108          6c    crtbegin.o               c:/applications/microchip/xc32/bin/bin/../../lib/gcc/pic32c/8.3.1/thumb/v6-m/nofp/crtbegin.o
          92           0          14         106          6a    sys_console.o            build/default/production/_ext/1832805299/sys_console.o
         104           0           0         104          68    sys_int.o                build/default/production/_ext/1881668453/sys_int.o
          68           0          32         100          64    bme690_driver.o          build/default/production/_ext/1360937237/bme690_driver.o
          98           0           0          98          62    __aeabi_d2f.o            libm-fast-emfloat.a
          94           0           0          94          5e    __libc_start_main.o      libc-musl.a
          82           0           4          86          56    data_init.o              libpic32c.a
           0           0          80          80          50    libc.o                   libc-musl.a
          76           0           0          76          4c    plib_adc0.o              build/default/production/_ext/60163342/plib_adc0.o
          44           0          32          76          4c    hdc302x_driver.o         build/default/production/_ext/1360937237/hdc302x_driver.o
          68           0           0          68          44    plib_tcc0.o              build/default/production/_ext/60181570/plib_tcc0.o
          68           0           0          68          44    __aeabi_f2d.o            libm-fast-emfloat.a
          68           0           0          68          44    _muldi3.o                libgcc.a
          64           0           0          64          40    _aeabi_uldivmod.o        libgcc.a
          62           0           0          62          3e    __aeabi_f2iz.o           libm-fast-emfloat.a
          60           0           0          60          3c    _clzsi2.o                libgcc.a
          60           0           0          60          3c    plib_pdec.o              build/default/production/_ext/1865510628/plib_pdec.o
          44           0           0          44          2c    tasks.o                  build/default/production/_ext/1171490990/tasks.o
          38           0           0          38          26    __aeabi_i2f.o            libm-fast-emfloat.a
          36           0           0          36          24    __aeabi_f2uiz.o          libm-fast-emfloat.a
          32           0           1          33          21    xm125_driver.o           build/default/production/_ext/1360937237/xm125_driver.o
          32           0           1          33          21    console_driver.o         build/default/production/_ext/1360937237/console_driver.o
          32           0           0          32          20    sys_dma.o                build/default/production/_ext/14461671/sys_dma.o
          30           0           0          30          1e    pic32_data_init_copy.o   libpic32c.a
          30           0           0          30          1e    __aeabi_ui2f.o           libm-fast-emfloat.a
          28           0           0          28          1c    plib_ccl.o               build/default/production/_ext/60165242/plib_ccl.o
          28           0           0          28          1c    plib_dac.o               build/default/production/_ext/60166132/plib_dac.o
          24           0           0          24          18    _lshrdi3.o               libgcc.a
          24           0           0          24          18    _ashldi3.o               libgcc.a
          24           0           0          24          18    plib_freqm.o             build/default/production/_ext/1987437027/plib_freqm.o
          24           0           0          24          18    _clzdi2.o                libgcc.a
          20           0           0          20          14    memcpy.o                 libc-size-musl.a
          20           0           0          20          14    memset.o                 libc-size-musl.a
          18           0           0          18          12    pic32_data_init_clear.o  libpic32c.a
          16           0           0          16          10    __aeabi_fsub.o           libm-fast-emfloat.a
          16           0           0          16          10    plib_pm.o                build/default/production/_ext/829342769/plib_pm.o
          16           0           0          16          10    crtn.o                   c:/applications/microchip/xc32/bin/bin/../../lib/gcc/pic32c/8.3.1/thumb/v6-m/nofp/crtn.o
          14           0           1          15           f    fcm360w_driver.o         build/default/production/_ext/1360937237/fcm360w_driver.o
          14           0           0          14           e    main.o                   build/default/production/_ext/1360937237/main.o
          12           0           0          12           c    plib_nvmctrl.o           build/default/production/_ext/1593096446/plib_nvmctrl.o
          12           0           0          12           c    plib_rstc.o              build/default/production/_ext/1865585090/plib_rstc.o
           8           0           0           8           8    crti.o                   c:/applications/microchip/xc32/bin/bin/../../lib/gcc/pic32c/8.3.1/thumb/v6-m/nofp/crti.o
           8           0           0           8           8    plib_port.o              build/default/production/_ext/1865521619/plib_port.o
           0           0           4           4           4    __environ.o              libc-musl.a
           4           0           0           4           4    _dvmd_tls.o              libgcc.a
           4           0           0           4           4    exceptions.o             build/default/production/_ext/1171490990/exceptions.o
           2           0           0           2           2    plib_evsys.o             build/default/production/_ext/1986646378/plib_evsys.o
--------------------------------------------------------------------------------
       22028           2       35062       57092        df04    dist/default/production/PIC32CMxxxxJH01_DRIVER.X.production.elf


Discarded input sections

 .text          0x0000000000000000        0x0 c:/applications/microchip/xc32/bin/bin/../../lib/gcc/pic32c/8.3.1/thumb/v6-m/nofp/crti.o
 .data          0x0000000000000000        0x0 c:/applications/microchip/xc32/bin/bin/../../lib/gcc/pic32c/8.3.1/thumb/v6-m/nofp/crti.o
 .bss           0x0000000000000000        0x0 c:/applications/microchip/xc32/bin/bin/../../lib/gcc/pic32c/8.3.1/thumb/v6-m/nofp/crti.o
 .xc_stack_usage.hdr
                0x0000000000000000        0xe c:/applications/microchip/xc32/bin/bin/../../lib/gcc/pic32c/8.3.1/thumb/v6-m/nofp/crti.o
 .xc_stack_usage
                0x0000000000000000       0x26 c:/applications/microchip/xc32/bin/bin/../../lib/gcc/pic32c/8.3.1/thumb/v6-m/nofp/crti.o
 .data          0x0000000000000000        0x4 c:/applications/microchip/xc32/bin/bin/../../lib/gcc/pic32c/8.3.1/thumb/v6-m/nofp/crtbegin.o
 .xc_stack_usage
                0x0000000000000000       0x3c c:/applications/microchip/xc32/bin/bin/../../lib/gcc/pic32c/8.3.1/thumb/v6-m/nofp/crtbegin.o
 .xc_stack_usage.hdr
                0x0000000000000000        0xe c:/applications/microchip/xc32/bin/bin/../../lib/gcc/pic32c/8.3.1/thumb/v6-m/nofp/crtbegin.o
 .text          0x0000000000000000        0x0 build/default/production/_ext/1985337713/plib_divas.o
 .data          0x0000000000000000        0x0 build/default/production/_ext/1985337713/plib_divas.o
 .bss           0x0000000000000000        0x0 build/default/production/_ext/1985337713/plib_divas.o
 .text.DIVAS_SquareRoot
                0x0000000000000000       0x2a build/default/production/_ext/1985337713/plib_divas.o
 .text.DIVAS_DivSigned
                0x0000000000000000       0x38 build/default/production/_ext/1985337713/plib_divas.o
 .text.DIVAS_DivUnsigned
                0x0000000000000000       0x36 build/default/production/_ext/1985337713/plib_divas.o
 .text.DIVAS_DivmodSigned
                0x0000000000000000       0x3a build/default/production/_ext/1985337713/plib_divas.o
 .text.DIVAS_DivmodUnsigned
                0x0000000000000000       0x38 build/default/production/_ext/1985337713/plib_divas.o
 .debug_info    0x0000000000000000      0x7ec build/default/production/_ext/1985337713/plib_divas.o
 .debug_abbrev  0x0000000000000000      0x1fd build/default/production/_ext/1985337713/plib_divas.o
 .debug_loc     0x0000000000000000      0x48c build/default/production/_ext/1985337713/plib_divas.o
 .debug_aranges
                0x0000000000000000       0x40 build/default/production/_ext/1985337713/plib_divas.o
 .debug_ranges  0x0000000000000000       0x30 build/default/production/_ext/1985337713/plib_divas.o
 .debug_line    0x0000000000000000      0x47b build/default/production/_ext/1985337713/plib_divas.o
 .debug_str     0x0000000000000000      0x489 build/default/production/_ext/1985337713/plib_divas.o
 .comment       0x0000000000000000       0x2c build/default/production/_ext/1985337713/plib_divas.o
 .debug_frame   0x0000000000000000       0x94 build/default/production/_ext/1985337713/plib_divas.o
 .ARM.attributes
                0x0000000000000000       0x2c build/default/production/_ext/1985337713/plib_divas.o
 .text          0x0000000000000000        0x0 build/default/production/_ext/1865616679/plib_supc.o
 .data          0x0000000000000000        0x0 build/default/production/_ext/1865616679/plib_supc.o
 .bss           0x0000000000000000        0x0 build/default/production/_ext/1865616679/plib_supc.o
 .text.SUPC_BODVDDCallbackRegister
                0x0000000000000000        0xc build/default/production/_ext/1865616679/plib_supc.o
 .text          0x0000000000000000        0x0 build/default/production/_ext/60163342/plib_adc0.o
 .data          0x0000000000000000        0x0 build/default/production/_ext/60163342/plib_adc0.o
 .bss           0x0000000000000000        0x0 build/default/production/_ext/60163342/plib_adc0.o
 .text.ADC0_Enable
                0x0000000000000000       0x1c build/default/production/_ext/60163342/plib_adc0.o
 .text.ADC0_Disable
                0x0000000000000000       0x1c build/default/production/_ext/60163342/plib_adc0.o
 .text.ADC0_ChannelSelect
                0x0000000000000000       0x18 build/default/production/_ext/60163342/plib_adc0.o
 .text.ADC0_ConversionStart
                0x0000000000000000       0x1c build/default/production/_ext/60163342/plib_adc0.o
 .text.ADC0_ConversionSequenceIsFinished
                0x0000000000000000       0x10 build/default/production/_ext/60163342/plib_adc0.o
 .text.ADC0_ComparisonWindowSet
                0x0000000000000000       0x20 build/default/production/_ext/60163342/plib_adc0.o
 .text.ADC0_WindowModeSet
                0x0000000000000000       0x24 build/default/production/_ext/60163342/plib_adc0.o
 .text.ADC0_ConversionResultGet
                0x0000000000000000        0xc build/default/production/_ext/60163342/plib_adc0.o
 .text.ADC0_InterruptsClear
                0x0000000000000000        0xc build/default/production/_ext/60163342/plib_adc0.o
 .text.ADC0_InterruptsEnable
                0x0000000000000000        0xc build/default/production/_ext/60163342/plib_adc0.o
 .text.ADC0_InterruptsDisable
                0x0000000000000000        0xc build/default/production/_ext/60163342/plib_adc0.o
 .text.ADC0_ConversionStatusGet
                0x0000000000000000       0x18 build/default/production/_ext/60163342/plib_adc0.o
 .text          0x0000000000000000        0x0 build/default/production/_ext/1984496892/plib_clock.o
 .data          0x0000000000000000        0x0 build/default/production/_ext/1984496892/plib_clock.o
 .bss           0x0000000000000000        0x0 build/default/production/_ext/1984496892/plib_clock.o
 .text          0x0000000000000000        0x0 build/default/production/_ext/508257091/plib_sercom0_i2c_master.o
 .data          0x0000000000000000        0x0 build/default/production/_ext/508257091/plib_sercom0_i2c_master.o
 .bss           0x0000000000000000        0x0 build/default/production/_ext/508257091/plib_sercom0_i2c_master.o
 .text.SERCOM0_I2C_BusScan
                0x0000000000000000       0xb8 build/default/production/_ext/508257091/plib_sercom0_i2c_master.o
 .text.SERCOM0_I2C_IsBusy
                0x0000000000000000       0x28 build/default/production/_ext/508257091/plib_sercom0_i2c_master.o
 .text          0x0000000000000000        0x0 build/default/production/_ext/14461671/sys_dma.o
 .data          0x0000000000000000        0x0 build/default/production/_ext/14461671/sys_dma.o
 .bss           0x0000000000000000        0x0 build/default/production/_ext/14461671/sys_dma.o
 .text.SYS_DMA_AddressingModeSetup
                0x0000000000000000       0x24 build/default/production/_ext/14461671/sys_dma.o
 .text          0x0000000000000000        0x0 build/default/production/_ext/829342655/plib_tc0.o
 .data          0x0000000000000000        0x0 build/default/production/_ext/829342655/plib_tc0.o
 .bss           0x0000000000000000        0x0 build/default/production/_ext/829342655/plib_tc0.o
 .text.TC0_TimerCommandSet
                0x0000000000000000       0x18 build/default/production/_ext/829342655/plib_tc0.o
 .text.TC0_Timer16bitCounterSet
                0x0000000000000000       0x14 build/default/production/_ext/829342655/plib_tc0.o
 .text.TC0_Timer16bitPeriodGet
                0x0000000000000000        0xc build/default/production/_ext/829342655/plib_tc0.o
 .text          0x0000000000000000        0x0 build/default/production/_ext/1987437027/plib_freqm.o
 .data          0x0000000000000000        0x0 build/default/production/_ext/1987437027/plib_freqm.o
 .bss           0x0000000000000000        0x0 build/default/production/_ext/1987437027/plib_freqm.o
 .text.FREQM_MeasurementStart
                0x0000000000000000       0x1c build/default/production/_ext/1987437027/plib_freqm.o
 .text.FREQM_IsBusy
                0x0000000000000000       0x10 build/default/production/_ext/1987437027/plib_freqm.o
 .text.FREQM_ErrorGet
                0x0000000000000000       0x14 build/default/production/_ext/1987437027/plib_freqm.o
 .text.FREQM_FrequencyGet
                0x0000000000000000       0x1c build/default/production/_ext/1987437027/plib_freqm.o
 .text          0x0000000000000000        0x0 build/default/production/_ext/1171490990/tasks.o
 .data          0x0000000000000000        0x0 build/default/production/_ext/1171490990/tasks.o
 .bss           0x0000000000000000        0x0 build/default/production/_ext/1171490990/tasks.o
 .text          0x0000000000000000        0x0 build/default/production/_ext/163028504/xc32_monitor.o
 .data          0x0000000000000000        0x0 build/default/production/_ext/163028504/xc32_monitor.o
 .bss           0x0000000000000000        0x0 build/default/production/_ext/163028504/xc32_monitor.o
 .text.read     0x0000000000000000        0x6 build/default/production/_ext/163028504/xc32_monitor.o
 .text.write    0x0000000000000000        0x6 build/default/production/_ext/163028504/xc32_monitor.o
 .debug_info    0x0000000000000000       0xf5 build/default/production/_ext/163028504/xc32_monitor.o
 .debug_abbrev  0x0000000000000000       0xb2 build/default/production/_ext/163028504/xc32_monitor.o
 .debug_loc     0x0000000000000000       0x4a build/default/production/_ext/163028504/xc32_monitor.o
 .debug_aranges
                0x0000000000000000       0x28 build/default/production/_ext/163028504/xc32_monitor.o
 .debug_ranges  0x0000000000000000       0x18 build/default/production/_ext/163028504/xc32_monitor.o
 .debug_line    0x0000000000000000       0xc7 build/default/production/_ext/163028504/xc32_monitor.o
 .debug_str     0x0000000000000000      0x292 build/default/production/_ext/163028504/xc32_monitor.o
 .comment       0x0000000000000000       0x2c build/default/production/_ext/163028504/xc32_monitor.o
 .debug_frame   0x0000000000000000       0x30 build/default/production/_ext/163028504/xc32_monitor.o
 .ARM.attributes
                0x0000000000000000       0x2c build/default/production/_ext/163028504/xc32_monitor.o
 .text          0x0000000000000000        0x0 build/default/production/_ext/1171490990/initialization.o
 .data          0x0000000000000000        0x0 build/default/production/_ext/1171490990/initialization.o
 .bss           0x0000000000000000        0x0 build/default/production/_ext/1171490990/initialization.o
 .text          0x0000000000000000        0x0 build/default/production/_ext/17022449/plib_sercom1_spi_master.o
 .data          0x0000000000000000        0x0 build/default/production/_ext/17022449/plib_sercom1_spi_master.o
 .bss           0x0000000000000000        0x0 build/default/production/_ext/17022449/plib_sercom1_spi_master.o
 .text.SERCOM1_SPI_IsBusy
                0x0000000000000000       0x28 build/default/production/_ext/17022449/plib_sercom1_spi_master.o
 .text.SERCOM1_SPI_Write
                0x0000000000000000        0xc build/default/production/_ext/17022449/plib_sercom1_spi_master.o
 .text.SERCOM1_SPI_Read
                0x0000000000000000       0x10 build/default/production/_ext/17022449/plib_sercom1_spi_master.o
 .text          0x0000000000000000        0x0 build/default/production/_ext/1171490990/interrupts.o
 .data          0x0000000000000000        0x0 build/default/production/_ext/1171490990/interrupts.o
 .bss           0x0000000000000000        0x0 build/default/production/_ext/1171490990/interrupts.o
 .text          0x0000000000000000        0x0 build/default/production/_ext/829342655/plib_tc1.o
 .data          0x0000000000000000        0x0 build/default/production/_ext/829342655/plib_tc1.o
 .bss           0x0000000000000000        0x0 build/default/production/_ext/829342655/plib_tc1.o
 .text.TC1_TimerStart
                0x0000000000000000       0x1c build/default/production/_ext/829342655/plib_tc1.o
 .text.TC1_TimerStop
                0x0000000000000000       0x1c build/default/production/_ext/829342655/plib_tc1.o
 .text.TC1_TimerFrequencyGet
                0x0000000000000000        0x8 build/default/production/_ext/829342655/plib_tc1.o
 .text.TC1_TimerCommandSet
                0x0000000000000000       0x18 build/default/production/_ext/829342655/plib_tc1.o
 .text.TC1_Timer16bitCounterGet
                0x0000000000000000       0x2c build/default/production/_ext/829342655/plib_tc1.o
 .text.TC1_Timer16bitCounterSet
                0x0000000000000000       0x14 build/default/production/_ext/829342655/plib_tc1.o
 .text.TC1_Timer16bitPeriodSet
                0x0000000000000000       0x14 build/default/production/_ext/829342655/plib_tc1.o
 .text.TC1_Timer16bitPeriodGet
                0x0000000000000000        0xc build/default/production/_ext/829342655/plib_tc1.o
 .text.TC1_TimerCallbackRegister
                0x0000000000000000        0xc build/default/production/_ext/829342655/plib_tc1.o
 .text          0x0000000000000000        0x0 build/default/production/_ext/1832805299/sys_console.o
 .data          0x0000000000000000        0x0 build/default/production/_ext/1832805299/sys_console.o
 .bss           0x0000000000000000        0x0 build/default/production/_ext/1832805299/sys_console.o
 .text.SYS_CONSOLE_Status
                0x0000000000000000       0x60 build/default/production/_ext/1832805299/sys_console.o
 .text.SYS_CONSOLE_HandleGet
                0x0000000000000000        0x8 build/default/production/_ext/1832805299/sys_console.o
 .text.SYS_CONSOLE_DeviceGet
                0x0000000000000000       0x1c build/default/production/_ext/1832805299/sys_console.o
 .text.SYS_CONSOLE_Tasks
                0x0000000000000000       0x28 build/default/production/_ext/1832805299/sys_console.o
 .text.SYS_CONSOLE_Read
                0x0000000000000000       0x38 build/default/production/_ext/1832805299/sys_console.o
 .text.SYS_CONSOLE_ReadFreeBufferCountGet
                0x0000000000000000       0x38 build/default/production/_ext/1832805299/sys_console.o
 .text.SYS_CONSOLE_ReadCountGet
                0x0000000000000000       0x38 build/default/production/_ext/1832805299/sys_console.o
 .text.SYS_CONSOLE_Write
                0x0000000000000000       0x38 build/default/production/_ext/1832805299/sys_console.o
 .text.SYS_CONSOLE_WriteFreeBufferCountGet
                0x0000000000000000       0x38 build/default/production/_ext/1832805299/sys_console.o
 .text.SYS_CONSOLE_WriteCountGet
                0x0000000000000000       0x38 build/default/production/_ext/1832805299/sys_console.o
 .text.SYS_CONSOLE_Print
                0x0000000000000000       0x78 build/default/production/_ext/1832805299/sys_console.o
 .text.SYS_CONSOLE_Message
                0x0000000000000000       0x34 build/default/production/_ext/1832805299/sys_console.o
 .text.SYS_CONSOLE_Flush
                0x0000000000000000       0x34 build/default/production/_ext/1832805299/sys_console.o
 .bss.consolePrintBuffer
                0x0000000000000000     0x2000 build/default/production/_ext/1832805299/sys_console.o
 .text          0x0000000000000000        0x0 build/default/production/_ext/60166132/plib_dac.o
 .data          0x0000000000000000        0x0 build/default/production/_ext/60166132/plib_dac.o
 .bss           0x0000000000000000        0x0 build/default/production/_ext/60166132/plib_dac.o
 .text.DAC_DataWrite
                0x0000000000000000       0x18 build/default/production/_ext/60166132/plib_dac.o
 .text.DAC_IsReady
                0x0000000000000000       0x10 build/default/production/_ext/60166132/plib_dac.o
 .text          0x0000000000000000        0x0 build/default/production/_ext/504274921/plib_sercom3_usart.o
 .data          0x0000000000000000        0x0 build/default/production/_ext/504274921/plib_sercom3_usart.o
 .bss           0x0000000000000000        0x0 build/default/production/_ext/504274921/plib_sercom3_usart.o
 .text.SERCOM3_USART_FrequencyGet
                0x0000000000000000        0x8 build/default/production/_ext/504274921/plib_sercom3_usart.o
 .text.SERCOM3_USART_Enable
                0x0000000000000000       0x20 build/default/production/_ext/504274921/plib_sercom3_usart.o
 .text.SERCOM3_USART_Disable
                0x0000000000000000       0x20 build/default/production/_ext/504274921/plib_sercom3_usart.o
 .text.SERCOM3_USART_TransmitterEnable
                0x0000000000000000       0x18 build/default/production/_ext/504274921/plib_sercom3_usart.o
 .text.SERCOM3_USART_TransmitterDisable
                0x0000000000000000       0x1c build/default/production/_ext/504274921/plib_sercom3_usart.o
 .text.SERCOM3_USART_TransmitComplete
                0x0000000000000000       0x10 build/default/production/_ext/504274921/plib_sercom3_usart.o
 .text.SERCOM3_USART_ReceiverEnable
                0x0000000000000000       0x18 build/default/production/_ext/504274921/plib_sercom3_usart.o
 .text.SERCOM3_USART_ReceiverDisable
                0x0000000000000000       0x1c build/default/production/_ext/504274921/plib_sercom3_usart.o
 .text          0x0000000000000000        0x0 build/default/production/_ext/60167341/plib_eic.o
 .data          0x0000000000000000        0x0 build/default/production/_ext/60167341/plib_eic.o
 .bss           0x0000000000000000        0x0 build/default/production/_ext/60167341/plib_eic.o
 .text.EIC_InterruptEnable
                0x0000000000000000       0x10 build/default/production/_ext/60167341/plib_eic.o
 .text.EIC_InterruptDisable
                0x0000000000000000       0x10 build/default/production/_ext/60167341/plib_eic.o
 .text          0x0000000000000000        0x0 build/default/production/_ext/1360937237/main.o
 .data          0x0000000000000000        0x0 build/default/production/_ext/1360937237/main.o
 .bss           0x0000000000000000        0x0 build/default/production/_ext/1360937237/main.o
 .text          0x0000000000000000        0x0 build/default/production/_ext/101884895/sys_time.o
 .data          0x0000000000000000        0x0 build/default/production/_ext/101884895/sys_time.o
 .bss           0x0000000000000000        0x0 build/default/production/_ext/101884895/sys_time.o
 .text.SYS_TIME_Deinitialize
                0x0000000000000000       0x34 build/default/production/_ext/101884895/sys_time.o
 .text.SYS_TIME_Status
                0x0000000000000000       0x18 build/default/production/_ext/101884895/sys_time.o
 .text.SYS_TIME_FrequencyGet
                0x0000000000000000        0xc build/default/production/_ext/101884895/sys_time.o
 .text.SYS_TIME_Counter64Get
                0x0000000000000000       0x30 build/default/production/_ext/101884895/sys_time.o
 .text.SYS_TIME_CounterGet
                0x0000000000000000        0x8 build/default/production/_ext/101884895/sys_time.o
 .text.SYS_TIME_CounterSet
                0x0000000000000000       0x1c build/default/production/_ext/101884895/sys_time.o
 .text.SYS_TIME_CountToUS
                0x0000000000000000       0x3c build/default/production/_ext/101884895/sys_time.o
 .text.SYS_TIME_CountToMS
                0x0000000000000000       0x20 build/default/production/_ext/101884895/sys_time.o
 .text.SYS_TIME_USToCount
                0x0000000000000000       0x24 build/default/production/_ext/101884895/sys_time.o
 .text.SYS_TIME_MSToCount
                0x0000000000000000       0x20 build/default/production/_ext/101884895/sys_time.o
 .text.SYS_TIME_TimerCreate
                0x0000000000000000       0x20 build/default/production/_ext/101884895/sys_time.o
 .text.SYS_TIME_TimerReload
                0x0000000000000000       0x9c build/default/production/_ext/101884895/sys_time.o
 .text.SYS_TIME_TimerCounterGet
                0x0000000000000000       0x88 build/default/production/_ext/101884895/sys_time.o
 .text.SYS_TIME_TimerPeriodHasExpired
                0x0000000000000000       0x2a build/default/production/_ext/101884895/sys_time.o
 .text.SYS_TIME_DelayUS
                0x0000000000000000       0x54 build/default/production/_ext/101884895/sys_time.o
 .text.SYS_TIME_DelayMS
                0x0000000000000000       0x54 build/default/production/_ext/101884895/sys_time.o
 .text.SYS_TIME_DelayIsComplete
                0x0000000000000000       0x18 build/default/production/_ext/101884895/sys_time.o
 .text.SYS_TIME_CallbackRegisterUS
                0x0000000000000000       0x5c build/default/production/_ext/101884895/sys_time.o
 .text          0x0000000000000000        0x0 build/default/production/_ext/829342769/plib_pm.o
 .data          0x0000000000000000        0x0 build/default/production/_ext/829342769/plib_pm.o
 .bss           0x0000000000000000        0x0 build/default/production/_ext/829342769/plib_pm.o
 .text.PM_IdleModeEnter
                0x0000000000000000       0x18 build/default/production/_ext/829342769/plib_pm.o
 .text.PM_StandbyModeEnter
                0x0000000000000000       0x18 build/default/production/_ext/829342769/plib_pm.o
 .text          0x0000000000000000        0x0 build/default/production/_ext/1865161661/plib_dmac.o
 .data          0x0000000000000000        0x0 build/default/production/_ext/1865161661/plib_dmac.o
 .bss           0x0000000000000000        0x0 build/default/production/_ext/1865161661/plib_dmac.o
 .text.DMAC_ChannelIsBusy
                0x0000000000000000       0x34 build/default/production/_ext/1865161661/plib_dmac.o
 .text.DMAC_ChannelTransferStatusGet
                0x0000000000000000       0x28 build/default/production/_ext/1865161661/plib_dmac.o
 .text.DMAC_ChannelDisable
                0x0000000000000000       0x3c build/default/production/_ext/1865161661/plib_dmac.o
 .text.DMAC_ChannelGetTransferredCount
                0x0000000000000000       0x1c build/default/production/_ext/1865161661/plib_dmac.o
 .text.DMAC_ChannelSuspend
                0x0000000000000000       0x28 build/default/production/_ext/1865161661/plib_dmac.o
 .text.DMAC_ChannelResume
                0x0000000000000000       0x28 build/default/production/_ext/1865161661/plib_dmac.o
 .text.DMAC_CRCDisable
                0x0000000000000000       0x14 build/default/production/_ext/1865161661/plib_dmac.o
 .text.DMAC_ChannelCRCSetup
                0x0000000000000000       0x40 build/default/production/_ext/1865161661/plib_dmac.o
 .text.DMAC_CRCRead
                0x0000000000000000        0xc build/default/production/_ext/1865161661/plib_dmac.o
 .text.DMAC_CRCCalculate
                0x0000000000000000       0x88 build/default/production/_ext/1865161661/plib_dmac.o
 .text          0x0000000000000000        0x0 build/default/production/_ext/1593096446/plib_nvmctrl.o
 .data          0x0000000000000000        0x0 build/default/production/_ext/1593096446/plib_nvmctrl.o
 .bss           0x0000000000000000        0x0 build/default/production/_ext/1593096446/plib_nvmctrl.o
 .text.NVMCTRL_CacheInvalidate
                0x0000000000000000       0x10 build/default/production/_ext/1593096446/plib_nvmctrl.o
 .text.NVMCTRL_DATA_FLASH_Read
                0x0000000000000000       0x10 build/default/production/_ext/1593096446/plib_nvmctrl.o
 .text.NVMCTRL_DATA_FLASH_PageWrite
                0x0000000000000000       0x28 build/default/production/_ext/1593096446/plib_nvmctrl.o
 .text.NVMCTRL_DATA_FLASH_RowErase
                0x0000000000000000       0x18 build/default/production/_ext/1593096446/plib_nvmctrl.o
 .text.NVMCTRL_Read
                0x0000000000000000       0x10 build/default/production/_ext/1593096446/plib_nvmctrl.o
 .text.NVMCTRL_PageBufferWrite
                0x0000000000000000       0x14 build/default/production/_ext/1593096446/plib_nvmctrl.o
 .text.NVMCTRL_PageBufferCommit
                0x0000000000000000       0x30 build/default/production/_ext/1593096446/plib_nvmctrl.o
 .text.NVMCTRL_PageWrite
                0x0000000000000000       0x28 build/default/production/_ext/1593096446/plib_nvmctrl.o
 .text.NVMCTRL_RowErase
                0x0000000000000000       0x18 build/default/production/_ext/1593096446/plib_nvmctrl.o
 .text.NVMCTRL_USER_ROW_PageWrite
                0x0000000000000000       0x38 build/default/production/_ext/1593096446/plib_nvmctrl.o
 .text.NVMCTRL_USER_ROW_RowErase
                0x0000000000000000       0x2c build/default/production/_ext/1593096446/plib_nvmctrl.o
 .text.NVMCTRL_ErrorGet
                0x0000000000000000       0x28 build/default/production/_ext/1593096446/plib_nvmctrl.o
 .text.NVMCTRL_IsBusy
                0x0000000000000000       0x14 build/default/production/_ext/1593096446/plib_nvmctrl.o
 .text.NVMCTRL_RegionLock
                0x0000000000000000       0x14 build/default/production/_ext/1593096446/plib_nvmctrl.o
 .text.NVMCTRL_RegionUnlock
                0x0000000000000000       0x14 build/default/production/_ext/1593096446/plib_nvmctrl.o
 .text.NVMCTRL_InterruptFlagGet
                0x0000000000000000       0x14 build/default/production/_ext/1593096446/plib_nvmctrl.o
 .text.NVMCTRL_SecurityBitSet
                0x0000000000000000       0x10 build/default/production/_ext/1593096446/plib_nvmctrl.o
 .text.NVMCTRL_ChipEraseHardLockSet
                0x0000000000000000       0x10 build/default/production/_ext/1593096446/plib_nvmctrl.o
 .text          0x0000000000000000        0x0 build/default/production/_ext/60165242/plib_ccl.o
 .data          0x0000000000000000        0x0 build/default/production/_ext/60165242/plib_ccl.o
 .bss           0x0000000000000000        0x0 build/default/production/_ext/60165242/plib_ccl.o
 .text          0x0000000000000000        0x0 build/default/production/_ext/60165182/plib_can0.o
 .data          0x0000000000000000        0x0 build/default/production/_ext/60165182/plib_can0.o
 .bss           0x0000000000000000        0x0 build/default/production/_ext/60165182/plib_can0.o
 .text.CAN0_TxFifoFreeLevelGet
                0x0000000000000000       0x10 build/default/production/_ext/60165182/plib_can0.o
 .text.CAN0_TxBufferIsBusy
                0x0000000000000000       0x14 build/default/production/_ext/60165182/plib_can0.o
 .text.CAN0_TxEventFifoRead
                0x0000000000000000       0x64 build/default/production/_ext/60165182/plib_can0.o
 .text.CAN0_TxEventFifoFillLevelGet
                0x0000000000000000       0x10 build/default/production/_ext/60165182/plib_can0.o
 .text.CAN0_ErrorCountGet
                0x0000000000000000       0x14 build/default/production/_ext/60165182/plib_can0.o
 .text.CAN0_SleepModeEnter
                0x0000000000000000       0x1c build/default/production/_ext/60165182/plib_can0.o
 .text.CAN0_SleepModeExit
                0x0000000000000000       0x30 build/default/production/_ext/60165182/plib_can0.o
 .text.CAN0_BitTimingCalculationGet
                0x0000000000000000       0xf0 build/default/production/_ext/60165182/plib_can0.o
 .text.CAN0_BitTimingSet
                0x0000000000000000      0x100 build/default/production/_ext/60165182/plib_can0.o
 .text          0x0000000000000000        0x0 build/default/production/_ext/1865468468/plib_nvic.o
 .data          0x0000000000000000        0x0 build/default/production/_ext/1865468468/plib_nvic.o
 .bss           0x0000000000000000        0x0 build/default/production/_ext/1865468468/plib_nvic.o
 .text.NVIC_INT_Enable
                0x0000000000000000        0x8 build/default/production/_ext/1865468468/plib_nvic.o
 .text.NVIC_INT_SourceDisable
                0x0000000000000000       0x3c build/default/production/_ext/1865468468/plib_nvic.o
 .text.NVIC_INT_SourceRestore
                0x0000000000000000       0x1c build/default/production/_ext/1865468468/plib_nvic.o
 .text          0x0000000000000000        0x0 build/default/production/_ext/1865521619/plib_port.o
 .data          0x0000000000000000        0x0 build/default/production/_ext/1865521619/plib_port.o
 .bss           0x0000000000000000        0x0 build/default/production/_ext/1865521619/plib_port.o
 .text.PORT_GroupRead
                0x0000000000000000        0x4 build/default/production/_ext/1865521619/plib_port.o
 .text.PORT_GroupWrite
                0x0000000000000000        0xc build/default/production/_ext/1865521619/plib_port.o
 .text.PORT_GroupLatchRead
                0x0000000000000000        0x4 build/default/production/_ext/1865521619/plib_port.o
 .text.PORT_GroupToggle
                0x0000000000000000        0x4 build/default/production/_ext/1865521619/plib_port.o
 .text.PORT_GroupInputEnable
                0x0000000000000000       0x2a build/default/production/_ext/1865521619/plib_port.o
 .text.PORT_GroupOutputEnable
                0x0000000000000000        0x4 build/default/production/_ext/1865521619/plib_port.o
 .text.PORT_PinPeripheralFunctionConfig
                0x0000000000000000       0x46 build/default/production/_ext/1865521619/plib_port.o
 .text.PORT_PinGPIOConfig
                0x0000000000000000       0x1e build/default/production/_ext/1865521619/plib_port.o
 .text          0x0000000000000000        0x0 build/default/production/_ext/1881668453/sys_int.o
 .data          0x0000000000000000        0x0 build/default/production/_ext/1881668453/sys_int.o
 .bss           0x0000000000000000        0x0 build/default/production/_ext/1881668453/sys_int.o
 .text.SYS_INT_Enable
                0x0000000000000000        0x8 build/default/production/_ext/1881668453/sys_int.o
 .text          0x0000000000000000        0x0 build/default/production/_ext/1171490990/startup_xc32.o
 .data          0x0000000000000000        0x0 build/default/production/_ext/1171490990/startup_xc32.o
 .bss           0x0000000000000000        0x0 build/default/production/_ext/1171490990/startup_xc32.o
 .text          0x0000000000000000        0x0 build/default/production/_ext/869808652/drv_usart.o
 .data          0x0000000000000000        0x0 build/default/production/_ext/869808652/drv_usart.o
 .bss           0x0000000000000000        0x0 build/default/production/_ext/869808652/drv_usart.o
 .text.lDRV_USART_DriverHandleValidate
                0x0000000000000000       0x48 build/default/production/_ext/869808652/drv_usart.o
 .text.lDRV_USART_GetDriverObj
                0x0000000000000000       0x1c build/default/production/_ext/869808652/drv_usart.o
 .text.lDRV_USART_GetTransferObj
                0x0000000000000000       0x32 build/default/production/_ext/869808652/drv_usart.o
 .text.lDRV_USART_RemoveClientTransfersFromList
                0x0000000000000000       0x3e build/default/production/_ext/869808652/drv_usart.o
 .text.lDRV_USART_ResourceLock
                0x0000000000000000       0xca build/default/production/_ext/869808652/drv_usart.o
 .text.lDRV_USART_ResourceUnlock
                0x0000000000000000       0xbe build/default/production/_ext/869808652/drv_usart.o
 .text.lDRV_USART_ReadAbort
                0x0000000000000000       0x3a build/default/production/_ext/869808652/drv_usart.o
 .text.lDRV_USART_QueuePurge
                0x0000000000000000       0x4c build/default/production/_ext/869808652/drv_usart.o
 .text.lDRV_USART_BufferAdd
                0x0000000000000000      0x180 build/default/production/_ext/869808652/drv_usart.o
 .text.DRV_USART_Status
                0x0000000000000000       0x14 build/default/production/_ext/869808652/drv_usart.o
 .text.DRV_USART_Open
                0x0000000000000000       0xf8 build/default/production/_ext/869808652/drv_usart.o
 .text.DRV_USART_Close
                0x0000000000000000       0x80 build/default/production/_ext/869808652/drv_usart.o
 .text.DRV_USART_ErrorGet
                0x0000000000000000       0x3a build/default/production/_ext/869808652/drv_usart.o
 .text.DRV_USART_SerialSetup
                0x0000000000000000       0xb8 build/default/production/_ext/869808652/drv_usart.o
 .text.DRV_USART_BufferEventHandlerSet
                0x0000000000000000       0x38 build/default/production/_ext/869808652/drv_usart.o
 .text.DRV_USART_WriteBufferAdd
                0x0000000000000000       0x10 build/default/production/_ext/869808652/drv_usart.o
 .text.DRV_USART_ReadBufferAdd
                0x0000000000000000       0x10 build/default/production/_ext/869808652/drv_usart.o
 .text.DRV_USART_BufferCompletedBytesGet
                0x0000000000000000       0x68 build/default/production/_ext/869808652/drv_usart.o
 .text.DRV_USART_BufferStatusGet
                0x0000000000000000       0x52 build/default/production/_ext/869808652/drv_usart.o
 .text.DRV_USART_WriteQueuePurge
                0x0000000000000000        0xa build/default/production/_ext/869808652/drv_usart.o
 .text.DRV_USART_ReadQueuePurge
                0x0000000000000000        0xa build/default/production/_ext/869808652/drv_usart.o
 .text.DRV_USART_ReadAbort
                0x0000000000000000       0x44 build/default/production/_ext/869808652/drv_usart.o
 .text          0x0000000000000000        0x0 build/default/production/_ext/1171490990/libc_syscalls.o
 .data          0x0000000000000000        0x0 build/default/production/_ext/1171490990/libc_syscalls.o
 .bss           0x0000000000000000        0x0 build/default/production/_ext/1171490990/libc_syscalls.o
 .text._exit    0x0000000000000000        0x2 build/default/production/_ext/1171490990/libc_syscalls.o
 .debug_info    0x0000000000000000       0xaa build/default/production/_ext/1171490990/libc_syscalls.o
 .debug_abbrev  0x0000000000000000       0x5d build/default/production/_ext/1171490990/libc_syscalls.o
 .debug_loc     0x0000000000000000       0x15 build/default/production/_ext/1171490990/libc_syscalls.o
 .debug_aranges
                0x0000000000000000       0x20 build/default/production/_ext/1171490990/libc_syscalls.o
 .debug_ranges  0x0000000000000000       0x10 build/default/production/_ext/1171490990/libc_syscalls.o
 .debug_line    0x0000000000000000       0x5b build/default/production/_ext/1171490990/libc_syscalls.o
 .debug_str     0x0000000000000000      0x2d6 build/default/production/_ext/1171490990/libc_syscalls.o
 .comment       0x0000000000000000       0x2c build/default/production/_ext/1171490990/libc_syscalls.o
 .debug_frame   0x0000000000000000       0x20 build/default/production/_ext/1171490990/libc_syscalls.o
 .ARM.attributes
                0x0000000000000000       0x2c build/default/production/_ext/1171490990/libc_syscalls.o
 .text          0x0000000000000000        0x0 build/default/production/_ext/60181570/plib_tcc0.o
 .data          0x0000000000000000        0x0 build/default/production/_ext/60181570/plib_tcc0.o
 .bss           0x0000000000000000        0x0 build/default/production/_ext/60181570/plib_tcc0.o
 .text.TCC0_PWMStart
                0x0000000000000000       0x1c build/default/production/_ext/60181570/plib_tcc0.o
 .text.TCC0_PWMStop
                0x0000000000000000       0x1c build/default/production/_ext/60181570/plib_tcc0.o
 .text.TCC0_PWM24bitPeriodSet
                0x0000000000000000       0x1c build/default/production/_ext/60181570/plib_tcc0.o
 .text.TCC0_PWM24bitPeriodGet
                0x0000000000000000       0x18 build/default/production/_ext/60181570/plib_tcc0.o
 .text.TCC0_PWMDeadTimeSet
                0x0000000000000000       0x1c build/default/production/_ext/60181570/plib_tcc0.o
 .text.TCC0_PWMPatternSet
                0x0000000000000000       0x20 build/default/production/_ext/60181570/plib_tcc0.o
 .text.TCC0_PWM24bitCounterGet
                0x0000000000000000       0x28 build/default/production/_ext/60181570/plib_tcc0.o
 .text.TCC0_PWM24bitCounterSet
                0x0000000000000000       0x18 build/default/production/_ext/60181570/plib_tcc0.o
 .text.TCC0_PWMForceUpdate
                0x0000000000000000       0x1c build/default/production/_ext/60181570/plib_tcc0.o
 .text.TCC0_PWMPeriodInterruptEnable
                0x0000000000000000        0xc build/default/production/_ext/60181570/plib_tcc0.o
 .text.TCC0_PWMPeriodInterruptDisable
                0x0000000000000000        0xc build/default/production/_ext/60181570/plib_tcc0.o
 .text.TCC0_PWMInterruptStatusGet
                0x0000000000000000       0x10 build/default/production/_ext/60181570/plib_tcc0.o
 .text          0x0000000000000000        0x0 build/default/production/_ext/1000052432/sys_reset.o
 .data          0x0000000000000000        0x0 build/default/production/_ext/1000052432/sys_reset.o
 .bss           0x0000000000000000        0x0 build/default/production/_ext/1000052432/sys_reset.o
 .text.SYS_RESET_SoftwareReset
                0x0000000000000000       0x1c build/default/production/_ext/1000052432/sys_reset.o
 .debug_info    0x0000000000000000      0x1c7 build/default/production/_ext/1000052432/sys_reset.o
 .debug_abbrev  0x0000000000000000       0xfc build/default/production/_ext/1000052432/sys_reset.o
 .debug_aranges
                0x0000000000000000       0x20 build/default/production/_ext/1000052432/sys_reset.o
 .debug_ranges  0x0000000000000000       0x10 build/default/production/_ext/1000052432/sys_reset.o
 .debug_line    0x0000000000000000      0x128 build/default/production/_ext/1000052432/sys_reset.o
 .debug_str     0x0000000000000000      0x33b build/default/production/_ext/1000052432/sys_reset.o
 .comment       0x0000000000000000       0x2c build/default/production/_ext/1000052432/sys_reset.o
 .debug_frame   0x0000000000000000       0x20 build/default/production/_ext/1000052432/sys_reset.o
 .ARM.attributes
                0x0000000000000000       0x2c build/default/production/_ext/1000052432/sys_reset.o
 .text          0x0000000000000000        0x0 build/default/production/_ext/158385033/drv_i2c.o
 .data          0x0000000000000000        0x0 build/default/production/_ext/158385033/drv_i2c.o
 .bss           0x0000000000000000        0x0 build/default/production/_ext/158385033/drv_i2c.o
 .text.DRV_I2C_Status
                0x0000000000000000       0x14 build/default/production/_ext/158385033/drv_i2c.o
 .text.DRV_I2C_TransferSetup
                0x0000000000000000       0x1e build/default/production/_ext/158385033/drv_i2c.o
 .text.DRV_I2C_ErrorGet
                0x0000000000000000       0x54 build/default/production/_ext/158385033/drv_i2c.o
 .text.DRV_I2C_QueuePurge
                0x0000000000000000       0x80 build/default/production/_ext/158385033/drv_i2c.o
 .text.DRV_I2C_TransferStatusGet
                0x0000000000000000       0x58 build/default/production/_ext/158385033/drv_i2c.o
 .text          0x0000000000000000        0x0 build/default/production/_ext/1865510628/plib_pdec.o
 .data          0x0000000000000000        0x0 build/default/production/_ext/1865510628/plib_pdec.o
 .bss           0x0000000000000000        0x0 build/default/production/_ext/1865510628/plib_pdec.o
 .text.PDEC_QDECStart
                0x0000000000000000       0x1c build/default/production/_ext/1865510628/plib_pdec.o
 .text.PDEC_QDECStop
                0x0000000000000000       0x1c build/default/production/_ext/1865510628/plib_pdec.o
 .text.PDEC_QDECPositionGet
                0x0000000000000000       0x28 build/default/production/_ext/1865510628/plib_pdec.o
 .text.PDEC_QDECRevolutionsGet
                0x0000000000000000       0x2c build/default/production/_ext/1865510628/plib_pdec.o
 .text.PDEC_QDECAngleGet
                0x0000000000000000       0x28 build/default/production/_ext/1865510628/plib_pdec.o
 .text.PDEC_QDECStatusGet
                0x0000000000000000       0x10 build/default/production/_ext/1865510628/plib_pdec.o
 .text          0x0000000000000000        0x0 build/default/production/_ext/2070931557/drv_spi.o
 .data          0x0000000000000000        0x0 build/default/production/_ext/2070931557/drv_spi.o
 .bss           0x0000000000000000        0x0 build/default/production/_ext/2070931557/drv_spi.o
 .text.lDRV_SPI_DriverHandleValidate
                0x0000000000000000       0x4c build/default/production/_ext/2070931557/drv_spi.o
 .text.lDRV_SPI_ResourceLock
                0x0000000000000000       0xc6 build/default/production/_ext/2070931557/drv_spi.o
 .text.lDRV_SPI_ResourceUnlock
                0x0000000000000000       0xb4 build/default/production/_ext/2070931557/drv_spi.o
 .text.lDRV_SPI_StartDMATransfer
                0x0000000000000000      0x1a0 build/default/production/_ext/2070931557/drv_spi.o
 .text.lDRV_SPI_TX_DMA_CallbackHandler
                0x0000000000000000       0x54 build/default/production/_ext/2070931557/drv_spi.o
 .text.lDRV_SPI_RX_DMA_CallbackHandler
                0x0000000000000000      0x15c build/default/production/_ext/2070931557/drv_spi.o
 .text.DRV_SPI_Status
                0x0000000000000000       0x14 build/default/production/_ext/2070931557/drv_spi.o
 .text.DRV_SPI_Open
                0x0000000000000000      0x104 build/default/production/_ext/2070931557/drv_spi.o
 .text.DRV_SPI_Close
                0x0000000000000000       0xc4 build/default/production/_ext/2070931557/drv_spi.o
 .text.DRV_SPI_TransferEventHandlerSet
                0x0000000000000000       0x34 build/default/production/_ext/2070931557/drv_spi.o
 .text.DRV_SPI_TransferSetup
                0x0000000000000000       0x2e build/default/production/_ext/2070931557/drv_spi.o
 .text.DRV_SPI_WriteReadTransferAdd
                0x0000000000000000      0x1d8 build/default/production/_ext/2070931557/drv_spi.o
 .text.DRV_SPI_WriteTransferAdd
                0x0000000000000000       0x12 build/default/production/_ext/2070931557/drv_spi.o
 .text.DRV_SPI_ReadTransferAdd
                0x0000000000000000       0x16 build/default/production/_ext/2070931557/drv_spi.o
 .text.DRV_SPI_TransferStatusGet
                0x0000000000000000       0x40 build/default/production/_ext/2070931557/drv_spi.o
 .text.DRV_SPI_Lock
                0x0000000000000000       0xc0 build/default/production/_ext/2070931557/drv_spi.o
 .text          0x0000000000000000        0x0 build/default/production/_ext/1865585090/plib_rstc.o
 .data          0x0000000000000000        0x0 build/default/production/_ext/1865585090/plib_rstc.o
 .bss           0x0000000000000000        0x0 build/default/production/_ext/1865585090/plib_rstc.o
 .text          0x0000000000000000        0x0 build/default/production/_ext/60180175/plib_rtc_timer.o
 .data          0x0000000000000000        0x0 build/default/production/_ext/60180175/plib_rtc_timer.o
 .bss           0x0000000000000000        0x0 build/default/production/_ext/60180175/plib_rtc_timer.o
 .text.RTC_Timer32CountSyncEnable
                0x0000000000000000       0x1c build/default/production/_ext/60180175/plib_rtc_timer.o
 .text.RTC_Timer32CountSyncDisable
                0x0000000000000000       0x1c build/default/production/_ext/60180175/plib_rtc_timer.o
 .text.RTC_Timer32Stop
                0x0000000000000000       0x1c build/default/production/_ext/60180175/plib_rtc_timer.o
 .text.RTC_Timer32CounterSet
                0x0000000000000000       0x14 build/default/production/_ext/60180175/plib_rtc_timer.o
 .text.RTC_Timer32CompareSet
                0x0000000000000000       0x14 build/default/production/_ext/60180175/plib_rtc_timer.o
 .text.RTC_Timer32PeriodGet
                0x0000000000000000        0x6 build/default/production/_ext/60180175/plib_rtc_timer.o
 .text.RTC_Timer32FrequencyGet
                0x0000000000000000        0x4 build/default/production/_ext/60180175/plib_rtc_timer.o
 .text.RTC_Timer32InterruptEnable
                0x0000000000000000        0xc build/default/production/_ext/60180175/plib_rtc_timer.o
 .text.RTC_Timer32InterruptDisable
                0x0000000000000000        0xc build/default/production/_ext/60180175/plib_rtc_timer.o
 .text.RTC_Timer32CallbackRegister
                0x0000000000000000        0xc build/default/production/_ext/60180175/plib_rtc_timer.o
 .text          0x0000000000000000        0x0 build/default/production/_ext/1986646378/plib_evsys.o
 .data          0x0000000000000000        0x0 build/default/production/_ext/1986646378/plib_evsys.o
 .bss           0x0000000000000000        0x0 build/default/production/_ext/1986646378/plib_evsys.o
 .text          0x0000000000000000        0x0 build/default/production/_ext/1832805299/sys_console_uart.o
 .data          0x0000000000000000        0x0 build/default/production/_ext/1832805299/sys_console_uart.o
 .bss           0x0000000000000000        0x0 build/default/production/_ext/1832805299/sys_console_uart.o
 .text          0x0000000000000000        0x0 build/default/production/_ext/1171490990/exceptions.o
 .data          0x0000000000000000        0x0 build/default/production/_ext/1171490990/exceptions.o
 .bss           0x0000000000000000        0x0 build/default/production/_ext/1171490990/exceptions.o
 .text          0x0000000000000000        0x0 build/default/production/_ext/504274921/plib_sercom2_usart.o
 .data          0x0000000000000000        0x0 build/default/production/_ext/504274921/plib_sercom2_usart.o
 .bss           0x0000000000000000        0x0 build/default/production/_ext/504274921/plib_sercom2_usart.o
 .text.SERCOM2_USART_FrequencyGet
                0x0000000000000000        0x8 build/default/production/_ext/504274921/plib_sercom2_usart.o
 .text.SERCOM2_USART_SerialSetup
                0x0000000000000000      0x158 build/default/production/_ext/504274921/plib_sercom2_usart.o
 .text.SERCOM2_USART_Enable
                0x0000000000000000       0x20 build/default/production/_ext/504274921/plib_sercom2_usart.o
 .text.SERCOM2_USART_Disable
                0x0000000000000000       0x20 build/default/production/_ext/504274921/plib_sercom2_usart.o
 .text.SERCOM2_USART_ErrorGet
                0x0000000000000000       0x10 build/default/production/_ext/504274921/plib_sercom2_usart.o
 .text.SERCOM2_USART_ReadBufferSizeGet
                0x0000000000000000        0xc build/default/production/_ext/504274921/plib_sercom2_usart.o
 .text.SERCOM2_USART_ReadNotificationEnable
                0x0000000000000000       0x18 build/default/production/_ext/504274921/plib_sercom2_usart.o
 .text.SERCOM2_USART_ReadThresholdSet
                0x0000000000000000       0x10 build/default/production/_ext/504274921/plib_sercom2_usart.o
 .text.SERCOM2_USART_ReadCallbackRegister
                0x0000000000000000        0xc build/default/production/_ext/504274921/plib_sercom2_usart.o
 .text.SERCOM2_USART_TransmitComplete
                0x0000000000000000       0x10 build/default/production/_ext/504274921/plib_sercom2_usart.o
 .text.SERCOM2_USART_WriteBufferSizeGet
                0x0000000000000000        0xc build/default/production/_ext/504274921/plib_sercom2_usart.o
 .text.SERCOM2_USART_WriteNotificationEnable
                0x0000000000000000       0x14 build/default/production/_ext/504274921/plib_sercom2_usart.o
 .text.SERCOM2_USART_WriteThresholdSet
                0x0000000000000000       0x10 build/default/production/_ext/504274921/plib_sercom2_usart.o
 .text.SERCOM2_USART_WriteCallbackRegister
                0x0000000000000000        0xc build/default/production/_ext/504274921/plib_sercom2_usart.o
 .text          0x0000000000000000        0x0 build/default/production/_ext/1360937237/bme690_driver.o
 .data          0x0000000000000000        0x0 build/default/production/_ext/1360937237/bme690_driver.o
 .bss           0x0000000000000000        0x0 build/default/production/_ext/1360937237/bme690_driver.o
 .text.BME690_DRIVER_I2C_Callback
                0x0000000000000000       0x1c build/default/production/_ext/1360937237/bme690_driver.o
 .text.BME690_DRIVER_Get_Task_Start_Status
                0x0000000000000000        0xc build/default/production/_ext/1360937237/bme690_driver.o
 .text.BME690_DRIVER_Set_Task_Start_Status
                0x0000000000000000        0xc build/default/production/_ext/1360937237/bme690_driver.o
 .text.BME690_DRIVER_Get_Task_Completed_Status
                0x0000000000000000        0xc build/default/production/_ext/1360937237/bme690_driver.o
 .text.BME690_DRIVER_Set_Task_Completed_Status
                0x0000000000000000        0xc build/default/production/_ext/1360937237/bme690_driver.o
 .text.BME690_DRIVER_Get_Variant_ID
                0x0000000000000000       0x30 build/default/production/_ext/1360937237/bme690_driver.o
 .text.BME690_DRIVER_Store_Variant_ID
                0x0000000000000000       0x14 build/default/production/_ext/1360937237/bme690_driver.o
 .text.BME690_DRIVER_Reset_BME690
                0x0000000000000000       0x28 build/default/production/_ext/1360937237/bme690_driver.o
 .text.BME690_DRIVER_Get_Chip_ID
                0x0000000000000000       0x30 build/default/production/_ext/1360937237/bme690_driver.o
 .text.BME690_DRIVER_Store_Chip_ID
                0x0000000000000000       0x14 build/default/production/_ext/1360937237/bme690_driver.o
 .text.BME690_DRIVER_Get_Config
                0x0000000000000000       0x30 build/default/production/_ext/1360937237/bme690_driver.o
 .text.BME690_DRIVER_Store_Config
                0x0000000000000000       0x14 build/default/production/_ext/1360937237/bme690_driver.o
 .text.BME690_DRIVER_Set_Config
                0x0000000000000000       0x28 build/default/production/_ext/1360937237/bme690_driver.o
 .text.BME690_DRIVER_Get_Control_Measurement
                0x0000000000000000       0x30 build/default/production/_ext/1360937237/bme690_driver.o
 .text.BME690_DRIVER_Store_Control_Measurement
                0x0000000000000000        0x2 build/default/production/_ext/1360937237/bme690_driver.o
 .text.BME690_DRIVER_Set_Control_Measurement
                0x0000000000000000        0x2 build/default/production/_ext/1360937237/bme690_driver.o
 .text.BME690_DRIVER_Get_Control_Humidity
                0x0000000000000000       0x30 build/default/production/_ext/1360937237/bme690_driver.o
 .text.BME690_DRIVER_Store_Control_Humidity
                0x0000000000000000        0x2 build/default/production/_ext/1360937237/bme690_driver.o
 .text.BME690_DRIVER_Set_Control_Humidity
                0x0000000000000000        0x2 build/default/production/_ext/1360937237/bme690_driver.o
 .text.BME690_DRIVER_Get_Control_Gas_1
                0x0000000000000000       0x30 build/default/production/_ext/1360937237/bme690_driver.o
 .text.BME690_DRIVER_Set_Control_Gas_1
                0x0000000000000000        0x2 build/default/production/_ext/1360937237/bme690_driver.o
 .text.BME690_DRIVER_Get_Control_Gas_0
                0x0000000000000000       0x30 build/default/production/_ext/1360937237/bme690_driver.o
 .text.BME690_DRIVER_Set_Control_Gas_0
                0x0000000000000000        0x2 build/default/production/_ext/1360937237/bme690_driver.o
 .text.BME690_DRIVER_Get_Gas_Wait_Shared
                0x0000000000000000       0x30 build/default/production/_ext/1360937237/bme690_driver.o
 .text.BME690_DRIVER_Set_Gas_Wait_Shared
                0x0000000000000000        0x2 build/default/production/_ext/1360937237/bme690_driver.o
 .text.BME690_DRIVER_Get_Gas_Wait
                0x0000000000000000       0x30 build/default/production/_ext/1360937237/bme690_driver.o
 .text.BME690_DRIVER_Set_Gas_Wait
                0x0000000000000000        0x2 build/default/production/_ext/1360937237/bme690_driver.o
 .text.BME690_DRIVER_Get_Res_Heat
                0x0000000000000000        0x2 build/default/production/_ext/1360937237/bme690_driver.o
 .text.BME690_DRIVER_Set_Res_Heat
                0x0000000000000000        0x2 build/default/production/_ext/1360937237/bme690_driver.o
 .text.BME690_DRIVER_Get_Idac_Heat
                0x0000000000000000        0x2 build/default/production/_ext/1360937237/bme690_driver.o
 .text.BME690_DRIVER_Set_Idac_Heat
                0x0000000000000000        0x2 build/default/production/_ext/1360937237/bme690_driver.o
 .text.BME690_DRIVER_Get_Gas_LSB
                0x0000000000000000        0x2 build/default/production/_ext/1360937237/bme690_driver.o
 .text.BME690_DRIVER_Store_Gas_LSB
                0x0000000000000000        0x2 build/default/production/_ext/1360937237/bme690_driver.o
 .text.BME690_DRIVER_Get_Gas_MSB
                0x0000000000000000        0x2 build/default/production/_ext/1360937237/bme690_driver.o
 .text.BME690_DRIVER_Store_Gas_MSB
                0x0000000000000000        0x2 build/default/production/_ext/1360937237/bme690_driver.o
 .text.BME690_DRIVER_Get_Humidity_LSB
                0x0000000000000000        0x2 build/default/production/_ext/1360937237/bme690_driver.o
 .text.BME690_DRIVER_Store_Humidity_LSB
                0x0000000000000000        0x2 build/default/production/_ext/1360937237/bme690_driver.o
 .text.BME690_DRIVER_Get_Humidity_MSB
                0x0000000000000000        0x2 build/default/production/_ext/1360937237/bme690_driver.o
 .text.BME690_DRIVER_Store_Humidity_MSB
                0x0000000000000000        0x2 build/default/production/_ext/1360937237/bme690_driver.o
 .text.BME690_DRIVER_Get_Temperature_XLSB
                0x0000000000000000        0x2 build/default/production/_ext/1360937237/bme690_driver.o
 .text.BME690_DRIVER_Store_Temperature_XLSB
                0x0000000000000000        0x2 build/default/production/_ext/1360937237/bme690_driver.o
 .text.BME690_DRIVER_Get_Temperature_LSB
                0x0000000000000000        0x2 build/default/production/_ext/1360937237/bme690_driver.o
 .text.BME690_DRIVER_Store_Temperature_LSB
                0x0000000000000000        0x2 build/default/production/_ext/1360937237/bme690_driver.o
 .text.BME690_DRIVER_Get_Temperature_MSB
                0x0000000000000000        0x2 build/default/production/_ext/1360937237/bme690_driver.o
 .text.BME690_DRIVER_Store_Temperature_MSB
                0x0000000000000000        0x2 build/default/production/_ext/1360937237/bme690_driver.o
 .text.BME690_DRIVER_Get_Pressure_XLSB
                0x0000000000000000        0x2 build/default/production/_ext/1360937237/bme690_driver.o
 .text.BME690_DRIVER_Store_Pressure_XLSB
                0x0000000000000000        0x2 build/default/production/_ext/1360937237/bme690_driver.o
 .text.BME690_DRIVER_Get_Pressure_LSB
                0x0000000000000000        0x2 build/default/production/_ext/1360937237/bme690_driver.o
 .text.BME690_DRIVER_Store_Pressure_LSB
                0x0000000000000000        0x2 build/default/production/_ext/1360937237/bme690_driver.o
 .text.BME690_DRIVER_Get_Pressure_MSB
                0x0000000000000000        0x2 build/default/production/_ext/1360937237/bme690_driver.o
 .text.BME690_DRIVER_Store_Pressure_MSB
                0x0000000000000000        0x2 build/default/production/_ext/1360937237/bme690_driver.o
 .text.BME690_DRIVER_Get_Sub_Measurement_Status
                0x0000000000000000        0x2 build/default/production/_ext/1360937237/bme690_driver.o
 .text.BME690_DRIVER_Get_Measurement_Status
                0x0000000000000000        0x2 build/default/production/_ext/1360937237/bme690_driver.o
 .text.BME690_DRIVER_Get_Calibration_Register_Value
                0x0000000000000000        0x2 build/default/production/_ext/1360937237/bme690_driver.o
 .text.BME690_DRIVER_Print_Data
                0x0000000000000000       0x34 build/default/production/_ext/1360937237/bme690_driver.o
 .bss.bme690_calibrationData
                0x0000000000000000       0x2c build/default/production/_ext/1360937237/bme690_driver.o
 .bss.bme690_heaterConfig
                0x0000000000000000       0x14 build/default/production/_ext/1360937237/bme690_driver.o
 .bss.bme690_sensorData
                0x0000000000000000       0x2c build/default/production/_ext/1360937237/bme690_driver.o
 .rodata.BME690_DRIVER_Print_Data.str1.4
                0x0000000000000000       0x2c build/default/production/_ext/1360937237/bme690_driver.o
 .text          0x0000000000000000        0x0 build/default/production/_ext/1360937237/can0_driver.o
 .data          0x0000000000000000        0x0 build/default/production/_ext/1360937237/can0_driver.o
 .bss           0x0000000000000000        0x0 build/default/production/_ext/1360937237/can0_driver.o
 .text.CAN0_DRIVER_Get_Task_Start_Status
                0x0000000000000000        0xc build/default/production/_ext/1360937237/can0_driver.o
 .text.CAN0_DRIVER_Set_Task_Start_Status
                0x0000000000000000        0xc build/default/production/_ext/1360937237/can0_driver.o
 .text.CAN0_DRIVER_Get_Task_Completed_Status
                0x0000000000000000        0xc build/default/production/_ext/1360937237/can0_driver.o
 .text.CAN0_DRIVER_Set_Task_Completed_Status
                0x0000000000000000        0xc build/default/production/_ext/1360937237/can0_driver.o
 .text.CAN0_DRIVER_Set_DLC
                0x0000000000000000       0x38 build/default/production/_ext/1360937237/can0_driver.o
 .text.CAN0_DRIVER_Set_Received_Data
                0x0000000000000000       0x18 build/default/production/_ext/1360937237/can0_driver.o
 .text.CAN0_DRIVER_Set_Transmited_Data
                0x0000000000000000       0x48 build/default/production/_ext/1360937237/can0_driver.o
 .text.CAN0_DRIVER_Print_Data
                0x0000000000000000       0x28 build/default/production/_ext/1360937237/can0_driver.o
 .rodata.CAN0_DRIVER_Print_Data.str1.4
                0x0000000000000000       0x34 build/default/production/_ext/1360937237/can0_driver.o
 .text          0x0000000000000000        0x0 build/default/production/_ext/1360937237/console_driver.o
 .data          0x0000000000000000        0x0 build/default/production/_ext/1360937237/console_driver.o
 .bss           0x0000000000000000        0x0 build/default/production/_ext/1360937237/console_driver.o
 .text          0x0000000000000000        0x0 build/default/production/_ext/1360937237/fcm360w_driver.o
 .data          0x0000000000000000        0x0 build/default/production/_ext/1360937237/fcm360w_driver.o
 .bss           0x0000000000000000        0x0 build/default/production/_ext/1360937237/fcm360w_driver.o
 .text          0x0000000000000000        0x0 build/default/production/_ext/1360937237/hdc302x_driver.o
 .data          0x0000000000000000        0x0 build/default/production/_ext/1360937237/hdc302x_driver.o
 .bss           0x0000000000000000        0x0 build/default/production/_ext/1360937237/hdc302x_driver.o
 .text.HDC302X_DRIVER_I2C_Callback
                0x0000000000000000       0x1c build/default/production/_ext/1360937237/hdc302x_driver.o
 .text.HDC302X_DRIVER_Temperature_Alert
                0x0000000000000000        0xc build/default/production/_ext/1360937237/hdc302x_driver.o
 .text.HDC302X_DRIVER_Get_Task_Start_Status
                0x0000000000000000        0xc build/default/production/_ext/1360937237/hdc302x_driver.o
 .text.HDC302X_DRIVER_Set_Task_Start_Status
                0x0000000000000000        0xc build/default/production/_ext/1360937237/hdc302x_driver.o
 .text.HDC302X_DRIVER_Get_Task_Completed_Status
                0x0000000000000000        0xc build/default/production/_ext/1360937237/hdc302x_driver.o
 .text.HDC302X_DRIVER_Set_Task_Completed_Status
                0x0000000000000000        0xc build/default/production/_ext/1360937237/hdc302x_driver.o
 .text.HDC302X_DRIVER_Enter_Auto_Measurement_Mode
                0x0000000000000000       0x30 build/default/production/_ext/1360937237/hdc302x_driver.o
 .text.HDC302X_DRIVER_Exit_Auto_Measurement_Mode
                0x0000000000000000       0x28 build/default/production/_ext/1360937237/hdc302x_driver.o
 .text.HDC302X_DRIVER_Get_Offset_Values
                0x0000000000000000       0x34 build/default/production/_ext/1360937237/hdc302x_driver.o
 .text.HDC302X_DRIVER_Store_Offset_Values
                0x0000000000000000       0x18 build/default/production/_ext/1360937237/hdc302x_driver.o
 .text.HDC302X_DRIVER_Get_High_Alert_Set_Values
                0x0000000000000000       0x34 build/default/production/_ext/1360937237/hdc302x_driver.o
 .text.HDC302X_DRIVER_Store_High_Alert_Set_Values
                0x0000000000000000       0x18 build/default/production/_ext/1360937237/hdc302x_driver.o
 .text.HDC302X_DRIVER_Get_High_Alert_Clear_Values
                0x0000000000000000       0x34 build/default/production/_ext/1360937237/hdc302x_driver.o
 .text.HDC302X_DRIVER_Store_High_Alert_Clear_Values
                0x0000000000000000       0x18 build/default/production/_ext/1360937237/hdc302x_driver.o
 .text.HDC302X_DRIVER_Get_Low_Alert_Set_Values
                0x0000000000000000       0x34 build/default/production/_ext/1360937237/hdc302x_driver.o
 .text.HDC302X_DRIVER_Store_Low_Alert_Set_Values
                0x0000000000000000       0x18 build/default/production/_ext/1360937237/hdc302x_driver.o
 .text.HDC302X_DRIVER_Get_Low_Alert_Clear_Values
                0x0000000000000000       0x34 build/default/production/_ext/1360937237/hdc302x_driver.o
 .text.HDC302X_DRIVER_Store_Low_Alert_Clear_Values
                0x0000000000000000       0x18 build/default/production/_ext/1360937237/hdc302x_driver.o
 .text.HDC302X_DRIVER_Auto_Mode_Measurement_Readout_Write
                0x0000000000000000       0x28 build/default/production/_ext/1360937237/hdc302x_driver.o
 .text.HDC302X_DRIVER_Auto_Mode_Measurement_Readout_Read
                0x0000000000000000       0x20 build/default/production/_ext/1360937237/hdc302x_driver.o
 .text.HDC302X_DRIVER_Store_Auto_Mode_Measurement_Readout_Values
                0x0000000000000000       0x24 build/default/production/_ext/1360937237/hdc302x_driver.o
 .text.HDC302X_DRIVER_Auto_Mode_Minimum_Temperature_Write
                0x0000000000000000       0x34 build/default/production/_ext/1360937237/hdc302x_driver.o
 .text.HDC302X_DRIVER_Auto_Mode_Minimum_Temperature_Store_Value
                0x0000000000000000       0x18 build/default/production/_ext/1360937237/hdc302x_driver.o
 .text.HDC302X_DRIVER_Auto_Mode_Maximum_Temperature_Write
                0x0000000000000000       0x30 build/default/production/_ext/1360937237/hdc302x_driver.o
 .text.HDC302X_DRIVER_Auto_Mode_Maximum_Temperature_Store_Value
                0x0000000000000000       0x18 build/default/production/_ext/1360937237/hdc302x_driver.o
 .text.HDC302X_DRIVER_Get_Minimum_Humidity
                0x0000000000000000       0x34 build/default/production/_ext/1360937237/hdc302x_driver.o
 .text.HDC302X_DRIVER_Auto_Mode_Minimum_Humidity_Store_Value
                0x0000000000000000       0x18 build/default/production/_ext/1360937237/hdc302x_driver.o
 .text.HDC302X_DRIVER_Auto_Mode_Maximum_Humidity_Write
                0x0000000000000000       0x34 build/default/production/_ext/1360937237/hdc302x_driver.o
 .text.HDC302X_DRIVER_Auto_Mode_Maximum_Humidity_Store_Value
                0x0000000000000000       0x18 build/default/production/_ext/1360937237/hdc302x_driver.o
 .text.HDC302X_DRIVER_Trigger_Mode_Measurement_Readout_Write
                0x0000000000000000       0x30 build/default/production/_ext/1360937237/hdc302x_driver.o
 .text.HDC302X_DRIVER_Trigger_Mode_Measurement_Readout_Read
                0x0000000000000000       0x20 build/default/production/_ext/1360937237/hdc302x_driver.o
 .text.HDC302X_DRIVER_Trigger_Mode_Measurement_Readout_Store_Value
                0x0000000000000000       0x24 build/default/production/_ext/1360937237/hdc302x_driver.o
 .text.HDC302X_DRIVER_Get_Status_Value
                0x0000000000000000       0x34 build/default/production/_ext/1360937237/hdc302x_driver.o
 .text.HDC302X_DRIVER_Store_Status_Value
                0x0000000000000000       0x18 build/default/production/_ext/1360937237/hdc302x_driver.o
 .text.HDC302X_DRIVER_Get_NIST_54
                0x0000000000000000       0x34 build/default/production/_ext/1360937237/hdc302x_driver.o
 .text.HDC302X_DRIVER_Store_NIST_54_Value
                0x0000000000000000       0x18 build/default/production/_ext/1360937237/hdc302x_driver.o
 .text.HDC302X_DRIVER_Get_NIST_32
                0x0000000000000000       0x34 build/default/production/_ext/1360937237/hdc302x_driver.o
 .text.HDC302X_DRIVER_Store_NIST_32_Value
                0x0000000000000000       0x18 build/default/production/_ext/1360937237/hdc302x_driver.o
 .text.HDC302X_DRIVER_Get_NIST_10
                0x0000000000000000       0x34 build/default/production/_ext/1360937237/hdc302x_driver.o
 .text.HDC302X_DRIVER_Store_NIST_10_Value
                0x0000000000000000       0x18 build/default/production/_ext/1360937237/hdc302x_driver.o
 .text.HDC302X_DRIVER_Temperature_Calculation
                0x0000000000000000       0x4c build/default/production/_ext/1360937237/hdc302x_driver.o
 .text.HDC302X_DRIVER_Humidity_Calculation
                0x0000000000000000       0x28 build/default/production/_ext/1360937237/hdc302x_driver.o
 .text.HDC302X_DRIVER_Soft_Reset
                0x0000000000000000       0x28 build/default/production/_ext/1360937237/hdc302x_driver.o
 .text.HDC302X_DRIVER_Heater_Enable
                0x0000000000000000       0x28 build/default/production/_ext/1360937237/hdc302x_driver.o
 .text.HDC302X_DRIVER_Heater_Disable
                0x0000000000000000       0x28 build/default/production/_ext/1360937237/hdc302x_driver.o
 .text.HDC302X_DRIVER_Calculation_CRC
                0x0000000000000000       0x40 build/default/production/_ext/1360937237/hdc302x_driver.o
 .text.HDC302X_DRIVER_Calculation_Array_CRC
                0x0000000000000000       0x16 build/default/production/_ext/1360937237/hdc302x_driver.o
 .text.HDC302X_DRIVER_Config_Offset
                0x0000000000000000       0x40 build/default/production/_ext/1360937237/hdc302x_driver.o
 .text.HDC302X_DRIVER_Config_High_Alert_Set
                0x0000000000000000       0x40 build/default/production/_ext/1360937237/hdc302x_driver.o
 .text.HDC302X_DRIVER_Config_High_Alert_Clear
                0x0000000000000000       0x40 build/default/production/_ext/1360937237/hdc302x_driver.o
 .text.HDC302X_DRIVER_Config_Low_Alert_Set
                0x0000000000000000       0x40 build/default/production/_ext/1360937237/hdc302x_driver.o
 .text.HDC302X_DRIVER_Config_Low_Alert_Clear
                0x0000000000000000       0x40 build/default/production/_ext/1360937237/hdc302x_driver.o
 .text.HDC302X_DRIVER_Heater_Configuration
                0x0000000000000000       0x38 build/default/production/_ext/1360937237/hdc302x_driver.o
 .text.HDC302X_DRIVER_Set_Offset_Code
                0x0000000000000000       0x30 build/default/production/_ext/1360937237/hdc302x_driver.o
 .text.HDC302X_DRIVER_Set_ALERT_Code
                0x0000000000000000       0x28 build/default/production/_ext/1360937237/hdc302x_driver.o
 .text.HDC302X_DRIVER_Print_Data
                0x0000000000000000       0x40 build/default/production/_ext/1360937237/hdc302x_driver.o
 .bss.hdc302x_sensorData
                0x0000000000000000       0x24 build/default/production/_ext/1360937237/hdc302x_driver.o
 .bss.hdc302x_sensorSettings
                0x0000000000000000        0xc build/default/production/_ext/1360937237/hdc302x_driver.o
 .rodata.HDC302X_DRIVER_Print_Data.str1.4
                0x0000000000000000       0x40 build/default/production/_ext/1360937237/hdc302x_driver.o
 .text          0x0000000000000000        0x0 build/default/production/_ext/1360937237/mcp9808_driver.o
 .data          0x0000000000000000        0x0 build/default/production/_ext/1360937237/mcp9808_driver.o
 .bss           0x0000000000000000        0x0 build/default/production/_ext/1360937237/mcp9808_driver.o
 .text.MCP9808_DRIVER_Get_Task_Start_Status
                0x0000000000000000        0xc build/default/production/_ext/1360937237/mcp9808_driver.o
 .text.MCP9808_DRIVER_Set_Task_Start_Status
                0x0000000000000000        0xc build/default/production/_ext/1360937237/mcp9808_driver.o
 .text.MCP9808_DRIVER_Get_Task_Completed_Status
                0x0000000000000000        0xc build/default/production/_ext/1360937237/mcp9808_driver.o
 .text.MCP9808_DRIVER_Set_Task_Completed_Status
                0x0000000000000000        0xc build/default/production/_ext/1360937237/mcp9808_driver.o
 .text.MCP9808_DRIVER_Get_Sensor_Config
                0x0000000000000000       0x30 build/default/production/_ext/1360937237/mcp9808_driver.o
 .text.MCP9808_DRIVER_Store_Sensor_Config
                0x0000000000000000       0x18 build/default/production/_ext/1360937237/mcp9808_driver.o
 .text.MCP9808_DRIVER_Set_Sensor_Config
                0x0000000000000000       0x28 build/default/production/_ext/1360937237/mcp9808_driver.o
 .text.MCP9808_DRIVER_Get_Result_Resolution
                0x0000000000000000       0x30 build/default/production/_ext/1360937237/mcp9808_driver.o
 .text.MCP9808_DRIVER_Store_Result_Resolution
                0x0000000000000000       0x14 build/default/production/_ext/1360937237/mcp9808_driver.o
 .text.MCP9808_DRIVER_Print_Data
                0x0000000000000000       0x38 build/default/production/_ext/1360937237/mcp9808_driver.o
 .rodata.MCP9808_DRIVER_Print_Data.str1.4
                0x0000000000000000       0x50 build/default/production/_ext/1360937237/mcp9808_driver.o
 .text          0x0000000000000000        0x0 build/default/production/_ext/1360937237/rstc_driver.o
 .data          0x0000000000000000        0x0 build/default/production/_ext/1360937237/rstc_driver.o
 .bss           0x0000000000000000        0x0 build/default/production/_ext/1360937237/rstc_driver.o
 .text.RSTC_DRIVER_Get_Task_Start_Status
                0x0000000000000000        0xc build/default/production/_ext/1360937237/rstc_driver.o
 .text.RSTC_DRIVER_Set_Task_Start_Status
                0x0000000000000000        0xc build/default/production/_ext/1360937237/rstc_driver.o
 .text.RSTC_DRIVER_Get_Task_Completed_Status
                0x0000000000000000        0xc build/default/production/_ext/1360937237/rstc_driver.o
 .text.RSTC_DRIVER_Set_Task_Completed_Status
                0x0000000000000000        0xc build/default/production/_ext/1360937237/rstc_driver.o
 .text.RSTC_DRIVER_Print_Data
                0x0000000000000000       0x18 build/default/production/_ext/1360937237/rstc_driver.o
 .rodata.RSTC_DRIVER_Print_Data.str1.4
                0x0000000000000000       0x14 build/default/production/_ext/1360937237/rstc_driver.o
 .text          0x0000000000000000        0x0 build/default/production/_ext/1360937237/rtc_driver.o
 .data          0x0000000000000000        0x0 build/default/production/_ext/1360937237/rtc_driver.o
 .bss           0x0000000000000000        0x0 build/default/production/_ext/1360937237/rtc_driver.o
 .text.RTC_DRIVER_Get_Task_Start_Status
                0x0000000000000000        0xc build/default/production/_ext/1360937237/rtc_driver.o
 .text.RTC_DRIVER_Set_Task_Start_Status
                0x0000000000000000        0xc build/default/production/_ext/1360937237/rtc_driver.o
 .text.RTC_DRIVER_Get_Task_Completed_Status
                0x0000000000000000        0xc build/default/production/_ext/1360937237/rtc_driver.o
 .text.RTC_DRIVER_Set_Task_Completed_Status
                0x0000000000000000        0xc build/default/production/_ext/1360937237/rtc_driver.o
 .text.RTC_DRIVER_Print_Data
                0x0000000000000000       0x18 build/default/production/_ext/1360937237/rtc_driver.o
 .rodata.RTC_DRIVER_Print_Data.str1.4
                0x0000000000000000       0x20 build/default/production/_ext/1360937237/rtc_driver.o
 .text          0x0000000000000000        0x0 build/default/production/_ext/1360937237/sht4x_driver.o
 .data          0x0000000000000000        0x0 build/default/production/_ext/1360937237/sht4x_driver.o
 .bss           0x0000000000000000        0x0 build/default/production/_ext/1360937237/sht4x_driver.o
 .text.SHT4X_DRIVER_Get_Task_Start_Status
                0x0000000000000000        0xc build/default/production/_ext/1360937237/sht4x_driver.o
 .text.SHT4X_DRIVER_Set_Task_Start_Status
                0x0000000000000000        0xc build/default/production/_ext/1360937237/sht4x_driver.o
 .text.SHT4X_DRIVER_Get_Task_Completed_Status
                0x0000000000000000        0xc build/default/production/_ext/1360937237/sht4x_driver.o
 .text.SHT4X_DRIVER_Set_Task_Completed_Status
                0x0000000000000000        0xc build/default/production/_ext/1360937237/sht4x_driver.o
 .text.SHT4X_DRIVER_Store_Measure_Values
                0x0000000000000000       0x24 build/default/production/_ext/1360937237/sht4x_driver.o
 .text.SHT4X_DRIVER_Read_Serial_Number
                0x0000000000000000       0x30 build/default/production/_ext/1360937237/sht4x_driver.o
 .text.SHT4X_DRIVER_Store_Serial_Number
                0x0000000000000000       0x24 build/default/production/_ext/1360937237/sht4x_driver.o
 .text.SHT4X_DRIVER_Soft_Reset
                0x0000000000000000       0x24 build/default/production/_ext/1360937237/sht4x_driver.o
 .text.SHT4X_DRIVER_Print_Data
                0x0000000000000000       0x40 build/default/production/_ext/1360937237/sht4x_driver.o
 .rodata.SHT4X_DRIVER_Print_Data.str1.4
                0x0000000000000000       0x40 build/default/production/_ext/1360937237/sht4x_driver.o
 .text          0x0000000000000000        0x0 build/default/production/_ext/1360937237/timer_driver.o
 .data          0x0000000000000000        0x0 build/default/production/_ext/1360937237/timer_driver.o
 .bss           0x0000000000000000        0x0 build/default/production/_ext/1360937237/timer_driver.o
 .text.TIMER_DRIVER_Get_TMR0_Status
                0x0000000000000000        0xc build/default/production/_ext/1360937237/timer_driver.o
 .text.TIMER_DRIVER_Set_TMR0_Status
                0x0000000000000000        0xc build/default/production/_ext/1360937237/timer_driver.o
 .text.TIMER_DRIVER_Start_TMR0
                0x0000000000000000       0x10 build/default/production/_ext/1360937237/timer_driver.o
 .text.TIMER_DRIVER_Set_TMR2_Status
                0x0000000000000000        0xc build/default/production/_ext/1360937237/timer_driver.o
 .text.TIMER_DRIVER_Get_TMR3_Status
                0x0000000000000000        0xc build/default/production/_ext/1360937237/timer_driver.o
 .text.TIMER_DRIVER_Set_TMR3_Status
                0x0000000000000000        0xc build/default/production/_ext/1360937237/timer_driver.o
 .text.TIMER_DRIVER_Start_TMR3
                0x0000000000000000       0x10 build/default/production/_ext/1360937237/timer_driver.o
 .text          0x0000000000000000        0x0 build/default/production/_ext/1360937237/xm125_driver.o
 .data          0x0000000000000000        0x0 build/default/production/_ext/1360937237/xm125_driver.o
 .bss           0x0000000000000000        0x0 build/default/production/_ext/1360937237/xm125_driver.o
 .text          0x0000000000000000        0x0 c:/applications/microchip/xc32/bin/bin/../../lib/gcc/pic32c/8.3.1/../../../../pic32c/lib/thumb/v6-m/nofp\libpic32c.a(data_init.o)
 .data          0x0000000000000000        0x0 c:/applications/microchip/xc32/bin/bin/../../lib/gcc/pic32c/8.3.1/../../../../pic32c/lib/thumb/v6-m/nofp\libpic32c.a(data_init.o)
 .xc_stack_usage
                0x0000000000000000       0x68 c:/applications/microchip/xc32/bin/bin/../../lib/gcc/pic32c/8.3.1/../../../../pic32c/lib/thumb/v6-m/nofp\libpic32c.a(data_init.o)
 .xc_stack_usage.hdr
                0x0000000000000000        0xe c:/applications/microchip/xc32/bin/bin/../../lib/gcc/pic32c/8.3.1/../../../../pic32c/lib/thumb/v6-m/nofp\libpic32c.a(data_init.o)
 .text          0x0000000000000000        0x0 c:/applications/microchip/xc32/bin/bin/../../lib/gcc/pic32c/8.3.1/../../../../pic32c/lib/thumb/v6-m/nofp\libc-size-musl.a(memcpy.o)
 .data          0x0000000000000000        0x0 c:/applications/microchip/xc32/bin/bin/../../lib/gcc/pic32c/8.3.1/../../../../pic32c/lib/thumb/v6-m/nofp\libc-size-musl.a(memcpy.o)
 .bss           0x0000000000000000        0x0 c:/applications/microchip/xc32/bin/bin/../../lib/gcc/pic32c/8.3.1/../../../../pic32c/lib/thumb/v6-m/nofp\libc-size-musl.a(memcpy.o)
 .xc_stack_usage
                0x0000000000000000       0x14 c:/applications/microchip/xc32/bin/bin/../../lib/gcc/pic32c/8.3.1/../../../../pic32c/lib/thumb/v6-m/nofp\libc-size-musl.a(memcpy.o)
 .xc_stack_usage.hdr
                0x0000000000000000        0xe c:/applications/microchip/xc32/bin/bin/../../lib/gcc/pic32c/8.3.1/../../../../pic32c/lib/thumb/v6-m/nofp\libc-size-musl.a(memcpy.o)
 .text          0x0000000000000000        0x0 c:/applications/microchip/xc32/bin/bin/../../lib/gcc/pic32c/8.3.1/../../../../pic32c/lib/thumb/v6-m/nofp\libc-size-musl.a(memset.o)
 .data          0x0000000000000000        0x0 c:/applications/microchip/xc32/bin/bin/../../lib/gcc/pic32c/8.3.1/../../../../pic32c/lib/thumb/v6-m/nofp\libc-size-musl.a(memset.o)
 .bss           0x0000000000000000        0x0 c:/applications/microchip/xc32/bin/bin/../../lib/gcc/pic32c/8.3.1/../../../../pic32c/lib/thumb/v6-m/nofp\libc-size-musl.a(memset.o)
 .xc_stack_usage
                0x0000000000000000       0x14 c:/applications/microchip/xc32/bin/bin/../../lib/gcc/pic32c/8.3.1/../../../../pic32c/lib/thumb/v6-m/nofp\libc-size-musl.a(memset.o)
 .xc_stack_usage.hdr
                0x0000000000000000        0xe c:/applications/microchip/xc32/bin/bin/../../lib/gcc/pic32c/8.3.1/../../../../pic32c/lib/thumb/v6-m/nofp\libc-size-musl.a(memset.o)
 .text          0x0000000000000000        0x0 c:/applications/microchip/xc32/bin/bin/../../lib/gcc/pic32c/8.3.1/../../../../pic32c/lib/thumb/v6-m/nofp\libc-size-musl.a(strlen.o)
 .data          0x0000000000000000        0x0 c:/applications/microchip/xc32/bin/bin/../../lib/gcc/pic32c/8.3.1/../../../../pic32c/lib/thumb/v6-m/nofp\libc-size-musl.a(strlen.o)
 .bss           0x0000000000000000        0x0 c:/applications/microchip/xc32/bin/bin/../../lib/gcc/pic32c/8.3.1/../../../../pic32c/lib/thumb/v6-m/nofp\libc-size-musl.a(strlen.o)
 .xc_stack_usage
                0x0000000000000000       0x14 c:/applications/microchip/xc32/bin/bin/../../lib/gcc/pic32c/8.3.1/../../../../pic32c/lib/thumb/v6-m/nofp\libc-size-musl.a(strlen.o)
 .text.strlen   0x0000000000000000       0x18 c:/applications/microchip/xc32/bin/bin/../../lib/gcc/pic32c/8.3.1/../../../../pic32c/lib/thumb/v6-m/nofp\libc-size-musl.a(strlen.o)
 .xc_stack_usage.hdr
                0x0000000000000000        0xe c:/applications/microchip/xc32/bin/bin/../../lib/gcc/pic32c/8.3.1/../../../../pic32c/lib/thumb/v6-m/nofp\libc-size-musl.a(strlen.o)
 .debug_info    0x0000000000000000       0xa4 c:/applications/microchip/xc32/bin/bin/../../lib/gcc/pic32c/8.3.1/../../../../pic32c/lib/thumb/v6-m/nofp\libc-size-musl.a(strlen.o)
 .debug_abbrev  0x0000000000000000       0x91 c:/applications/microchip/xc32/bin/bin/../../lib/gcc/pic32c/8.3.1/../../../../pic32c/lib/thumb/v6-m/nofp\libc-size-musl.a(strlen.o)
 .debug_loc     0x0000000000000000       0x81 c:/applications/microchip/xc32/bin/bin/../../lib/gcc/pic32c/8.3.1/../../../../pic32c/lib/thumb/v6-m/nofp\libc-size-musl.a(strlen.o)
 .debug_aranges
                0x0000000000000000       0x20 c:/applications/microchip/xc32/bin/bin/../../lib/gcc/pic32c/8.3.1/../../../../pic32c/lib/thumb/v6-m/nofp\libc-size-musl.a(strlen.o)
 .debug_ranges  0x0000000000000000       0x10 c:/applications/microchip/xc32/bin/bin/../../lib/gcc/pic32c/8.3.1/../../../../pic32c/lib/thumb/v6-m/nofp\libc-size-musl.a(strlen.o)
 .debug_line    0x0000000000000000       0xee c:/applications/microchip/xc32/bin/bin/../../lib/gcc/pic32c/8.3.1/../../../../pic32c/lib/thumb/v6-m/nofp\libc-size-musl.a(strlen.o)
 .debug_str     0x0000000000000000      0x217 c:/applications/microchip/xc32/bin/bin/../../lib/gcc/pic32c/8.3.1/../../../../pic32c/lib/thumb/v6-m/nofp\libc-size-musl.a(strlen.o)
 .comment       0x0000000000000000       0x2c c:/applications/microchip/xc32/bin/bin/../../lib/gcc/pic32c/8.3.1/../../../../pic32c/lib/thumb/v6-m/nofp\libc-size-musl.a(strlen.o)
 .note.GNU-stack
                0x0000000000000000        0x0 c:/applications/microchip/xc32/bin/bin/../../lib/gcc/pic32c/8.3.1/../../../../pic32c/lib/thumb/v6-m/nofp\libc-size-musl.a(strlen.o)
 .debug_frame   0x0000000000000000       0x20 c:/applications/microchip/xc32/bin/bin/../../lib/gcc/pic32c/8.3.1/../../../../pic32c/lib/thumb/v6-m/nofp\libc-size-musl.a(strlen.o)
 .ARM.attributes
                0x0000000000000000       0x2e c:/applications/microchip/xc32/bin/bin/../../lib/gcc/pic32c/8.3.1/../../../../pic32c/lib/thumb/v6-m/nofp\libc-size-musl.a(strlen.o)
 .xc_stack_usage.hdr
                0x0000000000000000        0xe c:/applications/microchip/xc32/bin/bin/../../lib/gcc/pic32c/8.3.1/../../../../pic32c/lib/thumb/v6-m/nofp\libm-fast-emfloat.a(__aeabi_fadd.o)
 .xc_stack_usage
                0x0000000000000000       0x41 c:/applications/microchip/xc32/bin/bin/../../lib/gcc/pic32c/8.3.1/../../../../pic32c/lib/thumb/v6-m/nofp\libm-fast-emfloat.a(__aeabi_fadd.o)
 .xc_stack_usage.hdr
                0x0000000000000000        0xe c:/applications/microchip/xc32/bin/bin/../../lib/gcc/pic32c/8.3.1/../../../../pic32c/lib/thumb/v6-m/nofp\libm-fast-emfloat.a(__aeabi_dadd.o)
 .xc_stack_usage
                0x0000000000000000       0x41 c:/applications/microchip/xc32/bin/bin/../../lib/gcc/pic32c/8.3.1/../../../../pic32c/lib/thumb/v6-m/nofp\libm-fast-emfloat.a(__aeabi_dadd.o)
 .xc_stack_usage.hdr
                0x0000000000000000        0xe c:/applications/microchip/xc32/bin/bin/../../lib/gcc/pic32c/8.3.1/../../../../pic32c/lib/thumb/v6-m/nofp\libm-fast-emfloat.a(__aeabi_fsub.o)
 .xc_stack_usage
                0x0000000000000000       0x1a c:/applications/microchip/xc32/bin/bin/../../lib/gcc/pic32c/8.3.1/../../../../pic32c/lib/thumb/v6-m/nofp\libm-fast-emfloat.a(__aeabi_fsub.o)
 .xc_stack_usage.hdr
                0x0000000000000000        0xe c:/applications/microchip/xc32/bin/bin/../../lib/gcc/pic32c/8.3.1/../../../../pic32c/lib/thumb/v6-m/nofp\libm-fast-emfloat.a(__aeabi_fmul.o)
 .xc_stack_usage
                0x0000000000000000       0x1a c:/applications/microchip/xc32/bin/bin/../../lib/gcc/pic32c/8.3.1/../../../../pic32c/lib/thumb/v6-m/nofp\libm-fast-emfloat.a(__aeabi_fmul.o)
 .xc_stack_usage.hdr
                0x0000000000000000        0xe c:/applications/microchip/xc32/bin/bin/../../lib/gcc/pic32c/8.3.1/../../../../pic32c/lib/thumb/v6-m/nofp\libm-fast-emfloat.a(__aeabi_dmul_aux.o)
 .xc_stack_usage
                0x0000000000000000       0x38 c:/applications/microchip/xc32/bin/bin/../../lib/gcc/pic32c/8.3.1/../../../../pic32c/lib/thumb/v6-m/nofp\libm-fast-emfloat.a(__aeabi_dmul_aux.o)
 .xc_stack_usage.hdr
                0x0000000000000000        0xe c:/applications/microchip/xc32/bin/bin/../../lib/gcc/pic32c/8.3.1/../../../../pic32c/lib/thumb/v6-m/nofp\libm-fast-emfloat.a(__aeabi_fdiv.o)
 .xc_stack_usage
                0x0000000000000000       0x1a c:/applications/microchip/xc32/bin/bin/../../lib/gcc/pic32c/8.3.1/../../../../pic32c/lib/thumb/v6-m/nofp\libm-fast-emfloat.a(__aeabi_fdiv.o)
 .ARM.attributes
                0x0000000000000000       0x1c c:/applications/microchip/xc32/bin/bin/../../lib/gcc/pic32c/8.3.1/../../../../pic32c/lib/thumb/v6-m/nofp\libm-fast-emfloat.a(__aeabi_fcmplt.o)
 .text.__aeabi_fcmplt
                0x0000000000000000       0x2e c:/applications/microchip/xc32/bin/bin/../../lib/gcc/pic32c/8.3.1/../../../../pic32c/lib/thumb/v6-m/nofp\libm-fast-emfloat.a(__aeabi_fcmplt.o)
 .xc_stack_usage.hdr
                0x0000000000000000        0xe c:/applications/microchip/xc32/bin/bin/../../lib/gcc/pic32c/8.3.1/../../../../pic32c/lib/thumb/v6-m/nofp\libm-fast-emfloat.a(__aeabi_fcmplt.o)
 .xc_stack_usage
                0x0000000000000000       0x1c c:/applications/microchip/xc32/bin/bin/../../lib/gcc/pic32c/8.3.1/../../../../pic32c/lib/thumb/v6-m/nofp\libm-fast-emfloat.a(__aeabi_fcmplt.o)
 .xc_stack_usage.hdr
                0x0000000000000000        0xe c:/applications/microchip/xc32/bin/bin/../../lib/gcc/pic32c/8.3.1/../../../../pic32c/lib/thumb/v6-m/nofp\libm-fast-emfloat.a(__aeabi_f2iz.o)
 .xc_stack_usage
                0x0000000000000000       0x1a c:/applications/microchip/xc32/bin/bin/../../lib/gcc/pic32c/8.3.1/../../../../pic32c/lib/thumb/v6-m/nofp\libm-fast-emfloat.a(__aeabi_f2iz.o)
 .xc_stack_usage.hdr
                0x0000000000000000        0xe c:/applications/microchip/xc32/bin/bin/../../lib/gcc/pic32c/8.3.1/../../../../pic32c/lib/thumb/v6-m/nofp\libm-fast-emfloat.a(__aeabi_f2uiz.o)
 .xc_stack_usage
                0x0000000000000000       0x1b c:/applications/microchip/xc32/bin/bin/../../lib/gcc/pic32c/8.3.1/../../../../pic32c/lib/thumb/v6-m/nofp\libm-fast-emfloat.a(__aeabi_f2uiz.o)
 .xc_stack_usage.hdr
                0x0000000000000000        0xe c:/applications/microchip/xc32/bin/bin/../../lib/gcc/pic32c/8.3.1/../../../../pic32c/lib/thumb/v6-m/nofp\libm-fast-emfloat.a(__aeabi_i2f.o)
 .xc_stack_usage
                0x0000000000000000       0x19 c:/applications/microchip/xc32/bin/bin/../../lib/gcc/pic32c/8.3.1/../../../../pic32c/lib/thumb/v6-m/nofp\libm-fast-emfloat.a(__aeabi_i2f.o)
 .xc_stack_usage.hdr
                0x0000000000000000        0xe c:/applications/microchip/xc32/bin/bin/../../lib/gcc/pic32c/8.3.1/../../../../pic32c/lib/thumb/v6-m/nofp\libm-fast-emfloat.a(__aeabi_ui2f.o)
 .xc_stack_usage
                0x0000000000000000       0x1a c:/applications/microchip/xc32/bin/bin/../../lib/gcc/pic32c/8.3.1/../../../../pic32c/lib/thumb/v6-m/nofp\libm-fast-emfloat.a(__aeabi_ui2f.o)
 .xc_stack_usage.hdr
                0x0000000000000000        0xe c:/applications/microchip/xc32/bin/bin/../../lib/gcc/pic32c/8.3.1/../../../../pic32c/lib/thumb/v6-m/nofp\libm-fast-emfloat.a(__aeabi_f2d.o)
 .xc_stack_usage
                0x0000000000000000       0x19 c:/applications/microchip/xc32/bin/bin/../../lib/gcc/pic32c/8.3.1/../../../../pic32c/lib/thumb/v6-m/nofp\libm-fast-emfloat.a(__aeabi_f2d.o)
 .xc_stack_usage.hdr
                0x0000000000000000        0xe c:/applications/microchip/xc32/bin/bin/../../lib/gcc/pic32c/8.3.1/../../../../pic32c/lib/thumb/v6-m/nofp\libm-fast-emfloat.a(__aeabi_d2f.o)
 .xc_stack_usage
                0x0000000000000000       0x19 c:/applications/microchip/xc32/bin/bin/../../lib/gcc/pic32c/8.3.1/../../../../pic32c/lib/thumb/v6-m/nofp\libm-fast-emfloat.a(__aeabi_d2f.o)
 .text          0x0000000000000000        0x0 c:/applications/microchip/xc32/bin/bin/../../lib/gcc/pic32c/8.3.1/../../../../pic32c/lib/thumb/v6-m/nofp\libc-musl.a(__libc_start_main.o)
 .data          0x0000000000000000        0x0 c:/applications/microchip/xc32/bin/bin/../../lib/gcc/pic32c/8.3.1/../../../../pic32c/lib/thumb/v6-m/nofp\libc-musl.a(__libc_start_main.o)
 .bss           0x0000000000000000        0x0 c:/applications/microchip/xc32/bin/bin/../../lib/gcc/pic32c/8.3.1/../../../../pic32c/lib/thumb/v6-m/nofp\libc-musl.a(__libc_start_main.o)
 .xc_stack_usage
                0x0000000000000000       0x34 c:/applications/microchip/xc32/bin/bin/../../lib/gcc/pic32c/8.3.1/../../../../pic32c/lib/thumb/v6-m/nofp\libc-musl.a(__libc_start_main.o)
 .xc_stack_usage.hdr
                0x0000000000000000        0xe c:/applications/microchip/xc32/bin/bin/../../lib/gcc/pic32c/8.3.1/../../../../pic32c/lib/thumb/v6-m/nofp\libc-musl.a(__libc_start_main.o)
 .text          0x0000000000000000        0x0 c:/applications/microchip/xc32/bin/bin/../../lib/gcc/pic32c/8.3.1/../../../../pic32c/lib/thumb/v6-m/nofp\libc-musl.a(libc.o)
 .data          0x0000000000000000        0x0 c:/applications/microchip/xc32/bin/bin/../../lib/gcc/pic32c/8.3.1/../../../../pic32c/lib/thumb/v6-m/nofp\libc-musl.a(libc.o)
 .xc_stack_usage.hdr
                0x0000000000000000        0xe c:/applications/microchip/xc32/bin/bin/../../lib/gcc/pic32c/8.3.1/../../../../pic32c/lib/thumb/v6-m/nofp\libc-musl.a(libc.o)
 .text          0x0000000000000000        0x0 c:/applications/microchip/xc32/bin/bin/../../lib/gcc/pic32c/8.3.1/../../../../pic32c/lib/thumb/v6-m/nofp\libc-musl.a(vsnprintf.o)
 .data          0x0000000000000000        0x0 c:/applications/microchip/xc32/bin/bin/../../lib/gcc/pic32c/8.3.1/../../../../pic32c/lib/thumb/v6-m/nofp\libc-musl.a(vsnprintf.o)
 .bss           0x0000000000000000        0x0 c:/applications/microchip/xc32/bin/bin/../../lib/gcc/pic32c/8.3.1/../../../../pic32c/lib/thumb/v6-m/nofp\libc-musl.a(vsnprintf.o)
 .xc_stack_usage
                0x0000000000000000       0x17 c:/applications/microchip/xc32/bin/bin/../../lib/gcc/pic32c/8.3.1/../../../../pic32c/lib/thumb/v6-m/nofp\libc-musl.a(vsnprintf.o)
 .text.vsnprintf
                0x0000000000000000       0x64 c:/applications/microchip/xc32/bin/bin/../../lib/gcc/pic32c/8.3.1/../../../../pic32c/lib/thumb/v6-m/nofp\libc-musl.a(vsnprintf.o)
 .xc_stack_usage.hdr
                0x0000000000000000        0xe c:/applications/microchip/xc32/bin/bin/../../lib/gcc/pic32c/8.3.1/../../../../pic32c/lib/thumb/v6-m/nofp\libc-musl.a(vsnprintf.o)
 .debug_info    0x0000000000000000      0x43a c:/applications/microchip/xc32/bin/bin/../../lib/gcc/pic32c/8.3.1/../../../../pic32c/lib/thumb/v6-m/nofp\libc-musl.a(vsnprintf.o)
 .debug_abbrev  0x0000000000000000      0x195 c:/applications/microchip/xc32/bin/bin/../../lib/gcc/pic32c/8.3.1/../../../../pic32c/lib/thumb/v6-m/nofp\libc-musl.a(vsnprintf.o)
 .debug_loc     0x0000000000000000      0x10c c:/applications/microchip/xc32/bin/bin/../../lib/gcc/pic32c/8.3.1/../../../../pic32c/lib/thumb/v6-m/nofp\libc-musl.a(vsnprintf.o)
 .debug_aranges
                0x0000000000000000       0x20 c:/applications/microchip/xc32/bin/bin/../../lib/gcc/pic32c/8.3.1/../../../../pic32c/lib/thumb/v6-m/nofp\libc-musl.a(vsnprintf.o)
 .debug_ranges  0x0000000000000000       0x10 c:/applications/microchip/xc32/bin/bin/../../lib/gcc/pic32c/8.3.1/../../../../pic32c/lib/thumb/v6-m/nofp\libc-musl.a(vsnprintf.o)
 .debug_line    0x0000000000000000      0x23a c:/applications/microchip/xc32/bin/bin/../../lib/gcc/pic32c/8.3.1/../../../../pic32c/lib/thumb/v6-m/nofp\libc-musl.a(vsnprintf.o)
 .debug_str     0x0000000000000000      0x381 c:/applications/microchip/xc32/bin/bin/../../lib/gcc/pic32c/8.3.1/../../../../pic32c/lib/thumb/v6-m/nofp\libc-musl.a(vsnprintf.o)
 .comment       0x0000000000000000       0x2c c:/applications/microchip/xc32/bin/bin/../../lib/gcc/pic32c/8.3.1/../../../../pic32c/lib/thumb/v6-m/nofp\libc-musl.a(vsnprintf.o)
 .note.GNU-stack
                0x0000000000000000        0x0 c:/applications/microchip/xc32/bin/bin/../../lib/gcc/pic32c/8.3.1/../../../../pic32c/lib/thumb/v6-m/nofp\libc-musl.a(vsnprintf.o)
 .debug_frame   0x0000000000000000       0x34 c:/applications/microchip/xc32/bin/bin/../../lib/gcc/pic32c/8.3.1/../../../../pic32c/lib/thumb/v6-m/nofp\libc-musl.a(vsnprintf.o)
 .ARM.attributes
                0x0000000000000000       0x2e c:/applications/microchip/xc32/bin/bin/../../lib/gcc/pic32c/8.3.1/../../../../pic32c/lib/thumb/v6-m/nofp\libc-musl.a(vsnprintf.o)
 .text          0x0000000000000000        0x0 c:/applications/microchip/xc32/bin/bin/../../lib/gcc/pic32c/8.3.1/../../../../pic32c/lib/thumb/v6-m/nofp\libc-musl.a(__environ.o)
 .data          0x0000000000000000        0x0 c:/applications/microchip/xc32/bin/bin/../../lib/gcc/pic32c/8.3.1/../../../../pic32c/lib/thumb/v6-m/nofp\libc-musl.a(__environ.o)
 .xc_stack_usage.hdr
                0x0000000000000000        0xe c:/applications/microchip/xc32/bin/bin/../../lib/gcc/pic32c/8.3.1/../../../../pic32c/lib/thumb/v6-m/nofp\libc-musl.a(__environ.o)
 .text          0x0000000000000000        0x0 c:/applications/microchip/xc32/bin/bin/../../lib/gcc/pic32c/8.3.1/../../../../pic32c/lib/thumb/v6-m/nofp\libc-musl.a(__errno_location.o)
 .data          0x0000000000000000        0x0 c:/applications/microchip/xc32/bin/bin/../../lib/gcc/pic32c/8.3.1/../../../../pic32c/lib/thumb/v6-m/nofp\libc-musl.a(__errno_location.o)
 .bss           0x0000000000000000        0x4 c:/applications/microchip/xc32/bin/bin/../../lib/gcc/pic32c/8.3.1/../../../../pic32c/lib/thumb/v6-m/nofp\libc-musl.a(__errno_location.o)
 .xc_stack_usage.hdr
                0x0000000000000000        0xe c:/applications/microchip/xc32/bin/bin/../../lib/gcc/pic32c/8.3.1/../../../../pic32c/lib/thumb/v6-m/nofp\libc-musl.a(__errno_location.o)
 .debug_info    0x0000000000000000       0x5b c:/applications/microchip/xc32/bin/bin/../../lib/gcc/pic32c/8.3.1/../../../../pic32c/lib/thumb/v6-m/nofp\libc-musl.a(__errno_location.o)
 .debug_abbrev  0x0000000000000000       0x39 c:/applications/microchip/xc32/bin/bin/../../lib/gcc/pic32c/8.3.1/../../../../pic32c/lib/thumb/v6-m/nofp\libc-musl.a(__errno_location.o)
 .debug_aranges
                0x0000000000000000       0x18 c:/applications/microchip/xc32/bin/bin/../../lib/gcc/pic32c/8.3.1/../../../../pic32c/lib/thumb/v6-m/nofp\libc-musl.a(__errno_location.o)
 .debug_line    0x0000000000000000       0x9a c:/applications/microchip/xc32/bin/bin/../../lib/gcc/pic32c/8.3.1/../../../../pic32c/lib/thumb/v6-m/nofp\libc-musl.a(__errno_location.o)
 .debug_str     0x0000000000000000      0x229 c:/applications/microchip/xc32/bin/bin/../../lib/gcc/pic32c/8.3.1/../../../../pic32c/lib/thumb/v6-m/nofp\libc-musl.a(__errno_location.o)
 .comment       0x0000000000000000       0x2c c:/applications/microchip/xc32/bin/bin/../../lib/gcc/pic32c/8.3.1/../../../../pic32c/lib/thumb/v6-m/nofp\libc-musl.a(__errno_location.o)
 .note.GNU-stack
                0x0000000000000000        0x0 c:/applications/microchip/xc32/bin/bin/../../lib/gcc/pic32c/8.3.1/../../../../pic32c/lib/thumb/v6-m/nofp\libc-musl.a(__errno_location.o)
 .ARM.attributes
                0x0000000000000000       0x2e c:/applications/microchip/xc32/bin/bin/../../lib/gcc/pic32c/8.3.1/../../../../pic32c/lib/thumb/v6-m/nofp\libc-musl.a(__errno_location.o)
 .text          0x0000000000000000        0x0 c:/applications/microchip/xc32/bin/bin/../../lib/gcc/pic32c/8.3.1/../../../../pic32c/lib/thumb/v6-m/nofp\libc-musl.a(vfprintf.o)
 .data          0x0000000000000000        0x0 c:/applications/microchip/xc32/bin/bin/../../lib/gcc/pic32c/8.3.1/../../../../pic32c/lib/thumb/v6-m/nofp\libc-musl.a(vfprintf.o)
 .bss           0x0000000000000000        0x0 c:/applications/microchip/xc32/bin/bin/../../lib/gcc/pic32c/8.3.1/../../../../pic32c/lib/thumb/v6-m/nofp\libc-musl.a(vfprintf.o)
 .xc_stack_usage
                0x0000000000000000       0x38 c:/applications/microchip/xc32/bin/bin/../../lib/gcc/pic32c/8.3.1/../../../../pic32c/lib/thumb/v6-m/nofp\libc-musl.a(vfprintf.o)
 .text.vfprintf
                0x0000000000000000       0x18 c:/applications/microchip/xc32/bin/bin/../../lib/gcc/pic32c/8.3.1/../../../../pic32c/lib/thumb/v6-m/nofp\libc-musl.a(vfprintf.o)
 __xc_reference_data
                0x0000000000000000        0x8 c:/applications/microchip/xc32/bin/bin/../../lib/gcc/pic32c/8.3.1/../../../../pic32c/lib/thumb/v6-m/nofp\libc-musl.a(vfprintf.o)
 .xc_stack_usage.hdr
                0x0000000000000000        0xe c:/applications/microchip/xc32/bin/bin/../../lib/gcc/pic32c/8.3.1/../../../../pic32c/lib/thumb/v6-m/nofp\libc-musl.a(vfprintf.o)
 .debug_info    0x0000000000000000      0x40e c:/applications/microchip/xc32/bin/bin/../../lib/gcc/pic32c/8.3.1/../../../../pic32c/lib/thumb/v6-m/nofp\libc-musl.a(vfprintf.o)
 .debug_abbrev  0x0000000000000000      0x18b c:/applications/microchip/xc32/bin/bin/../../lib/gcc/pic32c/8.3.1/../../../../pic32c/lib/thumb/v6-m/nofp\libc-musl.a(vfprintf.o)
 .debug_loc     0x0000000000000000       0xd0 c:/applications/microchip/xc32/bin/bin/../../lib/gcc/pic32c/8.3.1/../../../../pic32c/lib/thumb/v6-m/nofp\libc-musl.a(vfprintf.o)
 .debug_aranges
                0x0000000000000000       0x28 c:/applications/microchip/xc32/bin/bin/../../lib/gcc/pic32c/8.3.1/../../../../pic32c/lib/thumb/v6-m/nofp\libc-musl.a(vfprintf.o)
 .debug_ranges  0x0000000000000000       0x18 c:/applications/microchip/xc32/bin/bin/../../lib/gcc/pic32c/8.3.1/../../../../pic32c/lib/thumb/v6-m/nofp\libc-musl.a(vfprintf.o)
 .debug_line    0x0000000000000000      0x1fa c:/applications/microchip/xc32/bin/bin/../../lib/gcc/pic32c/8.3.1/../../../../pic32c/lib/thumb/v6-m/nofp\libc-musl.a(vfprintf.o)
 .debug_str     0x0000000000000000      0x37f c:/applications/microchip/xc32/bin/bin/../../lib/gcc/pic32c/8.3.1/../../../../pic32c/lib/thumb/v6-m/nofp\libc-musl.a(vfprintf.o)
 .comment       0x0000000000000000       0x2c c:/applications/microchip/xc32/bin/bin/../../lib/gcc/pic32c/8.3.1/../../../../pic32c/lib/thumb/v6-m/nofp\libc-musl.a(vfprintf.o)
 .note.GNU-stack
                0x0000000000000000        0x0 c:/applications/microchip/xc32/bin/bin/../../lib/gcc/pic32c/8.3.1/../../../../pic32c/lib/thumb/v6-m/nofp\libc-musl.a(vfprintf.o)
 .debug_frame   0x0000000000000000       0x44 c:/applications/microchip/xc32/bin/bin/../../lib/gcc/pic32c/8.3.1/../../../../pic32c/lib/thumb/v6-m/nofp\libc-musl.a(vfprintf.o)
 .ARM.attributes
                0x0000000000000000       0x2e c:/applications/microchip/xc32/bin/bin/../../lib/gcc/pic32c/8.3.1/../../../../pic32c/lib/thumb/v6-m/nofp\libc-musl.a(vfprintf.o)
 .text          0x0000000000000000        0x0 c:/applications/microchip/xc32/bin/bin/../../lib/gcc/pic32c/8.3.1/../../../../pic32c/lib/thumb/v6-m/nofp\libc-musl.a(__io_fmt_needed.o)
 .data          0x0000000000000000        0x0 c:/applications/microchip/xc32/bin/bin/../../lib/gcc/pic32c/8.3.1/../../../../pic32c/lib/thumb/v6-m/nofp\libc-musl.a(__io_fmt_needed.o)
 .bss           0x0000000000000000        0x0 c:/applications/microchip/xc32/bin/bin/../../lib/gcc/pic32c/8.3.1/../../../../pic32c/lib/thumb/v6-m/nofp\libc-musl.a(__io_fmt_needed.o)
 .xc_stack_usage
                0x0000000000000000       0x1d c:/applications/microchip/xc32/bin/bin/../../lib/gcc/pic32c/8.3.1/../../../../pic32c/lib/thumb/v6-m/nofp\libc-musl.a(__io_fmt_needed.o)
 __xc_reference_data
                0x0000000000000000       0x54 c:/applications/microchip/xc32/bin/bin/../../lib/gcc/pic32c/8.3.1/../../../../pic32c/lib/thumb/v6-m/nofp\libc-musl.a(__io_fmt_needed.o)
 .xc_stack_usage.hdr
                0x0000000000000000        0xe c:/applications/microchip/xc32/bin/bin/../../lib/gcc/pic32c/8.3.1/../../../../pic32c/lib/thumb/v6-m/nofp\libc-musl.a(__io_fmt_needed.o)
 .debug_info    0x0000000000000000      0x187 c:/applications/microchip/xc32/bin/bin/../../lib/gcc/pic32c/8.3.1/../../../../pic32c/lib/thumb/v6-m/nofp\libc-musl.a(__io_fmt_needed.o)
 .debug_abbrev  0x0000000000000000       0x67 c:/applications/microchip/xc32/bin/bin/../../lib/gcc/pic32c/8.3.1/../../../../pic32c/lib/thumb/v6-m/nofp\libc-musl.a(__io_fmt_needed.o)
 .debug_loc     0x0000000000000000       0x20 c:/applications/microchip/xc32/bin/bin/../../lib/gcc/pic32c/8.3.1/../../../../pic32c/lib/thumb/v6-m/nofp\libc-musl.a(__io_fmt_needed.o)
 .debug_aranges
                0x0000000000000000       0x20 c:/applications/microchip/xc32/bin/bin/../../lib/gcc/pic32c/8.3.1/../../../../pic32c/lib/thumb/v6-m/nofp\libc-musl.a(__io_fmt_needed.o)
 .debug_ranges  0x0000000000000000       0x10 c:/applications/microchip/xc32/bin/bin/../../lib/gcc/pic32c/8.3.1/../../../../pic32c/lib/thumb/v6-m/nofp\libc-musl.a(__io_fmt_needed.o)
 .debug_line    0x0000000000000000       0xc2 c:/applications/microchip/xc32/bin/bin/../../lib/gcc/pic32c/8.3.1/../../../../pic32c/lib/thumb/v6-m/nofp\libc-musl.a(__io_fmt_needed.o)
 .debug_str     0x0000000000000000      0x336 c:/applications/microchip/xc32/bin/bin/../../lib/gcc/pic32c/8.3.1/../../../../pic32c/lib/thumb/v6-m/nofp\libc-musl.a(__io_fmt_needed.o)
 .comment       0x0000000000000000       0x2c c:/applications/microchip/xc32/bin/bin/../../lib/gcc/pic32c/8.3.1/../../../../pic32c/lib/thumb/v6-m/nofp\libc-musl.a(__io_fmt_needed.o)
 .note.GNU-stack
                0x0000000000000000        0x0 c:/applications/microchip/xc32/bin/bin/../../lib/gcc/pic32c/8.3.1/../../../../pic32c/lib/thumb/v6-m/nofp\libc-musl.a(__io_fmt_needed.o)
 .debug_frame   0x0000000000000000       0x28 c:/applications/microchip/xc32/bin/bin/../../lib/gcc/pic32c/8.3.1/../../../../pic32c/lib/thumb/v6-m/nofp\libc-musl.a(__io_fmt_needed.o)
 .ARM.attributes
                0x0000000000000000       0x2e c:/applications/microchip/xc32/bin/bin/../../lib/gcc/pic32c/8.3.1/../../../../pic32c/lib/thumb/v6-m/nofp\libc-musl.a(__io_fmt_needed.o)
 .text          0x0000000000000000        0x0 c:/applications/microchip/xc32/bin/bin/../../lib/gcc/pic32c/8.3.1/../../../../pic32c/lib/thumb/v6-m/nofp\libc-musl.a(__pop_float.o)
 .data          0x0000000000000000        0x0 c:/applications/microchip/xc32/bin/bin/../../lib/gcc/pic32c/8.3.1/../../../../pic32c/lib/thumb/v6-m/nofp\libc-musl.a(__pop_float.o)
 .bss           0x0000000000000000        0x0 c:/applications/microchip/xc32/bin/bin/../../lib/gcc/pic32c/8.3.1/../../../../pic32c/lib/thumb/v6-m/nofp\libc-musl.a(__pop_float.o)
 .xc_stack_usage
                0x0000000000000000       0x19 c:/applications/microchip/xc32/bin/bin/../../lib/gcc/pic32c/8.3.1/../../../../pic32c/lib/thumb/v6-m/nofp\libc-musl.a(__pop_float.o)
 .text.__pop_float
                0x0000000000000000       0x2a c:/applications/microchip/xc32/bin/bin/../../lib/gcc/pic32c/8.3.1/../../../../pic32c/lib/thumb/v6-m/nofp\libc-musl.a(__pop_float.o)
 .xc_stack_usage.hdr
                0x0000000000000000        0xe c:/applications/microchip/xc32/bin/bin/../../lib/gcc/pic32c/8.3.1/../../../../pic32c/lib/thumb/v6-m/nofp\libc-musl.a(__pop_float.o)
 .debug_info    0x0000000000000000      0x162 c:/applications/microchip/xc32/bin/bin/../../lib/gcc/pic32c/8.3.1/../../../../pic32c/lib/thumb/v6-m/nofp\libc-musl.a(__pop_float.o)
 .debug_abbrev  0x0000000000000000       0xdc c:/applications/microchip/xc32/bin/bin/../../lib/gcc/pic32c/8.3.1/../../../../pic32c/lib/thumb/v6-m/nofp\libc-musl.a(__pop_float.o)
 .debug_loc     0x0000000000000000       0x6f c:/applications/microchip/xc32/bin/bin/../../lib/gcc/pic32c/8.3.1/../../../../pic32c/lib/thumb/v6-m/nofp\libc-musl.a(__pop_float.o)
 .debug_aranges
                0x0000000000000000       0x20 c:/applications/microchip/xc32/bin/bin/../../lib/gcc/pic32c/8.3.1/../../../../pic32c/lib/thumb/v6-m/nofp\libc-musl.a(__pop_float.o)
 .debug_ranges  0x0000000000000000       0x10 c:/applications/microchip/xc32/bin/bin/../../lib/gcc/pic32c/8.3.1/../../../../pic32c/lib/thumb/v6-m/nofp\libc-musl.a(__pop_float.o)
 .debug_line    0x0000000000000000      0x166 c:/applications/microchip/xc32/bin/bin/../../lib/gcc/pic32c/8.3.1/../../../../pic32c/lib/thumb/v6-m/nofp\libc-musl.a(__pop_float.o)
 .debug_str     0x0000000000000000      0x2c0 c:/applications/microchip/xc32/bin/bin/../../lib/gcc/pic32c/8.3.1/../../../../pic32c/lib/thumb/v6-m/nofp\libc-musl.a(__pop_float.o)
 .comment       0x0000000000000000       0x2c c:/applications/microchip/xc32/bin/bin/../../lib/gcc/pic32c/8.3.1/../../../../pic32c/lib/thumb/v6-m/nofp\libc-musl.a(__pop_float.o)
 .note.GNU-stack
                0x0000000000000000        0x0 c:/applications/microchip/xc32/bin/bin/../../lib/gcc/pic32c/8.3.1/../../../../pic32c/lib/thumb/v6-m/nofp\libc-musl.a(__pop_float.o)
 .debug_frame   0x0000000000000000       0x20 c:/applications/microchip/xc32/bin/bin/../../lib/gcc/pic32c/8.3.1/../../../../pic32c/lib/thumb/v6-m/nofp\libc-musl.a(__pop_float.o)
 .ARM.attributes
                0x0000000000000000       0x2e c:/applications/microchip/xc32/bin/bin/../../lib/gcc/pic32c/8.3.1/../../../../pic32c/lib/thumb/v6-m/nofp\libc-musl.a(__pop_float.o)
 .text          0x0000000000000000        0x0 c:/applications/microchip/xc32/bin/bin/../../lib/gcc/pic32c/8.3.1/../../../../pic32c/lib/thumb/v6-m/nofp\libc-musl.a(__pop_int.o)
 .data          0x0000000000000000        0x0 c:/applications/microchip/xc32/bin/bin/../../lib/gcc/pic32c/8.3.1/../../../../pic32c/lib/thumb/v6-m/nofp\libc-musl.a(__pop_int.o)
 .bss           0x0000000000000000        0x0 c:/applications/microchip/xc32/bin/bin/../../lib/gcc/pic32c/8.3.1/../../../../pic32c/lib/thumb/v6-m/nofp\libc-musl.a(__pop_int.o)
 .xc_stack_usage
                0x0000000000000000       0x17 c:/applications/microchip/xc32/bin/bin/../../lib/gcc/pic32c/8.3.1/../../../../pic32c/lib/thumb/v6-m/nofp\libc-musl.a(__pop_int.o)
 .text.__pop_int
                0x0000000000000000       0xbe c:/applications/microchip/xc32/bin/bin/../../lib/gcc/pic32c/8.3.1/../../../../pic32c/lib/thumb/v6-m/nofp\libc-musl.a(__pop_int.o)
 .xc_stack_usage.hdr
                0x0000000000000000        0xe c:/applications/microchip/xc32/bin/bin/../../lib/gcc/pic32c/8.3.1/../../../../pic32c/lib/thumb/v6-m/nofp\libc-musl.a(__pop_int.o)
 .debug_info    0x0000000000000000      0x183 c:/applications/microchip/xc32/bin/bin/../../lib/gcc/pic32c/8.3.1/../../../../pic32c/lib/thumb/v6-m/nofp\libc-musl.a(__pop_int.o)
 .debug_abbrev  0x0000000000000000       0xdc c:/applications/microchip/xc32/bin/bin/../../lib/gcc/pic32c/8.3.1/../../../../pic32c/lib/thumb/v6-m/nofp\libc-musl.a(__pop_int.o)
 .debug_loc     0x0000000000000000      0x34c c:/applications/microchip/xc32/bin/bin/../../lib/gcc/pic32c/8.3.1/../../../../pic32c/lib/thumb/v6-m/nofp\libc-musl.a(__pop_int.o)
 .debug_aranges
                0x0000000000000000       0x20 c:/applications/microchip/xc32/bin/bin/../../lib/gcc/pic32c/8.3.1/../../../../pic32c/lib/thumb/v6-m/nofp\libc-musl.a(__pop_int.o)
 .debug_ranges  0x0000000000000000       0x10 c:/applications/microchip/xc32/bin/bin/../../lib/gcc/pic32c/8.3.1/../../../../pic32c/lib/thumb/v6-m/nofp\libc-musl.a(__pop_int.o)
 .debug_line    0x0000000000000000      0x211 c:/applications/microchip/xc32/bin/bin/../../lib/gcc/pic32c/8.3.1/../../../../pic32c/lib/thumb/v6-m/nofp\libc-musl.a(__pop_int.o)
 .debug_str     0x0000000000000000      0x2cb c:/applications/microchip/xc32/bin/bin/../../lib/gcc/pic32c/8.3.1/../../../../pic32c/lib/thumb/v6-m/nofp\libc-musl.a(__pop_int.o)
 .comment       0x0000000000000000       0x2c c:/applications/microchip/xc32/bin/bin/../../lib/gcc/pic32c/8.3.1/../../../../pic32c/lib/thumb/v6-m/nofp\libc-musl.a(__pop_int.o)
 .note.GNU-stack
                0x0000000000000000        0x0 c:/applications/microchip/xc32/bin/bin/../../lib/gcc/pic32c/8.3.1/../../../../pic32c/lib/thumb/v6-m/nofp\libc-musl.a(__pop_int.o)
 .debug_frame   0x0000000000000000       0x28 c:/applications/microchip/xc32/bin/bin/../../lib/gcc/pic32c/8.3.1/../../../../pic32c/lib/thumb/v6-m/nofp\libc-musl.a(__pop_int.o)
 .ARM.attributes
                0x0000000000000000       0x2e c:/applications/microchip/xc32/bin/bin/../../lib/gcc/pic32c/8.3.1/../../../../pic32c/lib/thumb/v6-m/nofp\libc-musl.a(__pop_int.o)
 .text          0x0000000000000000        0x0 c:/applications/microchip/xc32/bin/bin/../../lib/gcc/pic32c/8.3.1/../../../../pic32c/lib/thumb/v6-m/nofp\libc-musl.a(__pop_ptr.o)
 .data          0x0000000000000000        0x0 c:/applications/microchip/xc32/bin/bin/../../lib/gcc/pic32c/8.3.1/../../../../pic32c/lib/thumb/v6-m/nofp\libc-musl.a(__pop_ptr.o)
 .bss           0x0000000000000000        0x0 c:/applications/microchip/xc32/bin/bin/../../lib/gcc/pic32c/8.3.1/../../../../pic32c/lib/thumb/v6-m/nofp\libc-musl.a(__pop_ptr.o)
 .xc_stack_usage
                0x0000000000000000       0x17 c:/applications/microchip/xc32/bin/bin/../../lib/gcc/pic32c/8.3.1/../../../../pic32c/lib/thumb/v6-m/nofp\libc-musl.a(__pop_ptr.o)
 .text.__pop_ptr
                0x0000000000000000       0x68 c:/applications/microchip/xc32/bin/bin/../../lib/gcc/pic32c/8.3.1/../../../../pic32c/lib/thumb/v6-m/nofp\libc-musl.a(__pop_ptr.o)
 .xc_stack_usage.hdr
                0x0000000000000000        0xe c:/applications/microchip/xc32/bin/bin/../../lib/gcc/pic32c/8.3.1/../../../../pic32c/lib/thumb/v6-m/nofp\libc-musl.a(__pop_ptr.o)
 .debug_info    0x0000000000000000      0x18d c:/applications/microchip/xc32/bin/bin/../../lib/gcc/pic32c/8.3.1/../../../../pic32c/lib/thumb/v6-m/nofp\libc-musl.a(__pop_ptr.o)
 .debug_abbrev  0x0000000000000000       0xdc c:/applications/microchip/xc32/bin/bin/../../lib/gcc/pic32c/8.3.1/../../../../pic32c/lib/thumb/v6-m/nofp\libc-musl.a(__pop_ptr.o)
 .debug_loc     0x0000000000000000      0x1fe c:/applications/microchip/xc32/bin/bin/../../lib/gcc/pic32c/8.3.1/../../../../pic32c/lib/thumb/v6-m/nofp\libc-musl.a(__pop_ptr.o)
 .debug_aranges
                0x0000000000000000       0x20 c:/applications/microchip/xc32/bin/bin/../../lib/gcc/pic32c/8.3.1/../../../../pic32c/lib/thumb/v6-m/nofp\libc-musl.a(__pop_ptr.o)
 .debug_ranges  0x0000000000000000       0x10 c:/applications/microchip/xc32/bin/bin/../../lib/gcc/pic32c/8.3.1/../../../../pic32c/lib/thumb/v6-m/nofp\libc-musl.a(__pop_ptr.o)
 .debug_line    0x0000000000000000      0x1c8 c:/applications/microchip/xc32/bin/bin/../../lib/gcc/pic32c/8.3.1/../../../../pic32c/lib/thumb/v6-m/nofp\libc-musl.a(__pop_ptr.o)
 .debug_str     0x0000000000000000      0x2cd c:/applications/microchip/xc32/bin/bin/../../lib/gcc/pic32c/8.3.1/../../../../pic32c/lib/thumb/v6-m/nofp\libc-musl.a(__pop_ptr.o)
 .comment       0x0000000000000000       0x2c c:/applications/microchip/xc32/bin/bin/../../lib/gcc/pic32c/8.3.1/../../../../pic32c/lib/thumb/v6-m/nofp\libc-musl.a(__pop_ptr.o)
 .note.GNU-stack
                0x0000000000000000        0x0 c:/applications/microchip/xc32/bin/bin/../../lib/gcc/pic32c/8.3.1/../../../../pic32c/lib/thumb/v6-m/nofp\libc-musl.a(__pop_ptr.o)
 .debug_frame   0x0000000000000000       0x28 c:/applications/microchip/xc32/bin/bin/../../lib/gcc/pic32c/8.3.1/../../../../pic32c/lib/thumb/v6-m/nofp\libc-musl.a(__pop_ptr.o)
 .ARM.attributes
                0x0000000000000000       0x2e c:/applications/microchip/xc32/bin/bin/../../lib/gcc/pic32c/8.3.1/../../../../pic32c/lib/thumb/v6-m/nofp\libc-musl.a(__pop_ptr.o)
 .text          0x0000000000000000        0x0 c:/applications/microchip/xc32/bin/bin/../../lib/gcc/pic32c/8.3.1/../../../../pic32c/lib/thumb/v6-m/nofp\libc-musl.a(__printf_core.o)
 .data          0x0000000000000000        0x0 c:/applications/microchip/xc32/bin/bin/../../lib/gcc/pic32c/8.3.1/../../../../pic32c/lib/thumb/v6-m/nofp\libc-musl.a(__printf_core.o)
 .bss           0x0000000000000000        0x0 c:/applications/microchip/xc32/bin/bin/../../lib/gcc/pic32c/8.3.1/../../../../pic32c/lib/thumb/v6-m/nofp\libc-musl.a(__printf_core.o)
 .xc_stack_usage
                0x0000000000000000       0xaf c:/applications/microchip/xc32/bin/bin/../../lib/gcc/pic32c/8.3.1/../../../../pic32c/lib/thumb/v6-m/nofp\libc-musl.a(__printf_core.o)
 .text.__string_out
                0x0000000000000000       0x2a c:/applications/microchip/xc32/bin/bin/../../lib/gcc/pic32c/8.3.1/../../../../pic32c/lib/thumb/v6-m/nofp\libc-musl.a(__printf_core.o)
 .text.__pad    0x0000000000000000       0x7a c:/applications/microchip/xc32/bin/bin/../../lib/gcc/pic32c/8.3.1/../../../../pic32c/lib/thumb/v6-m/nofp\libc-musl.a(__printf_core.o)
 .text.__dummy_fmt3
                0x0000000000000000        0x4 c:/applications/microchip/xc32/bin/bin/../../lib/gcc/pic32c/8.3.1/../../../../pic32c/lib/thumb/v6-m/nofp\libc-musl.a(__printf_core.o)
 .text.__dummy_fmt4
                0x0000000000000000        0x4 c:/applications/microchip/xc32/bin/bin/../../lib/gcc/pic32c/8.3.1/../../../../pic32c/lib/thumb/v6-m/nofp\libc-musl.a(__printf_core.o)
 .text.__dummy_fmts
                0x0000000000000000        0x4 c:/applications/microchip/xc32/bin/bin/../../lib/gcc/pic32c/8.3.1/../../../../pic32c/lib/thumb/v6-m/nofp\libc-musl.a(__printf_core.o)
 .text.__fmt_state
                0x0000000000000000       0x34 c:/applications/microchip/xc32/bin/bin/../../lib/gcc/pic32c/8.3.1/../../../../pic32c/lib/thumb/v6-m/nofp\libc-musl.a(__printf_core.o)
 .text.__printf_core
                0x0000000000000000      0x33c c:/applications/microchip/xc32/bin/bin/../../lib/gcc/pic32c/8.3.1/../../../../pic32c/lib/thumb/v6-m/nofp\libc-musl.a(__printf_core.o)
 .rodata        0x0000000000000000       0x16 c:/applications/microchip/xc32/bin/bin/../../lib/gcc/pic32c/8.3.1/../../../../pic32c/lib/thumb/v6-m/nofp\libc-musl.a(__printf_core.o)
 .rodata.str1.1
                0x0000000000000000        0x8 c:/applications/microchip/xc32/bin/bin/../../lib/gcc/pic32c/8.3.1/../../../../pic32c/lib/thumb/v6-m/nofp\libc-musl.a(__printf_core.o)
 .xc_stack_usage.hdr
                0x0000000000000000        0xe c:/applications/microchip/xc32/bin/bin/../../lib/gcc/pic32c/8.3.1/../../../../pic32c/lib/thumb/v6-m/nofp\libc-musl.a(__printf_core.o)
 .debug_info    0x0000000000000000      0xa6f c:/applications/microchip/xc32/bin/bin/../../lib/gcc/pic32c/8.3.1/../../../../pic32c/lib/thumb/v6-m/nofp\libc-musl.a(__printf_core.o)
 .debug_abbrev  0x0000000000000000      0x317 c:/applications/microchip/xc32/bin/bin/../../lib/gcc/pic32c/8.3.1/../../../../pic32c/lib/thumb/v6-m/nofp\libc-musl.a(__printf_core.o)
 .debug_loc     0x0000000000000000      0x6d9 c:/applications/microchip/xc32/bin/bin/../../lib/gcc/pic32c/8.3.1/../../../../pic32c/lib/thumb/v6-m/nofp\libc-musl.a(__printf_core.o)
 .debug_aranges
                0x0000000000000000       0x50 c:/applications/microchip/xc32/bin/bin/../../lib/gcc/pic32c/8.3.1/../../../../pic32c/lib/thumb/v6-m/nofp\libc-musl.a(__printf_core.o)
 .debug_ranges  0x0000000000000000       0x58 c:/applications/microchip/xc32/bin/bin/../../lib/gcc/pic32c/8.3.1/../../../../pic32c/lib/thumb/v6-m/nofp\libc-musl.a(__printf_core.o)
 .debug_line    0x0000000000000000      0x6c7 c:/applications/microchip/xc32/bin/bin/../../lib/gcc/pic32c/8.3.1/../../../../pic32c/lib/thumb/v6-m/nofp\libc-musl.a(__printf_core.o)
 .debug_str     0x0000000000000000      0x3e7 c:/applications/microchip/xc32/bin/bin/../../lib/gcc/pic32c/8.3.1/../../../../pic32c/lib/thumb/v6-m/nofp\libc-musl.a(__printf_core.o)
 .comment       0x0000000000000000       0x2c c:/applications/microchip/xc32/bin/bin/../../lib/gcc/pic32c/8.3.1/../../../../pic32c/lib/thumb/v6-m/nofp\libc-musl.a(__printf_core.o)
 .note.GNU-stack
                0x0000000000000000        0x0 c:/applications/microchip/xc32/bin/bin/../../lib/gcc/pic32c/8.3.1/../../../../pic32c/lib/thumb/v6-m/nofp\libc-musl.a(__printf_core.o)
 .debug_frame   0x0000000000000000       0xc0 c:/applications/microchip/xc32/bin/bin/../../lib/gcc/pic32c/8.3.1/../../../../pic32c/lib/thumb/v6-m/nofp\libc-musl.a(__printf_core.o)
 .ARM.attributes
                0x0000000000000000       0x2e c:/applications/microchip/xc32/bin/bin/../../lib/gcc/pic32c/8.3.1/../../../../pic32c/lib/thumb/v6-m/nofp\libc-musl.a(__printf_core.o)
 .text          0x0000000000000000        0x0 c:/applications/microchip/xc32/bin/bin/../../lib/gcc/pic32c/8.3.1/../../../../pic32c/lib/thumb/v6-m/nofp\libc-musl.a(atoi.o)
 .data          0x0000000000000000        0x0 c:/applications/microchip/xc32/bin/bin/../../lib/gcc/pic32c/8.3.1/../../../../pic32c/lib/thumb/v6-m/nofp\libc-musl.a(atoi.o)
 .bss           0x0000000000000000        0x0 c:/applications/microchip/xc32/bin/bin/../../lib/gcc/pic32c/8.3.1/../../../../pic32c/lib/thumb/v6-m/nofp\libc-musl.a(atoi.o)
 .xc_stack_usage
                0x0000000000000000       0x12 c:/applications/microchip/xc32/bin/bin/../../lib/gcc/pic32c/8.3.1/../../../../pic32c/lib/thumb/v6-m/nofp\libc-musl.a(atoi.o)
 .text.atoi     0x0000000000000000       0x40 c:/applications/microchip/xc32/bin/bin/../../lib/gcc/pic32c/8.3.1/../../../../pic32c/lib/thumb/v6-m/nofp\libc-musl.a(atoi.o)
 .xc_stack_usage.hdr
                0x0000000000000000        0xe c:/applications/microchip/xc32/bin/bin/../../lib/gcc/pic32c/8.3.1/../../../../pic32c/lib/thumb/v6-m/nofp\libc-musl.a(atoi.o)
 .debug_info    0x0000000000000000       0xf4 c:/applications/microchip/xc32/bin/bin/../../lib/gcc/pic32c/8.3.1/../../../../pic32c/lib/thumb/v6-m/nofp\libc-musl.a(atoi.o)
 .debug_abbrev  0x0000000000000000       0xc6 c:/applications/microchip/xc32/bin/bin/../../lib/gcc/pic32c/8.3.1/../../../../pic32c/lib/thumb/v6-m/nofp\libc-musl.a(atoi.o)
 .debug_loc     0x0000000000000000       0xdc c:/applications/microchip/xc32/bin/bin/../../lib/gcc/pic32c/8.3.1/../../../../pic32c/lib/thumb/v6-m/nofp\libc-musl.a(atoi.o)
 .debug_aranges
                0x0000000000000000       0x20 c:/applications/microchip/xc32/bin/bin/../../lib/gcc/pic32c/8.3.1/../../../../pic32c/lib/thumb/v6-m/nofp\libc-musl.a(atoi.o)
 .debug_ranges  0x0000000000000000       0x10 c:/applications/microchip/xc32/bin/bin/../../lib/gcc/pic32c/8.3.1/../../../../pic32c/lib/thumb/v6-m/nofp\libc-musl.a(atoi.o)
 .debug_line    0x0000000000000000      0x173 c:/applications/microchip/xc32/bin/bin/../../lib/gcc/pic32c/8.3.1/../../../../pic32c/lib/thumb/v6-m/nofp\libc-musl.a(atoi.o)
 .debug_str     0x0000000000000000      0x21c c:/applications/microchip/xc32/bin/bin/../../lib/gcc/pic32c/8.3.1/../../../../pic32c/lib/thumb/v6-m/nofp\libc-musl.a(atoi.o)
 .comment       0x0000000000000000       0x2c c:/applications/microchip/xc32/bin/bin/../../lib/gcc/pic32c/8.3.1/../../../../pic32c/lib/thumb/v6-m/nofp\libc-musl.a(atoi.o)
 .note.GNU-stack
                0x0000000000000000        0x0 c:/applications/microchip/xc32/bin/bin/../../lib/gcc/pic32c/8.3.1/../../../../pic32c/lib/thumb/v6-m/nofp\libc-musl.a(atoi.o)
 .debug_frame   0x0000000000000000       0x28 c:/applications/microchip/xc32/bin/bin/../../lib/gcc/pic32c/8.3.1/../../../../pic32c/lib/thumb/v6-m/nofp\libc-musl.a(atoi.o)
 .ARM.attributes
                0x0000000000000000       0x2e c:/applications/microchip/xc32/bin/bin/../../lib/gcc/pic32c/8.3.1/../../../../pic32c/lib/thumb/v6-m/nofp\libc-musl.a(atoi.o)
 .text          0x0000000000000000        0x0 c:/applications/microchip/xc32/bin/bin/../../lib/gcc/pic32c/8.3.1/../../../../pic32c/lib/thumb/v6-m/nofp\libc-musl.a(tolower.o)
 .data          0x0000000000000000        0x0 c:/applications/microchip/xc32/bin/bin/../../lib/gcc/pic32c/8.3.1/../../../../pic32c/lib/thumb/v6-m/nofp\libc-musl.a(tolower.o)
 .bss           0x0000000000000000        0x0 c:/applications/microchip/xc32/bin/bin/../../lib/gcc/pic32c/8.3.1/../../../../pic32c/lib/thumb/v6-m/nofp\libc-musl.a(tolower.o)
 .xc_stack_usage
                0x0000000000000000       0x2e c:/applications/microchip/xc32/bin/bin/../../lib/gcc/pic32c/8.3.1/../../../../pic32c/lib/thumb/v6-m/nofp\libc-musl.a(tolower.o)
 .text.tolower  0x0000000000000000        0xe c:/applications/microchip/xc32/bin/bin/../../lib/gcc/pic32c/8.3.1/../../../../pic32c/lib/thumb/v6-m/nofp\libc-musl.a(tolower.o)
 .text.__tolower_l
                0x0000000000000000        0x8 c:/applications/microchip/xc32/bin/bin/../../lib/gcc/pic32c/8.3.1/../../../../pic32c/lib/thumb/v6-m/nofp\libc-musl.a(tolower.o)
 .xc_stack_usage.hdr
                0x0000000000000000        0xe c:/applications/microchip/xc32/bin/bin/../../lib/gcc/pic32c/8.3.1/../../../../pic32c/lib/thumb/v6-m/nofp\libc-musl.a(tolower.o)
 .debug_info    0x0000000000000000      0x131 c:/applications/microchip/xc32/bin/bin/../../lib/gcc/pic32c/8.3.1/../../../../pic32c/lib/thumb/v6-m/nofp\libc-musl.a(tolower.o)
 .debug_abbrev  0x0000000000000000       0xf4 c:/applications/microchip/xc32/bin/bin/../../lib/gcc/pic32c/8.3.1/../../../../pic32c/lib/thumb/v6-m/nofp\libc-musl.a(tolower.o)
 .debug_loc     0x0000000000000000       0x8f c:/applications/microchip/xc32/bin/bin/../../lib/gcc/pic32c/8.3.1/../../../../pic32c/lib/thumb/v6-m/nofp\libc-musl.a(tolower.o)
 .debug_aranges
                0x0000000000000000       0x28 c:/applications/microchip/xc32/bin/bin/../../lib/gcc/pic32c/8.3.1/../../../../pic32c/lib/thumb/v6-m/nofp\libc-musl.a(tolower.o)
 .debug_ranges  0x0000000000000000       0x18 c:/applications/microchip/xc32/bin/bin/../../lib/gcc/pic32c/8.3.1/../../../../pic32c/lib/thumb/v6-m/nofp\libc-musl.a(tolower.o)
 .debug_line    0x0000000000000000      0x15c c:/applications/microchip/xc32/bin/bin/../../lib/gcc/pic32c/8.3.1/../../../../pic32c/lib/thumb/v6-m/nofp\libc-musl.a(tolower.o)
 .debug_str     0x0000000000000000      0x249 c:/applications/microchip/xc32/bin/bin/../../lib/gcc/pic32c/8.3.1/../../../../pic32c/lib/thumb/v6-m/nofp\libc-musl.a(tolower.o)
 .comment       0x0000000000000000       0x2c c:/applications/microchip/xc32/bin/bin/../../lib/gcc/pic32c/8.3.1/../../../../pic32c/lib/thumb/v6-m/nofp\libc-musl.a(tolower.o)
 .note.GNU-stack
                0x0000000000000000        0x0 c:/applications/microchip/xc32/bin/bin/../../lib/gcc/pic32c/8.3.1/../../../../pic32c/lib/thumb/v6-m/nofp\libc-musl.a(tolower.o)
 .debug_frame   0x0000000000000000       0x38 c:/applications/microchip/xc32/bin/bin/../../lib/gcc/pic32c/8.3.1/../../../../pic32c/lib/thumb/v6-m/nofp\libc-musl.a(tolower.o)
 .ARM.attributes
                0x0000000000000000       0x2e c:/applications/microchip/xc32/bin/bin/../../lib/gcc/pic32c/8.3.1/../../../../pic32c/lib/thumb/v6-m/nofp\libc-musl.a(tolower.o)
 .text          0x0000000000000000        0x0 c:/applications/microchip/xc32/bin/bin/../../lib/gcc/pic32c/8.3.1/../../../../pic32c/lib/thumb/v6-m/nofp\libc-musl.a(__fmt_a.o)
 .data          0x0000000000000000        0x0 c:/applications/microchip/xc32/bin/bin/../../lib/gcc/pic32c/8.3.1/../../../../pic32c/lib/thumb/v6-m/nofp\libc-musl.a(__fmt_a.o)
 .bss           0x0000000000000000        0x0 c:/applications/microchip/xc32/bin/bin/../../lib/gcc/pic32c/8.3.1/../../../../pic32c/lib/thumb/v6-m/nofp\libc-musl.a(__fmt_a.o)
 .xc_stack_usage
                0x0000000000000000       0x15 c:/applications/microchip/xc32/bin/bin/../../lib/gcc/pic32c/8.3.1/../../../../pic32c/lib/thumb/v6-m/nofp\libc-musl.a(__fmt_a.o)
 .text.__fmt_a  0x0000000000000000      0x484 c:/applications/microchip/xc32/bin/bin/../../lib/gcc/pic32c/8.3.1/../../../../pic32c/lib/thumb/v6-m/nofp\libc-musl.a(__fmt_a.o)
 .rodata.str1.1
                0x0000000000000000       0x10 c:/applications/microchip/xc32/bin/bin/../../lib/gcc/pic32c/8.3.1/../../../../pic32c/lib/thumb/v6-m/nofp\libc-musl.a(__fmt_a.o)
 .xc_stack_usage.hdr
                0x0000000000000000        0xe c:/applications/microchip/xc32/bin/bin/../../lib/gcc/pic32c/8.3.1/../../../../pic32c/lib/thumb/v6-m/nofp\libc-musl.a(__fmt_a.o)
 .debug_info    0x0000000000000000      0x5fb c:/applications/microchip/xc32/bin/bin/../../lib/gcc/pic32c/8.3.1/../../../../pic32c/lib/thumb/v6-m/nofp\libc-musl.a(__fmt_a.o)
 .debug_abbrev  0x0000000000000000      0x1d5 c:/applications/microchip/xc32/bin/bin/../../lib/gcc/pic32c/8.3.1/../../../../pic32c/lib/thumb/v6-m/nofp\libc-musl.a(__fmt_a.o)
 .debug_loc     0x0000000000000000      0xdb0 c:/applications/microchip/xc32/bin/bin/../../lib/gcc/pic32c/8.3.1/../../../../pic32c/lib/thumb/v6-m/nofp\libc-musl.a(__fmt_a.o)
 .debug_aranges
                0x0000000000000000       0x20 c:/applications/microchip/xc32/bin/bin/../../lib/gcc/pic32c/8.3.1/../../../../pic32c/lib/thumb/v6-m/nofp\libc-musl.a(__fmt_a.o)
 .debug_ranges  0x0000000000000000       0x10 c:/applications/microchip/xc32/bin/bin/../../lib/gcc/pic32c/8.3.1/../../../../pic32c/lib/thumb/v6-m/nofp\libc-musl.a(__fmt_a.o)
 .debug_line    0x0000000000000000      0x646 c:/applications/microchip/xc32/bin/bin/../../lib/gcc/pic32c/8.3.1/../../../../pic32c/lib/thumb/v6-m/nofp\libc-musl.a(__fmt_a.o)
 .debug_str     0x0000000000000000      0x333 c:/applications/microchip/xc32/bin/bin/../../lib/gcc/pic32c/8.3.1/../../../../pic32c/lib/thumb/v6-m/nofp\libc-musl.a(__fmt_a.o)
 .comment       0x0000000000000000       0x2c c:/applications/microchip/xc32/bin/bin/../../lib/gcc/pic32c/8.3.1/../../../../pic32c/lib/thumb/v6-m/nofp\libc-musl.a(__fmt_a.o)
 .note.GNU-stack
                0x0000000000000000        0x0 c:/applications/microchip/xc32/bin/bin/../../lib/gcc/pic32c/8.3.1/../../../../pic32c/lib/thumb/v6-m/nofp\libc-musl.a(__fmt_a.o)
 .debug_frame   0x0000000000000000       0x30 c:/applications/microchip/xc32/bin/bin/../../lib/gcc/pic32c/8.3.1/../../../../pic32c/lib/thumb/v6-m/nofp\libc-musl.a(__fmt_a.o)
 .ARM.attributes
                0x0000000000000000       0x2e c:/applications/microchip/xc32/bin/bin/../../lib/gcc/pic32c/8.3.1/../../../../pic32c/lib/thumb/v6-m/nofp\libc-musl.a(__fmt_a.o)
 .text          0x0000000000000000        0x0 c:/applications/microchip/xc32/bin/bin/../../lib/gcc/pic32c/8.3.1/../../../../pic32c/lib/thumb/v6-m/nofp\libc-musl.a(__fmt_d.o)
 .data          0x0000000000000000        0x0 c:/applications/microchip/xc32/bin/bin/../../lib/gcc/pic32c/8.3.1/../../../../pic32c/lib/thumb/v6-m/nofp\libc-musl.a(__fmt_d.o)
 .bss           0x0000000000000000        0x0 c:/applications/microchip/xc32/bin/bin/../../lib/gcc/pic32c/8.3.1/../../../../pic32c/lib/thumb/v6-m/nofp\libc-musl.a(__fmt_d.o)
 .xc_stack_usage
                0x0000000000000000       0x15 c:/applications/microchip/xc32/bin/bin/../../lib/gcc/pic32c/8.3.1/../../../../pic32c/lib/thumb/v6-m/nofp\libc-musl.a(__fmt_d.o)
 .text.__fmt_d  0x0000000000000000       0xb2 c:/applications/microchip/xc32/bin/bin/../../lib/gcc/pic32c/8.3.1/../../../../pic32c/lib/thumb/v6-m/nofp\libc-musl.a(__fmt_d.o)
 .xc_stack_usage.hdr
                0x0000000000000000        0xe c:/applications/microchip/xc32/bin/bin/../../lib/gcc/pic32c/8.3.1/../../../../pic32c/lib/thumb/v6-m/nofp\libc-musl.a(__fmt_d.o)
 .debug_info    0x0000000000000000      0x330 c:/applications/microchip/xc32/bin/bin/../../lib/gcc/pic32c/8.3.1/../../../../pic32c/lib/thumb/v6-m/nofp\libc-musl.a(__fmt_d.o)
 .debug_abbrev  0x0000000000000000      0x161 c:/applications/microchip/xc32/bin/bin/../../lib/gcc/pic32c/8.3.1/../../../../pic32c/lib/thumb/v6-m/nofp\libc-musl.a(__fmt_d.o)
 .debug_loc     0x0000000000000000      0x2a6 c:/applications/microchip/xc32/bin/bin/../../lib/gcc/pic32c/8.3.1/../../../../pic32c/lib/thumb/v6-m/nofp\libc-musl.a(__fmt_d.o)
 .debug_aranges
                0x0000000000000000       0x20 c:/applications/microchip/xc32/bin/bin/../../lib/gcc/pic32c/8.3.1/../../../../pic32c/lib/thumb/v6-m/nofp\libc-musl.a(__fmt_d.o)
 .debug_ranges  0x0000000000000000       0x10 c:/applications/microchip/xc32/bin/bin/../../lib/gcc/pic32c/8.3.1/../../../../pic32c/lib/thumb/v6-m/nofp\libc-musl.a(__fmt_d.o)
 .debug_line    0x0000000000000000      0x20b c:/applications/microchip/xc32/bin/bin/../../lib/gcc/pic32c/8.3.1/../../../../pic32c/lib/thumb/v6-m/nofp\libc-musl.a(__fmt_d.o)
 .debug_str     0x0000000000000000      0x2f5 c:/applications/microchip/xc32/bin/bin/../../lib/gcc/pic32c/8.3.1/../../../../pic32c/lib/thumb/v6-m/nofp\libc-musl.a(__fmt_d.o)
 .comment       0x0000000000000000       0x2c c:/applications/microchip/xc32/bin/bin/../../lib/gcc/pic32c/8.3.1/../../../../pic32c/lib/thumb/v6-m/nofp\libc-musl.a(__fmt_d.o)
 .note.GNU-stack
                0x0000000000000000        0x0 c:/applications/microchip/xc32/bin/bin/../../lib/gcc/pic32c/8.3.1/../../../../pic32c/lib/thumb/v6-m/nofp\libc-musl.a(__fmt_d.o)
 .debug_frame   0x0000000000000000       0x30 c:/applications/microchip/xc32/bin/bin/../../lib/gcc/pic32c/8.3.1/../../../../pic32c/lib/thumb/v6-m/nofp\libc-musl.a(__fmt_d.o)
 .ARM.attributes
                0x0000000000000000       0x2e c:/applications/microchip/xc32/bin/bin/../../lib/gcc/pic32c/8.3.1/../../../../pic32c/lib/thumb/v6-m/nofp\libc-musl.a(__fmt_d.o)
 .text          0x0000000000000000        0x0 c:/applications/microchip/xc32/bin/bin/../../lib/gcc/pic32c/8.3.1/../../../../pic32c/lib/thumb/v6-m/nofp\libc-musl.a(__fmt_fp.o)
 .data          0x0000000000000000        0x0 c:/applications/microchip/xc32/bin/bin/../../lib/gcc/pic32c/8.3.1/../../../../pic32c/lib/thumb/v6-m/nofp\libc-musl.a(__fmt_fp.o)
 .bss           0x0000000000000000        0x0 c:/applications/microchip/xc32/bin/bin/../../lib/gcc/pic32c/8.3.1/../../../../pic32c/lib/thumb/v6-m/nofp\libc-musl.a(__fmt_fp.o)
 .xc_stack_usage
                0x0000000000000000       0x16 c:/applications/microchip/xc32/bin/bin/../../lib/gcc/pic32c/8.3.1/../../../../pic32c/lib/thumb/v6-m/nofp\libc-musl.a(__fmt_fp.o)
 .text.__fmt_fp
                0x0000000000000000      0x4c0 c:/applications/microchip/xc32/bin/bin/../../lib/gcc/pic32c/8.3.1/../../../../pic32c/lib/thumb/v6-m/nofp\libc-musl.a(__fmt_fp.o)
 .rodata.str1.1
                0x0000000000000000       0x10 c:/applications/microchip/xc32/bin/bin/../../lib/gcc/pic32c/8.3.1/../../../../pic32c/lib/thumb/v6-m/nofp\libc-musl.a(__fmt_fp.o)
 .xc_stack_usage.hdr
                0x0000000000000000        0xe c:/applications/microchip/xc32/bin/bin/../../lib/gcc/pic32c/8.3.1/../../../../pic32c/lib/thumb/v6-m/nofp\libc-musl.a(__fmt_fp.o)
 .debug_info    0x0000000000000000      0x676 c:/applications/microchip/xc32/bin/bin/../../lib/gcc/pic32c/8.3.1/../../../../pic32c/lib/thumb/v6-m/nofp\libc-musl.a(__fmt_fp.o)
 .debug_abbrev  0x0000000000000000      0x1e3 c:/applications/microchip/xc32/bin/bin/../../lib/gcc/pic32c/8.3.1/../../../../pic32c/lib/thumb/v6-m/nofp\libc-musl.a(__fmt_fp.o)
 .debug_loc     0x0000000000000000      0xc94 c:/applications/microchip/xc32/bin/bin/../../lib/gcc/pic32c/8.3.1/../../../../pic32c/lib/thumb/v6-m/nofp\libc-musl.a(__fmt_fp.o)
 .debug_aranges
                0x0000000000000000       0x20 c:/applications/microchip/xc32/bin/bin/../../lib/gcc/pic32c/8.3.1/../../../../pic32c/lib/thumb/v6-m/nofp\libc-musl.a(__fmt_fp.o)
 .debug_ranges  0x0000000000000000       0x10 c:/applications/microchip/xc32/bin/bin/../../lib/gcc/pic32c/8.3.1/../../../../pic32c/lib/thumb/v6-m/nofp\libc-musl.a(__fmt_fp.o)
 .debug_line    0x0000000000000000      0x66d c:/applications/microchip/xc32/bin/bin/../../lib/gcc/pic32c/8.3.1/../../../../pic32c/lib/thumb/v6-m/nofp\libc-musl.a(__fmt_fp.o)
 .debug_str     0x0000000000000000      0x354 c:/applications/microchip/xc32/bin/bin/../../lib/gcc/pic32c/8.3.1/../../../../pic32c/lib/thumb/v6-m/nofp\libc-musl.a(__fmt_fp.o)
 .comment       0x0000000000000000       0x2c c:/applications/microchip/xc32/bin/bin/../../lib/gcc/pic32c/8.3.1/../../../../pic32c/lib/thumb/v6-m/nofp\libc-musl.a(__fmt_fp.o)
 .note.GNU-stack
                0x0000000000000000        0x0 c:/applications/microchip/xc32/bin/bin/../../lib/gcc/pic32c/8.3.1/../../../../pic32c/lib/thumb/v6-m/nofp\libc-musl.a(__fmt_fp.o)
 .debug_frame   0x0000000000000000       0x34 c:/applications/microchip/xc32/bin/bin/../../lib/gcc/pic32c/8.3.1/../../../../pic32c/lib/thumb/v6-m/nofp\libc-musl.a(__fmt_fp.o)
 .ARM.attributes
                0x0000000000000000       0x2e c:/applications/microchip/xc32/bin/bin/../../lib/gcc/pic32c/8.3.1/../../../../pic32c/lib/thumb/v6-m/nofp\libc-musl.a(__fmt_fp.o)
 .text          0x0000000000000000        0x0 c:/applications/microchip/xc32/bin/bin/../../lib/gcc/pic32c/8.3.1/../../../../pic32c/lib/thumb/v6-m/nofp\libc-musl.a(__fmt_o.o)
 .data          0x0000000000000000        0x0 c:/applications/microchip/xc32/bin/bin/../../lib/gcc/pic32c/8.3.1/../../../../pic32c/lib/thumb/v6-m/nofp\libc-musl.a(__fmt_o.o)
 .bss           0x0000000000000000        0x0 c:/applications/microchip/xc32/bin/bin/../../lib/gcc/pic32c/8.3.1/../../../../pic32c/lib/thumb/v6-m/nofp\libc-musl.a(__fmt_o.o)
 .xc_stack_usage
                0x0000000000000000       0x15 c:/applications/microchip/xc32/bin/bin/../../lib/gcc/pic32c/8.3.1/../../../../pic32c/lib/thumb/v6-m/nofp\libc-musl.a(__fmt_o.o)
 .text.__fmt_o  0x0000000000000000       0x6e c:/applications/microchip/xc32/bin/bin/../../lib/gcc/pic32c/8.3.1/../../../../pic32c/lib/thumb/v6-m/nofp\libc-musl.a(__fmt_o.o)
 .xc_stack_usage.hdr
                0x0000000000000000        0xe c:/applications/microchip/xc32/bin/bin/../../lib/gcc/pic32c/8.3.1/../../../../pic32c/lib/thumb/v6-m/nofp\libc-musl.a(__fmt_o.o)
 .debug_info    0x0000000000000000      0x301 c:/applications/microchip/xc32/bin/bin/../../lib/gcc/pic32c/8.3.1/../../../../pic32c/lib/thumb/v6-m/nofp\libc-musl.a(__fmt_o.o)
 .debug_abbrev  0x0000000000000000      0x161 c:/applications/microchip/xc32/bin/bin/../../lib/gcc/pic32c/8.3.1/../../../../pic32c/lib/thumb/v6-m/nofp\libc-musl.a(__fmt_o.o)
 .debug_loc     0x0000000000000000      0x12d c:/applications/microchip/xc32/bin/bin/../../lib/gcc/pic32c/8.3.1/../../../../pic32c/lib/thumb/v6-m/nofp\libc-musl.a(__fmt_o.o)
 .debug_aranges
                0x0000000000000000       0x20 c:/applications/microchip/xc32/bin/bin/../../lib/gcc/pic32c/8.3.1/../../../../pic32c/lib/thumb/v6-m/nofp\libc-musl.a(__fmt_o.o)
 .debug_ranges  0x0000000000000000       0x10 c:/applications/microchip/xc32/bin/bin/../../lib/gcc/pic32c/8.3.1/../../../../pic32c/lib/thumb/v6-m/nofp\libc-musl.a(__fmt_o.o)
 .debug_line    0x0000000000000000      0x1b6 c:/applications/microchip/xc32/bin/bin/../../lib/gcc/pic32c/8.3.1/../../../../pic32c/lib/thumb/v6-m/nofp\libc-musl.a(__fmt_o.o)
 .debug_str     0x0000000000000000      0x2f5 c:/applications/microchip/xc32/bin/bin/../../lib/gcc/pic32c/8.3.1/../../../../pic32c/lib/thumb/v6-m/nofp\libc-musl.a(__fmt_o.o)
 .comment       0x0000000000000000       0x2c c:/applications/microchip/xc32/bin/bin/../../lib/gcc/pic32c/8.3.1/../../../../pic32c/lib/thumb/v6-m/nofp\libc-musl.a(__fmt_o.o)
 .note.GNU-stack
                0x0000000000000000        0x0 c:/applications/microchip/xc32/bin/bin/../../lib/gcc/pic32c/8.3.1/../../../../pic32c/lib/thumb/v6-m/nofp\libc-musl.a(__fmt_o.o)
 .debug_frame   0x0000000000000000       0x30 c:/applications/microchip/xc32/bin/bin/../../lib/gcc/pic32c/8.3.1/../../../../pic32c/lib/thumb/v6-m/nofp\libc-musl.a(__fmt_o.o)
 .ARM.attributes
                0x0000000000000000       0x2e c:/applications/microchip/xc32/bin/bin/../../lib/gcc/pic32c/8.3.1/../../../../pic32c/lib/thumb/v6-m/nofp\libc-musl.a(__fmt_o.o)
 .text          0x0000000000000000        0x0 c:/applications/microchip/xc32/bin/bin/../../lib/gcc/pic32c/8.3.1/../../../../pic32c/lib/thumb/v6-m/nofp\libc-musl.a(__fmt_s.o)
 .data          0x0000000000000000        0x0 c:/applications/microchip/xc32/bin/bin/../../lib/gcc/pic32c/8.3.1/../../../../pic32c/lib/thumb/v6-m/nofp\libc-musl.a(__fmt_s.o)
 .bss           0x0000000000000000        0x0 c:/applications/microchip/xc32/bin/bin/../../lib/gcc/pic32c/8.3.1/../../../../pic32c/lib/thumb/v6-m/nofp\libc-musl.a(__fmt_s.o)
 .xc_stack_usage
                0x0000000000000000       0x15 c:/applications/microchip/xc32/bin/bin/../../lib/gcc/pic32c/8.3.1/../../../../pic32c/lib/thumb/v6-m/nofp\libc-musl.a(__fmt_s.o)
 .text.__fmt_s  0x0000000000000000       0x50 c:/applications/microchip/xc32/bin/bin/../../lib/gcc/pic32c/8.3.1/../../../../pic32c/lib/thumb/v6-m/nofp\libc-musl.a(__fmt_s.o)
 .rodata.str1.1
                0x0000000000000000        0x7 c:/applications/microchip/xc32/bin/bin/../../lib/gcc/pic32c/8.3.1/../../../../pic32c/lib/thumb/v6-m/nofp\libc-musl.a(__fmt_s.o)
 .xc_stack_usage.hdr
                0x0000000000000000        0xe c:/applications/microchip/xc32/bin/bin/../../lib/gcc/pic32c/8.3.1/../../../../pic32c/lib/thumb/v6-m/nofp\libc-musl.a(__fmt_s.o)
 .debug_info    0x0000000000000000      0x2e9 c:/applications/microchip/xc32/bin/bin/../../lib/gcc/pic32c/8.3.1/../../../../pic32c/lib/thumb/v6-m/nofp\libc-musl.a(__fmt_s.o)
 .debug_abbrev  0x0000000000000000      0x15e c:/applications/microchip/xc32/bin/bin/../../lib/gcc/pic32c/8.3.1/../../../../pic32c/lib/thumb/v6-m/nofp\libc-musl.a(__fmt_s.o)
 .debug_loc     0x0000000000000000      0x144 c:/applications/microchip/xc32/bin/bin/../../lib/gcc/pic32c/8.3.1/../../../../pic32c/lib/thumb/v6-m/nofp\libc-musl.a(__fmt_s.o)
 .debug_aranges
                0x0000000000000000       0x20 c:/applications/microchip/xc32/bin/bin/../../lib/gcc/pic32c/8.3.1/../../../../pic32c/lib/thumb/v6-m/nofp\libc-musl.a(__fmt_s.o)
 .debug_ranges  0x0000000000000000       0x10 c:/applications/microchip/xc32/bin/bin/../../lib/gcc/pic32c/8.3.1/../../../../pic32c/lib/thumb/v6-m/nofp\libc-musl.a(__fmt_s.o)
 .debug_line    0x0000000000000000      0x204 c:/applications/microchip/xc32/bin/bin/../../lib/gcc/pic32c/8.3.1/../../../../pic32c/lib/thumb/v6-m/nofp\libc-musl.a(__fmt_s.o)
 .debug_str     0x0000000000000000      0x2f9 c:/applications/microchip/xc32/bin/bin/../../lib/gcc/pic32c/8.3.1/../../../../pic32c/lib/thumb/v6-m/nofp\libc-musl.a(__fmt_s.o)
 .comment       0x0000000000000000       0x2c c:/applications/microchip/xc32/bin/bin/../../lib/gcc/pic32c/8.3.1/../../../../pic32c/lib/thumb/v6-m/nofp\libc-musl.a(__fmt_s.o)
 .note.GNU-stack
                0x0000000000000000        0x0 c:/applications/microchip/xc32/bin/bin/../../lib/gcc/pic32c/8.3.1/../../../../pic32c/lib/thumb/v6-m/nofp\libc-musl.a(__fmt_s.o)
 .debug_frame   0x0000000000000000       0x30 c:/applications/microchip/xc32/bin/bin/../../lib/gcc/pic32c/8.3.1/../../../../pic32c/lib/thumb/v6-m/nofp\libc-musl.a(__fmt_s.o)
 .ARM.attributes
                0x0000000000000000       0x2e c:/applications/microchip/xc32/bin/bin/../../lib/gcc/pic32c/8.3.1/../../../../pic32c/lib/thumb/v6-m/nofp\libc-musl.a(__fmt_s.o)
 .text          0x0000000000000000        0x0 c:/applications/microchip/xc32/bin/bin/../../lib/gcc/pic32c/8.3.1/../../../../pic32c/lib/thumb/v6-m/nofp\libc-musl.a(__fmt_u.o)
 .data          0x0000000000000000        0x0 c:/applications/microchip/xc32/bin/bin/../../lib/gcc/pic32c/8.3.1/../../../../pic32c/lib/thumb/v6-m/nofp\libc-musl.a(__fmt_u.o)
 .bss           0x0000000000000000        0x0 c:/applications/microchip/xc32/bin/bin/../../lib/gcc/pic32c/8.3.1/../../../../pic32c/lib/thumb/v6-m/nofp\libc-musl.a(__fmt_u.o)
 .xc_stack_usage
                0x0000000000000000       0x15 c:/applications/microchip/xc32/bin/bin/../../lib/gcc/pic32c/8.3.1/../../../../pic32c/lib/thumb/v6-m/nofp\libc-musl.a(__fmt_u.o)
 .text.__fmt_u  0x0000000000000000       0x56 c:/applications/microchip/xc32/bin/bin/../../lib/gcc/pic32c/8.3.1/../../../../pic32c/lib/thumb/v6-m/nofp\libc-musl.a(__fmt_u.o)
 .xc_stack_usage.hdr
                0x0000000000000000        0xe c:/applications/microchip/xc32/bin/bin/../../lib/gcc/pic32c/8.3.1/../../../../pic32c/lib/thumb/v6-m/nofp\libc-musl.a(__fmt_u.o)
 .debug_info    0x0000000000000000      0x301 c:/applications/microchip/xc32/bin/bin/../../lib/gcc/pic32c/8.3.1/../../../../pic32c/lib/thumb/v6-m/nofp\libc-musl.a(__fmt_u.o)
 .debug_abbrev  0x0000000000000000      0x161 c:/applications/microchip/xc32/bin/bin/../../lib/gcc/pic32c/8.3.1/../../../../pic32c/lib/thumb/v6-m/nofp\libc-musl.a(__fmt_u.o)
 .debug_loc     0x0000000000000000      0x12d c:/applications/microchip/xc32/bin/bin/../../lib/gcc/pic32c/8.3.1/../../../../pic32c/lib/thumb/v6-m/nofp\libc-musl.a(__fmt_u.o)
 .debug_aranges
                0x0000000000000000       0x20 c:/applications/microchip/xc32/bin/bin/../../lib/gcc/pic32c/8.3.1/../../../../pic32c/lib/thumb/v6-m/nofp\libc-musl.a(__fmt_u.o)
 .debug_ranges  0x0000000000000000       0x10 c:/applications/microchip/xc32/bin/bin/../../lib/gcc/pic32c/8.3.1/../../../../pic32c/lib/thumb/v6-m/nofp\libc-musl.a(__fmt_u.o)
 .debug_line    0x0000000000000000      0x187 c:/applications/microchip/xc32/bin/bin/../../lib/gcc/pic32c/8.3.1/../../../../pic32c/lib/thumb/v6-m/nofp\libc-musl.a(__fmt_u.o)
 .debug_str     0x0000000000000000      0x2f5 c:/applications/microchip/xc32/bin/bin/../../lib/gcc/pic32c/8.3.1/../../../../pic32c/lib/thumb/v6-m/nofp\libc-musl.a(__fmt_u.o)
 .comment       0x0000000000000000       0x2c c:/applications/microchip/xc32/bin/bin/../../lib/gcc/pic32c/8.3.1/../../../../pic32c/lib/thumb/v6-m/nofp\libc-musl.a(__fmt_u.o)
 .note.GNU-stack
                0x0000000000000000        0x0 c:/applications/microchip/xc32/bin/bin/../../lib/gcc/pic32c/8.3.1/../../../../pic32c/lib/thumb/v6-m/nofp\libc-musl.a(__fmt_u.o)
 .debug_frame   0x0000000000000000       0x30 c:/applications/microchip/xc32/bin/bin/../../lib/gcc/pic32c/8.3.1/../../../../pic32c/lib/thumb/v6-m/nofp\libc-musl.a(__fmt_u.o)
 .ARM.attributes
                0x0000000000000000       0x2e c:/applications/microchip/xc32/bin/bin/../../lib/gcc/pic32c/8.3.1/../../../../pic32c/lib/thumb/v6-m/nofp\libc-musl.a(__fmt_u.o)
 .text          0x0000000000000000        0x0 c:/applications/microchip/xc32/bin/bin/../../lib/gcc/pic32c/8.3.1/../../../../pic32c/lib/thumb/v6-m/nofp\libc-musl.a(__fmt_x.o)
 .data          0x0000000000000000        0x0 c:/applications/microchip/xc32/bin/bin/../../lib/gcc/pic32c/8.3.1/../../../../pic32c/lib/thumb/v6-m/nofp\libc-musl.a(__fmt_x.o)
 .bss           0x0000000000000000        0x0 c:/applications/microchip/xc32/bin/bin/../../lib/gcc/pic32c/8.3.1/../../../../pic32c/lib/thumb/v6-m/nofp\libc-musl.a(__fmt_x.o)
 .xc_stack_usage
                0x0000000000000000       0x15 c:/applications/microchip/xc32/bin/bin/../../lib/gcc/pic32c/8.3.1/../../../../pic32c/lib/thumb/v6-m/nofp\libc-musl.a(__fmt_x.o)
 .text.__fmt_x  0x0000000000000000      0x132 c:/applications/microchip/xc32/bin/bin/../../lib/gcc/pic32c/8.3.1/../../../../pic32c/lib/thumb/v6-m/nofp\libc-musl.a(__fmt_x.o)
 .xc_stack_usage.hdr
                0x0000000000000000        0xe c:/applications/microchip/xc32/bin/bin/../../lib/gcc/pic32c/8.3.1/../../../../pic32c/lib/thumb/v6-m/nofp\libc-musl.a(__fmt_x.o)
 .debug_info    0x0000000000000000      0x335 c:/applications/microchip/xc32/bin/bin/../../lib/gcc/pic32c/8.3.1/../../../../pic32c/lib/thumb/v6-m/nofp\libc-musl.a(__fmt_x.o)
 .debug_abbrev  0x0000000000000000      0x150 c:/applications/microchip/xc32/bin/bin/../../lib/gcc/pic32c/8.3.1/../../../../pic32c/lib/thumb/v6-m/nofp\libc-musl.a(__fmt_x.o)
 .debug_loc     0x0000000000000000      0x3be c:/applications/microchip/xc32/bin/bin/../../lib/gcc/pic32c/8.3.1/../../../../pic32c/lib/thumb/v6-m/nofp\libc-musl.a(__fmt_x.o)
 .debug_aranges
                0x0000000000000000       0x20 c:/applications/microchip/xc32/bin/bin/../../lib/gcc/pic32c/8.3.1/../../../../pic32c/lib/thumb/v6-m/nofp\libc-musl.a(__fmt_x.o)
 .debug_ranges  0x0000000000000000       0x10 c:/applications/microchip/xc32/bin/bin/../../lib/gcc/pic32c/8.3.1/../../../../pic32c/lib/thumb/v6-m/nofp\libc-musl.a(__fmt_x.o)
 .debug_line    0x0000000000000000      0x2ec c:/applications/microchip/xc32/bin/bin/../../lib/gcc/pic32c/8.3.1/../../../../pic32c/lib/thumb/v6-m/nofp\libc-musl.a(__fmt_x.o)
 .debug_str     0x0000000000000000      0x2f5 c:/applications/microchip/xc32/bin/bin/../../lib/gcc/pic32c/8.3.1/../../../../pic32c/lib/thumb/v6-m/nofp\libc-musl.a(__fmt_x.o)
 .comment       0x0000000000000000       0x2c c:/applications/microchip/xc32/bin/bin/../../lib/gcc/pic32c/8.3.1/../../../../pic32c/lib/thumb/v6-m/nofp\libc-musl.a(__fmt_x.o)
 .note.GNU-stack
                0x0000000000000000        0x0 c:/applications/microchip/xc32/bin/bin/../../lib/gcc/pic32c/8.3.1/../../../../pic32c/lib/thumb/v6-m/nofp\libc-musl.a(__fmt_x.o)
 .debug_frame   0x0000000000000000       0x30 c:/applications/microchip/xc32/bin/bin/../../lib/gcc/pic32c/8.3.1/../../../../pic32c/lib/thumb/v6-m/nofp\libc-musl.a(__fmt_x.o)
 .ARM.attributes
                0x0000000000000000       0x2e c:/applications/microchip/xc32/bin/bin/../../lib/gcc/pic32c/8.3.1/../../../../pic32c/lib/thumb/v6-m/nofp\libc-musl.a(__fmt_x.o)
 .text          0x0000000000000000        0x0 c:/applications/microchip/xc32/bin/bin/../../lib/gcc/pic32c/8.3.1/../../../../pic32c/lib/thumb/v6-m/nofp\libc-musl.a(toupper.o)
 .data          0x0000000000000000        0x0 c:/applications/microchip/xc32/bin/bin/../../lib/gcc/pic32c/8.3.1/../../../../pic32c/lib/thumb/v6-m/nofp\libc-musl.a(toupper.o)
 .bss           0x0000000000000000        0x0 c:/applications/microchip/xc32/bin/bin/../../lib/gcc/pic32c/8.3.1/../../../../pic32c/lib/thumb/v6-m/nofp\libc-musl.a(toupper.o)
 .xc_stack_usage
                0x0000000000000000       0x2e c:/applications/microchip/xc32/bin/bin/../../lib/gcc/pic32c/8.3.1/../../../../pic32c/lib/thumb/v6-m/nofp\libc-musl.a(toupper.o)
 .text.toupper  0x0000000000000000        0xe c:/applications/microchip/xc32/bin/bin/../../lib/gcc/pic32c/8.3.1/../../../../pic32c/lib/thumb/v6-m/nofp\libc-musl.a(toupper.o)
 .text.__toupper_l
                0x0000000000000000        0x8 c:/applications/microchip/xc32/bin/bin/../../lib/gcc/pic32c/8.3.1/../../../../pic32c/lib/thumb/v6-m/nofp\libc-musl.a(toupper.o)
 .xc_stack_usage.hdr
                0x0000000000000000        0xe c:/applications/microchip/xc32/bin/bin/../../lib/gcc/pic32c/8.3.1/../../../../pic32c/lib/thumb/v6-m/nofp\libc-musl.a(toupper.o)
 .debug_info    0x0000000000000000      0x131 c:/applications/microchip/xc32/bin/bin/../../lib/gcc/pic32c/8.3.1/../../../../pic32c/lib/thumb/v6-m/nofp\libc-musl.a(toupper.o)
 .debug_abbrev  0x0000000000000000       0xf4 c:/applications/microchip/xc32/bin/bin/../../lib/gcc/pic32c/8.3.1/../../../../pic32c/lib/thumb/v6-m/nofp\libc-musl.a(toupper.o)
 .debug_loc     0x0000000000000000       0x8f c:/applications/microchip/xc32/bin/bin/../../lib/gcc/pic32c/8.3.1/../../../../pic32c/lib/thumb/v6-m/nofp\libc-musl.a(toupper.o)
 .debug_aranges
                0x0000000000000000       0x28 c:/applications/microchip/xc32/bin/bin/../../lib/gcc/pic32c/8.3.1/../../../../pic32c/lib/thumb/v6-m/nofp\libc-musl.a(toupper.o)
 .debug_ranges  0x0000000000000000       0x18 c:/applications/microchip/xc32/bin/bin/../../lib/gcc/pic32c/8.3.1/../../../../pic32c/lib/thumb/v6-m/nofp\libc-musl.a(toupper.o)
 .debug_line    0x0000000000000000      0x15c c:/applications/microchip/xc32/bin/bin/../../lib/gcc/pic32c/8.3.1/../../../../pic32c/lib/thumb/v6-m/nofp\libc-musl.a(toupper.o)
 .debug_str     0x0000000000000000      0x249 c:/applications/microchip/xc32/bin/bin/../../lib/gcc/pic32c/8.3.1/../../../../pic32c/lib/thumb/v6-m/nofp\libc-musl.a(toupper.o)
 .comment       0x0000000000000000       0x2c c:/applications/microchip/xc32/bin/bin/../../lib/gcc/pic32c/8.3.1/../../../../pic32c/lib/thumb/v6-m/nofp\libc-musl.a(toupper.o)
 .note.GNU-stack
                0x0000000000000000        0x0 c:/applications/microchip/xc32/bin/bin/../../lib/gcc/pic32c/8.3.1/../../../../pic32c/lib/thumb/v6-m/nofp\libc-musl.a(toupper.o)
 .debug_frame   0x0000000000000000       0x38 c:/applications/microchip/xc32/bin/bin/../../lib/gcc/pic32c/8.3.1/../../../../pic32c/lib/thumb/v6-m/nofp\libc-musl.a(toupper.o)
 .ARM.attributes
                0x0000000000000000       0x2e c:/applications/microchip/xc32/bin/bin/../../lib/gcc/pic32c/8.3.1/../../../../pic32c/lib/thumb/v6-m/nofp\libc-musl.a(toupper.o)
 .text          0x0000000000000000        0x0 c:/applications/microchip/xc32/bin/bin/../../lib/gcc/pic32c/8.3.1/../../../../pic32c/lib/thumb/v6-m/nofp\libc-musl.a(__cvt_u.o)
 .data          0x0000000000000000        0x0 c:/applications/microchip/xc32/bin/bin/../../lib/gcc/pic32c/8.3.1/../../../../pic32c/lib/thumb/v6-m/nofp\libc-musl.a(__cvt_u.o)
 .bss           0x0000000000000000        0x0 c:/applications/microchip/xc32/bin/bin/../../lib/gcc/pic32c/8.3.1/../../../../pic32c/lib/thumb/v6-m/nofp\libc-musl.a(__cvt_u.o)
 .xc_stack_usage
                0x0000000000000000       0x15 c:/applications/microchip/xc32/bin/bin/../../lib/gcc/pic32c/8.3.1/../../../../pic32c/lib/thumb/v6-m/nofp\libc-musl.a(__cvt_u.o)
 .text.__cvt_u  0x0000000000000000       0x76 c:/applications/microchip/xc32/bin/bin/../../lib/gcc/pic32c/8.3.1/../../../../pic32c/lib/thumb/v6-m/nofp\libc-musl.a(__cvt_u.o)
 .xc_stack_usage.hdr
                0x0000000000000000        0xe c:/applications/microchip/xc32/bin/bin/../../lib/gcc/pic32c/8.3.1/../../../../pic32c/lib/thumb/v6-m/nofp\libc-musl.a(__cvt_u.o)
 .debug_info    0x0000000000000000      0x1cf c:/applications/microchip/xc32/bin/bin/../../lib/gcc/pic32c/8.3.1/../../../../pic32c/lib/thumb/v6-m/nofp\libc-musl.a(__cvt_u.o)
 .debug_abbrev  0x0000000000000000       0xf3 c:/applications/microchip/xc32/bin/bin/../../lib/gcc/pic32c/8.3.1/../../../../pic32c/lib/thumb/v6-m/nofp\libc-musl.a(__cvt_u.o)
 .debug_loc     0x0000000000000000      0x1d3 c:/applications/microchip/xc32/bin/bin/../../lib/gcc/pic32c/8.3.1/../../../../pic32c/lib/thumb/v6-m/nofp\libc-musl.a(__cvt_u.o)
 .debug_aranges
                0x0000000000000000       0x20 c:/applications/microchip/xc32/bin/bin/../../lib/gcc/pic32c/8.3.1/../../../../pic32c/lib/thumb/v6-m/nofp\libc-musl.a(__cvt_u.o)
 .debug_ranges  0x0000000000000000       0x10 c:/applications/microchip/xc32/bin/bin/../../lib/gcc/pic32c/8.3.1/../../../../pic32c/lib/thumb/v6-m/nofp\libc-musl.a(__cvt_u.o)
 .debug_line    0x0000000000000000      0x1d7 c:/applications/microchip/xc32/bin/bin/../../lib/gcc/pic32c/8.3.1/../../../../pic32c/lib/thumb/v6-m/nofp\libc-musl.a(__cvt_u.o)
 .debug_str     0x0000000000000000      0x2b1 c:/applications/microchip/xc32/bin/bin/../../lib/gcc/pic32c/8.3.1/../../../../pic32c/lib/thumb/v6-m/nofp\libc-musl.a(__cvt_u.o)
 .comment       0x0000000000000000       0x2c c:/applications/microchip/xc32/bin/bin/../../lib/gcc/pic32c/8.3.1/../../../../pic32c/lib/thumb/v6-m/nofp\libc-musl.a(__cvt_u.o)
 .note.GNU-stack
                0x0000000000000000        0x0 c:/applications/microchip/xc32/bin/bin/../../lib/gcc/pic32c/8.3.1/../../../../pic32c/lib/thumb/v6-m/nofp\libc-musl.a(__cvt_u.o)
 .debug_frame   0x0000000000000000       0x34 c:/applications/microchip/xc32/bin/bin/../../lib/gcc/pic32c/8.3.1/../../../../pic32c/lib/thumb/v6-m/nofp\libc-musl.a(__cvt_u.o)
 .ARM.attributes
                0x0000000000000000       0x2e c:/applications/microchip/xc32/bin/bin/../../lib/gcc/pic32c/8.3.1/../../../../pic32c/lib/thumb/v6-m/nofp\libc-musl.a(__cvt_u.o)
 .ARM.attributes
                0x0000000000000000       0x2c c:/applications/microchip/xc32/bin/bin/../../lib/gcc/pic32c/8.3.1/../../../../pic32c/lib/thumb/v6-m/nofp\libm-fast-emfloat.a(fma.o)
 .comment       0x0000000000000000       0x2c c:/applications/microchip/xc32/bin/bin/../../lib/gcc/pic32c/8.3.1/../../../../pic32c/lib/thumb/v6-m/nofp\libm-fast-emfloat.a(fma.o)
 .text.fma      0x0000000000000000       0x10 c:/applications/microchip/xc32/bin/bin/../../lib/gcc/pic32c/8.3.1/../../../../pic32c/lib/thumb/v6-m/nofp\libm-fast-emfloat.a(fma.o)
 .xc_stack_usage.hdr
                0x0000000000000000        0xe c:/applications/microchip/xc32/bin/bin/../../lib/gcc/pic32c/8.3.1/../../../../pic32c/lib/thumb/v6-m/nofp\libm-fast-emfloat.a(fma.o)
 .xc_stack_usage
                0x0000000000000000       0x11 c:/applications/microchip/xc32/bin/bin/../../lib/gcc/pic32c/8.3.1/../../../../pic32c/lib/thumb/v6-m/nofp\libm-fast-emfloat.a(fma.o)
 .ARM.attributes
                0x0000000000000000       0x2c c:/applications/microchip/xc32/bin/bin/../../lib/gcc/pic32c/8.3.1/../../../../pic32c/lib/thumb/v6-m/nofp\libm-fast-emfloat.a(floor.o)
 .comment       0x0000000000000000       0x2c c:/applications/microchip/xc32/bin/bin/../../lib/gcc/pic32c/8.3.1/../../../../pic32c/lib/thumb/v6-m/nofp\libm-fast-emfloat.a(floor.o)
 .text.floor    0x0000000000000000       0xb4 c:/applications/microchip/xc32/bin/bin/../../lib/gcc/pic32c/8.3.1/../../../../pic32c/lib/thumb/v6-m/nofp\libm-fast-emfloat.a(floor.o)
 .xc_stack_usage.hdr
                0x0000000000000000        0xe c:/applications/microchip/xc32/bin/bin/../../lib/gcc/pic32c/8.3.1/../../../../pic32c/lib/thumb/v6-m/nofp\libm-fast-emfloat.a(floor.o)
 .xc_stack_usage
                0x0000000000000000       0x13 c:/applications/microchip/xc32/bin/bin/../../lib/gcc/pic32c/8.3.1/../../../../pic32c/lib/thumb/v6-m/nofp\libm-fast-emfloat.a(floor.o)
 .ARM.attributes
                0x0000000000000000       0x1c c:/applications/microchip/xc32/bin/bin/../../lib/gcc/pic32c/8.3.1/../../../../pic32c/lib/thumb/v6-m/nofp\libm-fast-emfloat.a(__aeabi_dsub.o)
 .text.__aeabi_dsub
                0x0000000000000000       0x10 c:/applications/microchip/xc32/bin/bin/../../lib/gcc/pic32c/8.3.1/../../../../pic32c/lib/thumb/v6-m/nofp\libm-fast-emfloat.a(__aeabi_dsub.o)
 .xc_stack_usage.hdr
                0x0000000000000000        0xe c:/applications/microchip/xc32/bin/bin/../../lib/gcc/pic32c/8.3.1/../../../../pic32c/lib/thumb/v6-m/nofp\libm-fast-emfloat.a(__aeabi_dsub.o)
 .xc_stack_usage
                0x0000000000000000       0x1a c:/applications/microchip/xc32/bin/bin/../../lib/gcc/pic32c/8.3.1/../../../../pic32c/lib/thumb/v6-m/nofp\libm-fast-emfloat.a(__aeabi_dsub.o)
 .ARM.attributes
                0x0000000000000000       0x1c c:/applications/microchip/xc32/bin/bin/../../lib/gcc/pic32c/8.3.1/../../../../pic32c/lib/thumb/v6-m/nofp\libm-fast-emfloat.a(__aeabi_ddiv.o)
 .text.__aeabi_ddiv
                0x0000000000000000       0xc4 c:/applications/microchip/xc32/bin/bin/../../lib/gcc/pic32c/8.3.1/../../../../pic32c/lib/thumb/v6-m/nofp\libm-fast-emfloat.a(__aeabi_ddiv.o)
 .xc_stack_usage.hdr
                0x0000000000000000        0xe c:/applications/microchip/xc32/bin/bin/../../lib/gcc/pic32c/8.3.1/../../../../pic32c/lib/thumb/v6-m/nofp\libm-fast-emfloat.a(__aeabi_ddiv.o)
 .xc_stack_usage
                0x0000000000000000       0x1a c:/applications/microchip/xc32/bin/bin/../../lib/gcc/pic32c/8.3.1/../../../../pic32c/lib/thumb/v6-m/nofp\libm-fast-emfloat.a(__aeabi_ddiv.o)
 .ARM.attributes
                0x0000000000000000       0x1c c:/applications/microchip/xc32/bin/bin/../../lib/gcc/pic32c/8.3.1/../../../../pic32c/lib/thumb/v6-m/nofp\libm-fast-emfloat.a(__aeabi_dcmple.o)
 .text.__aeabi_dcmple
                0x0000000000000000       0x44 c:/applications/microchip/xc32/bin/bin/../../lib/gcc/pic32c/8.3.1/../../../../pic32c/lib/thumb/v6-m/nofp\libm-fast-emfloat.a(__aeabi_dcmple.o)
 .xc_stack_usage.hdr
                0x0000000000000000        0xe c:/applications/microchip/xc32/bin/bin/../../lib/gcc/pic32c/8.3.1/../../../../pic32c/lib/thumb/v6-m/nofp\libm-fast-emfloat.a(__aeabi_dcmple.o)
 .xc_stack_usage
                0x0000000000000000       0x1c c:/applications/microchip/xc32/bin/bin/../../lib/gcc/pic32c/8.3.1/../../../../pic32c/lib/thumb/v6-m/nofp\libm-fast-emfloat.a(__aeabi_dcmple.o)
 .ARM.attributes
                0x0000000000000000       0x1c c:/applications/microchip/xc32/bin/bin/../../lib/gcc/pic32c/8.3.1/../../../../pic32c/lib/thumb/v6-m/nofp\libm-fast-emfloat.a(__aeabi_dcmpeq.o)
 .text.__aeabi_dcmpeq
                0x0000000000000000       0x2e c:/applications/microchip/xc32/bin/bin/../../lib/gcc/pic32c/8.3.1/../../../../pic32c/lib/thumb/v6-m/nofp\libm-fast-emfloat.a(__aeabi_dcmpeq.o)
 .xc_stack_usage.hdr
                0x0000000000000000        0xe c:/applications/microchip/xc32/bin/bin/../../lib/gcc/pic32c/8.3.1/../../../../pic32c/lib/thumb/v6-m/nofp\libm-fast-emfloat.a(__aeabi_dcmpeq.o)
 .xc_stack_usage
                0x0000000000000000       0x1c c:/applications/microchip/xc32/bin/bin/../../lib/gcc/pic32c/8.3.1/../../../../pic32c/lib/thumb/v6-m/nofp\libm-fast-emfloat.a(__aeabi_dcmpeq.o)
 .ARM.attributes
                0x0000000000000000       0x1c c:/applications/microchip/xc32/bin/bin/../../lib/gcc/pic32c/8.3.1/../../../../pic32c/lib/thumb/v6-m/nofp\libm-fast-emfloat.a(__aeabi_dcmpgt.o)
 .text.__aeabi_dcmpgt
                0x0000000000000000       0x3e c:/applications/microchip/xc32/bin/bin/../../lib/gcc/pic32c/8.3.1/../../../../pic32c/lib/thumb/v6-m/nofp\libm-fast-emfloat.a(__aeabi_dcmpgt.o)
 .xc_stack_usage.hdr
                0x0000000000000000        0xe c:/applications/microchip/xc32/bin/bin/../../lib/gcc/pic32c/8.3.1/../../../../pic32c/lib/thumb/v6-m/nofp\libm-fast-emfloat.a(__aeabi_dcmpgt.o)
 .xc_stack_usage
                0x0000000000000000       0x1c c:/applications/microchip/xc32/bin/bin/../../lib/gcc/pic32c/8.3.1/../../../../pic32c/lib/thumb/v6-m/nofp\libm-fast-emfloat.a(__aeabi_dcmpgt.o)
 .ARM.attributes
                0x0000000000000000       0x1c c:/applications/microchip/xc32/bin/bin/../../lib/gcc/pic32c/8.3.1/../../../../pic32c/lib/thumb/v6-m/nofp\libm-fast-emfloat.a(__aeabi_dcmplt.o)
 .text.__aeabi_dcmplt
                0x0000000000000000       0x3e c:/applications/microchip/xc32/bin/bin/../../lib/gcc/pic32c/8.3.1/../../../../pic32c/lib/thumb/v6-m/nofp\libm-fast-emfloat.a(__aeabi_dcmplt.o)
 .xc_stack_usage.hdr
                0x0000000000000000        0xe c:/applications/microchip/xc32/bin/bin/../../lib/gcc/pic32c/8.3.1/../../../../pic32c/lib/thumb/v6-m/nofp\libm-fast-emfloat.a(__aeabi_dcmplt.o)
 .xc_stack_usage
                0x0000000000000000       0x1c c:/applications/microchip/xc32/bin/bin/../../lib/gcc/pic32c/8.3.1/../../../../pic32c/lib/thumb/v6-m/nofp\libm-fast-emfloat.a(__aeabi_dcmplt.o)
 .ARM.attributes
                0x0000000000000000       0x1c c:/applications/microchip/xc32/bin/bin/../../lib/gcc/pic32c/8.3.1/../../../../pic32c/lib/thumb/v6-m/nofp\libm-fast-emfloat.a(__aeabi_d2iz.o)
 .text.__aeabi_d2iz
                0x0000000000000000       0x34 c:/applications/microchip/xc32/bin/bin/../../lib/gcc/pic32c/8.3.1/../../../../pic32c/lib/thumb/v6-m/nofp\libm-fast-emfloat.a(__aeabi_d2iz.o)
 .xc_stack_usage.hdr
                0x0000000000000000        0xe c:/applications/microchip/xc32/bin/bin/../../lib/gcc/pic32c/8.3.1/../../../../pic32c/lib/thumb/v6-m/nofp\libm-fast-emfloat.a(__aeabi_d2iz.o)
 .xc_stack_usage
                0x0000000000000000       0x1a c:/applications/microchip/xc32/bin/bin/../../lib/gcc/pic32c/8.3.1/../../../../pic32c/lib/thumb/v6-m/nofp\libm-fast-emfloat.a(__aeabi_d2iz.o)
 .ARM.attributes
                0x0000000000000000       0x1c c:/applications/microchip/xc32/bin/bin/../../lib/gcc/pic32c/8.3.1/../../../../pic32c/lib/thumb/v6-m/nofp\libm-fast-emfloat.a(__aeabi_d2uiz.o)
 .text.__aeabi_d2uiz
                0x0000000000000000       0x2e c:/applications/microchip/xc32/bin/bin/../../lib/gcc/pic32c/8.3.1/../../../../pic32c/lib/thumb/v6-m/nofp\libm-fast-emfloat.a(__aeabi_d2uiz.o)
 .xc_stack_usage.hdr
                0x0000000000000000        0xe c:/applications/microchip/xc32/bin/bin/../../lib/gcc/pic32c/8.3.1/../../../../pic32c/lib/thumb/v6-m/nofp\libm-fast-emfloat.a(__aeabi_d2uiz.o)
 .xc_stack_usage
                0x0000000000000000       0x43 c:/applications/microchip/xc32/bin/bin/../../lib/gcc/pic32c/8.3.1/../../../../pic32c/lib/thumb/v6-m/nofp\libm-fast-emfloat.a(__aeabi_d2uiz.o)
 .data          0x0000000000000000        0x0 c:/applications/microchip/xc32/bin/bin/../../lib/gcc/pic32c/8.3.1/thumb/v6-m/nofp\libgcc.a(_udivsi3.o)
 .bss           0x0000000000000000        0x0 c:/applications/microchip/xc32/bin/bin/../../lib/gcc/pic32c/8.3.1/thumb/v6-m/nofp\libgcc.a(_udivsi3.o)
 .xc_stack_usage.hdr
                0x0000000000000000        0xe c:/applications/microchip/xc32/bin/bin/../../lib/gcc/pic32c/8.3.1/thumb/v6-m/nofp\libgcc.a(_udivsi3.o)
 .xc_stack_usage
                0x0000000000000000       0x35 c:/applications/microchip/xc32/bin/bin/../../lib/gcc/pic32c/8.3.1/thumb/v6-m/nofp\libgcc.a(_udivsi3.o)
 .text          0x0000000000000000       0xa8 c:/applications/microchip/xc32/bin/bin/../../lib/gcc/pic32c/8.3.1/thumb/v6-m/nofp\libgcc.a(_divsi3.o)
 .data          0x0000000000000000        0x0 c:/applications/microchip/xc32/bin/bin/../../lib/gcc/pic32c/8.3.1/thumb/v6-m/nofp\libgcc.a(_divsi3.o)
 .bss           0x0000000000000000        0x0 c:/applications/microchip/xc32/bin/bin/../../lib/gcc/pic32c/8.3.1/thumb/v6-m/nofp\libgcc.a(_divsi3.o)
 .debug_frame   0x0000000000000000       0x20 c:/applications/microchip/xc32/bin/bin/../../lib/gcc/pic32c/8.3.1/thumb/v6-m/nofp\libgcc.a(_divsi3.o)
 .xc_stack_usage.hdr
                0x0000000000000000        0xe c:/applications/microchip/xc32/bin/bin/../../lib/gcc/pic32c/8.3.1/thumb/v6-m/nofp\libgcc.a(_divsi3.o)
 .xc_stack_usage
                0x0000000000000000       0x33 c:/applications/microchip/xc32/bin/bin/../../lib/gcc/pic32c/8.3.1/thumb/v6-m/nofp\libgcc.a(_divsi3.o)
 .debug_line    0x0000000000000000       0xb6 c:/applications/microchip/xc32/bin/bin/../../lib/gcc/pic32c/8.3.1/thumb/v6-m/nofp\libgcc.a(_divsi3.o)
 .debug_info    0x0000000000000000       0x26 c:/applications/microchip/xc32/bin/bin/../../lib/gcc/pic32c/8.3.1/thumb/v6-m/nofp\libgcc.a(_divsi3.o)
 .debug_abbrev  0x0000000000000000       0x14 c:/applications/microchip/xc32/bin/bin/../../lib/gcc/pic32c/8.3.1/thumb/v6-m/nofp\libgcc.a(_divsi3.o)
 .debug_aranges
                0x0000000000000000       0x20 c:/applications/microchip/xc32/bin/bin/../../lib/gcc/pic32c/8.3.1/thumb/v6-m/nofp\libgcc.a(_divsi3.o)
 .debug_str     0x0000000000000000       0xd6 c:/applications/microchip/xc32/bin/bin/../../lib/gcc/pic32c/8.3.1/thumb/v6-m/nofp\libgcc.a(_divsi3.o)
 .ARM.attributes
                0x0000000000000000       0x1e c:/applications/microchip/xc32/bin/bin/../../lib/gcc/pic32c/8.3.1/thumb/v6-m/nofp\libgcc.a(_divsi3.o)
 .data          0x0000000000000000        0x0 c:/applications/microchip/xc32/bin/bin/../../lib/gcc/pic32c/8.3.1/thumb/v6-m/nofp\libgcc.a(_dvmd_tls.o)
 .bss           0x0000000000000000        0x0 c:/applications/microchip/xc32/bin/bin/../../lib/gcc/pic32c/8.3.1/thumb/v6-m/nofp\libgcc.a(_dvmd_tls.o)
 .xc_stack_usage.hdr
                0x0000000000000000        0xe c:/applications/microchip/xc32/bin/bin/../../lib/gcc/pic32c/8.3.1/thumb/v6-m/nofp\libgcc.a(_dvmd_tls.o)
 .xc_stack_usage
                0x0000000000000000       0x36 c:/applications/microchip/xc32/bin/bin/../../lib/gcc/pic32c/8.3.1/thumb/v6-m/nofp\libgcc.a(_dvmd_tls.o)
 .data          0x0000000000000000        0x0 c:/applications/microchip/xc32/bin/bin/../../lib/gcc/pic32c/8.3.1/thumb/v6-m/nofp\libgcc.a(_aeabi_uldivmod.o)
 .bss           0x0000000000000000        0x0 c:/applications/microchip/xc32/bin/bin/../../lib/gcc/pic32c/8.3.1/thumb/v6-m/nofp\libgcc.a(_aeabi_uldivmod.o)
 .xc_stack_usage.hdr
                0x0000000000000000        0xe c:/applications/microchip/xc32/bin/bin/../../lib/gcc/pic32c/8.3.1/thumb/v6-m/nofp\libgcc.a(_aeabi_uldivmod.o)
 .xc_stack_usage
                0x0000000000000000       0x1e c:/applications/microchip/xc32/bin/bin/../../lib/gcc/pic32c/8.3.1/thumb/v6-m/nofp\libgcc.a(_aeabi_uldivmod.o)
 .data          0x0000000000000000        0x0 c:/applications/microchip/xc32/bin/bin/../../lib/gcc/pic32c/8.3.1/thumb/v6-m/nofp\libgcc.a(_muldi3.o)
 .bss           0x0000000000000000        0x0 c:/applications/microchip/xc32/bin/bin/../../lib/gcc/pic32c/8.3.1/thumb/v6-m/nofp\libgcc.a(_muldi3.o)
 .xc_stack_usage
                0x0000000000000000       0x16 c:/applications/microchip/xc32/bin/bin/../../lib/gcc/pic32c/8.3.1/thumb/v6-m/nofp\libgcc.a(_muldi3.o)
 .xc_stack_usage.hdr
                0x0000000000000000        0xe c:/applications/microchip/xc32/bin/bin/../../lib/gcc/pic32c/8.3.1/thumb/v6-m/nofp\libgcc.a(_muldi3.o)
 .data          0x0000000000000000        0x0 c:/applications/microchip/xc32/bin/bin/../../lib/gcc/pic32c/8.3.1/thumb/v6-m/nofp\libgcc.a(_udivmoddi4.o)
 .bss           0x0000000000000000        0x0 c:/applications/microchip/xc32/bin/bin/../../lib/gcc/pic32c/8.3.1/thumb/v6-m/nofp\libgcc.a(_udivmoddi4.o)
 .xc_stack_usage
                0x0000000000000000       0x1a c:/applications/microchip/xc32/bin/bin/../../lib/gcc/pic32c/8.3.1/thumb/v6-m/nofp\libgcc.a(_udivmoddi4.o)
 .ARM.extab     0x0000000000000000        0x0 c:/applications/microchip/xc32/bin/bin/../../lib/gcc/pic32c/8.3.1/thumb/v6-m/nofp\libgcc.a(_udivmoddi4.o)
 .xc_stack_usage.hdr
                0x0000000000000000        0xe c:/applications/microchip/xc32/bin/bin/../../lib/gcc/pic32c/8.3.1/thumb/v6-m/nofp\libgcc.a(_udivmoddi4.o)
 .data          0x0000000000000000        0x0 c:/applications/microchip/xc32/bin/bin/../../lib/gcc/pic32c/8.3.1/thumb/v6-m/nofp\libgcc.a(_lshrdi3.o)
 .bss           0x0000000000000000        0x0 c:/applications/microchip/xc32/bin/bin/../../lib/gcc/pic32c/8.3.1/thumb/v6-m/nofp\libgcc.a(_lshrdi3.o)
 .xc_stack_usage.hdr
                0x0000000000000000        0xe c:/applications/microchip/xc32/bin/bin/../../lib/gcc/pic32c/8.3.1/thumb/v6-m/nofp\libgcc.a(_lshrdi3.o)
 .xc_stack_usage
                0x0000000000000000       0x17 c:/applications/microchip/xc32/bin/bin/../../lib/gcc/pic32c/8.3.1/thumb/v6-m/nofp\libgcc.a(_lshrdi3.o)
 .data          0x0000000000000000        0x0 c:/applications/microchip/xc32/bin/bin/../../lib/gcc/pic32c/8.3.1/thumb/v6-m/nofp\libgcc.a(_ashldi3.o)
 .bss           0x0000000000000000        0x0 c:/applications/microchip/xc32/bin/bin/../../lib/gcc/pic32c/8.3.1/thumb/v6-m/nofp\libgcc.a(_ashldi3.o)
 .xc_stack_usage.hdr
                0x0000000000000000        0xe c:/applications/microchip/xc32/bin/bin/../../lib/gcc/pic32c/8.3.1/thumb/v6-m/nofp\libgcc.a(_ashldi3.o)
 .xc_stack_usage
                0x0000000000000000       0x17 c:/applications/microchip/xc32/bin/bin/../../lib/gcc/pic32c/8.3.1/thumb/v6-m/nofp\libgcc.a(_ashldi3.o)
 .data          0x0000000000000000        0x0 c:/applications/microchip/xc32/bin/bin/../../lib/gcc/pic32c/8.3.1/thumb/v6-m/nofp\libgcc.a(_clzdi2.o)
 .bss           0x0000000000000000        0x0 c:/applications/microchip/xc32/bin/bin/../../lib/gcc/pic32c/8.3.1/thumb/v6-m/nofp\libgcc.a(_clzdi2.o)
 .xc_stack_usage.hdr
                0x0000000000000000        0xe c:/applications/microchip/xc32/bin/bin/../../lib/gcc/pic32c/8.3.1/thumb/v6-m/nofp\libgcc.a(_clzdi2.o)
 .xc_stack_usage
                0x0000000000000000       0x16 c:/applications/microchip/xc32/bin/bin/../../lib/gcc/pic32c/8.3.1/thumb/v6-m/nofp\libgcc.a(_clzdi2.o)
 .data          0x0000000000000000        0x0 c:/applications/microchip/xc32/bin/bin/../../lib/gcc/pic32c/8.3.1/thumb/v6-m/nofp\libgcc.a(_clzsi2.o)
 .bss           0x0000000000000000        0x0 c:/applications/microchip/xc32/bin/bin/../../lib/gcc/pic32c/8.3.1/thumb/v6-m/nofp\libgcc.a(_clzsi2.o)
 .xc_stack_usage.hdr
                0x0000000000000000        0xe c:/applications/microchip/xc32/bin/bin/../../lib/gcc/pic32c/8.3.1/thumb/v6-m/nofp\libgcc.a(_clzsi2.o)
 .xc_stack_usage
                0x0000000000000000       0x16 c:/applications/microchip/xc32/bin/bin/../../lib/gcc/pic32c/8.3.1/thumb/v6-m/nofp\libgcc.a(_clzsi2.o)
 .text          0x0000000000000000        0x0 c:/applications/microchip/xc32/bin/bin/../../lib/gcc/pic32c/8.3.1/../../../../pic32c/lib/thumb/v6-m/nofp\libc-size-musl.a(strcpy.o)
 .data          0x0000000000000000        0x0 c:/applications/microchip/xc32/bin/bin/../../lib/gcc/pic32c/8.3.1/../../../../pic32c/lib/thumb/v6-m/nofp\libc-size-musl.a(strcpy.o)
 .bss           0x0000000000000000        0x0 c:/applications/microchip/xc32/bin/bin/../../lib/gcc/pic32c/8.3.1/../../../../pic32c/lib/thumb/v6-m/nofp\libc-size-musl.a(strcpy.o)
 .xc_stack_usage
                0x0000000000000000       0x14 c:/applications/microchip/xc32/bin/bin/../../lib/gcc/pic32c/8.3.1/../../../../pic32c/lib/thumb/v6-m/nofp\libc-size-musl.a(strcpy.o)
 .text.strcpy   0x0000000000000000        0xc c:/applications/microchip/xc32/bin/bin/../../lib/gcc/pic32c/8.3.1/../../../../pic32c/lib/thumb/v6-m/nofp\libc-size-musl.a(strcpy.o)
 .xc_stack_usage.hdr
                0x0000000000000000        0xe c:/applications/microchip/xc32/bin/bin/../../lib/gcc/pic32c/8.3.1/../../../../pic32c/lib/thumb/v6-m/nofp\libc-size-musl.a(strcpy.o)
 .debug_info    0x0000000000000000       0xbd c:/applications/microchip/xc32/bin/bin/../../lib/gcc/pic32c/8.3.1/../../../../pic32c/lib/thumb/v6-m/nofp\libc-size-musl.a(strcpy.o)
 .debug_abbrev  0x0000000000000000       0xa2 c:/applications/microchip/xc32/bin/bin/../../lib/gcc/pic32c/8.3.1/../../../../pic32c/lib/thumb/v6-m/nofp\libc-size-musl.a(strcpy.o)
 .debug_loc     0x0000000000000000       0x74 c:/applications/microchip/xc32/bin/bin/../../lib/gcc/pic32c/8.3.1/../../../../pic32c/lib/thumb/v6-m/nofp\libc-size-musl.a(strcpy.o)
 .debug_aranges
                0x0000000000000000       0x20 c:/applications/microchip/xc32/bin/bin/../../lib/gcc/pic32c/8.3.1/../../../../pic32c/lib/thumb/v6-m/nofp\libc-size-musl.a(strcpy.o)
 .debug_ranges  0x0000000000000000       0x10 c:/applications/microchip/xc32/bin/bin/../../lib/gcc/pic32c/8.3.1/../../../../pic32c/lib/thumb/v6-m/nofp\libc-size-musl.a(strcpy.o)
 .debug_line    0x0000000000000000       0xb2 c:/applications/microchip/xc32/bin/bin/../../lib/gcc/pic32c/8.3.1/../../../../pic32c/lib/thumb/v6-m/nofp\libc-size-musl.a(strcpy.o)
 .debug_str     0x0000000000000000      0x20d c:/applications/microchip/xc32/bin/bin/../../lib/gcc/pic32c/8.3.1/../../../../pic32c/lib/thumb/v6-m/nofp\libc-size-musl.a(strcpy.o)
 .comment       0x0000000000000000       0x2c c:/applications/microchip/xc32/bin/bin/../../lib/gcc/pic32c/8.3.1/../../../../pic32c/lib/thumb/v6-m/nofp\libc-size-musl.a(strcpy.o)
 .note.GNU-stack
                0x0000000000000000        0x0 c:/applications/microchip/xc32/bin/bin/../../lib/gcc/pic32c/8.3.1/../../../../pic32c/lib/thumb/v6-m/nofp\libc-size-musl.a(strcpy.o)
 .debug_frame   0x0000000000000000       0x28 c:/applications/microchip/xc32/bin/bin/../../lib/gcc/pic32c/8.3.1/../../../../pic32c/lib/thumb/v6-m/nofp\libc-size-musl.a(strcpy.o)
 .ARM.attributes
                0x0000000000000000       0x2e c:/applications/microchip/xc32/bin/bin/../../lib/gcc/pic32c/8.3.1/../../../../pic32c/lib/thumb/v6-m/nofp\libc-size-musl.a(strcpy.o)
 .text          0x0000000000000000        0x0 c:/applications/microchip/xc32/bin/bin/../../lib/gcc/pic32c/8.3.1/../../../../pic32c/lib/thumb/v6-m/nofp\libc-size-musl.a(stpcpy.o)
 .data          0x0000000000000000        0x0 c:/applications/microchip/xc32/bin/bin/../../lib/gcc/pic32c/8.3.1/../../../../pic32c/lib/thumb/v6-m/nofp\libc-size-musl.a(stpcpy.o)
 .bss           0x0000000000000000        0x0 c:/applications/microchip/xc32/bin/bin/../../lib/gcc/pic32c/8.3.1/../../../../pic32c/lib/thumb/v6-m/nofp\libc-size-musl.a(stpcpy.o)
 .xc_stack_usage
                0x0000000000000000       0x14 c:/applications/microchip/xc32/bin/bin/../../lib/gcc/pic32c/8.3.1/../../../../pic32c/lib/thumb/v6-m/nofp\libc-size-musl.a(stpcpy.o)
 .text.stpcpy   0x0000000000000000       0x14 c:/applications/microchip/xc32/bin/bin/../../lib/gcc/pic32c/8.3.1/../../../../pic32c/lib/thumb/v6-m/nofp\libc-size-musl.a(stpcpy.o)
 .xc_stack_usage.hdr
                0x0000000000000000        0xe c:/applications/microchip/xc32/bin/bin/../../lib/gcc/pic32c/8.3.1/../../../../pic32c/lib/thumb/v6-m/nofp\libc-size-musl.a(stpcpy.o)
 .debug_info    0x0000000000000000       0xac c:/applications/microchip/xc32/bin/bin/../../lib/gcc/pic32c/8.3.1/../../../../pic32c/lib/thumb/v6-m/nofp\libc-size-musl.a(stpcpy.o)
 .debug_abbrev  0x0000000000000000       0x6e c:/applications/microchip/xc32/bin/bin/../../lib/gcc/pic32c/8.3.1/../../../../pic32c/lib/thumb/v6-m/nofp\libc-size-musl.a(stpcpy.o)
 .debug_loc     0x0000000000000000       0x90 c:/applications/microchip/xc32/bin/bin/../../lib/gcc/pic32c/8.3.1/../../../../pic32c/lib/thumb/v6-m/nofp\libc-size-musl.a(stpcpy.o)
 .debug_aranges
                0x0000000000000000       0x20 c:/applications/microchip/xc32/bin/bin/../../lib/gcc/pic32c/8.3.1/../../../../pic32c/lib/thumb/v6-m/nofp\libc-size-musl.a(stpcpy.o)
 .debug_ranges  0x0000000000000000       0x10 c:/applications/microchip/xc32/bin/bin/../../lib/gcc/pic32c/8.3.1/../../../../pic32c/lib/thumb/v6-m/nofp\libc-size-musl.a(stpcpy.o)
 .debug_line    0x0000000000000000       0xc1 c:/applications/microchip/xc32/bin/bin/../../lib/gcc/pic32c/8.3.1/../../../../pic32c/lib/thumb/v6-m/nofp\libc-size-musl.a(stpcpy.o)
 .debug_str     0x0000000000000000      0x221 c:/applications/microchip/xc32/bin/bin/../../lib/gcc/pic32c/8.3.1/../../../../pic32c/lib/thumb/v6-m/nofp\libc-size-musl.a(stpcpy.o)
 .comment       0x0000000000000000       0x2c c:/applications/microchip/xc32/bin/bin/../../lib/gcc/pic32c/8.3.1/../../../../pic32c/lib/thumb/v6-m/nofp\libc-size-musl.a(stpcpy.o)
 .note.GNU-stack
                0x0000000000000000        0x0 c:/applications/microchip/xc32/bin/bin/../../lib/gcc/pic32c/8.3.1/../../../../pic32c/lib/thumb/v6-m/nofp\libc-size-musl.a(stpcpy.o)
 .debug_frame   0x0000000000000000       0x20 c:/applications/microchip/xc32/bin/bin/../../lib/gcc/pic32c/8.3.1/../../../../pic32c/lib/thumb/v6-m/nofp\libc-size-musl.a(stpcpy.o)
 .ARM.attributes
                0x0000000000000000       0x2e c:/applications/microchip/xc32/bin/bin/../../lib/gcc/pic32c/8.3.1/../../../../pic32c/lib/thumb/v6-m/nofp\libc-size-musl.a(stpcpy.o)
 .text          0x0000000000000000        0x0 c:/applications/microchip/xc32/bin/bin/../../lib/gcc/pic32c/8.3.1/thumb/v6-m/nofp/crtend.o
 .data          0x0000000000000000        0x0 c:/applications/microchip/xc32/bin/bin/../../lib/gcc/pic32c/8.3.1/thumb/v6-m/nofp/crtend.o
 .bss           0x0000000000000000        0x0 c:/applications/microchip/xc32/bin/bin/../../lib/gcc/pic32c/8.3.1/thumb/v6-m/nofp/crtend.o
 .eh_frame      0x0000000000000000        0x4 c:/applications/microchip/xc32/bin/bin/../../lib/gcc/pic32c/8.3.1/thumb/v6-m/nofp/crtend.o
 .xc_stack_usage.hdr
                0x0000000000000000        0xe c:/applications/microchip/xc32/bin/bin/../../lib/gcc/pic32c/8.3.1/thumb/v6-m/nofp/crtend.o
 .comment       0x0000000000000000       0x2c c:/applications/microchip/xc32/bin/bin/../../lib/gcc/pic32c/8.3.1/thumb/v6-m/nofp/crtend.o
 .ARM.attributes
                0x0000000000000000       0x2c c:/applications/microchip/xc32/bin/bin/../../lib/gcc/pic32c/8.3.1/thumb/v6-m/nofp/crtend.o
 .text          0x0000000000000000        0x0 c:/applications/microchip/xc32/bin/bin/../../lib/gcc/pic32c/8.3.1/thumb/v6-m/nofp/crtn.o
 .data          0x0000000000000000        0x0 c:/applications/microchip/xc32/bin/bin/../../lib/gcc/pic32c/8.3.1/thumb/v6-m/nofp/crtn.o
 .bss           0x0000000000000000        0x0 c:/applications/microchip/xc32/bin/bin/../../lib/gcc/pic32c/8.3.1/thumb/v6-m/nofp/crtn.o
 .xc_stack_usage.hdr
                0x0000000000000000        0xe c:/applications/microchip/xc32/bin/bin/../../lib/gcc/pic32c/8.3.1/thumb/v6-m/nofp/crtn.o
 .text          0x0000000000000000        0x0 c:/applications/microchip/xc32/bin/bin/../../lib/gcc/pic32c/8.3.1/../../../../pic32c/lib/thumb/v6-m/nofp\libpic32c.a(pic32_data_init_clear.o)
 .data          0x0000000000000000        0x0 c:/applications/microchip/xc32/bin/bin/../../lib/gcc/pic32c/8.3.1/../../../../pic32c/lib/thumb/v6-m/nofp\libpic32c.a(pic32_data_init_clear.o)
 .bss           0x0000000000000000        0x0 c:/applications/microchip/xc32/bin/bin/../../lib/gcc/pic32c/8.3.1/../../../../pic32c/lib/thumb/v6-m/nofp\libpic32c.a(pic32_data_init_clear.o)
 .xc_stack_usage
                0x0000000000000000       0x1b c:/applications/microchip/xc32/bin/bin/../../lib/gcc/pic32c/8.3.1/../../../../pic32c/lib/thumb/v6-m/nofp\libpic32c.a(pic32_data_init_clear.o)
 .xc_stack_usage.hdr
                0x0000000000000000        0xe c:/applications/microchip/xc32/bin/bin/../../lib/gcc/pic32c/8.3.1/../../../../pic32c/lib/thumb/v6-m/nofp\libpic32c.a(pic32_data_init_clear.o)
 .text          0x0000000000000000        0x0 c:/applications/microchip/xc32/bin/bin/../../lib/gcc/pic32c/8.3.1/../../../../pic32c/lib/thumb/v6-m/nofp\libpic32c.a(pic32_data_init_copy.o)
 .data          0x0000000000000000        0x0 c:/applications/microchip/xc32/bin/bin/../../lib/gcc/pic32c/8.3.1/../../../../pic32c/lib/thumb/v6-m/nofp\libpic32c.a(pic32_data_init_copy.o)
 .bss           0x0000000000000000        0x0 c:/applications/microchip/xc32/bin/bin/../../lib/gcc/pic32c/8.3.1/../../../../pic32c/lib/thumb/v6-m/nofp\libpic32c.a(pic32_data_init_copy.o)
 .xc_stack_usage
                0x0000000000000000       0x1a c:/applications/microchip/xc32/bin/bin/../../lib/gcc/pic32c/8.3.1/../../../../pic32c/lib/thumb/v6-m/nofp\libpic32c.a(pic32_data_init_copy.o)
 .xc_stack_usage.hdr
                0x0000000000000000        0xe c:/applications/microchip/xc32/bin/bin/../../lib/gcc/pic32c/8.3.1/../../../../pic32c/lib/thumb/v6-m/nofp\libpic32c.a(pic32_data_init_copy.o)

Memory Configuration

Name             Origin             Length             Attributes
rom              0x0000000000000000 0x0000000000080000 xrl
ram              0x0000000020000000 0x0000000000010000 xw !r
config_00804000  0x0000000000804000 0x0000000000000004
config_00804004  0x0000000000804004 0x0000000000000004
*default*        0x0000000000000000 0xffffffffffffffff

Linker script and memory map

LOAD c:/applications/microchip/xc32/bin/bin/../../lib/gcc/pic32c/8.3.1/thumb/v6-m/nofp/crti.o
LOAD c:/applications/microchip/xc32/bin/bin/../../lib/gcc/pic32c/8.3.1/thumb/v6-m/nofp/crtbegin.o
LOAD build/default/production/_ext/1985337713/plib_divas.o
LOAD build/default/production/_ext/1865616679/plib_supc.o
LOAD build/default/production/_ext/60163342/plib_adc0.o
LOAD build/default/production/_ext/1984496892/plib_clock.o
LOAD build/default/production/_ext/508257091/plib_sercom0_i2c_master.o
LOAD build/default/production/_ext/14461671/sys_dma.o
LOAD build/default/production/_ext/829342655/plib_tc0.o
LOAD build/default/production/_ext/1987437027/plib_freqm.o
LOAD build/default/production/_ext/1171490990/tasks.o
LOAD build/default/production/_ext/163028504/xc32_monitor.o
LOAD build/default/production/_ext/1171490990/initialization.o
LOAD build/default/production/_ext/17022449/plib_sercom1_spi_master.o
LOAD build/default/production/_ext/1171490990/interrupts.o
LOAD build/default/production/_ext/829342655/plib_tc1.o
LOAD build/default/production/_ext/1832805299/sys_console.o
LOAD build/default/production/_ext/60166132/plib_dac.o
LOAD build/default/production/_ext/504274921/plib_sercom3_usart.o
LOAD build/default/production/_ext/60167341/plib_eic.o
LOAD build/default/production/_ext/1360937237/main.o
LOAD build/default/production/_ext/101884895/sys_time.o
LOAD build/default/production/_ext/829342769/plib_pm.o
LOAD build/default/production/_ext/1865161661/plib_dmac.o
LOAD build/default/production/_ext/1593096446/plib_nvmctrl.o
LOAD build/default/production/_ext/60165242/plib_ccl.o
LOAD build/default/production/_ext/60165182/plib_can0.o
LOAD build/default/production/_ext/1865468468/plib_nvic.o
LOAD build/default/production/_ext/1865521619/plib_port.o
LOAD build/default/production/_ext/1881668453/sys_int.o
LOAD build/default/production/_ext/1171490990/startup_xc32.o
LOAD build/default/production/_ext/869808652/drv_usart.o
LOAD build/default/production/_ext/1171490990/libc_syscalls.o
LOAD build/default/production/_ext/60181570/plib_tcc0.o
LOAD build/default/production/_ext/1000052432/sys_reset.o
LOAD build/default/production/_ext/158385033/drv_i2c.o
LOAD build/default/production/_ext/1865510628/plib_pdec.o
LOAD build/default/production/_ext/2070931557/drv_spi.o
LOAD build/default/production/_ext/1865585090/plib_rstc.o
LOAD build/default/production/_ext/60180175/plib_rtc_timer.o
LOAD build/default/production/_ext/1986646378/plib_evsys.o
LOAD build/default/production/_ext/1832805299/sys_console_uart.o
LOAD build/default/production/_ext/1171490990/exceptions.o
LOAD build/default/production/_ext/504274921/plib_sercom2_usart.o
LOAD build/default/production/_ext/1360937237/bme690_driver.o
LOAD build/default/production/_ext/1360937237/can0_driver.o
LOAD build/default/production/_ext/1360937237/console_driver.o
LOAD build/default/production/_ext/1360937237/fcm360w_driver.o
LOAD build/default/production/_ext/1360937237/hdc302x_driver.o
LOAD build/default/production/_ext/1360937237/mcp9808_driver.o
LOAD build/default/production/_ext/1360937237/rstc_driver.o
LOAD build/default/production/_ext/1360937237/rtc_driver.o
LOAD build/default/production/_ext/1360937237/sht4x_driver.o
LOAD build/default/production/_ext/1360937237/timer_driver.o
LOAD build/default/production/_ext/1360937237/xm125_driver.o
                0x0000000000000001                __MPLAB_BUILD = 0x1
                0x0000000000080000                __rom_end = (ORIGIN (rom) + LENGTH (rom))
                0x0000000020010000                __ram_end = (ORIGIN (ram) + LENGTH (ram))

.config_00804000
 *(.config_00804000)

.config_00804004
 *(.config_00804004)

.vectors        0x0000000000000000       0xc0
                0x0000000000000000                . = ALIGN (0x4)
                0x0000000000000000                _sfixed = .
 *(.vectors .vectors.* .vectors_default .vectors_default.*)
 .vectors.exception_table
                0x0000000000000000       0xc0 build/default/production/_ext/1171490990/interrupts.o
                0x0000000000000000                exception_table
 *(.isr_vector)
 *(.reset*)
 *(.after_vectors)

.text           0x00000000000000c0       0x20
                0x00000000000000c0                . = ALIGN (0x4)
 *(.glue_7t)
 .glue_7t       0x00000000000000c0        0x0 linker stubs
 *(.glue_7)
 .glue_7        0x00000000000000c0        0x0 linker stubs
 *(.gnu.linkonce.r.*)
 *(.ARM.extab* .gnu.linkonce.armextab.*)
                0x00000000000000c0                . = ALIGN (0x4)
 *(.init)
 .init          0x00000000000000c0        0x4 c:/applications/microchip/xc32/bin/bin/../../lib/gcc/pic32c/8.3.1/thumb/v6-m/nofp/crti.o
                0x00000000000000c0                _init
 .init          0x00000000000000c4        0x8 c:/applications/microchip/xc32/bin/bin/../../lib/gcc/pic32c/8.3.1/thumb/v6-m/nofp/crtn.o
                0x00000000000000cc                . = ALIGN (0x4)
                0x00000000000000cc                __preinit_array_start = .
 *(.preinit_array)
                0x00000000000000cc                __preinit_array_end = .
                0x00000000000000cc                . = ALIGN (0x4)
                0x00000000000000cc                __init_array_start = .
 *(SORT_BY_NAME(.init_array.*))
 *(.init_array)
 .init_array    0x00000000000000cc        0x4 c:/applications/microchip/xc32/bin/bin/../../lib/gcc/pic32c/8.3.1/thumb/v6-m/nofp/crtbegin.o
                0x00000000000000d0                __init_array_end = .
                0x00000000000000d0                . = ALIGN (0x4)
 *crtbegin.o(.ctors)
 *(EXCLUDE_FILE(*crtend.o) .ctors)
 *(SORT_BY_NAME(.ctors.*))
 *crtend.o(.ctors)
                0x00000000000000d0                . = ALIGN (0x4)
 *(.fini)
 .fini          0x00000000000000d0        0x4 c:/applications/microchip/xc32/bin/bin/../../lib/gcc/pic32c/8.3.1/thumb/v6-m/nofp/crti.o
                0x00000000000000d0                _fini
 .fini          0x00000000000000d4        0x8 c:/applications/microchip/xc32/bin/bin/../../lib/gcc/pic32c/8.3.1/thumb/v6-m/nofp/crtn.o
                0x00000000000000dc                . = ALIGN (0x4)
                0x00000000000000dc                __fini_array_start = .
 *(.fini_array)
 .fini_array    0x00000000000000dc        0x4 c:/applications/microchip/xc32/bin/bin/../../lib/gcc/pic32c/8.3.1/thumb/v6-m/nofp/crtbegin.o
 *(SORT_BY_NAME(.fini_array.*))
                0x00000000000000e0                __fini_array_end = .
 *crtbegin.o(.dtors)
 *(EXCLUDE_FILE(*crtend.o) .dtors)
 *(SORT_BY_NAME(.dtors.*))
 *crtend.o(.dtors)
                0x00000000000000e0                . = ALIGN (0x4)
                0x00000000000000e0                _efixed = .
                [!provide]                        PROVIDE (__exidx_start = .)

.ARM.exidx      0x00000000000000e0        0x8
 *(.ARM.exidx* .gnu.linkonce.armexidx.*)
 .ARM.exidx     0x00000000000000e0        0x8 c:/applications/microchip/xc32/bin/bin/../../lib/gcc/pic32c/8.3.1/thumb/v6-m/nofp\libgcc.a(_udivmoddi4.o)
                [!provide]                        PROVIDE (__exidx_end = .)
                0x00000000000000e8                . = ALIGN (0x4)
                0x00000000000000e8                _etext = .

.bss            0x0000000020000000        0x0
                0x0000000020000000                . = ALIGN (0x4)
                0x0000000020000000                __bss_start__ = .
                0x0000000020000000                _sbss = .
                0x0000000020000000                _szero = .
 *(COMMON)
                0x0000000020000000                . = ALIGN (0x4)
                0x0000000020000000                __bss_end__ = .
                0x0000000020000000                _ebss = .
                0x0000000020000000                _ezero = .
                0x0000000020000000                . = ALIGN (0x4)
                0x0000000020000000                _end = .
                0x000000002000ffff                _ram_end_ = ((ORIGIN (ram) + LENGTH (ram)) - 0x1)
                0x0000000000001000                _min_heap_size = 0x1000
START GROUP
LOAD c:/applications/microchip/xc32/bin/bin/../../lib/gcc/pic32c/8.3.1/../../../../pic32c/lib/thumb/v6-m/nofp\libpic32c.a
LOAD c:/applications/microchip/xc32/bin/bin/../../lib/gcc/pic32c/8.3.1/../../../../pic32c/lib/thumb/v6-m/nofp\libc-size-musl.a
LOAD c:/applications/microchip/xc32/bin/bin/../../lib/gcc/pic32c/8.3.1/../../../../pic32c/lib/thumb/v6-m/nofp\liblmalloc-musl.a
LOAD c:/applications/microchip/xc32/bin/bin/../../lib/gcc/pic32c/8.3.1/../../../../pic32c/lib/thumb/v6-m/nofp\libm-fast-emfloat.a
LOAD c:/applications/microchip/xc32/bin/bin/../../lib/gcc/pic32c/8.3.1/../../../../pic32c/lib/thumb/v6-m/nofp\libm-musl.a
LOAD c:/applications/microchip/xc32/bin/bin/../../lib/gcc/pic32c/8.3.1/../../../../pic32c/lib/thumb/v6-m/nofp\libc-musl.a
LOAD c:/applications/microchip/xc32/bin/bin/../../lib/gcc/pic32c/8.3.1/../../../../pic32c/lib/thumb/v6-m/nofp\libm-fast-emfloat.a
LOAD c:/applications/microchip/xc32/bin/bin/../../lib/gcc/pic32c/8.3.1/../../../../pic32c/lib/thumb/v6-m/nofp\libm-musl.a
LOAD c:/applications/microchip/xc32/bin/bin/../../lib/gcc/pic32c/8.3.1/thumb/v6-m/nofp\libgcc.a
END GROUP
LOAD c:/applications/microchip/xc32/bin/bin/../../lib/gcc/pic32c/8.3.1/thumb/v6-m/nofp/crtend.o
LOAD c:/applications/microchip/xc32/bin/bin/../../lib/gcc/pic32c/8.3.1/thumb/v6-m/nofp/crtn.o
OUTPUT(dist/default/production/PIC32CMxxxxJH01_DRIVER.X.production.elf elf32-littlearm)
LOAD data_init
LOAD stack

.ARM.attributes
                0x0000000000000000       0x2a
 .ARM.attributes
                0x0000000000000000       0x1e c:/applications/microchip/xc32/bin/bin/../../lib/gcc/pic32c/8.3.1/thumb/v6-m/nofp/crti.o
 .ARM.attributes
                0x000000000000001e       0x2c c:/applications/microchip/xc32/bin/bin/../../lib/gcc/pic32c/8.3.1/thumb/v6-m/nofp/crtbegin.o
 .ARM.attributes
                0x000000000000004a       0x2c build/default/production/_ext/1865616679/plib_supc.o
 .ARM.attributes
                0x0000000000000076       0x2c build/default/production/_ext/60163342/plib_adc0.o
 .ARM.attributes
                0x00000000000000a2       0x2c build/default/production/_ext/1984496892/plib_clock.o
 .ARM.attributes
                0x00000000000000ce       0x2c build/default/production/_ext/508257091/plib_sercom0_i2c_master.o
 .ARM.attributes
                0x00000000000000fa       0x2c build/default/production/_ext/14461671/sys_dma.o
 .ARM.attributes
                0x0000000000000126       0x2c build/default/production/_ext/829342655/plib_tc0.o
 .ARM.attributes
                0x0000000000000152       0x2c build/default/production/_ext/1987437027/plib_freqm.o
 .ARM.attributes
                0x000000000000017e       0x2c build/default/production/_ext/1171490990/tasks.o
 .ARM.attributes
                0x00000000000001aa       0x2c build/default/production/_ext/1171490990/initialization.o
 .ARM.attributes
                0x00000000000001d6       0x2c build/default/production/_ext/17022449/plib_sercom1_spi_master.o
 .ARM.attributes
                0x0000000000000202       0x2c build/default/production/_ext/1171490990/interrupts.o
 .ARM.attributes
                0x000000000000022e       0x2c build/default/production/_ext/829342655/plib_tc1.o
 .ARM.attributes
                0x000000000000025a       0x2c build/default/production/_ext/1832805299/sys_console.o
 .ARM.attributes
                0x0000000000000286       0x2c build/default/production/_ext/60166132/plib_dac.o
 .ARM.attributes
                0x00000000000002b2       0x2c build/default/production/_ext/504274921/plib_sercom3_usart.o
 .ARM.attributes
                0x00000000000002de       0x2c build/default/production/_ext/60167341/plib_eic.o
 .ARM.attributes
                0x000000000000030a       0x2c build/default/production/_ext/1360937237/main.o
 .ARM.attributes
                0x0000000000000336       0x2c build/default/production/_ext/101884895/sys_time.o
 .ARM.attributes
                0x0000000000000362       0x2c build/default/production/_ext/829342769/plib_pm.o
 .ARM.attributes
                0x000000000000038e       0x2c build/default/production/_ext/1865161661/plib_dmac.o
 .ARM.attributes
                0x00000000000003ba       0x2c build/default/production/_ext/1593096446/plib_nvmctrl.o
 .ARM.attributes
                0x00000000000003e6       0x2c build/default/production/_ext/60165242/plib_ccl.o
 .ARM.attributes
                0x0000000000000412       0x2c build/default/production/_ext/60165182/plib_can0.o
 .ARM.attributes
                0x000000000000043e       0x2c build/default/production/_ext/1865468468/plib_nvic.o
 .ARM.attributes
                0x000000000000046a       0x2c build/default/production/_ext/1865521619/plib_port.o
 .ARM.attributes
                0x0000000000000496       0x2c build/default/production/_ext/1881668453/sys_int.o
 .ARM.attributes
                0x00000000000004c2       0x2c build/default/production/_ext/1171490990/startup_xc32.o
 .ARM.attributes
                0x00000000000004ee       0x2c build/default/production/_ext/869808652/drv_usart.o
 .ARM.attributes
                0x000000000000051a       0x2c build/default/production/_ext/60181570/plib_tcc0.o
 .ARM.attributes
                0x0000000000000546       0x2c build/default/production/_ext/158385033/drv_i2c.o
 .ARM.attributes
                0x0000000000000572       0x2c build/default/production/_ext/1865510628/plib_pdec.o
 .ARM.attributes
                0x000000000000059e       0x2c build/default/production/_ext/2070931557/drv_spi.o
 .ARM.attributes
                0x00000000000005ca       0x2c build/default/production/_ext/1865585090/plib_rstc.o
 .ARM.attributes
                0x00000000000005f6       0x2c build/default/production/_ext/60180175/plib_rtc_timer.o
 .ARM.attributes
                0x0000000000000622       0x2c build/default/production/_ext/1986646378/plib_evsys.o
 .ARM.attributes
                0x000000000000064e       0x2c build/default/production/_ext/1832805299/sys_console_uart.o
 .ARM.attributes
                0x000000000000067a       0x2c build/default/production/_ext/1171490990/exceptions.o
 .ARM.attributes
                0x00000000000006a6       0x2c build/default/production/_ext/504274921/plib_sercom2_usart.o
 .ARM.attributes
                0x00000000000006d2       0x2c build/default/production/_ext/1360937237/bme690_driver.o
 .ARM.attributes
                0x00000000000006fe       0x2c build/default/production/_ext/1360937237/can0_driver.o
 .ARM.attributes
                0x000000000000072a       0x2c build/default/production/_ext/1360937237/console_driver.o
 .ARM.attributes
                0x0000000000000756       0x2c build/default/production/_ext/1360937237/fcm360w_driver.o
 .ARM.attributes
                0x0000000000000782       0x2c build/default/production/_ext/1360937237/hdc302x_driver.o
 .ARM.attributes
                0x00000000000007ae       0x2c build/default/production/_ext/1360937237/mcp9808_driver.o
 .ARM.attributes
                0x00000000000007da       0x2c build/default/production/_ext/1360937237/rstc_driver.o
 .ARM.attributes
                0x0000000000000806       0x2c build/default/production/_ext/1360937237/rtc_driver.o
 .ARM.attributes
                0x0000000000000832       0x2c build/default/production/_ext/1360937237/sht4x_driver.o
 .ARM.attributes
                0x000000000000085e       0x2c build/default/production/_ext/1360937237/timer_driver.o
 .ARM.attributes
                0x000000000000088a       0x2c build/default/production/_ext/1360937237/xm125_driver.o
 .ARM.attributes
                0x00000000000008b6       0x2c c:/applications/microchip/xc32/bin/bin/../../lib/gcc/pic32c/8.3.1/../../../../pic32c/lib/thumb/v6-m/nofp\libpic32c.a(data_init.o)
 .ARM.attributes
                0x00000000000008e2       0x2e c:/applications/microchip/xc32/bin/bin/../../lib/gcc/pic32c/8.3.1/../../../../pic32c/lib/thumb/v6-m/nofp\libc-size-musl.a(memcpy.o)
 .ARM.attributes
                0x0000000000000910       0x2e c:/applications/microchip/xc32/bin/bin/../../lib/gcc/pic32c/8.3.1/../../../../pic32c/lib/thumb/v6-m/nofp\libc-size-musl.a(memset.o)
 .ARM.attributes
                0x000000000000093e       0x1c c:/applications/microchip/xc32/bin/bin/../../lib/gcc/pic32c/8.3.1/../../../../pic32c/lib/thumb/v6-m/nofp\libm-fast-emfloat.a(__aeabi_fadd.o)
 .ARM.attributes
                0x000000000000095a       0x1c c:/applications/microchip/xc32/bin/bin/../../lib/gcc/pic32c/8.3.1/../../../../pic32c/lib/thumb/v6-m/nofp\libm-fast-emfloat.a(__aeabi_dadd.o)
 .ARM.attributes
                0x0000000000000976       0x1c c:/applications/microchip/xc32/bin/bin/../../lib/gcc/pic32c/8.3.1/../../../../pic32c/lib/thumb/v6-m/nofp\libm-fast-emfloat.a(__aeabi_fsub.o)
 .ARM.attributes
                0x0000000000000992       0x1c c:/applications/microchip/xc32/bin/bin/../../lib/gcc/pic32c/8.3.1/../../../../pic32c/lib/thumb/v6-m/nofp\libm-fast-emfloat.a(__aeabi_fmul.o)
 .ARM.attributes
                0x00000000000009ae       0x1c c:/applications/microchip/xc32/bin/bin/../../lib/gcc/pic32c/8.3.1/../../../../pic32c/lib/thumb/v6-m/nofp\libm-fast-emfloat.a(__aeabi_dmul_aux.o)
 .ARM.attributes
                0x00000000000009ca       0x1c c:/applications/microchip/xc32/bin/bin/../../lib/gcc/pic32c/8.3.1/../../../../pic32c/lib/thumb/v6-m/nofp\libm-fast-emfloat.a(__aeabi_fdiv.o)
 .ARM.attributes
                0x00000000000009e6       0x1c c:/applications/microchip/xc32/bin/bin/../../lib/gcc/pic32c/8.3.1/../../../../pic32c/lib/thumb/v6-m/nofp\libm-fast-emfloat.a(__aeabi_f2iz.o)
 .ARM.attributes
                0x0000000000000a02       0x1c c:/applications/microchip/xc32/bin/bin/../../lib/gcc/pic32c/8.3.1/../../../../pic32c/lib/thumb/v6-m/nofp\libm-fast-emfloat.a(__aeabi_f2uiz.o)
 .ARM.attributes
                0x0000000000000a1e       0x1c c:/applications/microchip/xc32/bin/bin/../../lib/gcc/pic32c/8.3.1/../../../../pic32c/lib/thumb/v6-m/nofp\libm-fast-emfloat.a(__aeabi_i2f.o)
 .ARM.attributes
                0x0000000000000a3a       0x1c c:/applications/microchip/xc32/bin/bin/../../lib/gcc/pic32c/8.3.1/../../../../pic32c/lib/thumb/v6-m/nofp\libm-fast-emfloat.a(__aeabi_ui2f.o)
 .ARM.attributes
                0x0000000000000a56       0x1c c:/applications/microchip/xc32/bin/bin/../../lib/gcc/pic32c/8.3.1/../../../../pic32c/lib/thumb/v6-m/nofp\libm-fast-emfloat.a(__aeabi_f2d.o)
 .ARM.attributes
                0x0000000000000a72       0x1c c:/applications/microchip/xc32/bin/bin/../../lib/gcc/pic32c/8.3.1/../../../../pic32c/lib/thumb/v6-m/nofp\libm-fast-emfloat.a(__aeabi_d2f.o)
 .ARM.attributes
                0x0000000000000a8e       0x2e c:/applications/microchip/xc32/bin/bin/../../lib/gcc/pic32c/8.3.1/../../../../pic32c/lib/thumb/v6-m/nofp\libc-musl.a(__libc_start_main.o)
 .ARM.attributes
                0x0000000000000abc       0x2e c:/applications/microchip/xc32/bin/bin/../../lib/gcc/pic32c/8.3.1/../../../../pic32c/lib/thumb/v6-m/nofp\libc-musl.a(libc.o)
 .ARM.attributes
                0x0000000000000aea       0x2e c:/applications/microchip/xc32/bin/bin/../../lib/gcc/pic32c/8.3.1/../../../../pic32c/lib/thumb/v6-m/nofp\libc-musl.a(__environ.o)
 .ARM.attributes
                0x0000000000000b18       0x1e c:/applications/microchip/xc32/bin/bin/../../lib/gcc/pic32c/8.3.1/thumb/v6-m/nofp\libgcc.a(_udivsi3.o)
 .ARM.attributes
                0x0000000000000b36       0x1e c:/applications/microchip/xc32/bin/bin/../../lib/gcc/pic32c/8.3.1/thumb/v6-m/nofp\libgcc.a(_dvmd_tls.o)
 .ARM.attributes
                0x0000000000000b54       0x1e c:/applications/microchip/xc32/bin/bin/../../lib/gcc/pic32c/8.3.1/thumb/v6-m/nofp\libgcc.a(_aeabi_uldivmod.o)
 .ARM.attributes
                0x0000000000000b72       0x2c c:/applications/microchip/xc32/bin/bin/../../lib/gcc/pic32c/8.3.1/thumb/v6-m/nofp\libgcc.a(_muldi3.o)
 .ARM.attributes
                0x0000000000000b9e       0x2c c:/applications/microchip/xc32/bin/bin/../../lib/gcc/pic32c/8.3.1/thumb/v6-m/nofp\libgcc.a(_udivmoddi4.o)
 .ARM.attributes
                0x0000000000000bca       0x1e c:/applications/microchip/xc32/bin/bin/../../lib/gcc/pic32c/8.3.1/thumb/v6-m/nofp\libgcc.a(_lshrdi3.o)
 .ARM.attributes
                0x0000000000000be8       0x1e c:/applications/microchip/xc32/bin/bin/../../lib/gcc/pic32c/8.3.1/thumb/v6-m/nofp\libgcc.a(_ashldi3.o)
 .ARM.attributes
                0x0000000000000c06       0x1e c:/applications/microchip/xc32/bin/bin/../../lib/gcc/pic32c/8.3.1/thumb/v6-m/nofp\libgcc.a(_clzdi2.o)
 .ARM.attributes
                0x0000000000000c24       0x1e c:/applications/microchip/xc32/bin/bin/../../lib/gcc/pic32c/8.3.1/thumb/v6-m/nofp\libgcc.a(_clzsi2.o)
 .ARM.attributes
                0x0000000000000c42       0x1e c:/applications/microchip/xc32/bin/bin/../../lib/gcc/pic32c/8.3.1/thumb/v6-m/nofp/crtn.o
 .ARM.attributes
                0x0000000000000c60       0x2c c:/applications/microchip/xc32/bin/bin/../../lib/gcc/pic32c/8.3.1/../../../../pic32c/lib/thumb/v6-m/nofp\libpic32c.a(pic32_data_init_clear.o)
 .ARM.attributes
                0x0000000000000c8c       0x2c c:/applications/microchip/xc32/bin/bin/../../lib/gcc/pic32c/8.3.1/../../../../pic32c/lib/thumb/v6-m/nofp\libpic32c.a(pic32_data_init_copy.o)

.comment        0x0000000000000000       0x2b
 .comment       0x0000000000000000       0x2b c:/applications/microchip/xc32/bin/bin/../../lib/gcc/pic32c/8.3.1/thumb/v6-m/nofp/crtbegin.o
                                         0x2c (size before relaxing)
 .comment       0x000000000000002b       0x2c build/default/production/_ext/1865616679/plib_supc.o
 .comment       0x000000000000002b       0x2c build/default/production/_ext/60163342/plib_adc0.o
 .comment       0x000000000000002b       0x2c build/default/production/_ext/1984496892/plib_clock.o
 .comment       0x000000000000002b       0x2c build/default/production/_ext/508257091/plib_sercom0_i2c_master.o
 .comment       0x000000000000002b       0x2c build/default/production/_ext/14461671/sys_dma.o
 .comment       0x000000000000002b       0x2c build/default/production/_ext/829342655/plib_tc0.o
 .comment       0x000000000000002b       0x2c build/default/production/_ext/1987437027/plib_freqm.o
 .comment       0x000000000000002b       0x2c build/default/production/_ext/1171490990/tasks.o
 .comment       0x000000000000002b       0x2c build/default/production/_ext/1171490990/initialization.o
 .comment       0x000000000000002b       0x2c build/default/production/_ext/17022449/plib_sercom1_spi_master.o
 .comment       0x000000000000002b       0x2c build/default/production/_ext/1171490990/interrupts.o
 .comment       0x000000000000002b       0x2c build/default/production/_ext/829342655/plib_tc1.o
 .comment       0x000000000000002b       0x2c build/default/production/_ext/1832805299/sys_console.o
 .comment       0x000000000000002b       0x2c build/default/production/_ext/60166132/plib_dac.o
 .comment       0x000000000000002b       0x2c build/default/production/_ext/504274921/plib_sercom3_usart.o
 .comment       0x000000000000002b       0x2c build/default/production/_ext/60167341/plib_eic.o
 .comment       0x000000000000002b       0x2c build/default/production/_ext/1360937237/main.o
 .comment       0x000000000000002b       0x2c build/default/production/_ext/101884895/sys_time.o
 .comment       0x000000000000002b       0x2c build/default/production/_ext/829342769/plib_pm.o
 .comment       0x000000000000002b       0x2c build/default/production/_ext/1865161661/plib_dmac.o
 .comment       0x000000000000002b       0x2c build/default/production/_ext/1593096446/plib_nvmctrl.o
 .comment       0x000000000000002b       0x2c build/default/production/_ext/60165242/plib_ccl.o
 .comment       0x000000000000002b       0x2c build/default/production/_ext/60165182/plib_can0.o
 .comment       0x000000000000002b       0x2c build/default/production/_ext/1865468468/plib_nvic.o
 .comment       0x000000000000002b       0x2c build/default/production/_ext/1865521619/plib_port.o
 .comment       0x000000000000002b       0x2c build/default/production/_ext/1881668453/sys_int.o
 .comment       0x000000000000002b       0x2c build/default/production/_ext/1171490990/startup_xc32.o
 .comment       0x000000000000002b       0x2c build/default/production/_ext/869808652/drv_usart.o
 .comment       0x000000000000002b       0x2c build/default/production/_ext/60181570/plib_tcc0.o
 .comment       0x000000000000002b       0x2c build/default/production/_ext/158385033/drv_i2c.o
 .comment       0x000000000000002b       0x2c build/default/production/_ext/1865510628/plib_pdec.o
 .comment       0x000000000000002b       0x2c build/default/production/_ext/2070931557/drv_spi.o
 .comment       0x000000000000002b       0x2c build/default/production/_ext/1865585090/plib_rstc.o
 .comment       0x000000000000002b       0x2c build/default/production/_ext/60180175/plib_rtc_timer.o
 .comment       0x000000000000002b       0x2c build/default/production/_ext/1986646378/plib_evsys.o
 .comment       0x000000000000002b       0x2c build/default/production/_ext/1832805299/sys_console_uart.o
 .comment       0x000000000000002b       0x2c build/default/production/_ext/1171490990/exceptions.o
 .comment       0x000000000000002b       0x2c build/default/production/_ext/504274921/plib_sercom2_usart.o
 .comment       0x000000000000002b       0x2c build/default/production/_ext/1360937237/bme690_driver.o
 .comment       0x000000000000002b       0x2c build/default/production/_ext/1360937237/can0_driver.o
 .comment       0x000000000000002b       0x2c build/default/production/_ext/1360937237/console_driver.o
 .comment       0x000000000000002b       0x2c build/default/production/_ext/1360937237/fcm360w_driver.o
 .comment       0x000000000000002b       0x2c build/default/production/_ext/1360937237/hdc302x_driver.o
 .comment       0x000000000000002b       0x2c build/default/production/_ext/1360937237/mcp9808_driver.o
 .comment       0x000000000000002b       0x2c build/default/production/_ext/1360937237/rstc_driver.o
 .comment       0x000000000000002b       0x2c build/default/production/_ext/1360937237/rtc_driver.o
 .comment       0x000000000000002b       0x2c build/default/production/_ext/1360937237/sht4x_driver.o
 .comment       0x000000000000002b       0x2c build/default/production/_ext/1360937237/timer_driver.o
 .comment       0x000000000000002b       0x2c build/default/production/_ext/1360937237/xm125_driver.o
 .comment       0x000000000000002b       0x2c c:/applications/microchip/xc32/bin/bin/../../lib/gcc/pic32c/8.3.1/../../../../pic32c/lib/thumb/v6-m/nofp\libpic32c.a(data_init.o)
 .comment       0x000000000000002b       0x2c c:/applications/microchip/xc32/bin/bin/../../lib/gcc/pic32c/8.3.1/../../../../pic32c/lib/thumb/v6-m/nofp\libc-size-musl.a(memcpy.o)
 .comment       0x000000000000002b       0x2c c:/applications/microchip/xc32/bin/bin/../../lib/gcc/pic32c/8.3.1/../../../../pic32c/lib/thumb/v6-m/nofp\libc-size-musl.a(memset.o)
 .comment       0x000000000000002b       0x2c c:/applications/microchip/xc32/bin/bin/../../lib/gcc/pic32c/8.3.1/../../../../pic32c/lib/thumb/v6-m/nofp\libc-musl.a(__libc_start_main.o)
 .comment       0x000000000000002b       0x2c c:/applications/microchip/xc32/bin/bin/../../lib/gcc/pic32c/8.3.1/../../../../pic32c/lib/thumb/v6-m/nofp\libc-musl.a(libc.o)
 .comment       0x000000000000002b       0x2c c:/applications/microchip/xc32/bin/bin/../../lib/gcc/pic32c/8.3.1/../../../../pic32c/lib/thumb/v6-m/nofp\libc-musl.a(__environ.o)
 .comment       0x000000000000002b       0x2c c:/applications/microchip/xc32/bin/bin/../../lib/gcc/pic32c/8.3.1/thumb/v6-m/nofp\libgcc.a(_muldi3.o)
 .comment       0x000000000000002b       0x2c c:/applications/microchip/xc32/bin/bin/../../lib/gcc/pic32c/8.3.1/thumb/v6-m/nofp\libgcc.a(_udivmoddi4.o)
 .comment       0x000000000000002b       0x2c c:/applications/microchip/xc32/bin/bin/../../lib/gcc/pic32c/8.3.1/../../../../pic32c/lib/thumb/v6-m/nofp\libpic32c.a(pic32_data_init_clear.o)
 .comment       0x000000000000002b       0x2c c:/applications/microchip/xc32/bin/bin/../../lib/gcc/pic32c/8.3.1/../../../../pic32c/lib/thumb/v6-m/nofp\libpic32c.a(pic32_data_init_copy.o)

.debug_info     0x0000000000000000    0x213c2
 .debug_info    0x0000000000000000      0x262 build/default/production/_ext/1865616679/plib_supc.o
 .debug_info    0x0000000000000262      0x5f1 build/default/production/_ext/60163342/plib_adc0.o
 .debug_info    0x0000000000000853      0x6ed build/default/production/_ext/1984496892/plib_clock.o
 .debug_info    0x0000000000000f40     0x12ed build/default/production/_ext/508257091/plib_sercom0_i2c_master.o
 .debug_info    0x000000000000222d      0x2f6 build/default/production/_ext/14461671/sys_dma.o
 .debug_info    0x0000000000002523      0x83d build/default/production/_ext/829342655/plib_tc0.o
 .debug_info    0x0000000000002d60      0x2e2 build/default/production/_ext/1987437027/plib_freqm.o
 .debug_info    0x0000000000003042      0x197 build/default/production/_ext/1171490990/tasks.o
 .debug_info    0x00000000000031d9     0x2db5 build/default/production/_ext/1171490990/initialization.o
 .debug_info    0x0000000000005f8e      0xf10 build/default/production/_ext/17022449/plib_sercom1_spi_master.o
 .debug_info    0x0000000000006e9e      0x4e6 build/default/production/_ext/1171490990/interrupts.o
 .debug_info    0x0000000000007384      0x814 build/default/production/_ext/829342655/plib_tc1.o
 .debug_info    0x0000000000007b98      0xc75 build/default/production/_ext/1832805299/sys_console.o
 .debug_info    0x000000000000880d      0x24b build/default/production/_ext/60166132/plib_dac.o
 .debug_info    0x0000000000008a58     0x11cc build/default/production/_ext/504274921/plib_sercom3_usart.o
 .debug_info    0x0000000000009c24      0x3c6 build/default/production/_ext/60167341/plib_eic.o
 .debug_info    0x0000000000009fea       0xeb build/default/production/_ext/1360937237/main.o
 .debug_info    0x000000000000a0d5     0x1d54 build/default/production/_ext/101884895/sys_time.o
 .debug_info    0x000000000000be29      0x175 build/default/production/_ext/829342769/plib_pm.o
 .debug_info    0x000000000000bf9e      0xc04 build/default/production/_ext/1865161661/plib_dmac.o
 .debug_info    0x000000000000cba2      0x809 build/default/production/_ext/1593096446/plib_nvmctrl.o
 .debug_info    0x000000000000d3ab      0x17b build/default/production/_ext/60165242/plib_ccl.o
 .debug_info    0x000000000000d526     0x1326 build/default/production/_ext/60165182/plib_can0.o
 .debug_info    0x000000000000e84c      0xade build/default/production/_ext/1865468468/plib_nvic.o
 .debug_info    0x000000000000f32a      0x5fe build/default/production/_ext/1865521619/plib_port.o
 .debug_info    0x000000000000f928      0x5a0 build/default/production/_ext/1881668453/sys_int.o
 .debug_info    0x000000000000fec8      0x332 build/default/production/_ext/1171490990/startup_xc32.o
 .debug_info    0x00000000000101fa     0x29ea build/default/production/_ext/869808652/drv_usart.o
 .debug_info    0x0000000000012be4      0x529 build/default/production/_ext/60181570/plib_tcc0.o
 .debug_info    0x000000000001310d     0x1eb8 build/default/production/_ext/158385033/drv_i2c.o
 .debug_info    0x0000000000014fc5      0x378 build/default/production/_ext/1865510628/plib_pdec.o
 .debug_info    0x000000000001533d     0x2935 build/default/production/_ext/2070931557/drv_spi.o
 .debug_info    0x0000000000017c72       0xf3 build/default/production/_ext/1865585090/plib_rstc.o
 .debug_info    0x0000000000017d65      0x7ea build/default/production/_ext/60180175/plib_rtc_timer.o
 .debug_info    0x000000000001854f       0x9b build/default/production/_ext/1986646378/plib_evsys.o
 .debug_info    0x00000000000185ea      0xdd1 build/default/production/_ext/1832805299/sys_console_uart.o
 .debug_info    0x00000000000193bb       0xc1 build/default/production/_ext/1171490990/exceptions.o
 .debug_info    0x000000000001947c     0x17df build/default/production/_ext/504274921/plib_sercom2_usart.o
 .debug_info    0x000000000001ac5b     0x1070 build/default/production/_ext/1360937237/bme690_driver.o
 .debug_info    0x000000000001bccb      0xd5c build/default/production/_ext/1360937237/can0_driver.o
 .debug_info    0x000000000001ca27      0x13a build/default/production/_ext/1360937237/console_driver.o
 .debug_info    0x000000000001cb61      0x165 build/default/production/_ext/1360937237/fcm360w_driver.o
 .debug_info    0x000000000001ccc6     0x145d build/default/production/_ext/1360937237/hdc302x_driver.o
 .debug_info    0x000000000001e123      0xbbf build/default/production/_ext/1360937237/mcp9808_driver.o
 .debug_info    0x000000000001ece2      0x508 build/default/production/_ext/1360937237/rstc_driver.o
 .debug_info    0x000000000001f1ea      0x3bc build/default/production/_ext/1360937237/rtc_driver.o
 .debug_info    0x000000000001f5a6      0x9d6 build/default/production/_ext/1360937237/sht4x_driver.o
 .debug_info    0x000000000001ff7c      0x595 build/default/production/_ext/1360937237/timer_driver.o
 .debug_info    0x0000000000020511      0x13a build/default/production/_ext/1360937237/xm125_driver.o
 .debug_info    0x000000000002064b       0x68 c:/applications/microchip/xc32/bin/bin/../../lib/gcc/pic32c/8.3.1/../../../../pic32c/lib/thumb/v6-m/nofp\libpic32c.a(data_init.o)
 .debug_info    0x00000000000206b3       0xed c:/applications/microchip/xc32/bin/bin/../../lib/gcc/pic32c/8.3.1/../../../../pic32c/lib/thumb/v6-m/nofp\libc-size-musl.a(memcpy.o)
 .debug_info    0x00000000000207a0       0xbb c:/applications/microchip/xc32/bin/bin/../../lib/gcc/pic32c/8.3.1/../../../../pic32c/lib/thumb/v6-m/nofp\libc-size-musl.a(memset.o)
 .debug_info    0x000000000002085b      0x2fb c:/applications/microchip/xc32/bin/bin/../../lib/gcc/pic32c/8.3.1/../../../../pic32c/lib/thumb/v6-m/nofp\libc-musl.a(__libc_start_main.o)
 .debug_info    0x0000000000020b56      0x276 c:/applications/microchip/xc32/bin/bin/../../lib/gcc/pic32c/8.3.1/../../../../pic32c/lib/thumb/v6-m/nofp\libc-musl.a(libc.o)
 .debug_info    0x0000000000020dcc       0x97 c:/applications/microchip/xc32/bin/bin/../../lib/gcc/pic32c/8.3.1/../../../../pic32c/lib/thumb/v6-m/nofp\libc-musl.a(__environ.o)
 .debug_info    0x0000000000020e63       0x26 c:/applications/microchip/xc32/bin/bin/../../lib/gcc/pic32c/8.3.1/thumb/v6-m/nofp\libgcc.a(_udivsi3.o)
 .debug_info    0x0000000000020e89       0x26 c:/applications/microchip/xc32/bin/bin/../../lib/gcc/pic32c/8.3.1/thumb/v6-m/nofp\libgcc.a(_dvmd_tls.o)
 .debug_info    0x0000000000020eaf       0x26 c:/applications/microchip/xc32/bin/bin/../../lib/gcc/pic32c/8.3.1/thumb/v6-m/nofp\libgcc.a(_aeabi_uldivmod.o)
 .debug_info    0x0000000000020ed5      0x243 c:/applications/microchip/xc32/bin/bin/../../lib/gcc/pic32c/8.3.1/thumb/v6-m/nofp\libgcc.a(_muldi3.o)
 .debug_info    0x0000000000021118      0x193 c:/applications/microchip/xc32/bin/bin/../../lib/gcc/pic32c/8.3.1/thumb/v6-m/nofp\libgcc.a(_udivmoddi4.o)
 .debug_info    0x00000000000212ab       0x26 c:/applications/microchip/xc32/bin/bin/../../lib/gcc/pic32c/8.3.1/thumb/v6-m/nofp\libgcc.a(_lshrdi3.o)
 .debug_info    0x00000000000212d1       0x26 c:/applications/microchip/xc32/bin/bin/../../lib/gcc/pic32c/8.3.1/thumb/v6-m/nofp\libgcc.a(_ashldi3.o)
 .debug_info    0x00000000000212f7       0x26 c:/applications/microchip/xc32/bin/bin/../../lib/gcc/pic32c/8.3.1/thumb/v6-m/nofp\libgcc.a(_clzdi2.o)
 .debug_info    0x000000000002131d       0x26 c:/applications/microchip/xc32/bin/bin/../../lib/gcc/pic32c/8.3.1/thumb/v6-m/nofp\libgcc.a(_clzsi2.o)
 .debug_info    0x0000000000021343       0x3f c:/applications/microchip/xc32/bin/bin/../../lib/gcc/pic32c/8.3.1/../../../../pic32c/lib/thumb/v6-m/nofp\libpic32c.a(pic32_data_init_clear.o)
 .debug_info    0x0000000000021382       0x40 c:/applications/microchip/xc32/bin/bin/../../lib/gcc/pic32c/8.3.1/../../../../pic32c/lib/thumb/v6-m/nofp\libpic32c.a(pic32_data_init_copy.o)

.debug_abbrev   0x0000000000000000     0x6b53
 .debug_abbrev  0x0000000000000000      0x12b build/default/production/_ext/1865616679/plib_supc.o
 .debug_abbrev  0x000000000000012b      0x172 build/default/production/_ext/60163342/plib_adc0.o
 .debug_abbrev  0x000000000000029d      0x1b4 build/default/production/_ext/1984496892/plib_clock.o
 .debug_abbrev  0x0000000000000451      0x3a9 build/default/production/_ext/508257091/plib_sercom0_i2c_master.o
 .debug_abbrev  0x00000000000007fa       0xfd build/default/production/_ext/14461671/sys_dma.o
 .debug_abbrev  0x00000000000008f7      0x1be build/default/production/_ext/829342655/plib_tc0.o
 .debug_abbrev  0x0000000000000ab5      0x138 build/default/production/_ext/1987437027/plib_freqm.o
 .debug_abbrev  0x0000000000000bed       0x7b build/default/production/_ext/1171490990/tasks.o
 .debug_abbrev  0x0000000000000c68      0x284 build/default/production/_ext/1171490990/initialization.o
 .debug_abbrev  0x0000000000000eec      0x276 build/default/production/_ext/17022449/plib_sercom1_spi_master.o
 .debug_abbrev  0x0000000000001162      0x11e build/default/production/_ext/1171490990/interrupts.o
 .debug_abbrev  0x0000000000001280      0x1be build/default/production/_ext/829342655/plib_tc1.o
 .debug_abbrev  0x000000000000143e      0x3c1 build/default/production/_ext/1832805299/sys_console.o
 .debug_abbrev  0x00000000000017ff       0xf0 build/default/production/_ext/60166132/plib_dac.o
 .debug_abbrev  0x00000000000018ef      0x318 build/default/production/_ext/504274921/plib_sercom3_usart.o
 .debug_abbrev  0x0000000000001c07      0x195 build/default/production/_ext/60167341/plib_eic.o
 .debug_abbrev  0x0000000000001d9c       0x82 build/default/production/_ext/1360937237/main.o
 .debug_abbrev  0x0000000000001e1e      0x51d build/default/production/_ext/101884895/sys_time.o
 .debug_abbrev  0x000000000000233b       0xa4 build/default/production/_ext/829342769/plib_pm.o
 .debug_abbrev  0x00000000000023df      0x2b9 build/default/production/_ext/1865161661/plib_dmac.o
 .debug_abbrev  0x0000000000002698      0x1f2 build/default/production/_ext/1593096446/plib_nvmctrl.o
 .debug_abbrev  0x000000000000288a       0xa4 build/default/production/_ext/60165242/plib_ccl.o
 .debug_abbrev  0x000000000000292e      0x31b build/default/production/_ext/60165182/plib_can0.o
 .debug_abbrev  0x0000000000002c49      0x271 build/default/production/_ext/1865468468/plib_nvic.o
 .debug_abbrev  0x0000000000002eba      0x1e8 build/default/production/_ext/1865521619/plib_port.o
 .debug_abbrev  0x00000000000030a2      0x262 build/default/production/_ext/1881668453/sys_int.o
 .debug_abbrev  0x0000000000003304      0x187 build/default/production/_ext/1171490990/startup_xc32.o
 .debug_abbrev  0x000000000000348b      0x523 build/default/production/_ext/869808652/drv_usart.o
 .debug_abbrev  0x00000000000039ae      0x122 build/default/production/_ext/60181570/plib_tcc0.o
 .debug_abbrev  0x0000000000003ad0      0x4a4 build/default/production/_ext/158385033/drv_i2c.o
 .debug_abbrev  0x0000000000003f74       0xf2 build/default/production/_ext/1865510628/plib_pdec.o
 .debug_abbrev  0x0000000000004066      0x4ec build/default/production/_ext/2070931557/drv_spi.o
 .debug_abbrev  0x0000000000004552       0x94 build/default/production/_ext/1865585090/plib_rstc.o
 .debug_abbrev  0x00000000000045e6      0x1a2 build/default/production/_ext/60180175/plib_rtc_timer.o
 .debug_abbrev  0x0000000000004788       0x46 build/default/production/_ext/1986646378/plib_evsys.o
 .debug_abbrev  0x00000000000047ce      0x31c build/default/production/_ext/1832805299/sys_console_uart.o
 .debug_abbrev  0x0000000000004aea       0x49 build/default/production/_ext/1171490990/exceptions.o
 .debug_abbrev  0x0000000000004b33      0x43d build/default/production/_ext/504274921/plib_sercom2_usart.o
 .debug_abbrev  0x0000000000004f70      0x21f build/default/production/_ext/1360937237/bme690_driver.o
 .debug_abbrev  0x000000000000518f      0x3b9 build/default/production/_ext/1360937237/can0_driver.o
 .debug_abbrev  0x0000000000005548       0xdd build/default/production/_ext/1360937237/console_driver.o
 .debug_abbrev  0x0000000000005625       0xbc build/default/production/_ext/1360937237/fcm360w_driver.o
 .debug_abbrev  0x00000000000056e1      0x2c9 build/default/production/_ext/1360937237/hdc302x_driver.o
 .debug_abbrev  0x00000000000059aa      0x272 build/default/production/_ext/1360937237/mcp9808_driver.o
 .debug_abbrev  0x0000000000005c1c      0x21d build/default/production/_ext/1360937237/rstc_driver.o
 .debug_abbrev  0x0000000000005e39      0x210 build/default/production/_ext/1360937237/rtc_driver.o
 .debug_abbrev  0x0000000000006049      0x258 build/default/production/_ext/1360937237/sht4x_driver.o
 .debug_abbrev  0x00000000000062a1      0x13f build/default/production/_ext/1360937237/timer_driver.o
 .debug_abbrev  0x00000000000063e0       0xdd build/default/production/_ext/1360937237/xm125_driver.o
 .debug_abbrev  0x00000000000064bd       0x44 c:/applications/microchip/xc32/bin/bin/../../lib/gcc/pic32c/8.3.1/../../../../pic32c/lib/thumb/v6-m/nofp\libpic32c.a(data_init.o)
 .debug_abbrev  0x0000000000006501       0xbb c:/applications/microchip/xc32/bin/bin/../../lib/gcc/pic32c/8.3.1/../../../../pic32c/lib/thumb/v6-m/nofp\libc-size-musl.a(memcpy.o)
 .debug_abbrev  0x00000000000065bc       0xa2 c:/applications/microchip/xc32/bin/bin/../../lib/gcc/pic32c/8.3.1/../../../../pic32c/lib/thumb/v6-m/nofp\libc-size-musl.a(memset.o)
 .debug_abbrev  0x000000000000665e      0x133 c:/applications/microchip/xc32/bin/bin/../../lib/gcc/pic32c/8.3.1/../../../../pic32c/lib/thumb/v6-m/nofp\libc-musl.a(__libc_start_main.o)
 .debug_abbrev  0x0000000000006791       0xd4 c:/applications/microchip/xc32/bin/bin/../../lib/gcc/pic32c/8.3.1/../../../../pic32c/lib/thumb/v6-m/nofp\libc-musl.a(libc.o)
 .debug_abbrev  0x0000000000006865       0x62 c:/applications/microchip/xc32/bin/bin/../../lib/gcc/pic32c/8.3.1/../../../../pic32c/lib/thumb/v6-m/nofp\libc-musl.a(__environ.o)
 .debug_abbrev  0x00000000000068c7       0x14 c:/applications/microchip/xc32/bin/bin/../../lib/gcc/pic32c/8.3.1/thumb/v6-m/nofp\libgcc.a(_udivsi3.o)
 .debug_abbrev  0x00000000000068db       0x14 c:/applications/microchip/xc32/bin/bin/../../lib/gcc/pic32c/8.3.1/thumb/v6-m/nofp\libgcc.a(_dvmd_tls.o)
 .debug_abbrev  0x00000000000068ef       0x14 c:/applications/microchip/xc32/bin/bin/../../lib/gcc/pic32c/8.3.1/thumb/v6-m/nofp\libgcc.a(_aeabi_uldivmod.o)
 .debug_abbrev  0x0000000000006903      0x10b c:/applications/microchip/xc32/bin/bin/../../lib/gcc/pic32c/8.3.1/thumb/v6-m/nofp\libgcc.a(_muldi3.o)
 .debug_abbrev  0x0000000000006a0e       0x99 c:/applications/microchip/xc32/bin/bin/../../lib/gcc/pic32c/8.3.1/thumb/v6-m/nofp\libgcc.a(_udivmoddi4.o)
 .debug_abbrev  0x0000000000006aa7       0x14 c:/applications/microchip/xc32/bin/bin/../../lib/gcc/pic32c/8.3.1/thumb/v6-m/nofp\libgcc.a(_lshrdi3.o)
 .debug_abbrev  0x0000000000006abb       0x14 c:/applications/microchip/xc32/bin/bin/../../lib/gcc/pic32c/8.3.1/thumb/v6-m/nofp\libgcc.a(_ashldi3.o)
 .debug_abbrev  0x0000000000006acf       0x14 c:/applications/microchip/xc32/bin/bin/../../lib/gcc/pic32c/8.3.1/thumb/v6-m/nofp\libgcc.a(_clzdi2.o)
 .debug_abbrev  0x0000000000006ae3       0x14 c:/applications/microchip/xc32/bin/bin/../../lib/gcc/pic32c/8.3.1/thumb/v6-m/nofp\libgcc.a(_clzsi2.o)
 .debug_abbrev  0x0000000000006af7       0x2e c:/applications/microchip/xc32/bin/bin/../../lib/gcc/pic32c/8.3.1/../../../../pic32c/lib/thumb/v6-m/nofp\libpic32c.a(pic32_data_init_clear.o)
 .debug_abbrev  0x0000000000006b25       0x2e c:/applications/microchip/xc32/bin/bin/../../lib/gcc/pic32c/8.3.1/../../../../pic32c/lib/thumb/v6-m/nofp\libpic32c.a(pic32_data_init_copy.o)

.debug_loc      0x0000000000000000    0x12225
 .debug_loc     0x0000000000000000       0x6e build/default/production/_ext/1865616679/plib_supc.o
 .debug_loc     0x000000000000006e      0x14d build/default/production/_ext/60163342/plib_adc0.o
 .debug_loc     0x00000000000001bb       0x6f build/default/production/_ext/1984496892/plib_clock.o
 .debug_loc     0x000000000000022a      0xcad build/default/production/_ext/508257091/plib_sercom0_i2c_master.o
 .debug_loc     0x0000000000000ed7      0x186 build/default/production/_ext/14461671/sys_dma.o
 .debug_loc     0x000000000000105d       0x74 build/default/production/_ext/829342655/plib_tc0.o
 .debug_loc     0x00000000000010d1      0x10a build/default/production/_ext/1987437027/plib_freqm.o
 .debug_loc     0x00000000000011db       0x20 build/default/production/_ext/1171490990/tasks.o
 .debug_loc     0x00000000000011fb       0x45 build/default/production/_ext/1171490990/initialization.o
 .debug_loc     0x0000000000001240      0x68a build/default/production/_ext/17022449/plib_sercom1_spi_master.o
 .debug_loc     0x00000000000018ca       0x60 build/default/production/_ext/1171490990/interrupts.o
 .debug_loc     0x000000000000192a       0x74 build/default/production/_ext/829342655/plib_tc1.o
 .debug_loc     0x000000000000199e      0xc4c build/default/production/_ext/1832805299/sys_console.o
 .debug_loc     0x00000000000025ea       0x25 build/default/production/_ext/60166132/plib_dac.o
 .debug_loc     0x000000000000260f      0x892 build/default/production/_ext/504274921/plib_sercom3_usart.o
 .debug_loc     0x0000000000002ea1       0xfe build/default/production/_ext/60167341/plib_eic.o
 .debug_loc     0x0000000000002f9f       0x20 build/default/production/_ext/1360937237/main.o
 .debug_loc     0x0000000000002fbf     0x248e build/default/production/_ext/101884895/sys_time.o
 .debug_loc     0x000000000000544d      0xb09 build/default/production/_ext/1865161661/plib_dmac.o
 .debug_loc     0x0000000000005f56      0x685 build/default/production/_ext/1593096446/plib_nvmctrl.o
 .debug_loc     0x00000000000065db      0xd37 build/default/production/_ext/60165182/plib_can0.o
 .debug_loc     0x0000000000007312      0x3bb build/default/production/_ext/1865468468/plib_nvic.o
 .debug_loc     0x00000000000076cd      0x29b build/default/production/_ext/1865521619/plib_port.o
 .debug_loc     0x0000000000007968      0x17d build/default/production/_ext/1881668453/sys_int.o
 .debug_loc     0x0000000000007ae5       0x4f build/default/production/_ext/1171490990/startup_xc32.o
 .debug_loc     0x0000000000007b34     0x28d9 build/default/production/_ext/869808652/drv_usart.o
 .debug_loc     0x000000000000a40d      0x155 build/default/production/_ext/60181570/plib_tcc0.o
 .debug_loc     0x000000000000a562     0x1b2f build/default/production/_ext/158385033/drv_i2c.o
 .debug_loc     0x000000000000c091       0x15 build/default/production/_ext/1865510628/plib_pdec.o
 .debug_loc     0x000000000000c0a6     0x226f build/default/production/_ext/2070931557/drv_spi.o
 .debug_loc     0x000000000000e315       0x94 build/default/production/_ext/60180175/plib_rtc_timer.o
 .debug_loc     0x000000000000e3a9      0x997 build/default/production/_ext/1832805299/sys_console_uart.o
 .debug_loc     0x000000000000ed40      0xf01 build/default/production/_ext/504274921/plib_sercom2_usart.o
 .debug_loc     0x000000000000fc41      0x30d build/default/production/_ext/1360937237/bme690_driver.o
 .debug_loc     0x000000000000ff4e      0x3a2 build/default/production/_ext/1360937237/can0_driver.o
 .debug_loc     0x00000000000102f0       0x16 build/default/production/_ext/1360937237/console_driver.o
 .debug_loc     0x0000000000010306      0xdbb build/default/production/_ext/1360937237/hdc302x_driver.o
 .debug_loc     0x00000000000110c1      0x433 build/default/production/_ext/1360937237/mcp9808_driver.o
 .debug_loc     0x00000000000114f4      0x16d build/default/production/_ext/1360937237/rstc_driver.o
 .debug_loc     0x0000000000011661       0xb1 build/default/production/_ext/1360937237/rtc_driver.o
 .debug_loc     0x0000000000011712      0x303 build/default/production/_ext/1360937237/sht4x_driver.o
 .debug_loc     0x0000000000011a15      0x120 build/default/production/_ext/1360937237/timer_driver.o
 .debug_loc     0x0000000000011b35       0x16 build/default/production/_ext/1360937237/xm125_driver.o
 .debug_loc     0x0000000000011b4b       0x14 c:/applications/microchip/xc32/bin/bin/../../lib/gcc/pic32c/8.3.1/../../../../pic32c/lib/thumb/v6-m/nofp\libpic32c.a(data_init.o)
 .debug_loc     0x0000000000011b5f      0x12d c:/applications/microchip/xc32/bin/bin/../../lib/gcc/pic32c/8.3.1/../../../../pic32c/lib/thumb/v6-m/nofp\libc-size-musl.a(memcpy.o)
 .debug_loc     0x0000000000011c8c       0xcd c:/applications/microchip/xc32/bin/bin/../../lib/gcc/pic32c/8.3.1/../../../../pic32c/lib/thumb/v6-m/nofp\libc-size-musl.a(memset.o)
 .debug_loc     0x0000000000011d59       0x5e c:/applications/microchip/xc32/bin/bin/../../lib/gcc/pic32c/8.3.1/../../../../pic32c/lib/thumb/v6-m/nofp\libc-musl.a(__libc_start_main.o)
 .debug_loc     0x0000000000011db7      0x176 c:/applications/microchip/xc32/bin/bin/../../lib/gcc/pic32c/8.3.1/thumb/v6-m/nofp\libgcc.a(_muldi3.o)
 .debug_loc     0x0000000000011f2d      0x2e4 c:/applications/microchip/xc32/bin/bin/../../lib/gcc/pic32c/8.3.1/thumb/v6-m/nofp\libgcc.a(_udivmoddi4.o)
 .debug_loc     0x0000000000012211       0x14 c:/applications/microchip/xc32/bin/bin/../../lib/gcc/pic32c/8.3.1/../../../../pic32c/lib/thumb/v6-m/nofp\libpic32c.a(pic32_data_init_copy.o)

.debug_aranges  0x0000000000000000     0x1930
 .debug_aranges
                0x0000000000000000       0x30 build/default/production/_ext/1865616679/plib_supc.o
 .debug_aranges
                0x0000000000000030       0x80 build/default/production/_ext/60163342/plib_adc0.o
 .debug_aranges
                0x00000000000000b0       0x30 build/default/production/_ext/1984496892/plib_clock.o
 .debug_aranges
                0x00000000000000e0       0x78 build/default/production/_ext/508257091/plib_sercom0_i2c_master.o
 .debug_aranges
                0x0000000000000158       0x28 build/default/production/_ext/14461671/sys_dma.o
 .debug_aranges
                0x0000000000000180       0x78 build/default/production/_ext/829342655/plib_tc0.o
 .debug_aranges
                0x00000000000001f8       0x40 build/default/production/_ext/1987437027/plib_freqm.o
 .debug_aranges
                0x0000000000000238       0x20 build/default/production/_ext/1171490990/tasks.o
 .debug_aranges
                0x0000000000000258       0x20 build/default/production/_ext/1171490990/initialization.o
 .debug_aranges
                0x0000000000000278       0x60 build/default/production/_ext/17022449/plib_sercom1_spi_master.o
 .debug_aranges
                0x00000000000002d8       0x38 build/default/production/_ext/1171490990/interrupts.o
 .debug_aranges
                0x0000000000000310       0x70 build/default/production/_ext/829342655/plib_tc1.o
 .debug_aranges
                0x0000000000000380       0x88 build/default/production/_ext/1832805299/sys_console.o
 .debug_aranges
                0x0000000000000408       0x30 build/default/production/_ext/60166132/plib_dac.o
 .debug_aranges
                0x0000000000000438       0xe0 build/default/production/_ext/504274921/plib_sercom3_usart.o
 .debug_aranges
                0x0000000000000518       0x40 build/default/production/_ext/60167341/plib_eic.o
 .debug_aranges
                0x0000000000000558       0x20 build/default/production/_ext/1360937237/main.o
 .debug_aranges
                0x0000000000000578      0x128 build/default/production/_ext/101884895/sys_time.o
 .debug_aranges
                0x00000000000006a0       0x30 build/default/production/_ext/829342769/plib_pm.o
 .debug_aranges
                0x00000000000006d0       0x98 build/default/production/_ext/1865161661/plib_dmac.o
 .debug_aranges
                0x0000000000000768       0xb0 build/default/production/_ext/1593096446/plib_nvmctrl.o
 .debug_aranges
                0x0000000000000818       0x20 build/default/production/_ext/60165242/plib_ccl.o
 .debug_aranges
                0x0000000000000838       0xa0 build/default/production/_ext/60165182/plib_can0.o
 .debug_aranges
                0x00000000000008d8       0x48 build/default/production/_ext/1865468468/plib_nvic.o
 .debug_aranges
                0x0000000000000920       0x68 build/default/production/_ext/1865521619/plib_port.o
 .debug_aranges
                0x0000000000000988       0x40 build/default/production/_ext/1881668453/sys_int.o
 .debug_aranges
                0x00000000000009c8       0x28 build/default/production/_ext/1171490990/startup_xc32.o
 .debug_aranges
                0x00000000000009f0      0x110 build/default/production/_ext/869808652/drv_usart.o
 .debug_aranges
                0x0000000000000b00       0x80 build/default/production/_ext/60181570/plib_tcc0.o
 .debug_aranges
                0x0000000000000b80       0xc0 build/default/production/_ext/158385033/drv_i2c.o
 .debug_aranges
                0x0000000000000c40       0x50 build/default/production/_ext/1865510628/plib_pdec.o
 .debug_aranges
                0x0000000000000c90       0xb8 build/default/production/_ext/2070931557/drv_spi.o
 .debug_aranges
                0x0000000000000d48       0x20 build/default/production/_ext/1865585090/plib_rstc.o
 .debug_aranges
                0x0000000000000d68       0x88 build/default/production/_ext/60180175/plib_rtc_timer.o
 .debug_aranges
                0x0000000000000df0       0x20 build/default/production/_ext/1986646378/plib_evsys.o
 .debug_aranges
                0x0000000000000e10       0x68 build/default/production/_ext/1832805299/sys_console_uart.o
 .debug_aranges
                0x0000000000000e78       0x28 build/default/production/_ext/1171490990/exceptions.o
 .debug_aranges
                0x0000000000000ea0       0xe8 build/default/production/_ext/504274921/plib_sercom2_usart.o
 .debug_aranges
                0x0000000000000f88      0x1e8 build/default/production/_ext/1360937237/bme690_driver.o
 .debug_aranges
                0x0000000000001170       0x78 build/default/production/_ext/1360937237/can0_driver.o
 .debug_aranges
                0x00000000000011e8       0x28 build/default/production/_ext/1360937237/console_driver.o
 .debug_aranges
                0x0000000000001210       0x28 build/default/production/_ext/1360937237/fcm360w_driver.o
 .debug_aranges
                0x0000000000001238      0x1e8 build/default/production/_ext/1360937237/hdc302x_driver.o
 .debug_aranges
                0x0000000000001420       0xc0 build/default/production/_ext/1360937237/mcp9808_driver.o
 .debug_aranges
                0x00000000000014e0       0x50 build/default/production/_ext/1360937237/rstc_driver.o
 .debug_aranges
                0x0000000000001530       0x58 build/default/production/_ext/1360937237/rtc_driver.o
 .debug_aranges
                0x0000000000001588       0x98 build/default/production/_ext/1360937237/sht4x_driver.o
 .debug_aranges
                0x0000000000001620       0xc0 build/default/production/_ext/1360937237/timer_driver.o
 .debug_aranges
                0x00000000000016e0       0x28 build/default/production/_ext/1360937237/xm125_driver.o
 .debug_aranges
                0x0000000000001708       0x30 c:/applications/microchip/xc32/bin/bin/../../lib/gcc/pic32c/8.3.1/../../../../pic32c/lib/thumb/v6-m/nofp\libpic32c.a(data_init.o)
 .debug_aranges
                0x0000000000001738       0x20 c:/applications/microchip/xc32/bin/bin/../../lib/gcc/pic32c/8.3.1/../../../../pic32c/lib/thumb/v6-m/nofp\libc-size-musl.a(memcpy.o)
 .debug_aranges
                0x0000000000001758       0x20 c:/applications/microchip/xc32/bin/bin/../../lib/gcc/pic32c/8.3.1/../../../../pic32c/lib/thumb/v6-m/nofp\libc-size-musl.a(memset.o)
 .debug_aranges
                0x0000000000001778       0x28 c:/applications/microchip/xc32/bin/bin/../../lib/gcc/pic32c/8.3.1/../../../../pic32c/lib/thumb/v6-m/nofp\libc-musl.a(__libc_start_main.o)
 .debug_aranges
                0x00000000000017a0       0x18 c:/applications/microchip/xc32/bin/bin/../../lib/gcc/pic32c/8.3.1/../../../../pic32c/lib/thumb/v6-m/nofp\libc-musl.a(libc.o)
 .debug_aranges
                0x00000000000017b8       0x18 c:/applications/microchip/xc32/bin/bin/../../lib/gcc/pic32c/8.3.1/../../../../pic32c/lib/thumb/v6-m/nofp\libc-musl.a(__environ.o)
 .debug_aranges
                0x00000000000017d0       0x20 c:/applications/microchip/xc32/bin/bin/../../lib/gcc/pic32c/8.3.1/thumb/v6-m/nofp\libgcc.a(_udivsi3.o)
 .debug_aranges
                0x00000000000017f0       0x20 c:/applications/microchip/xc32/bin/bin/../../lib/gcc/pic32c/8.3.1/thumb/v6-m/nofp\libgcc.a(_dvmd_tls.o)
 .debug_aranges
                0x0000000000001810       0x20 c:/applications/microchip/xc32/bin/bin/../../lib/gcc/pic32c/8.3.1/thumb/v6-m/nofp\libgcc.a(_aeabi_uldivmod.o)
 .debug_aranges
                0x0000000000001830       0x20 c:/applications/microchip/xc32/bin/bin/../../lib/gcc/pic32c/8.3.1/thumb/v6-m/nofp\libgcc.a(_muldi3.o)
 .debug_aranges
                0x0000000000001850       0x20 c:/applications/microchip/xc32/bin/bin/../../lib/gcc/pic32c/8.3.1/thumb/v6-m/nofp\libgcc.a(_udivmoddi4.o)
 .debug_aranges
                0x0000000000001870       0x20 c:/applications/microchip/xc32/bin/bin/../../lib/gcc/pic32c/8.3.1/thumb/v6-m/nofp\libgcc.a(_lshrdi3.o)
 .debug_aranges
                0x0000000000001890       0x20 c:/applications/microchip/xc32/bin/bin/../../lib/gcc/pic32c/8.3.1/thumb/v6-m/nofp\libgcc.a(_ashldi3.o)
 .debug_aranges
                0x00000000000018b0       0x20 c:/applications/microchip/xc32/bin/bin/../../lib/gcc/pic32c/8.3.1/thumb/v6-m/nofp\libgcc.a(_clzdi2.o)
 .debug_aranges
                0x00000000000018d0       0x20 c:/applications/microchip/xc32/bin/bin/../../lib/gcc/pic32c/8.3.1/thumb/v6-m/nofp\libgcc.a(_clzsi2.o)
 .debug_aranges
                0x00000000000018f0       0x20 c:/applications/microchip/xc32/bin/bin/../../lib/gcc/pic32c/8.3.1/../../../../pic32c/lib/thumb/v6-m/nofp\libpic32c.a(pic32_data_init_clear.o)
 .debug_aranges
                0x0000000000001910       0x20 c:/applications/microchip/xc32/bin/bin/../../lib/gcc/pic32c/8.3.1/../../../../pic32c/lib/thumb/v6-m/nofp\libpic32c.a(pic32_data_init_copy.o)

.debug_ranges   0x0000000000000000     0x1d08
 .debug_ranges  0x0000000000000000       0x20 build/default/production/_ext/1865616679/plib_supc.o
 .debug_ranges  0x0000000000000020       0x70 build/default/production/_ext/60163342/plib_adc0.o
 .debug_ranges  0x0000000000000090       0x20 build/default/production/_ext/1984496892/plib_clock.o
 .debug_ranges  0x00000000000000b0      0x130 build/default/production/_ext/508257091/plib_sercom0_i2c_master.o
 .debug_ranges  0x00000000000001e0       0x18 build/default/production/_ext/14461671/sys_dma.o
 .debug_ranges  0x00000000000001f8       0x68 build/default/production/_ext/829342655/plib_tc0.o
 .debug_ranges  0x0000000000000260       0x48 build/default/production/_ext/1987437027/plib_freqm.o
 .debug_ranges  0x00000000000002a8       0x10 build/default/production/_ext/1171490990/tasks.o
 .debug_ranges  0x00000000000002b8       0x10 build/default/production/_ext/1171490990/initialization.o
 .debug_ranges  0x00000000000002c8       0x68 build/default/production/_ext/17022449/plib_sercom1_spi_master.o
 .debug_ranges  0x0000000000000330       0x28 build/default/production/_ext/1171490990/interrupts.o
 .debug_ranges  0x0000000000000358       0x60 build/default/production/_ext/829342655/plib_tc1.o
 .debug_ranges  0x00000000000003b8       0x90 build/default/production/_ext/1832805299/sys_console.o
 .debug_ranges  0x0000000000000448       0x20 build/default/production/_ext/60166132/plib_dac.o
 .debug_ranges  0x0000000000000468      0x120 build/default/production/_ext/504274921/plib_sercom3_usart.o
 .debug_ranges  0x0000000000000588       0x30 build/default/production/_ext/60167341/plib_eic.o
 .debug_ranges  0x00000000000005b8       0x10 build/default/production/_ext/1360937237/main.o
 .debug_ranges  0x00000000000005c8      0x1a0 build/default/production/_ext/101884895/sys_time.o
 .debug_ranges  0x0000000000000768       0x20 build/default/production/_ext/829342769/plib_pm.o
 .debug_ranges  0x0000000000000788       0xa0 build/default/production/_ext/1865161661/plib_dmac.o
 .debug_ranges  0x0000000000000828       0xa0 build/default/production/_ext/1593096446/plib_nvmctrl.o
 .debug_ranges  0x00000000000008c8       0x10 build/default/production/_ext/60165242/plib_ccl.o
 .debug_ranges  0x00000000000008d8       0x90 build/default/production/_ext/60165182/plib_can0.o
 .debug_ranges  0x0000000000000968       0x50 build/default/production/_ext/1865468468/plib_nvic.o
 .debug_ranges  0x00000000000009b8       0x58 build/default/production/_ext/1865521619/plib_port.o
 .debug_ranges  0x0000000000000a10       0x48 build/default/production/_ext/1881668453/sys_int.o
 .debug_ranges  0x0000000000000a58       0x18 build/default/production/_ext/1171490990/startup_xc32.o
 .debug_ranges  0x0000000000000a70      0x248 build/default/production/_ext/869808652/drv_usart.o
 .debug_ranges  0x0000000000000cb8       0x70 build/default/production/_ext/60181570/plib_tcc0.o
 .debug_ranges  0x0000000000000d28      0x190 build/default/production/_ext/158385033/drv_i2c.o
 .debug_ranges  0x0000000000000eb8       0x40 build/default/production/_ext/1865510628/plib_pdec.o
 .debug_ranges  0x0000000000000ef8      0x1d0 build/default/production/_ext/2070931557/drv_spi.o
 .debug_ranges  0x00000000000010c8       0x10 build/default/production/_ext/1865585090/plib_rstc.o
 .debug_ranges  0x00000000000010d8       0x78 build/default/production/_ext/60180175/plib_rtc_timer.o
 .debug_ranges  0x0000000000001150       0x10 build/default/production/_ext/1986646378/plib_evsys.o
 .debug_ranges  0x0000000000001160      0x1a8 build/default/production/_ext/1832805299/sys_console_uart.o
 .debug_ranges  0x0000000000001308       0x18 build/default/production/_ext/1171490990/exceptions.o
 .debug_ranges  0x0000000000001320      0x1e8 build/default/production/_ext/504274921/plib_sercom2_usart.o
 .debug_ranges  0x0000000000001508      0x1d8 build/default/production/_ext/1360937237/bme690_driver.o
 .debug_ranges  0x00000000000016e0       0xc8 build/default/production/_ext/1360937237/can0_driver.o
 .debug_ranges  0x00000000000017a8       0x18 build/default/production/_ext/1360937237/console_driver.o
 .debug_ranges  0x00000000000017c0       0x18 build/default/production/_ext/1360937237/fcm360w_driver.o
 .debug_ranges  0x00000000000017d8      0x1f0 build/default/production/_ext/1360937237/hdc302x_driver.o
 .debug_ranges  0x00000000000019c8       0xb0 build/default/production/_ext/1360937237/mcp9808_driver.o
 .debug_ranges  0x0000000000001a78       0x40 build/default/production/_ext/1360937237/rstc_driver.o
 .debug_ranges  0x0000000000001ab8       0x48 build/default/production/_ext/1360937237/rtc_driver.o
 .debug_ranges  0x0000000000001b00       0x88 build/default/production/_ext/1360937237/sht4x_driver.o
 .debug_ranges  0x0000000000001b88       0xb0 build/default/production/_ext/1360937237/timer_driver.o
 .debug_ranges  0x0000000000001c38       0x18 build/default/production/_ext/1360937237/xm125_driver.o
 .debug_ranges  0x0000000000001c50       0x20 c:/applications/microchip/xc32/bin/bin/../../lib/gcc/pic32c/8.3.1/../../../../pic32c/lib/thumb/v6-m/nofp\libpic32c.a(data_init.o)
 .debug_ranges  0x0000000000001c70       0x10 c:/applications/microchip/xc32/bin/bin/../../lib/gcc/pic32c/8.3.1/../../../../pic32c/lib/thumb/v6-m/nofp\libc-size-musl.a(memcpy.o)
 .debug_ranges  0x0000000000001c80       0x10 c:/applications/microchip/xc32/bin/bin/../../lib/gcc/pic32c/8.3.1/../../../../pic32c/lib/thumb/v6-m/nofp\libc-size-musl.a(memset.o)
 .debug_ranges  0x0000000000001c90       0x30 c:/applications/microchip/xc32/bin/bin/../../lib/gcc/pic32c/8.3.1/../../../../pic32c/lib/thumb/v6-m/nofp\libc-musl.a(__libc_start_main.o)
 .debug_ranges  0x0000000000001cc0       0x28 c:/applications/microchip/xc32/bin/bin/../../lib/gcc/pic32c/8.3.1/thumb/v6-m/nofp\libgcc.a(_muldi3.o)
 .debug_ranges  0x0000000000001ce8       0x10 c:/applications/microchip/xc32/bin/bin/../../lib/gcc/pic32c/8.3.1/../../../../pic32c/lib/thumb/v6-m/nofp\libpic32c.a(pic32_data_init_clear.o)
 .debug_ranges  0x0000000000001cf8       0x10 c:/applications/microchip/xc32/bin/bin/../../lib/gcc/pic32c/8.3.1/../../../../pic32c/lib/thumb/v6-m/nofp\libpic32c.a(pic32_data_init_copy.o)

.debug_line     0x0000000000000000    0x1143e
 .debug_line    0x0000000000000000      0x1cc build/default/production/_ext/1865616679/plib_supc.o
 .debug_line    0x00000000000001cc      0x399 build/default/production/_ext/60163342/plib_adc0.o
 .debug_line    0x0000000000000565      0x439 build/default/production/_ext/1984496892/plib_clock.o
 .debug_line    0x000000000000099e      0x92f build/default/production/_ext/508257091/plib_sercom0_i2c_master.o
 .debug_line    0x00000000000012cd      0x141 build/default/production/_ext/14461671/sys_dma.o
 .debug_line    0x000000000000140e      0x374 build/default/production/_ext/829342655/plib_tc0.o
 .debug_line    0x0000000000001782      0x1e2 build/default/production/_ext/1987437027/plib_freqm.o
 .debug_line    0x0000000000001964      0x122 build/default/production/_ext/1171490990/tasks.o
 .debug_line    0x0000000000001a86      0xa3b build/default/production/_ext/1171490990/initialization.o
 .debug_line    0x00000000000024c1      0x791 build/default/production/_ext/17022449/plib_sercom1_spi_master.o
 .debug_line    0x0000000000002c52      0x13f build/default/production/_ext/1171490990/interrupts.o
 .debug_line    0x0000000000002d91      0x342 build/default/production/_ext/829342655/plib_tc1.o
 .debug_line    0x00000000000030d3      0x64b build/default/production/_ext/1832805299/sys_console.o
 .debug_line    0x000000000000371e      0x160 build/default/production/_ext/60166132/plib_dac.o
 .debug_line    0x000000000000387e      0x9d0 build/default/production/_ext/504274921/plib_sercom3_usart.o
 .debug_line    0x000000000000424e      0x2c0 build/default/production/_ext/60167341/plib_eic.o
 .debug_line    0x000000000000450e       0x6d build/default/production/_ext/1360937237/main.o
 .debug_line    0x000000000000457b     0x1213 build/default/production/_ext/101884895/sys_time.o
 .debug_line    0x000000000000578e      0x150 build/default/production/_ext/829342769/plib_pm.o
 .debug_line    0x00000000000058de      0x76a build/default/production/_ext/1865161661/plib_dmac.o
 .debug_line    0x0000000000006048      0x49b build/default/production/_ext/1593096446/plib_nvmctrl.o
 .debug_line    0x00000000000064e3      0x129 build/default/production/_ext/60165242/plib_ccl.o
 .debug_line    0x000000000000660c      0x8e2 build/default/production/_ext/60165182/plib_can0.o
 .debug_line    0x0000000000006eee      0x5f8 build/default/production/_ext/1865468468/plib_nvic.o
 .debug_line    0x00000000000074e6      0x28f build/default/production/_ext/1865521619/plib_port.o
 .debug_line    0x0000000000007775      0x2cc build/default/production/_ext/1881668453/sys_int.o
 .debug_line    0x0000000000007a41      0x234 build/default/production/_ext/1171490990/startup_xc32.o
 .debug_line    0x0000000000007c75     0x1432 build/default/production/_ext/869808652/drv_usart.o
 .debug_line    0x00000000000090a7      0x3b1 build/default/production/_ext/60181570/plib_tcc0.o
 .debug_line    0x0000000000009458      0xf70 build/default/production/_ext/158385033/drv_i2c.o
 .debug_line    0x000000000000a3c8      0x2da build/default/production/_ext/1865510628/plib_pdec.o
 .debug_line    0x000000000000a6a2     0x1506 build/default/production/_ext/2070931557/drv_spi.o
 .debug_line    0x000000000000bba8       0xfa build/default/production/_ext/1865585090/plib_rstc.o
 .debug_line    0x000000000000bca2      0x3b3 build/default/production/_ext/60180175/plib_rtc_timer.o
 .debug_line    0x000000000000c055       0x66 build/default/production/_ext/1986646378/plib_evsys.o
 .debug_line    0x000000000000c0bb      0x603 build/default/production/_ext/1832805299/sys_console_uart.o
 .debug_line    0x000000000000c6be       0x6f build/default/production/_ext/1171490990/exceptions.o
 .debug_line    0x000000000000c72d      0xd39 build/default/production/_ext/504274921/plib_sercom2_usart.o
 .debug_line    0x000000000000d466      0x727 build/default/production/_ext/1360937237/bme690_driver.o
 .debug_line    0x000000000000db8d      0x59b build/default/production/_ext/1360937237/can0_driver.o
 .debug_line    0x000000000000e128       0x96 build/default/production/_ext/1360937237/console_driver.o
 .debug_line    0x000000000000e1be       0xf9 build/default/production/_ext/1360937237/fcm360w_driver.o
 .debug_line    0x000000000000e2b7      0xc13 build/default/production/_ext/1360937237/hdc302x_driver.o
 .debug_line    0x000000000000eeca      0x702 build/default/production/_ext/1360937237/mcp9808_driver.o
 .debug_line    0x000000000000f5cc      0x43f build/default/production/_ext/1360937237/rstc_driver.o
 .debug_line    0x000000000000fa0b      0x2e4 build/default/production/_ext/1360937237/rtc_driver.o
 .debug_line    0x000000000000fcef      0x59b build/default/production/_ext/1360937237/sht4x_driver.o
 .debug_line    0x000000000001028a      0x38d build/default/production/_ext/1360937237/timer_driver.o
 .debug_line    0x0000000000010617       0x92 build/default/production/_ext/1360937237/xm125_driver.o
 .debug_line    0x00000000000106a9       0xa5 c:/applications/microchip/xc32/bin/bin/../../lib/gcc/pic32c/8.3.1/../../../../pic32c/lib/thumb/v6-m/nofp\libpic32c.a(data_init.o)
 .debug_line    0x000000000001074e       0xee c:/applications/microchip/xc32/bin/bin/../../lib/gcc/pic32c/8.3.1/../../../../pic32c/lib/thumb/v6-m/nofp\libc-size-musl.a(memcpy.o)
 .debug_line    0x000000000001083c       0xe3 c:/applications/microchip/xc32/bin/bin/../../lib/gcc/pic32c/8.3.1/../../../../pic32c/lib/thumb/v6-m/nofp\libc-size-musl.a(memset.o)
 .debug_line    0x000000000001091f      0x1bc c:/applications/microchip/xc32/bin/bin/../../lib/gcc/pic32c/8.3.1/../../../../pic32c/lib/thumb/v6-m/nofp\libc-musl.a(__libc_start_main.o)
 .debug_line    0x0000000000010adb       0xb5 c:/applications/microchip/xc32/bin/bin/../../lib/gcc/pic32c/8.3.1/../../../../pic32c/lib/thumb/v6-m/nofp\libc-musl.a(libc.o)
 .debug_line    0x0000000000010b90       0xfb c:/applications/microchip/xc32/bin/bin/../../lib/gcc/pic32c/8.3.1/../../../../pic32c/lib/thumb/v6-m/nofp\libc-musl.a(__environ.o)
 .debug_line    0x0000000000010c8b       0xa8 c:/applications/microchip/xc32/bin/bin/../../lib/gcc/pic32c/8.3.1/thumb/v6-m/nofp\libgcc.a(_udivsi3.o)
 .debug_line    0x0000000000010d33       0x91 c:/applications/microchip/xc32/bin/bin/../../lib/gcc/pic32c/8.3.1/thumb/v6-m/nofp\libgcc.a(_dvmd_tls.o)
 .debug_line    0x0000000000010dc4       0x9c c:/applications/microchip/xc32/bin/bin/../../lib/gcc/pic32c/8.3.1/thumb/v6-m/nofp\libgcc.a(_aeabi_uldivmod.o)
 .debug_line    0x0000000000010e60       0xe7 c:/applications/microchip/xc32/bin/bin/../../lib/gcc/pic32c/8.3.1/thumb/v6-m/nofp\libgcc.a(_muldi3.o)
 .debug_line    0x0000000000010f47      0x188 c:/applications/microchip/xc32/bin/bin/../../lib/gcc/pic32c/8.3.1/thumb/v6-m/nofp\libgcc.a(_udivmoddi4.o)
 .debug_line    0x00000000000110cf       0x9c c:/applications/microchip/xc32/bin/bin/../../lib/gcc/pic32c/8.3.1/thumb/v6-m/nofp\libgcc.a(_lshrdi3.o)
 .debug_line    0x000000000001116b       0x9c c:/applications/microchip/xc32/bin/bin/../../lib/gcc/pic32c/8.3.1/thumb/v6-m/nofp\libgcc.a(_ashldi3.o)
 .debug_line    0x0000000000011207       0x9b c:/applications/microchip/xc32/bin/bin/../../lib/gcc/pic32c/8.3.1/thumb/v6-m/nofp\libgcc.a(_clzdi2.o)
 .debug_line    0x00000000000112a2       0xa5 c:/applications/microchip/xc32/bin/bin/../../lib/gcc/pic32c/8.3.1/thumb/v6-m/nofp\libgcc.a(_clzsi2.o)
 .debug_line    0x0000000000011347       0x6f c:/applications/microchip/xc32/bin/bin/../../lib/gcc/pic32c/8.3.1/../../../../pic32c/lib/thumb/v6-m/nofp\libpic32c.a(pic32_data_init_clear.o)
 .debug_line    0x00000000000113b6       0x88 c:/applications/microchip/xc32/bin/bin/../../lib/gcc/pic32c/8.3.1/../../../../pic32c/lib/thumb/v6-m/nofp\libpic32c.a(pic32_data_init_copy.o)

.debug_str      0x0000000000000000    0x1e456
 .debug_str     0x0000000000000000      0x40a build/default/production/_ext/1865616679/plib_supc.o
 .debug_str     0x000000000000040a      0x7ef build/default/production/_ext/60163342/plib_adc0.o
 .debug_str     0x0000000000000bf9      0x740 build/default/production/_ext/1984496892/plib_clock.o
 .debug_str     0x0000000000001339      0x99b build/default/production/_ext/508257091/plib_sercom0_i2c_master.o
 .debug_str     0x0000000000001cd4      0x670 build/default/production/_ext/14461671/sys_dma.o
 .debug_str     0x0000000000002344      0x632 build/default/production/_ext/829342655/plib_tc0.o
 .debug_str     0x0000000000002976      0x437 build/default/production/_ext/1987437027/plib_freqm.o
 .debug_str     0x0000000000002dad      0x3a6 build/default/production/_ext/1171490990/tasks.o
 .debug_str     0x0000000000003153     0x2a78 build/default/production/_ext/1171490990/initialization.o
 .debug_str     0x0000000000005bcb      0x851 build/default/production/_ext/17022449/plib_sercom1_spi_master.o
 .debug_str     0x000000000000641c      0x781 build/default/production/_ext/1171490990/interrupts.o
 .debug_str     0x0000000000006b9d      0x611 build/default/production/_ext/829342655/plib_tc1.o
 .debug_str     0x00000000000071ae      0xa82 build/default/production/_ext/1832805299/sys_console.o
 .debug_str     0x0000000000007c30      0x3d9 build/default/production/_ext/60166132/plib_dac.o
 .debug_str     0x0000000000008009      0xac1 build/default/production/_ext/504274921/plib_sercom3_usart.o
 .debug_str     0x0000000000008aca      0x4a8 build/default/production/_ext/60167341/plib_eic.o
 .debug_str     0x0000000000008f72      0x2e7 build/default/production/_ext/1360937237/main.o
 .debug_str     0x0000000000009259      0xf5c build/default/production/_ext/101884895/sys_time.o
 .debug_str     0x000000000000a1b5      0x35c build/default/production/_ext/829342769/plib_pm.o
 .debug_str     0x000000000000a511      0x93f build/default/production/_ext/1865161661/plib_dmac.o
 .debug_str     0x000000000000ae50      0x6a7 build/default/production/_ext/1593096446/plib_nvmctrl.o
 .debug_str     0x000000000000b4f7      0x338 build/default/production/_ext/60165242/plib_ccl.o
 .debug_str     0x000000000000b82f      0xe84 build/default/production/_ext/60165182/plib_can0.o
 .debug_str     0x000000000000c6b3      0x690 build/default/production/_ext/1865468468/plib_nvic.o
 .debug_str     0x000000000000cd43      0x73f build/default/production/_ext/1865521619/plib_port.o
 .debug_str     0x000000000000d482      0x63e build/default/production/_ext/1881668453/sys_int.o
 .debug_str     0x000000000000dac0      0x40a build/default/production/_ext/1171490990/startup_xc32.o
 .debug_str     0x000000000000deca     0x1971 build/default/production/_ext/869808652/drv_usart.o
 .debug_str     0x000000000000f83b      0x5bf build/default/production/_ext/60181570/plib_tcc0.o
 .debug_str     0x000000000000fdfa     0x11f4 build/default/production/_ext/158385033/drv_i2c.o
 .debug_str     0x0000000000010fee      0x4ae build/default/production/_ext/1865510628/plib_pdec.o
 .debug_str     0x000000000001149c     0x1d65 build/default/production/_ext/2070931557/drv_spi.o
 .debug_str     0x0000000000013201      0x333 build/default/production/_ext/1865585090/plib_rstc.o
 .debug_str     0x0000000000013534      0x624 build/default/production/_ext/60180175/plib_rtc_timer.o
 .debug_str     0x0000000000013b58      0x2f4 build/default/production/_ext/1986646378/plib_evsys.o
 .debug_str     0x0000000000013e4c      0xb3d build/default/production/_ext/1832805299/sys_console_uart.o
 .debug_str     0x0000000000014989      0x307 build/default/production/_ext/1171490990/exceptions.o
 .debug_str     0x0000000000014c90      0xdef build/default/production/_ext/504274921/plib_sercom2_usart.o
 .debug_str     0x0000000000015a7f      0xfe9 build/default/production/_ext/1360937237/bme690_driver.o
 .debug_str     0x0000000000016a68      0xd3a build/default/production/_ext/1360937237/can0_driver.o
 .debug_str     0x00000000000177a2      0x38b build/default/production/_ext/1360937237/console_driver.o
 .debug_str     0x0000000000017b2d      0x413 build/default/production/_ext/1360937237/fcm360w_driver.o
 .debug_str     0x0000000000017f40     0x11bf build/default/production/_ext/1360937237/hdc302x_driver.o
 .debug_str     0x00000000000190ff      0xefc build/default/production/_ext/1360937237/mcp9808_driver.o
 .debug_str     0x0000000000019ffb      0x621 build/default/production/_ext/1360937237/rstc_driver.o
 .debug_str     0x000000000001a61c      0x618 build/default/production/_ext/1360937237/rtc_driver.o
 .debug_str     0x000000000001ac34     0x1006 build/default/production/_ext/1360937237/sht4x_driver.o
 .debug_str     0x000000000001bc3a      0x68e build/default/production/_ext/1360937237/timer_driver.o
 .debug_str     0x000000000001c2c8      0x37b build/default/production/_ext/1360937237/xm125_driver.o
 .debug_str     0x000000000001c643      0x1fc c:/applications/microchip/xc32/bin/bin/../../lib/gcc/pic32c/8.3.1/../../../../pic32c/lib/thumb/v6-m/nofp\libpic32c.a(data_init.o)
 .debug_str     0x000000000001c83f      0x225 c:/applications/microchip/xc32/bin/bin/../../lib/gcc/pic32c/8.3.1/../../../../pic32c/lib/thumb/v6-m/nofp\libc-size-musl.a(memcpy.o)
 .debug_str     0x000000000001ca64      0x211 c:/applications/microchip/xc32/bin/bin/../../lib/gcc/pic32c/8.3.1/../../../../pic32c/lib/thumb/v6-m/nofp\libc-size-musl.a(memset.o)
 .debug_str     0x000000000001cc75      0x3ca c:/applications/microchip/xc32/bin/bin/../../lib/gcc/pic32c/8.3.1/../../../../pic32c/lib/thumb/v6-m/nofp\libc-musl.a(__libc_start_main.o)
 .debug_str     0x000000000001d03f      0x335 c:/applications/microchip/xc32/bin/bin/../../lib/gcc/pic32c/8.3.1/../../../../pic32c/lib/thumb/v6-m/nofp\libc-musl.a(libc.o)
 .debug_str     0x000000000001d374      0x235 c:/applications/microchip/xc32/bin/bin/../../lib/gcc/pic32c/8.3.1/../../../../pic32c/lib/thumb/v6-m/nofp\libc-musl.a(__environ.o)
 .debug_str     0x000000000001d5a9       0xd6 c:/applications/microchip/xc32/bin/bin/../../lib/gcc/pic32c/8.3.1/thumb/v6-m/nofp\libgcc.a(_udivsi3.o)
 .debug_str     0x000000000001d67f       0xd6 c:/applications/microchip/xc32/bin/bin/../../lib/gcc/pic32c/8.3.1/thumb/v6-m/nofp\libgcc.a(_dvmd_tls.o)
 .debug_str     0x000000000001d755       0xd6 c:/applications/microchip/xc32/bin/bin/../../lib/gcc/pic32c/8.3.1/thumb/v6-m/nofp\libgcc.a(_aeabi_uldivmod.o)
 .debug_str     0x000000000001d82b      0x2af c:/applications/microchip/xc32/bin/bin/../../lib/gcc/pic32c/8.3.1/thumb/v6-m/nofp\libgcc.a(_muldi3.o)
 .debug_str     0x000000000001dada      0x27c c:/applications/microchip/xc32/bin/bin/../../lib/gcc/pic32c/8.3.1/thumb/v6-m/nofp\libgcc.a(_udivmoddi4.o)
 .debug_str     0x000000000001dd56       0xd6 c:/applications/microchip/xc32/bin/bin/../../lib/gcc/pic32c/8.3.1/thumb/v6-m/nofp\libgcc.a(_lshrdi3.o)
 .debug_str     0x000000000001de2c       0xd6 c:/applications/microchip/xc32/bin/bin/../../lib/gcc/pic32c/8.3.1/thumb/v6-m/nofp\libgcc.a(_ashldi3.o)
 .debug_str     0x000000000001df02       0xd6 c:/applications/microchip/xc32/bin/bin/../../lib/gcc/pic32c/8.3.1/thumb/v6-m/nofp\libgcc.a(_clzdi2.o)
 .debug_str     0x000000000001dfd8       0xd6 c:/applications/microchip/xc32/bin/bin/../../lib/gcc/pic32c/8.3.1/thumb/v6-m/nofp\libgcc.a(_clzsi2.o)
 .debug_str     0x000000000001e0ae      0x1d5 c:/applications/microchip/xc32/bin/bin/../../lib/gcc/pic32c/8.3.1/../../../../pic32c/lib/thumb/v6-m/nofp\libpic32c.a(pic32_data_init_clear.o)
 .debug_str     0x000000000001e283      0x1d3 c:/applications/microchip/xc32/bin/bin/../../lib/gcc/pic32c/8.3.1/../../../../pic32c/lib/thumb/v6-m/nofp\libpic32c.a(pic32_data_init_copy.o)

.debug_frame    0x0000000000000000     0x35c4
 .debug_frame   0x0000000000000000       0x50 build/default/production/_ext/1865616679/plib_supc.o
 .debug_frame   0x0000000000000050       0xe0 build/default/production/_ext/60163342/plib_adc0.o
 .debug_frame   0x0000000000000130       0x48 build/default/production/_ext/1984496892/plib_clock.o
 .debug_frame   0x0000000000000178      0x124 build/default/production/_ext/508257091/plib_sercom0_i2c_master.o
 .debug_frame   0x000000000000029c       0x48 build/default/production/_ext/14461671/sys_dma.o
 .debug_frame   0x00000000000002e4       0xd8 build/default/production/_ext/829342655/plib_tc0.o
 .debug_frame   0x00000000000003bc       0x68 build/default/production/_ext/1987437027/plib_freqm.o
 .debug_frame   0x0000000000000424       0x28 build/default/production/_ext/1171490990/tasks.o
 .debug_frame   0x000000000000044c       0x28 build/default/production/_ext/1171490990/initialization.o
 .debug_frame   0x0000000000000474       0xd4 build/default/production/_ext/17022449/plib_sercom1_spi_master.o
 .debug_frame   0x0000000000000548       0x68 build/default/production/_ext/1171490990/interrupts.o
 .debug_frame   0x00000000000005b0       0xc8 build/default/production/_ext/829342655/plib_tc1.o
 .debug_frame   0x0000000000000678      0x15c build/default/production/_ext/1832805299/sys_console.o
 .debug_frame   0x00000000000007d4       0x40 build/default/production/_ext/60166132/plib_dac.o
 .debug_frame   0x0000000000000814      0x1f0 build/default/production/_ext/504274921/plib_sercom3_usart.o
 .debug_frame   0x0000000000000a04       0x7c build/default/production/_ext/60167341/plib_eic.o
 .debug_frame   0x0000000000000a80       0x28 build/default/production/_ext/1360937237/main.o
 .debug_frame   0x0000000000000aa8      0x3a0 build/default/production/_ext/101884895/sys_time.o
 .debug_frame   0x0000000000000e48       0x40 build/default/production/_ext/829342769/plib_pm.o
 .debug_frame   0x0000000000000e88      0x18c build/default/production/_ext/1865161661/plib_dmac.o
 .debug_frame   0x0000000000001014      0x16c build/default/production/_ext/1593096446/plib_nvmctrl.o
 .debug_frame   0x0000000000001180       0x20 build/default/production/_ext/60165242/plib_ccl.o
 .debug_frame   0x00000000000011a0      0x180 build/default/production/_ext/60165182/plib_can0.o
 .debug_frame   0x0000000000001320       0x90 build/default/production/_ext/1865468468/plib_nvic.o
 .debug_frame   0x00000000000013b0       0xc8 build/default/production/_ext/1865521619/plib_port.o
 .debug_frame   0x0000000000001478       0x84 build/default/production/_ext/1881668453/sys_int.o
 .debug_frame   0x00000000000014fc       0x40 build/default/production/_ext/1171490990/startup_xc32.o
 .debug_frame   0x000000000000153c      0x348 build/default/production/_ext/869808652/drv_usart.o
 .debug_frame   0x0000000000001884       0xe0 build/default/production/_ext/60181570/plib_tcc0.o
 .debug_frame   0x0000000000001964      0x250 build/default/production/_ext/158385033/drv_i2c.o
 .debug_frame   0x0000000000001bb4       0x80 build/default/production/_ext/1865510628/plib_pdec.o
 .debug_frame   0x0000000000001c34      0x23c build/default/production/_ext/2070931557/drv_spi.o
 .debug_frame   0x0000000000001e70       0x20 build/default/production/_ext/1865585090/plib_rstc.o
 .debug_frame   0x0000000000001e90       0xf8 build/default/production/_ext/60180175/plib_rtc_timer.o
 .debug_frame   0x0000000000001f88       0x20 build/default/production/_ext/1986646378/plib_evsys.o
 .debug_frame   0x0000000000001fa8       0xe8 build/default/production/_ext/1832805299/sys_console_uart.o
 .debug_frame   0x0000000000002090       0x30 build/default/production/_ext/1171490990/exceptions.o
 .debug_frame   0x00000000000020c0      0x254 build/default/production/_ext/504274921/plib_sercom2_usart.o
 .debug_frame   0x0000000000002314      0x420 build/default/production/_ext/1360937237/bme690_driver.o
 .debug_frame   0x0000000000002734      0x120 build/default/production/_ext/1360937237/can0_driver.o
 .debug_frame   0x0000000000002854       0x30 build/default/production/_ext/1360937237/console_driver.o
 .debug_frame   0x0000000000002884       0x30 build/default/production/_ext/1360937237/fcm360w_driver.o
 .debug_frame   0x00000000000028b4      0x530 build/default/production/_ext/1360937237/hdc302x_driver.o
 .debug_frame   0x0000000000002de4      0x1d8 build/default/production/_ext/1360937237/mcp9808_driver.o
 .debug_frame   0x0000000000002fbc       0x90 build/default/production/_ext/1360937237/rstc_driver.o
 .debug_frame   0x000000000000304c       0xa8 build/default/production/_ext/1360937237/rtc_driver.o
 .debug_frame   0x00000000000030f4      0x160 build/default/production/_ext/1360937237/sht4x_driver.o
 .debug_frame   0x0000000000003254      0x1ac build/default/production/_ext/1360937237/timer_driver.o
 .debug_frame   0x0000000000003400       0x30 build/default/production/_ext/1360937237/xm125_driver.o
 .debug_frame   0x0000000000003430       0x48 c:/applications/microchip/xc32/bin/bin/../../lib/gcc/pic32c/8.3.1/../../../../pic32c/lib/thumb/v6-m/nofp\libpic32c.a(data_init.o)
 .debug_frame   0x0000000000003478       0x28 c:/applications/microchip/xc32/bin/bin/../../lib/gcc/pic32c/8.3.1/../../../../pic32c/lib/thumb/v6-m/nofp\libc-size-musl.a(memcpy.o)
 .debug_frame   0x00000000000034a0       0x20 c:/applications/microchip/xc32/bin/bin/../../lib/gcc/pic32c/8.3.1/../../../../pic32c/lib/thumb/v6-m/nofp\libc-size-musl.a(memset.o)
 .debug_frame   0x00000000000034c0       0x38 c:/applications/microchip/xc32/bin/bin/../../lib/gcc/pic32c/8.3.1/../../../../pic32c/lib/thumb/v6-m/nofp\libc-musl.a(__libc_start_main.o)
 .debug_frame   0x00000000000034f8       0x20 c:/applications/microchip/xc32/bin/bin/../../lib/gcc/pic32c/8.3.1/thumb/v6-m/nofp\libgcc.a(_udivsi3.o)
 .debug_frame   0x0000000000003518       0x34 c:/applications/microchip/xc32/bin/bin/../../lib/gcc/pic32c/8.3.1/thumb/v6-m/nofp\libgcc.a(_muldi3.o)
 .debug_frame   0x000000000000354c       0x30 c:/applications/microchip/xc32/bin/bin/../../lib/gcc/pic32c/8.3.1/thumb/v6-m/nofp\libgcc.a(_udivmoddi4.o)
 .debug_frame   0x000000000000357c       0x20 c:/applications/microchip/xc32/bin/bin/../../lib/gcc/pic32c/8.3.1/../../../../pic32c/lib/thumb/v6-m/nofp\libpic32c.a(pic32_data_init_clear.o)
 .debug_frame   0x000000000000359c       0x28 c:/applications/microchip/xc32/bin/bin/../../lib/gcc/pic32c/8.3.1/../../../../pic32c/lib/thumb/v6-m/nofp\libpic32c.a(pic32_data_init_copy.o)

.note.GNU-stack
                0x0000000000000000        0x0
 .note.GNU-stack
                0x0000000000000000        0x0 c:/applications/microchip/xc32/bin/bin/../../lib/gcc/pic32c/8.3.1/../../../../pic32c/lib/thumb/v6-m/nofp\libc-size-musl.a(memcpy.o)
 .note.GNU-stack
                0x0000000000000000        0x0 c:/applications/microchip/xc32/bin/bin/../../lib/gcc/pic32c/8.3.1/../../../../pic32c/lib/thumb/v6-m/nofp\libc-size-musl.a(memset.o)
 .note.GNU-stack
                0x0000000000000000        0x0 c:/applications/microchip/xc32/bin/bin/../../lib/gcc/pic32c/8.3.1/../../../../pic32c/lib/thumb/v6-m/nofp\libc-musl.a(__libc_start_main.o)
 .note.GNU-stack
                0x0000000000000000        0x0 c:/applications/microchip/xc32/bin/bin/../../lib/gcc/pic32c/8.3.1/../../../../pic32c/lib/thumb/v6-m/nofp\libc-musl.a(libc.o)
 .note.GNU-stack
                0x0000000000000000        0x0 c:/applications/microchip/xc32/bin/bin/../../lib/gcc/pic32c/8.3.1/../../../../pic32c/lib/thumb/v6-m/nofp\libc-musl.a(__environ.o)

.stack          0x0000000020009918      0x100
 .stack         0x0000000020009918      0x100 stack

.bss.can0_driverData%1
                0x0000000020000000     0x5b40
 .bss.can0_driverData
                0x0000000020000000     0x5b40 build/default/production/_ext/1360937237/can0_driver.o
                0x0000000020000000                can0_driverData

.bss.SERCOM2_USART_ReadBuffer%2
                0x0000000020005b40     0x1000
 .bss.SERCOM2_USART_ReadBuffer
                0x0000000020005b40     0x1000 build/default/production/_ext/504274921/plib_sercom2_usart.o

.bss.SERCOM2_USART_WriteBuffer%3
                0x0000000020006b40     0x1000
 .bss.SERCOM2_USART_WriteBuffer
                0x0000000020006b40     0x1000 build/default/production/_ext/504274921/plib_sercom2_usart.o

.bss.timers%4   0x0000000020007b40      0x640
 .bss.timers    0x0000000020007b40      0x640 build/default/production/_ext/101884895/sys_time.o

.bss.eicCallbackObject%5
                0x0000000020008180       0xc0
 .bss.eicCallbackObject
                0x0000000020008180       0xc0 build/default/production/_ext/60167341/plib_eic.o

.bss.drvUSART0BufferObjPool%6
                0x0000000020008240       0xb4
 .bss.drvUSART0BufferObjPool
                0x0000000020008240       0xb4 build/default/production/_ext/1171490990/initialization.o

.bss.drvSPI0TransferObjPool%7
                0x00000000200082f4       0x90
 .bss.drvSPI0TransferObjPool
                0x00000000200082f4       0x90 build/default/production/_ext/1171490990/initialization.o

.bss.gDrvSPIObj%8
                0x0000000020008384       0x74
 .bss.gDrvSPIObj
                0x0000000020008384       0x74 build/default/production/_ext/2070931557/drv_spi.o

.bss.gDrvUSARTObj%9
                0x00000000200083f8       0x60
 .bss.gDrvUSARTObj
                0x00000000200083f8       0x60 build/default/production/_ext/869808652/drv_usart.o

.bss.drvI2C0TransferObj%10
                0x0000000020008458       0x58
 .bss.drvI2C0TransferObj
                0x0000000020008458       0x58 build/default/production/_ext/1171490990/initialization.o

.bss%11         0x00000000200084b0       0x50
 .bss           0x00000000200084b0       0x50 c:/applications/microchip/xc32/bin/bin/../../lib/gcc/pic32c/8.3.1/../../../../pic32c/lib/thumb/v6-m/nofp\libc-musl.a(libc.o)
                0x00000000200084b0                __progname_full
                0x00000000200084b0                program_invocation_name
                0x00000000200084b4                program_invocation_short_name
                0x00000000200084b4                __progname
                0x00000000200084b8                __sysinfo
                0x00000000200084bc                __hwcap
                0x00000000200084c0                __libc

.bss.gSystemCounterObj%12
                0x0000000020008500       0x40
 .bss.gSystemCounterObj
                0x0000000020008500       0x40 build/default/production/_ext/101884895/sys_time.o

.bss.descriptor_section%13
                0x0000000020008540       0x40
 .bss.descriptor_section
                0x0000000020008540       0x40 build/default/production/_ext/1865161661/plib_dmac.o

.bss.dmacChannelObj%14
                0x0000000020008580       0x40
 .bss.dmacChannelObj
                0x0000000020008580       0x40 build/default/production/_ext/1865161661/plib_dmac.o

.bss.write_back_section%15
                0x00000000200085c0       0x40
 .bss.write_back_section
                0x00000000200085c0       0x40 build/default/production/_ext/1865161661/plib_dmac.o

.bss.sercom2USARTObj%16
                0x0000000020008600       0x40
 .bss.sercom2USARTObj
                0x0000000020008600       0x40 build/default/production/_ext/504274921/plib_sercom2_usart.o

.bss.can0DataTx%17
                0x0000000020008640       0x40
 .bss.can0DataTx
                0x0000000020008640       0x40 build/default/production/_ext/1360937237/can0_driver.o
                0x0000000020008640                can0DataTx

.bss.gDrvI2CObj%18
                0x0000000020008680       0x3c
 .bss.gDrvI2CObj
                0x0000000020008680       0x3c build/default/production/_ext/158385033/drv_i2c.o

.bss.sercom3USARTObj%19
                0x00000000200086bc       0x30
 .bss.sercom3USARTObj
                0x00000000200086bc       0x30 build/default/production/_ext/504274921/plib_sercom3_usart.o

.bss.sercom0I2CObj%20
                0x00000000200086ec       0x2c
 .bss.sercom0I2CObj
                0x00000000200086ec       0x2c build/default/production/_ext/508257091/plib_sercom0_i2c_master.o

.bss.sercom1SPIObj%21
                0x0000000020008718       0x2c
 .bss.sercom1SPIObj
                0x0000000020008718       0x2c build/default/production/_ext/17022449/plib_sercom1_spi_master.o

.bss.drvSPI0ClientObjPool%22
                0x0000000020008744       0x28
 .bss.drvSPI0ClientObjPool
                0x0000000020008744       0x28 build/default/production/_ext/1171490990/initialization.o

.bss.bme690_driverData%23
                0x000000002000876c       0x20
 .bss.bme690_driverData
                0x000000002000876c       0x20 build/default/production/_ext/1360937237/bme690_driver.o
                0x000000002000876c                bme690_driverData

.bss.hdc302x_driverData%24
                0x000000002000878c       0x20
 .bss.hdc302x_driverData
                0x000000002000878c       0x20 build/default/production/_ext/1360937237/hdc302x_driver.o
                0x000000002000878c                hdc302x_driverData

.bss.mcp9808_driverData%25
                0x00000000200087ac       0x20
 .bss.mcp9808_driverData
                0x00000000200087ac       0x20 build/default/production/_ext/1360937237/mcp9808_driver.o
                0x00000000200087ac                mcp9808_driverData

.bss.sht4x_driverData%26
                0x00000000200087cc       0x20
 .bss.sht4x_driverData
                0x00000000200087cc       0x20 build/default/production/_ext/1360937237/sht4x_driver.o
                0x00000000200087cc                sht4x_driverData

.bss%27         0x00000000200087ec       0x1c
 .bss           0x00000000200087ec       0x1c c:/applications/microchip/xc32/bin/bin/../../lib/gcc/pic32c/8.3.1/thumb/v6-m/nofp/crtbegin.o

.bss.can0Obj%28
                0x0000000020008808       0x1c
 .bss.can0Obj   0x0000000020008808       0x1c build/default/production/_ext/60165182/plib_can0.o

.bss.drvI2C0ClientObjPool%29
                0x0000000020008824       0x18
 .bss.drvI2C0ClientObjPool
                0x0000000020008824       0x18 build/default/production/_ext/1171490990/initialization.o

.bss.sysObj%30  0x000000002000883c       0x14
 .bss.sysObj    0x000000002000883c       0x14 build/default/production/_ext/1171490990/initialization.o
                0x000000002000883c                sysObj

.bss.sht4x_sensorData%31
                0x0000000020008850       0x14
 .bss.sht4x_sensorData
                0x0000000020008850       0x14 build/default/production/_ext/1360937237/sht4x_driver.o
                0x0000000020008850                sht4x_sensorData

.bss.timer_driverData%32
                0x0000000020008864       0x14
 .bss.timer_driverData
                0x0000000020008864       0x14 build/default/production/_ext/1360937237/timer_driver.o
                0x0000000020008864                timer_driverData

.bss.drvUSART0ClientObjPool%33
                0x0000000020008878       0x10
 .bss.drvUSART0ClientObjPool
                0x0000000020008878       0x10 build/default/production/_ext/1171490990/initialization.o

.bss.mcp9808_sensorData%34
                0x0000000020008888       0x10
 .bss.mcp9808_sensorData
                0x0000000020008888       0x10 build/default/production/_ext/1360937237/mcp9808_driver.o
                0x0000000020008888                mcp9808_sensorData

.bss.consoleDeviceInstance%35
                0x0000000020008898        0xc
 .bss.consoleDeviceInstance
                0x0000000020008898        0xc build/default/production/_ext/1832805299/sys_console.o

.bss.rtcObj%36  0x00000000200088a4        0xc
 .bss.rtcObj    0x00000000200088a4        0xc build/default/production/_ext/60180175/plib_rtc_timer.o

.bss.supcCallbackObject%37
                0x00000000200088b0        0x8
 .bss.supcCallbackObject
                0x00000000200088b0        0x8 build/default/production/_ext/1865616679/plib_supc.o

.bss.osc32kctrlObj%38
                0x00000000200088b8        0x8
 .bss.osc32kctrlObj
                0x00000000200088b8        0x8 build/default/production/_ext/1984496892/plib_clock.o

.bss.TC0_CallbackObject%39
                0x00000000200088c0        0x8
 .bss.TC0_CallbackObject
                0x00000000200088c0        0x8 build/default/production/_ext/829342655/plib_tc0.o

.bss.TC1_CallbackObject%40
                0x00000000200088c8        0x8
 .bss.TC1_CallbackObject
                0x00000000200088c8        0x8 build/default/production/_ext/829342655/plib_tc1.o

.bss.gConsoleUartData%41
                0x00000000200088d0        0x8
 .bss.gConsoleUartData
                0x00000000200088d0        0x8 build/default/production/_ext/1832805299/sys_console_uart.o

.bss.rtc_driverData%42
                0x00000000200088d8        0x8
 .bss.rtc_driverData
                0x00000000200088d8        0x8 build/default/production/_ext/1360937237/rtc_driver.o
                0x00000000200088d8                rtc_driverData

.bss.txDummyData%43
                0x00000000200088e0        0x4
 .bss.txDummyData
                0x00000000200088e0        0x4 build/default/production/_ext/2070931557/drv_spi.o

.bss.rstc_driverData%44
                0x00000000200088e4        0x4
 .bss.rstc_driverData
                0x00000000200088e4        0x4 build/default/production/_ext/1360937237/rstc_driver.o
                0x00000000200088e4                rstc_driverData

.bss%45         0x00000000200088e8        0x4
 .bss           0x00000000200088e8        0x4 c:/applications/microchip/xc32/bin/bin/../../lib/gcc/pic32c/8.3.1/../../../../pic32c/lib/thumb/v6-m/nofp\libpic32c.a(data_init.o)

.bss%46         0x00000000200088ec        0x4
 .bss           0x00000000200088ec        0x4 c:/applications/microchip/xc32/bin/bin/../../lib/gcc/pic32c/8.3.1/../../../../pic32c/lib/thumb/v6-m/nofp\libc-musl.a(__environ.o)
                0x00000000200088ec                __environ
                0x00000000200088ec                environ
                0x00000000200088ec                ___environ
                0x00000000200088ec                _environ

.bss.xm125_driverData%47
                0x00000000200088f0        0x1
 .bss.xm125_driverData
                0x00000000200088f0        0x1 build/default/production/_ext/1360937237/xm125_driver.o
                0x00000000200088f0                xm125_driverData

.bss.fcm360w_driverData%48
                0x00000000200088f4        0x1
 .bss.fcm360w_driverData
                0x00000000200088f4        0x1 build/default/production/_ext/1360937237/fcm360w_driver.o
                0x00000000200088f4                fcm360w_driverData

.bss.console_driverData%49
                0x00000000200088f8        0x1
 .bss.console_driverData
                0x00000000200088f8        0x1 build/default/production/_ext/1360937237/console_driver.o
                0x00000000200088f8                console_driverData

.bss.isLastByteTransferInProgress.5778%50
                0x00000000200088f1        0x1
 .bss.isLastByteTransferInProgress.5778
                0x00000000200088f1        0x1 build/default/production/_ext/17022449/plib_sercom1_spi_master.o

.bss.consolePrintBufferMutex%51
                0x00000000200088f2        0x1
 .bss.consolePrintBufferMutex
                0x00000000200088f2        0x1 build/default/production/_ext/1832805299/sys_console.o

.bss.isConsoleMutexCreated%52
                0x00000000200088f3        0x1
 .bss.isConsoleMutexCreated
                0x00000000200088f3        0x1 build/default/production/_ext/1832805299/sys_console.o

.data.gSysTimeTokenCount%53
                0x00000000200088f6        0x2
 .data.gSysTimeTokenCount
                0x00000000200088f6        0x2 build/default/production/_ext/101884895/sys_time.o

.eh_frame%z1    0x0000000000000000        0x0
 .eh_frame      0x0000000000000000        0x0 c:/applications/microchip/xc32/bin/bin/../../lib/gcc/pic32c/8.3.1/thumb/v6-m/nofp/crtbegin.o

.config_00804000.__config_00804000%54
                0x0000000000804000        0x4
 .config_00804000.__config_00804000
                0x0000000000804000        0x4 build/default/production/_ext/1171490990/initialization.o
                0x0000000000804000                __config_00804000

.config_00804004.__config_00804004%55
                0x0000000000804004        0x4
 .config_00804004.__config_00804004
                0x0000000000804004        0x4 build/default/production/_ext/1171490990/initialization.o
                0x0000000000804004                __config_00804004

.text.MCP9808_DRIVER_Tasks%56
                0x00000000000000e8      0x294
 .text.MCP9808_DRIVER_Tasks
                0x00000000000000e8      0x294 build/default/production/_ext/1360937237/mcp9808_driver.o
                0x00000000000000e8                MCP9808_DRIVER_Tasks

.text.lDRV_I2C_WriteReadTransferAdd%57
                0x000000000000037c      0x254
 .text.lDRV_I2C_WriteReadTransferAdd
                0x000000000000037c      0x254 build/default/production/_ext/158385033/drv_i2c.o

.dinit%58       0x00000000000005d0      0x240
 .dinit         0x00000000000005d0      0x240 data_init

.text.CAN0_DRIVER_Tasks%59
                0x0000000000000810      0x1d0
 .text.CAN0_DRIVER_Tasks
                0x0000000000000810      0x1d0 build/default/production/_ext/1360937237/can0_driver.o
                0x0000000000000810                CAN0_DRIVER_Tasks

.text.CLOCK_Initialize%60
                0x00000000000009e0      0x1c8
 .text.CLOCK_Initialize
                0x00000000000009e0      0x1c8 build/default/production/_ext/1984496892/plib_clock.o
                0x00000000000009e0                CLOCK_Initialize

.text.__aeabi_dadd%61
                0x0000000000000ba8      0x1c8
 .text.__aeabi_dadd
                0x0000000000000ba8      0x1c8 c:/applications/microchip/xc32/bin/bin/../../lib/gcc/pic32c/8.3.1/../../../../pic32c/lib/thumb/v6-m/nofp\libm-fast-emfloat.a(__aeabi_dadd.o)
                0x0000000000000ba8                __aeabi_dadd
                0x0000000000000bae                .L__aeabi_dadd_fast_entry

.text.SERCOM0_I2C_InterruptHandler%62
                0x0000000000000d70      0x1bc
 .text.SERCOM0_I2C_InterruptHandler
                0x0000000000000d70      0x1bc build/default/production/_ext/508257091/plib_sercom0_i2c_master.o
                0x0000000000000d70                SERCOM0_I2C_InterruptHandler

.text.SHT4X_DRIVER_Tasks%63
                0x0000000000000f2c      0x1b4
 .text.SHT4X_DRIVER_Tasks
                0x0000000000000f2c      0x1b4 build/default/production/_ext/1360937237/sht4x_driver.o
                0x0000000000000f2c                SHT4X_DRIVER_Tasks

.text.__aeabi_dmul_aux%64
                0x00000000000010e0      0x18a
 .text.__aeabi_dmul_aux
                0x00000000000010e0      0x18a c:/applications/microchip/xc32/bin/bin/../../lib/gcc/pic32c/8.3.1/../../../../pic32c/lib/thumb/v6-m/nofp\libm-fast-emfloat.a(__aeabi_dmul_aux.o)
                0x00000000000010e0                __aeabi_dmul_aux
                0x0000000000001118                __aeabi_dmul

.text.SERCOM1_SPI_WriteRead%65
                0x000000000000126c      0x178
 .text.SERCOM1_SPI_WriteRead
                0x000000000000126c      0x178 build/default/production/_ext/17022449/plib_sercom1_spi_master.o
                0x000000000000126c                SERCOM1_SPI_WriteRead

.text.SERCOM1_SPI_InterruptHandler%66
                0x00000000000013e4      0x154
 .text.SERCOM1_SPI_InterruptHandler
                0x00000000000013e4      0x154 build/default/production/_ext/17022449/plib_sercom1_spi_master.o
                0x00000000000013e4                SERCOM1_SPI_InterruptHandler

.text.SERCOM3_USART_SerialSetup%67
                0x0000000000001538      0x148
 .text.SERCOM3_USART_SerialSetup
                0x0000000000001538      0x148 build/default/production/_ext/504274921/plib_sercom3_usart.o
                0x0000000000001538                SERCOM3_USART_SerialSetup

.text.__aeabi_fadd%68
                0x0000000000001680      0x13a
 .text.__aeabi_fadd
                0x0000000000001680      0x13a c:/applications/microchip/xc32/bin/bin/../../lib/gcc/pic32c/8.3.1/../../../../pic32c/lib/thumb/v6-m/nofp\libm-fast-emfloat.a(__aeabi_fadd.o)
                0x0000000000001680                __aeabi_fadd
                0x0000000000001684                .L__aeabi_fadd_fast_entry

.text.SERCOM0_I2C_TransferSetup%69
                0x00000000000017bc      0x10c
 .text.SERCOM0_I2C_TransferSetup
                0x00000000000017bc      0x10c build/default/production/_ext/508257091/plib_sercom0_i2c_master.o
                0x00000000000017bc                SERCOM0_I2C_TransferSetup

.text.RSTC_DRIVER_Tasks%70
                0x00000000000018c8      0x108
 .text.RSTC_DRIVER_Tasks
                0x00000000000018c8      0x108 build/default/production/_ext/1360937237/rstc_driver.o
                0x00000000000018c8                RSTC_DRIVER_Tasks

.text.SERCOM2_USART_Write%71
                0x00000000000019d0      0x104
 .text.SERCOM2_USART_Write
                0x00000000000019d0      0x104 build/default/production/_ext/504274921/plib_sercom2_usart.o
                0x00000000000019d0                SERCOM2_USART_Write

.text.DRV_I2C_Open%72
                0x0000000000001ad4      0x100
 .text.DRV_I2C_Open
                0x0000000000001ad4      0x100 build/default/production/_ext/158385033/drv_i2c.o
                0x0000000000001ad4                DRV_I2C_Open

.text.lDRV_USART_BufferQueueTask%73
                0x0000000000001bd4       0xf4
 .text.lDRV_USART_BufferQueueTask
                0x0000000000001bd4       0xf4 build/default/production/_ext/869808652/drv_usart.o

.text.SERCOM2_USART_ISR_RX_Handler%74
                0x0000000000001cc8       0xec
 .text.SERCOM2_USART_ISR_RX_Handler
                0x0000000000001cc8       0xec build/default/production/_ext/504274921/plib_sercom2_usart.o

.text.SYS_TIME_PLIBCallback%75
                0x0000000000001db4       0xe8
 .text.SYS_TIME_PLIBCallback
                0x0000000000001db4       0xe8 build/default/production/_ext/101884895/sys_time.o

.text%76        0x0000000000001e9c       0xe2
 .text          0x0000000000001e9c       0xe2 c:/applications/microchip/xc32/bin/bin/../../lib/gcc/pic32c/8.3.1/thumb/v6-m/nofp\libgcc.a(_udivmoddi4.o)
                0x0000000000001e9c                __udivmoddi4

.text.SYS_Initialize%77
                0x0000000000001f80       0xe0
 .text.SYS_Initialize
                0x0000000000001f80       0xe0 build/default/production/_ext/1171490990/initialization.o
                0x0000000000001f80                SYS_Initialize

.text.SERCOM2_USART_ISR_TX_Handler%78
                0x0000000000002060       0xe0
 .text.SERCOM2_USART_ISR_TX_Handler
                0x0000000000002060       0xe0 build/default/production/_ext/504274921/plib_sercom2_usart.o

.text.SYS_TIME_AddToList%79
                0x0000000000002140       0xdc
 .text.SYS_TIME_AddToList
                0x0000000000002140       0xdc build/default/production/_ext/101884895/sys_time.o

.text.NVIC_Initialize%80
                0x000000000000221c       0xdc
 .text.NVIC_Initialize
                0x000000000000221c       0xdc build/default/production/_ext/1865468468/plib_nvic.o
                0x000000000000221c                NVIC_Initialize

.text.lDRV_SPI_PlibCallbackHandler%81
                0x00000000000022f8       0xdc
 .text.lDRV_SPI_PlibCallbackHandler
                0x00000000000022f8       0xdc build/default/production/_ext/2070931557/drv_spi.o

.text.lDRV_SPI_UpdateTransferSetupAndAssertCS%82
                0x00000000000023d4       0xd0
 .text.lDRV_SPI_UpdateTransferSetupAndAssertCS
                0x00000000000023d4       0xd0 build/default/production/_ext/2070931557/drv_spi.o

.text.CAN0_MessageReceiveFifo%83
                0x00000000000024a4       0xcc
 .text.CAN0_MessageReceiveFifo
                0x00000000000024a4       0xcc build/default/production/_ext/60165182/plib_can0.o
                0x00000000000024a4                CAN0_MessageReceiveFifo

.text.Reset_Handler%84
                0x0000000000002570       0xcc
 .text.Reset_Handler
                0x0000000000002570       0xcc build/default/production/_ext/1171490990/startup_xc32.o
                0x0000000000002570                Reset_Handler

.text.DRV_USART_Initialize%85
                0x000000000000263c       0xcc
 .text.DRV_USART_Initialize
                0x000000000000263c       0xcc build/default/production/_ext/869808652/drv_usart.o
                0x000000000000263c                DRV_USART_Initialize

.text.DMAC_ChannelTransfer%86
                0x0000000000002708       0xc8
 .text.DMAC_ChannelTransfer
                0x0000000000002708       0xc8 build/default/production/_ext/1865161661/plib_dmac.o
                0x0000000000002708                DMAC_ChannelTransfer

.text.SYS_TIME_TimerObjectCreate%87
                0x00000000000027d0       0xc0
 .text.SYS_TIME_TimerObjectCreate
                0x00000000000027d0       0xc0 build/default/production/_ext/101884895/sys_time.o

.text.lDRV_I2C_NextTransferInitiate%88
                0x0000000000002890       0xc0
 .text.lDRV_I2C_NextTransferInitiate
                0x0000000000002890       0xc0 build/default/production/_ext/158385033/drv_i2c.o

.text.SYS_TIME_HwTimerCompareUpdate%89
                0x0000000000002950       0xbc
 .text.SYS_TIME_HwTimerCompareUpdate
                0x0000000000002950       0xbc build/default/production/_ext/101884895/sys_time.o

.text.SYS_TIME_Initialize%90
                0x0000000000002a0c       0xbc
 .text.SYS_TIME_Initialize
                0x0000000000002a0c       0xbc build/default/production/_ext/101884895/sys_time.o
                0x0000000000002a0c                SYS_TIME_Initialize

.text.DMAC_Initialize%91
                0x0000000000002ac8       0xb8
 .text.DMAC_Initialize
                0x0000000000002ac8       0xb8 build/default/production/_ext/1865161661/plib_dmac.o
                0x0000000000002ac8                DMAC_Initialize

.text.__aeabi_fmul%92
                0x0000000000002b80       0xb6
 .text.__aeabi_fmul
                0x0000000000002b80       0xb6 c:/applications/microchip/xc32/bin/bin/../../lib/gcc/pic32c/8.3.1/../../../../pic32c/lib/thumb/v6-m/nofp\libm-fast-emfloat.a(__aeabi_fmul.o)
                0x0000000000002b80                __aeabi_fmul

.text.DRV_SPI_Initialize%93
                0x0000000000002c38       0xb0
 .text.DRV_SPI_Initialize
                0x0000000000002c38       0xb0 build/default/production/_ext/2070931557/drv_spi.o
                0x0000000000002c38                DRV_SPI_Initialize

.text.EIC_Initialize%94
                0x0000000000002ce8       0xa4
 .text.EIC_Initialize
                0x0000000000002ce8       0xa4 build/default/production/_ext/60167341/plib_eic.o
                0x0000000000002ce8                EIC_Initialize

.text.SERCOM1_SPI_TransferSetup%95
                0x0000000000002d8c       0xa0
 .text.SERCOM1_SPI_TransferSetup
                0x0000000000002d8c       0xa0 build/default/production/_ext/17022449/plib_sercom1_spi_master.o
                0x0000000000002d8c                SERCOM1_SPI_TransferSetup

.text.CAN0_MessageRAMConfigSet%96
                0x0000000000002e2c       0x9c
 .text.CAN0_MessageRAMConfigSet
                0x0000000000002e2c       0x9c build/default/production/_ext/60165182/plib_can0.o
                0x0000000000002e2c                CAN0_MessageRAMConfigSet

.text.SERCOM2_USART_Read%97
                0x0000000000002ec8       0x94
 .text.SERCOM2_USART_Read
                0x0000000000002ec8       0x94 build/default/production/_ext/504274921/plib_sercom2_usart.o
                0x0000000000002ec8                SERCOM2_USART_Read

.text.__aeabi_fdiv%98
                0x0000000000002f5c       0x94
 .text.__aeabi_fdiv
                0x0000000000002f5c       0x94 c:/applications/microchip/xc32/bin/bin/../../lib/gcc/pic32c/8.3.1/../../../../pic32c/lib/thumb/v6-m/nofp\libm-fast-emfloat.a(__aeabi_fdiv.o)
                0x0000000000002f5c                __aeabi_fdiv

.text.SERCOM2_USART_Initialize%99
                0x0000000000002ff0       0x8c
 .text.SERCOM2_USART_Initialize
                0x0000000000002ff0       0x8c build/default/production/_ext/504274921/plib_sercom2_usart.o
                0x0000000000002ff0                SERCOM2_USART_Initialize

.text%100       0x000000000000307c       0x8c
 .text          0x000000000000307c       0x8c c:/applications/microchip/xc32/bin/bin/../../lib/gcc/pic32c/8.3.1/thumb/v6-m/nofp\libgcc.a(_udivsi3.o)
                0x000000000000307c                __aeabi_uidiv
                0x000000000000307c                __udivsi3
                0x00000000000030f4                __aeabi_uidivmod

.text.lDRV_I2C_ResourceLock%101
                0x0000000000003108       0x8a
 .text.lDRV_I2C_ResourceLock
                0x0000000000003108       0x8a build/default/production/_ext/158385033/drv_i2c.o

.text.SERCOM3_USART_ISR_TX_Handler%102
                0x0000000000003194       0x84
 .text.SERCOM3_USART_ISR_TX_Handler
                0x0000000000003194       0x84 build/default/production/_ext/504274921/plib_sercom3_usart.o

.text.DMAC_InterruptHandler%103
                0x0000000000003218       0x7c
 .text.DMAC_InterruptHandler
                0x0000000000003218       0x7c build/default/production/_ext/1865161661/plib_dmac.o
                0x0000000000003218                DMAC_InterruptHandler

.text.lDRV_I2C_ResourceUnlock%104
                0x0000000000003294       0x7c
 .text.lDRV_I2C_ResourceUnlock
                0x0000000000003294       0x7c build/default/production/_ext/158385033/drv_i2c.o

.text.TIMER_DRIVER_Initialize%105
                0x0000000000003310       0x7c
 .text.TIMER_DRIVER_Initialize
                0x0000000000003310       0x7c build/default/production/_ext/1360937237/timer_driver.o
                0x0000000000003310                TIMER_DRIVER_Initialize

.text.CAN0_MessageTransmitFifo%106
                0x000000000000338c       0x78
 .text.CAN0_MessageTransmitFifo
                0x000000000000338c       0x78 build/default/production/_ext/60165182/plib_can0.o
                0x000000000000338c                CAN0_MessageTransmitFifo

.text.SERCOM3_USART_Write%107
                0x0000000000003404       0x74
 .text.SERCOM3_USART_Write
                0x0000000000003404       0x74 build/default/production/_ext/504274921/plib_sercom3_usart.o
                0x0000000000003404                SERCOM3_USART_Write

.text.CAN0_Initialize%108
                0x0000000000003478       0x74
 .text.CAN0_Initialize
                0x0000000000003478       0x74 build/default/production/_ext/60165182/plib_can0.o
                0x0000000000003478                CAN0_Initialize

.text.DRV_I2C_Close%109
                0x00000000000034ec       0x74
 .text.DRV_I2C_Close
                0x00000000000034ec       0x74 build/default/production/_ext/158385033/drv_i2c.o
                0x00000000000034ec                DRV_I2C_Close

.text.CAN0_DRIVER_Get_Received_Data%110
                0x0000000000003560       0x74
 .text.CAN0_DRIVER_Get_Received_Data
                0x0000000000003560       0x74 build/default/production/_ext/1360937237/can0_driver.o
                0x0000000000003560                CAN0_DRIVER_Get_Received_Data

.text.SERCOM3_USART_ISR_RX_Handler%111
                0x00000000000035d4       0x70
 .text.SERCOM3_USART_ISR_RX_Handler
                0x00000000000035d4       0x70 build/default/production/_ext/504274921/plib_sercom3_usart.o

.text.DRV_I2C_Initialize%112
                0x0000000000003644       0x6c
 .text.DRV_I2C_Initialize
                0x0000000000003644       0x6c build/default/production/_ext/158385033/drv_i2c.o
                0x0000000000003644                DRV_I2C_Initialize

.text.RTC_DRIVER_Tasks%113
                0x00000000000036b0       0x6c
 .text.RTC_DRIVER_Tasks
                0x00000000000036b0       0x6c build/default/production/_ext/1360937237/rtc_driver.o
                0x00000000000036b0                RTC_DRIVER_Tasks

.text.lDRV_USART_ReadSubmit%114
                0x000000000000371c       0x66
 .text.lDRV_USART_ReadSubmit
                0x000000000000371c       0x66 build/default/production/_ext/869808652/drv_usart.o

.rodata.MCP9808_DRIVER_Tasks%115
                0x0000000000003784       0x64
 .rodata.MCP9808_DRIVER_Tasks
                0x0000000000003784       0x64 build/default/production/_ext/1360937237/mcp9808_driver.o

.text.__aeabi_d2f%116
                0x00000000000037e8       0x62
 .text.__aeabi_d2f
                0x00000000000037e8       0x62 c:/applications/microchip/xc32/bin/bin/../../lib/gcc/pic32c/8.3.1/../../../../pic32c/lib/thumb/v6-m/nofp\libm-fast-emfloat.a(__aeabi_d2f.o)
                0x00000000000037e8                __aeabi_d2f

.text.SERCOM0_I2C_Initialize%117
                0x000000000000384c       0x60
 .text.SERCOM0_I2C_Initialize
                0x000000000000384c       0x60 build/default/production/_ext/508257091/plib_sercom0_i2c_master.o
                0x000000000000384c                SERCOM0_I2C_Initialize

.text.EIC_InterruptHandler%118
                0x00000000000038ac       0x60
 .text.EIC_InterruptHandler
                0x00000000000038ac       0x60 build/default/production/_ext/60167341/plib_eic.o
                0x00000000000038ac                EIC_InterruptHandler

.text.SYS_TIME_RemoveFromList%119
                0x000000000000390c       0x60
 .text.SYS_TIME_RemoveFromList
                0x000000000000390c       0x60 build/default/production/_ext/101884895/sys_time.o

.text.SYS_TIME_TimerStart%120
                0x000000000000396c       0x60
 .text.SYS_TIME_TimerStart
                0x000000000000396c       0x60 build/default/production/_ext/101884895/sys_time.o
                0x000000000000396c                SYS_TIME_TimerStart

.text.lDRV_USART_WriteSubmit%121
                0x00000000000039cc       0x60
 .text.lDRV_USART_WriteSubmit
                0x00000000000039cc       0x60 build/default/production/_ext/869808652/drv_usart.o

.text.SYS_CONSOLE_Initialize%122
                0x0000000000003a2c       0x5c
 .text.SYS_CONSOLE_Initialize
                0x0000000000003a2c       0x5c build/default/production/_ext/1832805299/sys_console.o
                0x0000000000003a2c                SYS_CONSOLE_Initialize

.text.__libc_start_init%123
                0x0000000000003a88       0x5c
 .text.__libc_start_init
                0x0000000000003a88       0x5c c:/applications/microchip/xc32/bin/bin/../../lib/gcc/pic32c/8.3.1/../../../../pic32c/lib/thumb/v6-m/nofp\libc-musl.a(__libc_start_main.o)
                0x0000000000003a88                __libc_init_array

.text.SUPC_Initialize%124
                0x0000000000003ae4       0x58
 .text.SUPC_Initialize
                0x0000000000003ae4       0x58 build/default/production/_ext/1865616679/plib_supc.o
                0x0000000000003ae4                SUPC_Initialize

.text.SERCOM3_USART_Initialize%125
                0x0000000000003b3c       0x58
 .text.SERCOM3_USART_Initialize
                0x0000000000003b3c       0x58 build/default/production/_ext/504274921/plib_sercom3_usart.o
                0x0000000000003b3c                SERCOM3_USART_Initialize

.text.SYS_TIME_TimerAdd%126
                0x0000000000003b94       0x58
 .text.SYS_TIME_TimerAdd
                0x0000000000003b94       0x58 build/default/production/_ext/101884895/sys_time.o

.text.SYS_TIME_CallbackRegisterMS%127
                0x0000000000003bec       0x58
 .text.SYS_TIME_CallbackRegisterMS
                0x0000000000003bec       0x58 build/default/production/_ext/101884895/sys_time.o
                0x0000000000003bec                SYS_TIME_CallbackRegisterMS

.text.lDRV_I2C_PLibCallbackHandler%128
                0x0000000000003c44       0x58
 .text.lDRV_I2C_PLibCallbackHandler
                0x0000000000003c44       0x58 build/default/production/_ext/158385033/drv_i2c.o

.text.SERCOM0_I2C_InitiateTransfer%129
                0x0000000000003c9c       0x54
 .text.SERCOM0_I2C_InitiateTransfer
                0x0000000000003c9c       0x54 build/default/production/_ext/508257091/plib_sercom0_i2c_master.o

.text.SERCOM3_USART_InterruptHandler%130
                0x0000000000003cf0       0x54
 .text.SERCOM3_USART_InterruptHandler
                0x0000000000003cf0       0x54 build/default/production/_ext/504274921/plib_sercom3_usart.o
                0x0000000000003cf0                SERCOM3_USART_InterruptHandler

.text.SERCOM2_USART_InterruptHandler%131
                0x0000000000003d44       0x54
 .text.SERCOM2_USART_InterruptHandler
                0x0000000000003d44       0x54 build/default/production/_ext/504274921/plib_sercom2_usart.o
                0x0000000000003d44                SERCOM2_USART_InterruptHandler

.text.MCP9808_DRIVER_Calculate_Temperature%132
                0x0000000000003d98       0x54
 .text.MCP9808_DRIVER_Calculate_Temperature
                0x0000000000003d98       0x54 build/default/production/_ext/1360937237/mcp9808_driver.o
                0x0000000000003d98                MCP9808_DRIVER_Calculate_Temperature

.text.ADC0_Initialize%133
                0x0000000000003dec       0x4c
 .text.ADC0_Initialize
                0x0000000000003dec       0x4c build/default/production/_ext/60163342/plib_adc0.o
                0x0000000000003dec                ADC0_Initialize

.text.lDRV_I2C_DriverHandleValidate%134
                0x0000000000003e38       0x4c
 .text.lDRV_I2C_DriverHandleValidate
                0x0000000000003e38       0x4c build/default/production/_ext/158385033/drv_i2c.o

.text.SERCOM2_USART_ISR_ERR_Handler%135
                0x0000000000003e84       0x4c
 .text.SERCOM2_USART_ISR_ERR_Handler
                0x0000000000003e84       0x4c build/default/production/_ext/504274921/plib_sercom2_usart.o

.text%136       0x0000000000003ed0       0x48
 .text          0x0000000000003ed0       0x48 c:/applications/microchip/xc32/bin/bin/../../lib/gcc/pic32c/8.3.1/thumb/v6-m/nofp/crtbegin.o

.text.lDRV_I2C_ClientCallback%137
                0x0000000000003f18       0x48
 .text.lDRV_I2C_ClientCallback
                0x0000000000003f18       0x48 build/default/production/_ext/158385033/drv_i2c.o

.text.SHT4X_DRIVER_Calculation_Temperature%138
                0x0000000000003f60       0x48
 .text.SHT4X_DRIVER_Calculation_Temperature
                0x0000000000003f60       0x48 build/default/production/_ext/1360937237/sht4x_driver.o
                0x0000000000003f60                SHT4X_DRIVER_Calculation_Temperature

.text.SERCOM0_I2C_TransferAbort%139
                0x0000000000003fa8       0x44
 .text.SERCOM0_I2C_TransferAbort
                0x0000000000003fa8       0x44 build/default/production/_ext/508257091/plib_sercom0_i2c_master.o
                0x0000000000003fa8                SERCOM0_I2C_TransferAbort

.text.SERCOM3_USART_Read%140
                0x0000000000003fec       0x44
 .text.SERCOM3_USART_Read
                0x0000000000003fec       0x44 build/default/production/_ext/504274921/plib_sercom3_usart.o
                0x0000000000003fec                SERCOM3_USART_Read

.text.TCC0_PWMInitialize%141
                0x0000000000004030       0x44
 .text.TCC0_PWMInitialize
                0x0000000000004030       0x44 build/default/production/_ext/60181570/plib_tcc0.o
                0x0000000000004030                TCC0_PWMInitialize

.text.CAN0_DRIVER_Set_Message_Content%142
                0x0000000000004074       0x44
 .text.CAN0_DRIVER_Set_Message_Content
                0x0000000000004074       0x44 build/default/production/_ext/1360937237/can0_driver.o
                0x0000000000004074                CAN0_DRIVER_Set_Message_Content

.text.__aeabi_f2d%143
                0x00000000000040b8       0x44
 .text.__aeabi_f2d
                0x00000000000040b8       0x44 c:/applications/microchip/xc32/bin/bin/../../lib/gcc/pic32c/8.3.1/../../../../pic32c/lib/thumb/v6-m/nofp\libm-fast-emfloat.a(__aeabi_f2d.o)
                0x00000000000040b8                __aeabi_f2d

.text%144       0x00000000000040fc       0x44
 .text          0x00000000000040fc       0x44 c:/applications/microchip/xc32/bin/bin/../../lib/gcc/pic32c/8.3.1/thumb/v6-m/nofp\libgcc.a(_muldi3.o)
                0x00000000000040fc                __muldi3
                0x00000000000040fc                __aeabi_lmul

.text.TC0_TimerInitialize%145
                0x0000000000004140       0x40
 .text.TC0_TimerInitialize
                0x0000000000004140       0x40 build/default/production/_ext/829342655/plib_tc0.o
                0x0000000000004140                TC0_TimerInitialize

.text.TC1_TimerInitialize%146
                0x0000000000004180       0x40
 .text.TC1_TimerInitialize
                0x0000000000004180       0x40 build/default/production/_ext/829342655/plib_tc1.o
                0x0000000000004180                TC1_TimerInitialize

.text.SYS_TIME_GetTimerObject%147
                0x00000000000041c0       0x40
 .text.SYS_TIME_GetTimerObject
                0x00000000000041c0       0x40 build/default/production/_ext/101884895/sys_time.o

.text.SYS_TIME_TimerDestroy%148
                0x0000000000004200       0x40
 .text.SYS_TIME_TimerDestroy
                0x0000000000004200       0x40 build/default/production/_ext/101884895/sys_time.o
                0x0000000000004200                SYS_TIME_TimerDestroy

.text.SYS_TIME_TimerStop%149
                0x0000000000004240       0x40
 .text.SYS_TIME_TimerStop
                0x0000000000004240       0x40 build/default/production/_ext/101884895/sys_time.o
                0x0000000000004240                SYS_TIME_TimerStop

.text%150       0x0000000000004280       0x40
 .text          0x0000000000004280       0x40 c:/applications/microchip/xc32/bin/bin/../../lib/gcc/pic32c/8.3.1/thumb/v6-m/nofp\libgcc.a(_aeabi_uldivmod.o)
                0x0000000000004280                __aeabi_uldivmod

.text.__aeabi_f2iz%151
                0x00000000000042c0       0x3e
 .text.__aeabi_f2iz
                0x00000000000042c0       0x3e c:/applications/microchip/xc32/bin/bin/../../lib/gcc/pic32c/8.3.1/../../../../pic32c/lib/thumb/v6-m/nofp\libm-fast-emfloat.a(__aeabi_f2iz.o)
                0x00000000000042c0                __aeabi_f2iz

.rodata.drvUsart0InitData%152
                0x0000000000004300       0x3c
 .rodata.drvUsart0InitData
                0x0000000000004300       0x3c build/default/production/_ext/1171490990/initialization.o

.text.SERCOM1_SPI_Initialize%153
                0x000000000000433c       0x3c
 .text.SERCOM1_SPI_Initialize
                0x000000000000433c       0x3c build/default/production/_ext/17022449/plib_sercom1_spi_master.o
                0x000000000000433c                SERCOM1_SPI_Initialize

.text.SERCOM3_USART_ISR_ERR_Handler%154
                0x0000000000004378       0x3c
 .text.SERCOM3_USART_ISR_ERR_Handler
                0x0000000000004378       0x3c build/default/production/_ext/504274921/plib_sercom3_usart.o

.text.DMAC_ChannelSettingsSet%155
                0x00000000000043b4       0x3c
 .text.DMAC_ChannelSettingsSet
                0x00000000000043b4       0x3c build/default/production/_ext/1865161661/plib_dmac.o
                0x00000000000043b4                DMAC_ChannelSettingsSet

.text.SYS_INT_SourceDisable%156
                0x00000000000043f0       0x3c
 .text.SYS_INT_SourceDisable
                0x00000000000043f0       0x3c build/default/production/_ext/1881668453/sys_int.o
                0x00000000000043f0                SYS_INT_SourceDisable

.text.PDEC_QDECInitialize%157
                0x000000000000442c       0x3c
 .text.PDEC_QDECInitialize
                0x000000000000442c       0x3c build/default/production/_ext/1865510628/plib_pdec.o
                0x000000000000442c                PDEC_QDECInitialize

.text.RTC_Initialize%158
                0x0000000000004468       0x3c
 .text.RTC_Initialize
                0x0000000000004468       0x3c build/default/production/_ext/60180175/plib_rtc_timer.o
                0x0000000000004468                RTC_Initialize

.text%159       0x00000000000044a4       0x3c
 .text          0x00000000000044a4       0x3c c:/applications/microchip/xc32/bin/bin/../../lib/gcc/pic32c/8.3.1/thumb/v6-m/nofp\libgcc.a(_clzsi2.o)
                0x00000000000044a4                __clzsi2

.text.SERCOM0_I2C_Read%160
                0x00000000000044e0       0x38
 .text.SERCOM0_I2C_Read
                0x00000000000044e0       0x38 build/default/production/_ext/508257091/plib_sercom0_i2c_master.o
                0x00000000000044e0                SERCOM0_I2C_Read

.text.SERCOM0_I2C_WriteRead%161
                0x0000000000004518       0x38
 .text.SERCOM0_I2C_WriteRead
                0x0000000000004518       0x38 build/default/production/_ext/508257091/plib_sercom0_i2c_master.o
                0x0000000000004518                SERCOM0_I2C_WriteRead

.text.SYS_TIME_UpdateTimerList%162
                0x0000000000004550       0x38
 .text.SYS_TIME_UpdateTimerList
                0x0000000000004550       0x38 build/default/production/_ext/101884895/sys_time.o

.text.SYS_TIME_ResourceLock%163
                0x0000000000004588       0x38
 .text.SYS_TIME_ResourceLock
                0x0000000000004588       0x38 build/default/production/_ext/101884895/sys_time.o

.text.DRV_I2C_TransferEventHandlerSet%164
                0x00000000000045c0       0x38
 .text.DRV_I2C_TransferEventHandlerSet
                0x00000000000045c0       0x38 build/default/production/_ext/158385033/drv_i2c.o
                0x00000000000045c0                DRV_I2C_TransferEventHandlerSet

.text.Console_UART_Read%165
                0x00000000000045f8       0x38
 .text.Console_UART_Read
                0x00000000000045f8       0x38 build/default/production/_ext/1832805299/sys_console_uart.o
                0x00000000000045f8                Console_UART_Read

.text.Console_UART_Write%166
                0x0000000000004630       0x38
 .text.Console_UART_Write
                0x0000000000004630       0x38 build/default/production/_ext/1832805299/sys_console_uart.o
                0x0000000000004630                Console_UART_Write

.rodata.SHT4X_DRIVER_Tasks%167
                0x0000000000004668       0x38
 .rodata.SHT4X_DRIVER_Tasks
                0x0000000000004668       0x38 build/default/production/_ext/1360937237/sht4x_driver.o

.text.__pic32c_data_initialization%168
                0x00000000000046a0       0x38
 .text.__pic32c_data_initialization
                0x00000000000046a0       0x38 c:/applications/microchip/xc32/bin/bin/../../lib/gcc/pic32c/8.3.1/../../../../pic32c/lib/thumb/v6-m/nofp\libpic32c.a(data_init.o)
                0x00000000000046a0                __pic32c_data_initialization

.text.SERCOM0_I2C_Write%169
                0x00000000000046d8       0x34
 .text.SERCOM0_I2C_Write
                0x00000000000046d8       0x34 build/default/production/_ext/508257091/plib_sercom0_i2c_master.o
                0x00000000000046d8                SERCOM0_I2C_Write

.text.TC0_TimerInterruptHandler%170
                0x000000000000470c       0x34
 .text.TC0_TimerInterruptHandler
                0x000000000000470c       0x34 build/default/production/_ext/829342655/plib_tc0.o
                0x000000000000470c                TC0_TimerInterruptHandler

.rodata.drvSPI0InitData%171
                0x0000000000004740       0x34
 .rodata.drvSPI0InitData
                0x0000000000004740       0x34 build/default/production/_ext/1171490990/initialization.o

.text.TC1_TimerInterruptHandler%172
                0x0000000000004774       0x34
 .text.TC1_TimerInterruptHandler
                0x0000000000004774       0x34 build/default/production/_ext/829342655/plib_tc1.o
                0x0000000000004774                TC1_TimerInterruptHandler

.text.RTC_Timer32CounterGet%173
                0x00000000000047a8       0x34
 .text.RTC_Timer32CounterGet
                0x00000000000047a8       0x34 build/default/production/_ext/60180175/plib_rtc_timer.o
                0x00000000000047a8                RTC_Timer32CounterGet

.rodata.CAN0_DRIVER_Tasks%174
                0x00000000000047dc       0x34
 .rodata.CAN0_DRIVER_Tasks
                0x00000000000047dc       0x34 build/default/production/_ext/1360937237/can0_driver.o

.text.lDRV_I2C_RemoveClientTransfersFromList%175
                0x0000000000004810       0x32
 .text.lDRV_I2C_RemoveClientTransfersFromList
                0x0000000000004810       0x32 build/default/production/_ext/158385033/drv_i2c.o

.text.RTC_InterruptHandler%176
                0x0000000000004844       0x30
 .text.RTC_InterruptHandler
                0x0000000000004844       0x30 build/default/production/_ext/60180175/plib_rtc_timer.o
                0x0000000000004844                RTC_InterruptHandler

.text.Console_UART_WriteCountGet%177
                0x0000000000004874       0x30
 .text.Console_UART_WriteCountGet
                0x0000000000004874       0x30 build/default/production/_ext/1832805299/sys_console_uart.o
                0x0000000000004874                Console_UART_WriteCountGet

.text.Console_UART_WriteFreeBufferCountGet%178
                0x00000000000048a4       0x30
 .text.Console_UART_WriteFreeBufferCountGet
                0x00000000000048a4       0x30 build/default/production/_ext/1832805299/sys_console_uart.o
                0x00000000000048a4                Console_UART_WriteFreeBufferCountGet

.text.Console_UART_ReadFreeBufferCountGet%179
                0x00000000000048d4       0x30
 .text.Console_UART_ReadFreeBufferCountGet
                0x00000000000048d4       0x30 build/default/production/_ext/1832805299/sys_console_uart.o
                0x00000000000048d4                Console_UART_ReadFreeBufferCountGet

.text.Console_UART_ReadCountGet%180
                0x0000000000004904       0x30
 .text.Console_UART_ReadCountGet
                0x0000000000004904       0x30 build/default/production/_ext/1832805299/sys_console_uart.o
                0x0000000000004904                Console_UART_ReadCountGet

.text.MCP9808_DRIVER_Get_Temperature_Values%181
                0x0000000000004934       0x30
 .text.MCP9808_DRIVER_Get_Temperature_Values
                0x0000000000004934       0x30 build/default/production/_ext/1360937237/mcp9808_driver.o
                0x0000000000004934                MCP9808_DRIVER_Get_Temperature_Values

.text.MCP9808_DRIVER_Get_Manufacturer_ID%182
                0x0000000000004964       0x30
 .text.MCP9808_DRIVER_Get_Manufacturer_ID
                0x0000000000004964       0x30 build/default/production/_ext/1360937237/mcp9808_driver.o
                0x0000000000004964                MCP9808_DRIVER_Get_Manufacturer_ID

.text.MCP9808_DRIVER_Get_Device_ID%183
                0x0000000000004994       0x30
 .text.MCP9808_DRIVER_Get_Device_ID
                0x0000000000004994       0x30 build/default/production/_ext/1360937237/mcp9808_driver.o
                0x0000000000004994                MCP9808_DRIVER_Get_Device_ID

.text.SHT4X_DRIVER_Calculation_Humidity%184
                0x00000000000049c4       0x30
 .text.SHT4X_DRIVER_Calculation_Humidity
                0x00000000000049c4       0x30 build/default/production/_ext/1360937237/sht4x_driver.o
                0x00000000000049c4                SHT4X_DRIVER_Calculation_Humidity

.text.SUPC_InterruptHandler%185
                0x00000000000049f4       0x2c
 .text.SUPC_InterruptHandler
                0x00000000000049f4       0x2c build/default/production/_ext/1865616679/plib_supc.o
                0x00000000000049f4                SUPC_InterruptHandler

.text.OSC32KCTRL_InterruptHandler%186
                0x0000000000004a20       0x2c
 .text.OSC32KCTRL_InterruptHandler
                0x0000000000004a20       0x2c build/default/production/_ext/1984496892/plib_clock.o
                0x0000000000004a20                OSC32KCTRL_InterruptHandler

.text.TC0_Timer16bitCounterGet%187
                0x0000000000004a4c       0x2c
 .text.TC0_Timer16bitCounterGet
                0x0000000000004a4c       0x2c build/default/production/_ext/829342655/plib_tc0.o
                0x0000000000004a4c                TC0_Timer16bitCounterGet

.text.SYS_Tasks%188
                0x0000000000004a78       0x2c
 .text.SYS_Tasks
                0x0000000000004a78       0x2c build/default/production/_ext/1171490990/tasks.o
                0x0000000000004a78                SYS_Tasks

.rodata.drvUsart0PlibAPI%189
                0x0000000000004aa4       0x2c
 .rodata.drvUsart0PlibAPI
                0x0000000000004aa4       0x2c build/default/production/_ext/1171490990/initialization.o

.text.SERCOM3_USART_ErrorClear%190
                0x0000000000004ad0       0x2c
 .text.SERCOM3_USART_ErrorClear
                0x0000000000004ad0       0x2c build/default/production/_ext/504274921/plib_sercom3_usart.o

.text.CAN0_ErrorGet%191
                0x0000000000004afc       0x2c
 .text.CAN0_ErrorGet
                0x0000000000004afc       0x2c build/default/production/_ext/60165182/plib_can0.o
                0x0000000000004afc                CAN0_ErrorGet

.text.lDRV_USART_RX_PLIB_CallbackHandler%192
                0x0000000000004b28       0x2c
 .text.lDRV_USART_RX_PLIB_CallbackHandler
                0x0000000000004b28       0x2c build/default/production/_ext/869808652/drv_usart.o

.text.lDRV_USART_RX_DMA_CallbackHandler%193
                0x0000000000004b54       0x2c
 .text.lDRV_USART_RX_DMA_CallbackHandler
                0x0000000000004b54       0x2c build/default/production/_ext/869808652/drv_usart.o

.text.lDRV_USART_TX_DMA_CallbackHandler%194
                0x0000000000004b80       0x2c
 .text.lDRV_USART_TX_DMA_CallbackHandler
                0x0000000000004b80       0x2c build/default/production/_ext/869808652/drv_usart.o

.rodata.sysConsoleUARTDevDesc%195
                0x0000000000004bac       0x2c
 .rodata.sysConsoleUARTDevDesc
                0x0000000000004bac       0x2c build/default/production/_ext/1832805299/sys_console_uart.o
                0x0000000000004bac                sysConsoleUARTDevDesc

.rodata.drvSPI0remapDataBits%196
                0x0000000000004bd8       0x28
 .rodata.drvSPI0remapDataBits
                0x0000000000004bd8       0x28 build/default/production/_ext/1171490990/initialization.o

.text.SERCOM3_USART_ReadAbort%197
                0x0000000000004c00       0x28
 .text.SERCOM3_USART_ReadAbort
                0x0000000000004c00       0x28 build/default/production/_ext/504274921/plib_sercom3_usart.o
                0x0000000000004c00                SERCOM3_USART_ReadAbort

.text.EIC_CallbackRegister%198
                0x0000000000004c28       0x28
 .text.EIC_CallbackRegister
                0x0000000000004c28       0x28 build/default/production/_ext/60167341/plib_eic.o
                0x0000000000004c28                EIC_CallbackRegister

.text.SYS_TIME_ResourceUnlock%199
                0x0000000000004c50       0x28
 .text.SYS_TIME_ResourceUnlock
                0x0000000000004c50       0x28 build/default/production/_ext/101884895/sys_time.o

.text.MCP9808_DRIVER_Set_Result_Resolution%200
                0x0000000000004c78       0x28
 .text.MCP9808_DRIVER_Set_Result_Resolution
                0x0000000000004c78       0x28 build/default/production/_ext/1360937237/mcp9808_driver.o
                0x0000000000004c78                MCP9808_DRIVER_Set_Result_Resolution

.text.__aeabi_i2f%201
                0x0000000000004ca0       0x26
 .text.__aeabi_i2f
                0x0000000000004ca0       0x26 c:/applications/microchip/xc32/bin/bin/../../lib/gcc/pic32c/8.3.1/../../../../pic32c/lib/thumb/v6-m/nofp\libm-fast-emfloat.a(__aeabi_i2f.o)
                0x0000000000004ca0                __aeabi_i2f

.text.lDRV_USART_RemoveTransferObjFromList%202
                0x0000000000004cc6       0x24
 .text.lDRV_USART_RemoveTransferObjFromList
                0x0000000000004cc6       0x24 build/default/production/_ext/869808652/drv_usart.o

.text.BME690_DRIVER_Initialize%203
                0x0000000000004cec       0x24
 .text.BME690_DRIVER_Initialize
                0x0000000000004cec       0x24 build/default/production/_ext/1360937237/bme690_driver.o
                0x0000000000004cec                BME690_DRIVER_Initialize

.text.SHT4X_DRIVER_Start_Measurement%204
                0x0000000000004d10       0x24
 .text.SHT4X_DRIVER_Start_Measurement
                0x0000000000004d10       0x24 build/default/production/_ext/1360937237/sht4x_driver.o
                0x0000000000004d10                SHT4X_DRIVER_Start_Measurement

.text.__aeabi_f2uiz%205
                0x0000000000004d34       0x24
 .text.__aeabi_f2uiz
                0x0000000000004d34       0x24 c:/applications/microchip/xc32/bin/bin/../../lib/gcc/pic32c/8.3.1/../../../../pic32c/lib/thumb/v6-m/nofp\libm-fast-emfloat.a(__aeabi_f2uiz.o)
                0x0000000000004d34                __aeabi_f2uiz

.text.SYS_DMA_DataWidthSetup%206
                0x0000000000004d58       0x20
 .text.SYS_DMA_DataWidthSetup
                0x0000000000004d58       0x20 build/default/production/_ext/14461671/sys_dma.o
                0x0000000000004d58                SYS_DMA_DataWidthSetup

.text.CAN0_RxFifoFillLevelGet%207
                0x0000000000004d78       0x20
 .text.CAN0_RxFifoFillLevelGet
                0x0000000000004d78       0x20 build/default/production/_ext/60165182/plib_can0.o
                0x0000000000004d78                CAN0_RxFifoFillLevelGet

.rodata.RSTC_DRIVER_Tasks%208
                0x0000000000004d98       0x20
 .rodata.RSTC_DRIVER_Tasks
                0x0000000000004d98       0x20 build/default/production/_ext/1360937237/rstc_driver.o

.text.RTC_DRIVER_Initialize%209
                0x0000000000004db8       0x20
 .text.RTC_DRIVER_Initialize
                0x0000000000004db8       0x20 build/default/production/_ext/1360937237/rtc_driver.o
                0x0000000000004db8                RTC_DRIVER_Initialize

.text.SHT4X_DRIVER_Get_Measure_Values%210
                0x0000000000004dd8       0x20
 .text.SHT4X_DRIVER_Get_Measure_Values
                0x0000000000004dd8       0x20 build/default/production/_ext/1360937237/sht4x_driver.o
                0x0000000000004dd8                SHT4X_DRIVER_Get_Measure_Values

.text.__aeabi_ui2f%211
                0x0000000000004df8       0x1e
 .text.__aeabi_ui2f
                0x0000000000004df8       0x1e c:/applications/microchip/xc32/bin/bin/../../lib/gcc/pic32c/8.3.1/../../../../pic32c/lib/thumb/v6-m/nofp\libm-fast-emfloat.a(__aeabi_ui2f.o)
                0x0000000000004df8                __aeabi_ui2f

.text.__dinit_copy%212
                0x0000000000004e16       0x1e
 .text.__dinit_copy
                0x0000000000004e16       0x1e c:/applications/microchip/xc32/bin/bin/../../lib/gcc/pic32c/8.3.1/../../../../pic32c/lib/thumb/v6-m/nofp\libpic32c.a(pic32_data_init_copy.o)
                0x0000000000004e16                __dinit_copy_needed
                0x0000000000004e16                __dinit_copy

.text.TC0_TimerStart%213
                0x0000000000004e34       0x1c
 .text.TC0_TimerStart
                0x0000000000004e34       0x1c build/default/production/_ext/829342655/plib_tc0.o
                0x0000000000004e34                TC0_TimerStart

.text.TC0_TimerStop%214
                0x0000000000004e50       0x1c
 .text.TC0_TimerStop
                0x0000000000004e50       0x1c build/default/production/_ext/829342655/plib_tc0.o
                0x0000000000004e50                TC0_TimerStop

.rodata.drvI2C0InitData%215
                0x0000000000004e6c       0x1c
 .rodata.drvI2C0InitData
                0x0000000000004e6c       0x1c build/default/production/_ext/1171490990/initialization.o

.rodata.drvI2C0PLibAPI%216
                0x0000000000004e88       0x1c
 .rodata.drvI2C0PLibAPI
                0x0000000000004e88       0x1c build/default/production/_ext/1171490990/initialization.o

.rodata.drvUSART0InterruptSources%217
                0x0000000000004ea4       0x1c
 .rodata.drvUSART0InterruptSources
                0x0000000000004ea4       0x1c build/default/production/_ext/1171490990/initialization.o

.rodata.sysTimePlibAPI%218
                0x0000000000004ec0       0x1c
 .rodata.sysTimePlibAPI
                0x0000000000004ec0       0x1c build/default/production/_ext/1171490990/initialization.o

.text.DAC_Initialize%219
                0x0000000000004edc       0x1c
 .text.DAC_Initialize
                0x0000000000004edc       0x1c build/default/production/_ext/60166132/plib_dac.o
                0x0000000000004edc                DAC_Initialize

.text.SYS_TIME_GetElapsedCount%220
                0x0000000000004ef8       0x1c
 .text.SYS_TIME_GetElapsedCount
                0x0000000000004ef8       0x1c build/default/production/_ext/101884895/sys_time.o

.text.CCL_Initialize%221
                0x0000000000004f14       0x1c
 .text.CCL_Initialize
                0x0000000000004f14       0x1c build/default/production/_ext/60165242/plib_ccl.o
                0x0000000000004f14                CCL_Initialize

.text.SYS_INT_SourceRestore%222
                0x0000000000004f30       0x1c
 .text.SYS_INT_SourceRestore
                0x0000000000004f30       0x1c build/default/production/_ext/1881668453/sys_int.o
                0x0000000000004f30                SYS_INT_SourceRestore

.text.DRV_I2C_ReadTransferAdd%223
                0x0000000000004f4c       0x1c
 .text.DRV_I2C_ReadTransferAdd
                0x0000000000004f4c       0x1c build/default/production/_ext/158385033/drv_i2c.o
                0x0000000000004f4c                DRV_I2C_ReadTransferAdd

.text.DRV_I2C_WriteReadTransferAdd%224
                0x0000000000004f68       0x1c
 .text.DRV_I2C_WriteReadTransferAdd
                0x0000000000004f68       0x1c build/default/production/_ext/158385033/drv_i2c.o
                0x0000000000004f68                DRV_I2C_WriteReadTransferAdd

.text.RTC_Timer32Start%225
                0x0000000000004f84       0x1c
 .text.RTC_Timer32Start
                0x0000000000004f84       0x1c build/default/production/_ext/60180175/plib_rtc_timer.o
                0x0000000000004f84                RTC_Timer32Start

.text.SERCOM2_USART_WritePendingBytesGet%226
                0x0000000000004fa0       0x1c
 .text.SERCOM2_USART_WritePendingBytesGet
                0x0000000000004fa0       0x1c build/default/production/_ext/504274921/plib_sercom2_usart.o

.text.SERCOM2_USART_ReadCountGet%227
                0x0000000000004fbc       0x1c
 .text.SERCOM2_USART_ReadCountGet
                0x0000000000004fbc       0x1c build/default/production/_ext/504274921/plib_sercom2_usart.o
                0x0000000000004fbc                SERCOM2_USART_ReadCountGet

.text.CAN0_DRIVER_Initialize%228
                0x0000000000004fd8       0x1c
 .text.CAN0_DRIVER_Initialize
                0x0000000000004fd8       0x1c build/default/production/_ext/1360937237/can0_driver.o
                0x0000000000004fd8                CAN0_DRIVER_Initialize

.text.MCP9808_DRIVER_I2C_Callback%229
                0x0000000000004ff4       0x1c
 .text.MCP9808_DRIVER_I2C_Callback
                0x0000000000004ff4       0x1c build/default/production/_ext/1360937237/mcp9808_driver.o
                0x0000000000004ff4                MCP9808_DRIVER_I2C_Callback

.text.SHT4X_DRIVER_I2C_Callback%230
                0x0000000000005010       0x1c
 .text.SHT4X_DRIVER_I2C_Callback
                0x0000000000005010       0x1c build/default/production/_ext/1360937237/sht4x_driver.o
                0x0000000000005010                SHT4X_DRIVER_I2C_Callback

.text.DRV_I2C_WriteTransferAdd%231
                0x000000000000502c       0x1a
 .text.DRV_I2C_WriteTransferAdd
                0x000000000000502c       0x1a build/default/production/_ext/158385033/drv_i2c.o
                0x000000000000502c                DRV_I2C_WriteTransferAdd

.text.FREQM_Initialize%232
                0x0000000000005048       0x18
 .text.FREQM_Initialize
                0x0000000000005048       0x18 build/default/production/_ext/1987437027/plib_freqm.o
                0x0000000000005048                FREQM_Initialize

.rodata.drvSPI0InterruptSources%233
                0x0000000000005060       0x18
 .rodata.drvSPI0InterruptSources
                0x0000000000005060       0x18 build/default/production/_ext/1171490990/initialization.o

.rodata.drvUsart0remapParity%234
                0x0000000000005078       0x18
 .rodata.drvUsart0remapParity
                0x0000000000005078       0x18 build/default/production/_ext/1171490990/initialization.o

.rodata.sysConsole0UARTPlibAPI%235
                0x0000000000005090       0x18
 .rodata.sysConsole0UARTPlibAPI
                0x0000000000005090       0x18 build/default/production/_ext/1171490990/initialization.o

.text.Console_UART_Initialize%236
                0x00000000000050a8       0x18
 .text.Console_UART_Initialize
                0x00000000000050a8       0x18 build/default/production/_ext/1832805299/sys_console_uart.o
                0x00000000000050a8                Console_UART_Initialize

.text.HDC302X_DRIVER_Initialize%237
                0x00000000000050c0       0x18
 .text.HDC302X_DRIVER_Initialize
                0x00000000000050c0       0x18 build/default/production/_ext/1360937237/hdc302x_driver.o
                0x00000000000050c0                HDC302X_DRIVER_Initialize

.text.MCP9808_DRIVER_Store_Temperature_Values%238
                0x00000000000050d8       0x18
 .text.MCP9808_DRIVER_Store_Temperature_Values
                0x00000000000050d8       0x18 build/default/production/_ext/1360937237/mcp9808_driver.o
                0x00000000000050d8                MCP9808_DRIVER_Store_Temperature_Values

.text.MCP9808_DRIVER_Store_Manufacturer_ID%239
                0x00000000000050f0       0x18
 .text.MCP9808_DRIVER_Store_Manufacturer_ID
                0x00000000000050f0       0x18 build/default/production/_ext/1360937237/mcp9808_driver.o
                0x00000000000050f0                MCP9808_DRIVER_Store_Manufacturer_ID

.text.MCP9808_DRIVER_Store_Device_ID%240
                0x0000000000005108       0x18
 .text.MCP9808_DRIVER_Store_Device_ID
                0x0000000000005108       0x18 build/default/production/_ext/1360937237/mcp9808_driver.o
                0x0000000000005108                MCP9808_DRIVER_Store_Device_ID

.text.MCP9808_DRIVER_Initialize%241
                0x0000000000005120       0x18
 .text.MCP9808_DRIVER_Initialize
                0x0000000000005120       0x18 build/default/production/_ext/1360937237/mcp9808_driver.o
                0x0000000000005120                MCP9808_DRIVER_Initialize

.rodata.RTC_DRIVER_Tasks%242
                0x0000000000005138       0x18
 .rodata.RTC_DRIVER_Tasks
                0x0000000000005138       0x18 build/default/production/_ext/1360937237/rtc_driver.o

.text.SHT4X_DRIVER_Initialize%243
                0x0000000000005150       0x18
 .text.SHT4X_DRIVER_Initialize
                0x0000000000005150       0x18 build/default/production/_ext/1360937237/sht4x_driver.o
                0x0000000000005150                SHT4X_DRIVER_Initialize

.text%244       0x0000000000005168       0x18
 .text          0x0000000000005168       0x18 c:/applications/microchip/xc32/bin/bin/../../lib/gcc/pic32c/8.3.1/thumb/v6-m/nofp\libgcc.a(_lshrdi3.o)
                0x0000000000005168                __lshrdi3
                0x0000000000005168                __aeabi_llsr

.text%245       0x0000000000005180       0x18
 .text          0x0000000000005180       0x18 c:/applications/microchip/xc32/bin/bin/../../lib/gcc/pic32c/8.3.1/thumb/v6-m/nofp\libgcc.a(_ashldi3.o)
                0x0000000000005180                __aeabi_llsl
                0x0000000000005180                __ashldi3

.text%246       0x0000000000005198       0x18
 .text          0x0000000000005198       0x18 c:/applications/microchip/xc32/bin/bin/../../lib/gcc/pic32c/8.3.1/thumb/v6-m/nofp\libgcc.a(_clzdi2.o)
                0x0000000000005198                __clzdi2

.text.TC0_Timer16bitPeriodSet%247
                0x00000000000051b0       0x14
 .text.TC0_Timer16bitPeriodSet
                0x00000000000051b0       0x14 build/default/production/_ext/829342655/plib_tc0.o
                0x00000000000051b0                TC0_Timer16bitPeriodSet

.text.TC0_Timer16bitCompareSet%248
                0x00000000000051c4       0x14
 .text.TC0_Timer16bitCompareSet
                0x00000000000051c4       0x14 build/default/production/_ext/829342655/plib_tc0.o
                0x00000000000051c4                TC0_Timer16bitCompareSet

.rodata.drvI2C0InterruptSources%249
                0x00000000000051d8       0x14
 .rodata.drvI2C0InterruptSources
                0x00000000000051d8       0x14 build/default/production/_ext/1171490990/initialization.o

.rodata.drvUsart0remapDataWidth%250
                0x00000000000051ec       0x14
 .rodata.drvUsart0remapDataWidth
                0x00000000000051ec       0x14 build/default/production/_ext/1171490990/initialization.o

.text.SERCOM1_SPI_IsTransmitterBusy%251
                0x0000000000005200       0x14
 .text.SERCOM1_SPI_IsTransmitterBusy
                0x0000000000005200       0x14 build/default/production/_ext/17022449/plib_sercom1_spi_master.o
                0x0000000000005200                SERCOM1_SPI_IsTransmitterBusy

.text.CAN0_InterruptGet%252
                0x0000000000005214       0x14
 .text.CAN0_InterruptGet
                0x0000000000005214       0x14 build/default/production/_ext/60165182/plib_can0.o
                0x0000000000005214                CAN0_InterruptGet

.text.NVIC_INT_Restore%253
                0x0000000000005228       0x14
 .text.NVIC_INT_Restore
                0x0000000000005228       0x14 build/default/production/_ext/1865468468/plib_nvic.o
                0x0000000000005228                NVIC_INT_Restore

.text.lDRV_I2C_RemoveTransferObjFromList%254
                0x000000000000523c       0x14
 .text.lDRV_I2C_RemoveTransferObjFromList
                0x000000000000523c       0x14 build/default/production/_ext/158385033/drv_i2c.o

.text.lDRV_SPI_RemoveTransferObjFromList%255
                0x0000000000005250       0x14
 .text.lDRV_SPI_RemoveTransferObjFromList
                0x0000000000005250       0x14 build/default/production/_ext/2070931557/drv_spi.o

.text.Console_UART_Status%256
                0x0000000000005264       0x14
 .text.Console_UART_Status
                0x0000000000005264       0x14 build/default/production/_ext/1832805299/sys_console_uart.o
                0x0000000000005264                Console_UART_Status

.text.SERCOM2_USART_ReadFreeBufferCountGet%257
                0x0000000000005278       0x14
 .text.SERCOM2_USART_ReadFreeBufferCountGet
                0x0000000000005278       0x14 build/default/production/_ext/504274921/plib_sercom2_usart.o
                0x0000000000005278                SERCOM2_USART_ReadFreeBufferCountGet

.text.SERCOM2_USART_WriteFreeBufferCountGet%258
                0x000000000000528c       0x14
 .text.SERCOM2_USART_WriteFreeBufferCountGet
                0x000000000000528c       0x14 build/default/production/_ext/504274921/plib_sercom2_usart.o
                0x000000000000528c                SERCOM2_USART_WriteFreeBufferCountGet

.text.BME690_DRIVER_Tasks%259
                0x00000000000052a0       0x14
 .text.BME690_DRIVER_Tasks
                0x00000000000052a0       0x14 build/default/production/_ext/1360937237/bme690_driver.o
                0x00000000000052a0                BME690_DRIVER_Tasks

.text.CONSOLE_DRIVER_Tasks%260
                0x00000000000052b4       0x14
 .text.CONSOLE_DRIVER_Tasks
                0x00000000000052b4       0x14 build/default/production/_ext/1360937237/console_driver.o
                0x00000000000052b4                CONSOLE_DRIVER_Tasks

.text.HDC302X_DRIVER_Tasks%261
                0x00000000000052c8       0x14
 .text.HDC302X_DRIVER_Tasks
                0x00000000000052c8       0x14 build/default/production/_ext/1360937237/hdc302x_driver.o
                0x00000000000052c8                HDC302X_DRIVER_Tasks

.text.XM125_DRIVER_Tasks%262
                0x00000000000052dc       0x14
 .text.XM125_DRIVER_Tasks
                0x00000000000052dc       0x14 build/default/production/_ext/1360937237/xm125_driver.o
                0x00000000000052dc                XM125_DRIVER_Tasks

.rodata%263     0x00000000000052f0       0x14
 .rodata        0x00000000000052f0       0x14 c:/applications/microchip/xc32/bin/bin/../../lib/gcc/pic32c/8.3.1/../../../../pic32c/lib/thumb/v6-m/nofp\libpic32c.a(data_init.o)

.text.memcpy%264
                0x0000000000005304       0x14
 .text.memcpy   0x0000000000005304       0x14 c:/applications/microchip/xc32/bin/bin/../../lib/gcc/pic32c/8.3.1/../../../../pic32c/lib/thumb/v6-m/nofp\libc-size-musl.a(memcpy.o)
                0x0000000000005304                memcpy

.text.memset%265
                0x0000000000005318       0x14
 .text.memset   0x0000000000005318       0x14 c:/applications/microchip/xc32/bin/bin/../../lib/gcc/pic32c/8.3.1/../../../../pic32c/lib/thumb/v6-m/nofp\libc-size-musl.a(memset.o)
                0x0000000000005318                memset

.text.NVIC_INT_Disable%266
                0x000000000000532c       0x12
 .text.NVIC_INT_Disable
                0x000000000000532c       0x12 build/default/production/_ext/1865468468/plib_nvic.o
                0x000000000000532c                NVIC_INT_Disable

.text.__dinit_clear%267
                0x000000000000533e       0x12
 .text.__dinit_clear
                0x000000000000533e       0x12 c:/applications/microchip/xc32/bin/bin/../../lib/gcc/pic32c/8.3.1/../../../../pic32c/lib/thumb/v6-m/nofp\libpic32c.a(pic32_data_init_clear.o)
                0x000000000000533e                __dinit_clear
                0x000000000000533e                __dinit_clear_needed

.text.SERCOM0_I2C_ErrorGet%268
                0x0000000000005350       0x10
 .text.SERCOM0_I2C_ErrorGet
                0x0000000000005350       0x10 build/default/production/_ext/508257091/plib_sercom0_i2c_master.o
                0x0000000000005350                SERCOM0_I2C_ErrorGet

.rodata.drvSPI0PlibAPI%269
                0x0000000000005360       0x10
 .rodata.drvSPI0PlibAPI
                0x0000000000005360       0x10 build/default/production/_ext/1171490990/initialization.o

.text.SERCOM3_USART_ErrorGet%270
                0x0000000000005370       0x10
 .text.SERCOM3_USART_ErrorGet
                0x0000000000005370       0x10 build/default/production/_ext/504274921/plib_sercom3_usart.o
                0x0000000000005370                SERCOM3_USART_ErrorGet

.text.SERCOM3_USART_ReadIsBusy%271
                0x0000000000005380       0x10
 .text.SERCOM3_USART_ReadIsBusy
                0x0000000000005380       0x10 build/default/production/_ext/504274921/plib_sercom3_usart.o
                0x0000000000005380                SERCOM3_USART_ReadIsBusy

.text.PM_Initialize%272
                0x0000000000005390       0x10
 .text.PM_Initialize
                0x0000000000005390       0x10 build/default/production/_ext/829342769/plib_pm.o
                0x0000000000005390                PM_Initialize

.text.DMAC_ChannelCallbackRegister%273
                0x00000000000053a0       0x10
 .text.DMAC_ChannelCallbackRegister
                0x00000000000053a0       0x10 build/default/production/_ext/1865161661/plib_dmac.o
                0x00000000000053a0                DMAC_ChannelCallbackRegister

.text.DMAC_ChannelSettingsGet%274
                0x00000000000053b0       0x10
 .text.DMAC_ChannelSettingsGet
                0x00000000000053b0       0x10 build/default/production/_ext/1865161661/plib_dmac.o
                0x00000000000053b0                DMAC_ChannelSettingsGet

.text.TIMER_DRIVER_Stop_TMR0%275
                0x00000000000053c0       0x10
 .text.TIMER_DRIVER_Stop_TMR0
                0x00000000000053c0       0x10 build/default/production/_ext/1360937237/timer_driver.o
                0x00000000000053c0                TIMER_DRIVER_Stop_TMR0

.text.TIMER_DRIVER_Start_TMR1%276
                0x00000000000053d0       0x10
 .text.TIMER_DRIVER_Start_TMR1
                0x00000000000053d0       0x10 build/default/production/_ext/1360937237/timer_driver.o
                0x00000000000053d0                TIMER_DRIVER_Start_TMR1

.text.TIMER_DRIVER_Stop_TMR1%277
                0x00000000000053e0       0x10
 .text.TIMER_DRIVER_Stop_TMR1
                0x00000000000053e0       0x10 build/default/production/_ext/1360937237/timer_driver.o
                0x00000000000053e0                TIMER_DRIVER_Stop_TMR1

.text.TIMER_DRIVER_Start_TMR2%278
                0x00000000000053f0       0x10
 .text.TIMER_DRIVER_Start_TMR2
                0x00000000000053f0       0x10 build/default/production/_ext/1360937237/timer_driver.o
                0x00000000000053f0                TIMER_DRIVER_Start_TMR2

.text.TIMER_DRIVER_Stop_TMR2%279
                0x0000000000005400       0x10
 .text.TIMER_DRIVER_Stop_TMR2
                0x0000000000005400       0x10 build/default/production/_ext/1360937237/timer_driver.o
                0x0000000000005400                TIMER_DRIVER_Stop_TMR2

.text.TIMER_DRIVER_Stop_TMR3%280
                0x0000000000005410       0x10
 .text.TIMER_DRIVER_Stop_TMR3
                0x0000000000005410       0x10 build/default/production/_ext/1360937237/timer_driver.o
                0x0000000000005410                TIMER_DRIVER_Stop_TMR3

.text.__aeabi_fsub%281
                0x0000000000005420       0x10
 .text.__aeabi_fsub
                0x0000000000005420       0x10 c:/applications/microchip/xc32/bin/bin/../../lib/gcc/pic32c/8.3.1/../../../../pic32c/lib/thumb/v6-m/nofp\libm-fast-emfloat.a(__aeabi_fsub.o)
                0x0000000000005420                __aeabi_fsub

.text.main%282  0x0000000000005430        0xe
 .text.main     0x0000000000005430        0xe build/default/production/_ext/1360937237/main.o
                0x0000000000005430                main

.text.lDRV_USART_TX_PLIB_CallbackHandler%283
                0x000000000000543e        0xe
 .text.lDRV_USART_TX_PLIB_CallbackHandler
                0x000000000000543e        0xe build/default/production/_ext/869808652/drv_usart.o

.text.OSC32KCTRL_CallbackRegister%284
                0x000000000000544c        0xc
 .text.OSC32KCTRL_CallbackRegister
                0x000000000000544c        0xc build/default/production/_ext/1984496892/plib_clock.o
                0x000000000000544c                OSC32KCTRL_CallbackRegister

.text.SERCOM0_I2C_CallbackRegister%285
                0x0000000000005458        0xc
 .text.SERCOM0_I2C_CallbackRegister
                0x0000000000005458        0xc build/default/production/_ext/508257091/plib_sercom0_i2c_master.o
                0x0000000000005458                SERCOM0_I2C_CallbackRegister

.text.TC0_TimerCallbackRegister%286
                0x0000000000005464        0xc
 .text.TC0_TimerCallbackRegister
                0x0000000000005464        0xc build/default/production/_ext/829342655/plib_tc0.o
                0x0000000000005464                TC0_TimerCallbackRegister

.rodata.drvUsart0remapError%287
                0x0000000000005470        0xc
 .rodata.drvUsart0remapError
                0x0000000000005470        0xc build/default/production/_ext/1171490990/initialization.o

.rodata.drvUsart0remapStopBits%288
                0x000000000000547c        0xc
 .rodata.drvUsart0remapStopBits
                0x000000000000547c        0xc build/default/production/_ext/1171490990/initialization.o

.rodata.sysConsole0Init%289
                0x0000000000005488        0xc
 .rodata.sysConsole0Init
                0x0000000000005488        0xc build/default/production/_ext/1171490990/initialization.o

.text.SERCOM1_SPI_CallbackRegister%290
                0x0000000000005494        0xc
 .text.SERCOM1_SPI_CallbackRegister
                0x0000000000005494        0xc build/default/production/_ext/17022449/plib_sercom1_spi_master.o
                0x0000000000005494                SERCOM1_SPI_CallbackRegister

.text.SYSTEM_Handler%291
                0x00000000000054a0        0xc
 .text.SYSTEM_Handler
                0x00000000000054a0        0xc build/default/production/_ext/1171490990/interrupts.o

.text.SERCOM3_USART_WriteIsBusy%292
                0x00000000000054ac        0xc
 .text.SERCOM3_USART_WriteIsBusy
                0x00000000000054ac        0xc build/default/production/_ext/504274921/plib_sercom3_usart.o
                0x00000000000054ac                SERCOM3_USART_WriteIsBusy

.text.SERCOM3_USART_WriteCountGet%293
                0x00000000000054b8        0xc
 .text.SERCOM3_USART_WriteCountGet
                0x00000000000054b8        0xc build/default/production/_ext/504274921/plib_sercom3_usart.o
                0x00000000000054b8                SERCOM3_USART_WriteCountGet

.text.SERCOM3_USART_WriteCallbackRegister%294
                0x00000000000054c4        0xc
 .text.SERCOM3_USART_WriteCallbackRegister
                0x00000000000054c4        0xc build/default/production/_ext/504274921/plib_sercom3_usart.o
                0x00000000000054c4                SERCOM3_USART_WriteCallbackRegister

.text.SERCOM3_USART_ReadCountGet%295
                0x00000000000054d0        0xc
 .text.SERCOM3_USART_ReadCountGet
                0x00000000000054d0        0xc build/default/production/_ext/504274921/plib_sercom3_usart.o
                0x00000000000054d0                SERCOM3_USART_ReadCountGet

.text.SERCOM3_USART_ReadCallbackRegister%296
                0x00000000000054dc        0xc
 .text.SERCOM3_USART_ReadCallbackRegister
                0x00000000000054dc        0xc build/default/production/_ext/504274921/plib_sercom3_usart.o
                0x00000000000054dc                SERCOM3_USART_ReadCallbackRegister

.text.NVMCTRL_Initialize%297
                0x00000000000054e8        0xc
 .text.NVMCTRL_Initialize
                0x00000000000054e8        0xc build/default/production/_ext/1593096446/plib_nvmctrl.o
                0x00000000000054e8                NVMCTRL_Initialize

.text.CAN0_InterruptClear%298
                0x00000000000054f4        0xc
 .text.CAN0_InterruptClear
                0x00000000000054f4        0xc build/default/production/_ext/60165182/plib_can0.o
                0x00000000000054f4                CAN0_InterruptClear

.text.RSTC_ResetCauseGet%299
                0x0000000000005500        0xc
 .text.RSTC_ResetCauseGet
                0x0000000000005500        0xc build/default/production/_ext/1865585090/plib_rstc.o
                0x0000000000005500                RSTC_ResetCauseGet

.text.BME690_DRIVER_Alert%300
                0x000000000000550c        0xc
 .text.BME690_DRIVER_Alert
                0x000000000000550c        0xc build/default/production/_ext/1360937237/bme690_driver.o
                0x000000000000550c                BME690_DRIVER_Alert

.text.CONSOLE_DRIVER_Initialize%301
                0x0000000000005518        0xc
 .text.CONSOLE_DRIVER_Initialize
                0x0000000000005518        0xc build/default/production/_ext/1360937237/console_driver.o
                0x0000000000005518                CONSOLE_DRIVER_Initialize

.text.FCM360W_DRIVER_Initialize%302
                0x0000000000005524        0xc
 .text.FCM360W_DRIVER_Initialize
                0x0000000000005524        0xc build/default/production/_ext/1360937237/fcm360w_driver.o
                0x0000000000005524                FCM360W_DRIVER_Initialize

.text.RSTC_DRIVER_Initialize%303
                0x0000000000005530        0xc
 .text.RSTC_DRIVER_Initialize
                0x0000000000005530        0xc build/default/production/_ext/1360937237/rstc_driver.o
                0x0000000000005530                RSTC_DRIVER_Initialize

.text.RTC_DRIVER_XOSC32K_Failure_Callback%304
                0x000000000000553c        0xc
 .text.RTC_DRIVER_XOSC32K_Failure_Callback
                0x000000000000553c        0xc build/default/production/_ext/1360937237/rtc_driver.o
                0x000000000000553c                RTC_DRIVER_XOSC32K_Failure_Callback

.text.TMR0_Callback%305
                0x0000000000005548        0xc
 .text.TMR0_Callback
                0x0000000000005548        0xc build/default/production/_ext/1360937237/timer_driver.o
                0x0000000000005548                TMR0_Callback

.text.TMR1_Callback%306
                0x0000000000005554        0xc
 .text.TMR1_Callback
                0x0000000000005554        0xc build/default/production/_ext/1360937237/timer_driver.o
                0x0000000000005554                TMR1_Callback

.text.TMR2_Callback%307
                0x0000000000005560        0xc
 .text.TMR2_Callback
                0x0000000000005560        0xc build/default/production/_ext/1360937237/timer_driver.o
                0x0000000000005560                TMR2_Callback

.text.TMR3_Callback%308
                0x000000000000556c        0xc
 .text.TMR3_Callback
                0x000000000000556c        0xc build/default/production/_ext/1360937237/timer_driver.o
                0x000000000000556c                TMR3_Callback

.text.TIMER_DRIVER_Get_TMR1_Status%309
                0x0000000000005578        0xc
 .text.TIMER_DRIVER_Get_TMR1_Status
                0x0000000000005578        0xc build/default/production/_ext/1360937237/timer_driver.o
                0x0000000000005578                TIMER_DRIVER_Get_TMR1_Status

.text.TIMER_DRIVER_Set_TMR1_Status%310
                0x0000000000005584        0xc
 .text.TIMER_DRIVER_Set_TMR1_Status
                0x0000000000005584        0xc build/default/production/_ext/1360937237/timer_driver.o
                0x0000000000005584                TIMER_DRIVER_Set_TMR1_Status

.text.TIMER_DRIVER_Get_TMR2_Status%311
                0x0000000000005590        0xc
 .text.TIMER_DRIVER_Get_TMR2_Status
                0x0000000000005590        0xc build/default/production/_ext/1360937237/timer_driver.o
                0x0000000000005590                TIMER_DRIVER_Get_TMR2_Status

.text.XM125_DRIVER_Initialize%312
                0x000000000000559c        0xc
 .text.XM125_DRIVER_Initialize
                0x000000000000559c        0xc build/default/production/_ext/1360937237/xm125_driver.o
                0x000000000000559c                XM125_DRIVER_Initialize

.text.TC0_TimerFrequencyGet%313
                0x00000000000055a8        0x8
 .text.TC0_TimerFrequencyGet
                0x00000000000055a8        0x8 build/default/production/_ext/829342655/plib_tc0.o
                0x00000000000055a8                TC0_TimerFrequencyGet

.rodata.drvSPI0remapClockPhase%314
                0x00000000000055b0        0x8
 .rodata.drvSPI0remapClockPhase
                0x00000000000055b0        0x8 build/default/production/_ext/1171490990/initialization.o

.rodata.drvSPI0remapClockPolarity%315
                0x00000000000055b8        0x8
 .rodata.drvSPI0remapClockPolarity
                0x00000000000055b8        0x8 build/default/production/_ext/1171490990/initialization.o

.rodata.sysTimeInitData%316
                0x00000000000055c0        0x8
 .rodata.sysTimeInitData
                0x00000000000055c0        0x8 build/default/production/_ext/1171490990/initialization.o

.text.TC1_6_Handler%317
                0x00000000000055c8        0x8
 .text.TC1_6_Handler
                0x00000000000055c8        0x8 build/default/production/_ext/1171490990/interrupts.o

.text.TC0_5_Handler%318
                0x00000000000055d0        0x8
 .text.TC0_5_Handler
                0x00000000000055d0        0x8 build/default/production/_ext/1171490990/interrupts.o

.text.SYS_INT_Disable%319
                0x00000000000055d8        0x8
 .text.SYS_INT_Disable
                0x00000000000055d8        0x8 build/default/production/_ext/1881668453/sys_int.o
                0x00000000000055d8                SYS_INT_Disable

.text.SYS_INT_Restore%320
                0x00000000000055e0        0x8
 .text.SYS_INT_Restore
                0x00000000000055e0        0x8 build/default/production/_ext/1881668453/sys_int.o
                0x00000000000055e0                SYS_INT_Restore

.text.SERCOM2_USART_WriteCountGet%321
                0x00000000000055e8        0x8
 .text.SERCOM2_USART_WriteCountGet
                0x00000000000055e8        0x8 build/default/production/_ext/504274921/plib_sercom2_usart.o
                0x00000000000055e8                SERCOM2_USART_WriteCountGet

.rodata.sysConsole0UARTInitData%322
                0x00000000000055f0        0x4
 .rodata.sysConsole0UARTInitData
                0x00000000000055f0        0x4 build/default/production/_ext/1171490990/initialization.o

.text.PORT_GroupSet%323
                0x00000000000055f4        0x4
 .text.PORT_GroupSet
                0x00000000000055f4        0x4 build/default/production/_ext/1865521619/plib_port.o
                0x00000000000055f4                PORT_GroupSet

.text.PORT_GroupClear%324
                0x00000000000055f8        0x4
 .text.PORT_GroupClear
                0x00000000000055f8        0x4 build/default/production/_ext/1865521619/plib_port.o
                0x00000000000055f8                PORT_GroupClear

.text.Console_UART_Flush%325
                0x00000000000055fc        0x4
 .text.Console_UART_Flush
                0x00000000000055fc        0x4 build/default/production/_ext/1832805299/sys_console_uart.o
                0x00000000000055fc                Console_UART_Flush

.text.__dummy_decompress%326
                0x0000000000005600        0x4
 .text.__dummy_decompress
                0x0000000000005600        0x4 c:/applications/microchip/xc32/bin/bin/../../lib/gcc/pic32c/8.3.1/../../../../pic32c/lib/thumb/v6-m/nofp\libpic32c.a(data_init.o)
                0x0000000000005600                __dinit_decompress
                0x0000000000005600                __dinit_copy_val_data
                0x0000000000005600                __dinit_copy_emb

.text%327       0x0000000000005604        0x4
 .text          0x0000000000005604        0x4 c:/applications/microchip/xc32/bin/bin/../../lib/gcc/pic32c/8.3.1/thumb/v6-m/nofp\libgcc.a(_dvmd_tls.o)
                0x0000000000005604                __aeabi_idiv0
                0x0000000000005604                __aeabi_ldiv0

.text.Dummy_Handler%328
                0x000000000000126a        0x2
 .text.Dummy_Handler
                0x000000000000126a        0x2 build/default/production/_ext/1171490990/interrupts.o
                0x000000000000126a                SVCall_Handler
                0x000000000000126a                AC_Handler
                0x000000000000126a                SysTick_Handler
                0x000000000000126a                PendSV_Handler
                0x000000000000126a                TCC1_Handler
                0x000000000000126a                TC2_7_Handler
                0x000000000000126a                TCC0_Handler
                0x000000000000126a                ADC1_Handler
                0x000000000000126a                WDT_Handler
                0x000000000000126a                CAN0_Handler
                0x000000000000126a                TC4_Handler
                0x000000000000126a                TC3_Handler
                0x000000000000126a                Dummy_Handler
                0x000000000000126a                MCRAMC_Handler
                0x000000000000126a                ADC0_Handler
                0x000000000000126a                PDEC_Handler
                0x000000000000126a                TCC2_Handler
                0x000000000000126a                EVSYS_Handler
                0x000000000000126a                NVMCTRL_Handler
                0x000000000000126a                DAC_Handler
                0x000000000000126a                PTC_Handler
                0x000000000000126a                FREQM_Handler
                0x000000000000126a                ICM_Handler

.text.Dummy_App_Func%329
                0x00000000000017ba        0x2
 .text.Dummy_App_Func
                0x00000000000017ba        0x2 build/default/production/_ext/1171490990/startup_xc32.o
                0x00000000000017ba                _on_reset
                0x00000000000017ba                _on_bootstrap
                0x00000000000017ba                __xc32_on_reset
                0x00000000000017ba                Dummy_App_Func
                0x00000000000017ba                __xc32_on_bootstrap

.text.EVSYS_Initialize%330
                0x0000000000001f7e        0x2
 .text.EVSYS_Initialize
                0x0000000000001f7e        0x2 build/default/production/_ext/1986646378/plib_evsys.o
                0x0000000000001f7e                EVSYS_Initialize

.text.Console_UART_Tasks%331
                0x0000000000002c36        0x2
 .text.Console_UART_Tasks
                0x0000000000002c36        0x2 build/default/production/_ext/1832805299/sys_console_uart.o
                0x0000000000002c36                Console_UART_Tasks

.text.NonMaskableInt_Handler%332
                0x0000000000003192        0x2
 .text.NonMaskableInt_Handler
                0x0000000000003192        0x2 build/default/production/_ext/1171490990/exceptions.o
                0x0000000000003192                NonMaskableInt_Handler

.text.HardFault_Handler%333
                0x0000000000003782        0x2
 .text.HardFault_Handler
                0x0000000000003782        0x2 build/default/production/_ext/1171490990/exceptions.o
                0x0000000000003782                HardFault_Handler

.text.FCM360W_DRIVER_Tasks%334
                0x000000000000384a        0x2
 .text.FCM360W_DRIVER_Tasks
                0x000000000000384a        0x2 build/default/production/_ext/1360937237/fcm360w_driver.o
                0x000000000000384a                FCM360W_DRIVER_Tasks

.text.__dummy_init_tls%335
                0x00000000000042fe        0x2
 .text.__dummy_init_tls
                0x00000000000042fe        0x2 c:/applications/microchip/xc32/bin/bin/../../lib/gcc/pic32c/8.3.1/../../../../pic32c/lib/thumb/v6-m/nofp\libpic32c.a(data_init.o)
                0x00000000000042fe                xc32_init_tls

.text.__dummy%336
                0x0000000000004842        0x2
 .text.__dummy  0x0000000000004842        0x2 c:/applications/microchip/xc32/bin/bin/../../lib/gcc/pic32c/8.3.1/../../../../pic32c/lib/thumb/v6-m/nofp\libc-musl.a(__libc_start_main.o)
                0x0000000000004842                __init_stdio
                0x0000000000004842                __init_host
